(dp1
S'output'
p2
S"<type 'exceptions.IOError'> [Errno 21] Is a directory: '/home/mayank/IIIT/sem 3/SSAD&Project/web2py/applications/taship1/views'"
p3
sS'layer'
p4
S'/home/mayank/IIIT/sem 3/SSAD&Project/web2py/applications/admin/controllers/default.py'
p5
sS'code'
p6
S'# coding: utf8\n\nEXPERIMENTAL_STUFF = True\n\nif EXPERIMENTAL_STUFF:\n    is_mobile = request.user_agent().is_mobile\n    if is_mobile:\n        response.view = response.view.replace(\'default/\',\'default.mobile/\')\n        response.menu = []\n\nimport re\nfrom gluon.admin import *\nfrom gluon.fileutils import abspath, read_file, write_file\nfrom gluon.utils import web2py_uuid\nfrom glob import glob\nimport shutil\nimport platform\ntry:                                                                                      \n    from git import *                                                                     \n    have_git = True\nexcept ImportError:                                                                       \n    have_git = False\n    GIT_MISSING = \'requires python-git module, but not installed or incompatible version\'\n\nfrom gluon.languages import (regex_language, read_possible_languages,\n                             lang_sampling,\n                             read_dict, write_dict, read_plural_dict,\n                             write_plural_dict, PLURAL_RULES)\n\n\nif DEMO_MODE and request.function in [\'change_password\',\'pack\',\'pack_plugin\',\'upgrade_web2py\',\'uninstall\',\'cleanup\',\'compile_app\',\'remove_compiled_app\',\'delete\',\'delete_plugin\',\'create_file\',\'upload_file\',\'update_languages\',\'reload_routes\',\'git_push\',\'git_pull\']:\n    session.flash = T(\'disabled in demo mode\')\n    redirect(URL(\'site\'))\n\n\nif not is_manager() and request.function in [\'change_password\',\'upgrade_web2py\']:\n    session.flash = T(\'disabled in multi user mode\')\n    redirect(URL(\'site\'))\n\nif FILTER_APPS and request.args(0) and not request.args(0) in FILTER_APPS:\n    session.flash = T(\'disabled in demo mode\')\n    redirect(URL(\'site\'))\n\n\nif not session.token: session.token = web2py_uuid()\n\ndef count_lines(data):\n    return len([line for line in data.split(\'\\n\') if line.strip() and not line.startswith(\'#\')])\n\ndef log_progress(app,mode=\'EDIT\',filename=None,progress=0):\n    progress_file = os.path.join(apath(app, r=request), \'progress.log\')\n    now = str(request.now)[:19]\n    if not os.path.exists(progress_file):\n        safe_open(progress_file,\'w\').write(\'[%s] START\\n\' % now)\n    if filename:\n        safe_open(progress_file,\'a\').write(\'[%s] %s %s: %s\\n\' % (now,mode,filename,progress))\n\ndef safe_open(a,b):\n    if DEMO_MODE and (\'w\' in b or \'a\' in b):\n        class tmp:\n            def write(self,data): pass\n        return tmp()\n    return open(a,b)\n\ndef safe_read(a, b=\'r\'):\n    safe_file = safe_open(a, b)\n    try:\n        return safe_file.read()\n    finally:\n        safe_file.close()\n\ndef safe_write(a, value, b=\'w\'):\n    safe_file = safe_open(a, b)\n    try:\n        safe_file.write(value)\n    finally:\n        safe_file.close()\n\ndef get_app(name=None):\n    app = name or request.args(0)\n    if app and (not MULTI_USER_MODE or is_manager() or \\\n                    db(db.app.name==app)(db.app.owner==auth.user.id).count()):\n        return app\n    session.flash = T(\'App does not exist or your are not authorized\')\n    redirect(URL(\'site\'))\n\ndef index():\n    """ Index handler """\n\n    send = request.vars.send\n    if DEMO_MODE:\n        session.authorized = True\n        session.last_time = t0\n    if not send:\n        send = URL(\'site\')\n    if session.authorized:\n        redirect(send)\n    elif request.vars.password:\n        if verify_password(request.vars.password):\n            session.authorized = True\n            login_record(True)\n\n            if CHECK_VERSION:\n                session.check_version = True\n            else:\n                session.check_version = False\n\n            session.last_time = t0\n            if isinstance(send, list):  # ## why does this happen?\n                send = str(send[0])\n\n            redirect(send)\n        else:\n            times_denied = login_record(False)\n            if times_denied >= allowed_number_of_attempts:\n                response.flash = \\\n                    T(\'admin disabled because too many invalid login attempts\')\n            elif times_denied == allowed_number_of_attempts - 1:\n                response.flash = \\\n                    T(\'You have one more login attempt before you are locked out\')\n            else:\n                response.flash = T(\'invalid password.\')\n    return dict(send=send)\n\n\ndef check_version():\n    """ Checks if web2py is up to date """\n\n    session.forget()\n    session._unlock(response)\n\n    new_version, version_number = check_new_version(request.env.web2py_version,\n                                    WEB2PY_VERSION_URL)\n\n    if new_version == -1:\n        return A(T(\'Unable to check for upgrades\'), _href=WEB2PY_URL)\n    elif new_version != True:\n        return A(T(\'web2py is up to date\'), _href=WEB2PY_URL)\n    elif platform.system().lower() in (\'windows\',\'win32\',\'win64\') and os.path.exists("web2py.exe"):\n        return SPAN(\'You should upgrade to version %s.%s.%s\' % version_number[:3])\n    else:\n        return sp_button(URL(\'upgrade_web2py\'), T(\'upgrade now\')) \\\n            + XML(\' <strong class="upgrade_version">%s.%s.%s</strong>\' \\\n                      % version_number[:3])\n\ndef logout():\n    """ Logout handler """\n    session.authorized = None\n    if MULTI_USER_MODE:\n        redirect(URL(\'user/logout\'))\n    redirect(URL(\'index\'))\n\n\ndef change_password():\n\n    if session.pam_user:\n        session.flash = T(\'PAM authenticated user, cannot change password here\')\n        redirect(URL(\'site\'))\n    form=SQLFORM.factory(Field(\'current_admin_password\',\'password\'),\n                         Field(\'new_admin_password\',\'password\',requires=IS_STRONG()),\n                         Field(\'new_admin_password_again\',\'password\'))\n    if form.accepts(request.vars):\n        if not verify_password(request.vars.current_admin_password):\n            form.errors.current_admin_password = T(\'invalid password\')\n        elif form.vars.new_admin_password != form.vars.new_admin_password_again:\n            form.errors.new_admin_password_again = T(\'no match\')\n        else:\n            path = abspath(\'parameters_%s.py\' % request.env.server_port)\n            safe_write(path, \'password="%s"\' % CRYPT()(request.vars.new_admin_password)[0])\n            session.flash = T(\'password changed\')\n            redirect(URL(\'site\'))\n    return dict(form=form)\n\n\ndef site():\n    """ Site handler """\n\n    myversion = request.env.web2py_version\n\n    # Shortcut to make the elif statements more legible\n    file_or_appurl = \'file\' in request.vars or \'appurl\' in request.vars\n\n    class IS_VALID_APPNAME(object):\n        def __call__(self,value):\n            if not re.compile(\'\\w+\').match(value):\n                return (value,T(\'Invalid application name\'))\n            if not request.vars.overwrite and \\\n                    os.path.exists(os.path.join(apath(r=request),value)):\n                return (value,T(\'Application exists already\'))\n            return (value,None)\n\n    is_appname = IS_VALID_APPNAME()\n    form_create = SQLFORM.factory(Field(\'name\',requires=is_appname),\n                                  table_name=\'appcreate\')\n    form_update = SQLFORM.factory(Field(\'name\',requires=is_appname),\n                                  Field(\'file\',\'upload\',uploadfield=False),\n                                  Field(\'url\'),\n                                  Field(\'overwrite\',\'boolean\'),\n                                  table_name=\'appupdate\')\n    form_create.process()\n    form_update.process()\n\n    if DEMO_MODE:\n        pass\n\n    elif form_create.accepted:\n        # create a new application\n        appname = cleanpath(form_create.vars.name)\n        created, error = app_create(appname, request,info=True)\n        if created:\n            if MULTI_USER_MODE:\n                db.app.insert(name=appname,owner=auth.user.id)\n            log_progress(appname)\n            session.flash = T(\'new application "%s" created\', appname)\n            redirect(URL(\'design\',args=appname))\n        else:\n            session.flash = \\\n                DIV(T(\'unable to create application "%s"\' % appname),\n                    PRE(error))                      \n        redirect(URL(r=request))\n\n    elif form_update.accepted:\n        if (form_update.vars.url or \'\').endswith(\'.git\'):\n            if not have_git:\n                session.flash = GIT_MISSING\n                redirect(URL(r=request))\n            target = os.path.join(apath(r=request),form_update.vars.name)\n            try:\n                new_repo = Repo.clone_from(form_update.vars.url,target)\n                session.flash = T(\'new application "%s" imported\',\n                                  form_update.vars.name)\n            except GitCommandError, err:\n                session.flash = T(\'Invalid git repository specified.\')\n            redirect(URL(r=request))\n\n        elif form_update.vars.url:\n            # fetch an application via URL or file upload\n            try:\n                f = urllib.urlopen(form_update.vars.url)\n                if f.code == 404:\n                    raise Exception("404 file not found")\n            except Exception, e:\n                session.flash = \\\n                    DIV(T(\'Unable to download app because:\'),PRE(str(e)))\n                redirect(URL(r=request))\n            fname = form_update.vars.url\n            \n        elif form_update.accepted and form_update.vars.file:\n            fname = request.vars.file.filename\n            f = request.vars.file.file\n            \n        else:\n            session.flash = \'No file uploaded and no URL specified\'\n            redirect(URL(r=request))\n\n        if f:\n            appname = cleanpath(form_update.vars.name)\n            installed = app_install(appname, f, \n                                    request, fname,\n                                    overwrite=form_update.vars.overwrite)\n        if f and installed:\n            msg = \'application %(appname)s installed with md5sum: %(digest)s\'\n            if MULTI_USER_MODE:\n                db.app.insert(name=appname,owner=auth.user.id)\n            log_progress(appname)\n            session.flash = T(msg, dict(appname=appname,\n                                        digest=md5_hash(installed)))\n        elif f and form_update.vars.overwrite:\n            msg = \'unable to install application "%(appname)s"\'\n            session.flash = T(msg, dict(appname=form_update.vars.name))\n        else:\n            msg = \'unable to install application "%(appname)s"\'\n            session.flash = T(msg, dict(appname=form_update.vars.name))\n        redirect(URL(r=request))\n\n    regex = re.compile(\'^\\w+$\')\n\n    if is_manager():\n        apps = [f for f in os.listdir(apath(r=request)) if regex.match(f)]\n    else:\n        apps = [f.name for f in db(db.app.owner==auth.user_id).select()]\n\n    if FILTER_APPS:\n        apps = [f for f in apps if f in FILTER_APPS]\n\n    apps = sorted(apps,lambda a,b:cmp(a.upper(),b.upper()))\n\n    return dict(app=None, apps=apps, myversion=myversion, \n                form_create=form_create, form_update=form_update)\n\n\ndef report_progress(app):\n    import datetime\n    progress_file = os.path.join(apath(app, r=request), \'progress.log\')\n    regex = re.compile(\'\\[(.*?)\\][^\\:]+\\:\\s+(\\-?\\d+)\')\n    if not os.path.exists(progress_file):\n        return []\n    matches = regex.findall(open(progress_file,\'r\').read())\n    events,counter = [],0\n    for m in matches:\n        if not m: continue\n        days = -(request.now - datetime.datetime.strptime(m[0],\'%Y-%m-%d %H:%M:%S\')).days\n        counter += int(m[1])\n        events.append([days,counter])\n    return events\n\n\ndef pack():\n    app = get_app()\n\n    try:\n        if len(request.args) == 1:\n            fname = \'web2py.app.%s.w2p\' % app\n            filename = app_pack(app, request, raise_ex=True)\n        else:\n            fname = \'web2py.app.%s.compiled.w2p\' % app\n            filename = app_pack_compiled(app, request, raise_ex=True)\n    except Exception, e:\n        filename = None\n\n    if filename:\n        response.headers[\'Content-Type\'] = \'application/w2p\'\n        disposition = \'attachment; filename=%s\' % fname\n        response.headers[\'Content-Disposition\'] = disposition\n        return safe_read(filename, \'rb\')\n    else:\n        session.flash = T(\'internal error: %s\' % e)\n        redirect(URL(\'site\'))\n\ndef pack_plugin():\n    app = get_app()\n    if len(request.args) == 2:\n        fname = \'web2py.plugin.%s.w2p\' % request.args[1]\n        filename = plugin_pack(app, request.args[1], request)\n    if filename:\n        response.headers[\'Content-Type\'] = \'application/w2p\'\n        disposition = \'attachment; filename=%s\' % fname\n        response.headers[\'Content-Disposition\'] = disposition\n        return safe_read(filename, \'rb\')\n    else:\n        session.flash = T(\'internal error\')\n        redirect(URL(\'plugin\',args=request.args))\n\ndef upgrade_web2py():\n    dialog = FORM.confirm(T(\'Upgrade\'),\n                         {T(\'Cancel\'):URL(\'site\')})    \n    if dialog.accepted:\n        (success, error) = upgrade(request)\n        if success:\n            session.flash = T(\'web2py upgraded; please restart it\')\n        else:\n            session.flash = T(\'unable to upgrade because "%s"\', error)\n        redirect(URL(\'site\'))\n    return dict(dialog=dialog)\n\ndef uninstall():\n    app = get_app()\n\n    dialog = FORM.confirm(T(\'Uninstall\'),\n                         {T(\'Cancel\'):URL(\'site\')})\n    \n    if dialog.accepted:\n        if MULTI_USER_MODE:\n            if is_manager() and db(db.app.name==app).delete():\n                pass\n            elif db(db.app.name==app)(db.app.owner==auth.user.id).delete():\n                pass\n            else:\n                session.flash = T(\'no permission to uninstall "%s"\', app)\n                redirect(URL(\'site\'))\n        if app_uninstall(app, request):\n            session.flash = T(\'application "%s" uninstalled\', app)\n        else:\n            session.flash = T(\'unable to uninstall "%s"\', app)\n        redirect(URL(\'site\'))\n    return dict(app=app, dialog=dialog)\n\n\ndef cleanup():\n    app = get_app()\n    clean = app_cleanup(app, request)\n    if not clean:\n        session.flash = T("some files could not be removed")\n    else:\n        session.flash = T(\'cache, errors and sessions cleaned\')\n\n    redirect(URL(\'site\'))\n\n\ndef compile_app():\n    app = get_app()\n    c = app_compile(app, request)\n    if not c:\n        session.flash = T(\'application compiled\')\n    else:\n        session.flash = DIV(T(\'Cannot compile: there are errors in your app:\'),\n                              CODE(c))\n    redirect(URL(\'site\'))\n\n\ndef remove_compiled_app():\n    """ Remove the compiled application """\n    app = get_app()\n    remove_compiled_application(apath(app, r=request))\n    session.flash = T(\'compiled application removed\')\n    redirect(URL(\'site\'))\n\ndef delete():\n    """ Object delete handler """\n    app = get_app()\n    filename = \'/\'.join(request.args)\n    sender = request.vars.sender\n\n    if isinstance(sender, list):  # ## fix a problem with Vista\n        sender = sender[0]\n\n    if \'nodelete\' in request.vars:\n        redirect(URL(sender, anchor=request.vars.id))\n    elif \'delete\' in request.vars:\n        try:\n            full_path = apath(filename, r=request)\n            lineno = count_lines(open(full_path,\'r\').read())\n            os.unlink(full_path)\n            log_progress(app,\'DELETE\',filename,progress=-lineno)\n            session.flash = T(\'file "%(filename)s" deleted\',\n                              dict(filename=filename))\n        except Exception:\n            session.flash = T(\'unable to delete file "%(filename)s"\',\n                              dict(filename=filename))\n        redirect(URL(sender, anchor=request.vars.id2))\n    return dict(filename=filename, sender=sender)\n\ndef delete():\n    """ Object delete handler """\n    app = get_app()\n    filename = \'/\'.join(request.args)\n    sender = request.vars.sender\n\n    if isinstance(sender, list):  # ## fix a problem with Vista\n        sender = sender[0]\n\n    dialog = FORM.confirm(T(\'Delete\'),\n                         {T(\'Cancel\'):URL(sender, anchor=request.vars.id)})\n\n    if dialog.accepted:\n        try:\n            full_path = apath(filename, r=request)\n            lineno = count_lines(open(full_path,\'r\').read())\n            os.unlink(full_path)\n            log_progress(app,\'DELETE\',filename,progress=-lineno)\n            session.flash = T(\'file "%(filename)s" deleted\',\n                              dict(filename=filename))\n        except Exception:\n            session.flash = T(\'unable to delete file "%(filename)s"\',\n                              dict(filename=filename))\n        redirect(URL(sender, anchor=request.vars.id2))\n    return dict(dialog=dialog,filename=filename)\n\ndef enable():\n    app = get_app()\n    filename = os.path.join(apath(app, r=request),\'DISABLED\')\n    if is_gae:\n        return SPAN(T(\'Not supported\'),_style=\'color:yellow\')\n    elif os.path.exists(filename):\n        os.unlink(filename)\n        return SPAN(T(\'Disable\'),_style=\'color:green\')\n    else:\n        safe_open(filename,\'wb\').write(time.ctime())\n        return SPAN(T(\'Enable\'),_style=\'color:red\')\n\ndef peek():\n    """ Visualize object code """\n    app = get_app(request.vars.app)\n    filename = \'/\'.join(request.args)\n    if request.vars.app:\n        path = abspath(filename)\n    else:\n        path = apath(filename, r=request)\n    try:\n        data = safe_read(path).replace(\'\\r\',\'\')\n    except IOError:\n        session.flash = T(\'file does not exist\')\n        redirect(URL(\'site\'))\n\n    extension = filename[filename.rfind(\'.\') + 1:].lower()\n\n    return dict(app=app,\n                filename=filename,\n                data=data,\n                extension=extension)\n\ndef test():\n    """ Execute controller tests """\n    app = get_app()\n    if len(request.args) > 1:\n        file = request.args[1]\n    else:\n        file = \'.*\\.py\'\n\n    controllers = listdir(apath(\'%s/controllers/\' % app, r=request), file + \'$\')\n\n    return dict(app=app, controllers=controllers)\n\ndef keepalive():\n    return \'\'\n\ndef search():\n    keywords=request.vars.keywords or \'\'\n    app = get_app()\n    def match(filename,keywords):\n        filename=os.path.join(apath(app, r=request),filename)\n        if keywords in read_file(filename,\'rb\'):\n            return True\n        return False\n    path = apath(request.args[0], r=request)\n    files1 = glob(os.path.join(path,\'*/*.py\'))\n    files2 = glob(os.path.join(path,\'*/*.html\'))\n    files3 = glob(os.path.join(path,\'*/*/*.html\'))\n    files=[x[len(path)+1:].replace(\'\\\\\',\'/\') for x in files1+files2+files3 if match(x,keywords)]\n    return response.json(dict(files=files, message=T.M(\'Searching: **%s** %%{file}\', len(files))))\n\ndef edit():\n    """ File edit handler """\n    # Load json only if it is ajax edited...\n    app = get_app(request.vars.app)\n    filename = \'/\'.join(request.args)\n    if request.vars.app:\n        path = abspath(filename)\n    else:\n        path = apath(filename, r=request)\n     # Try to discover the file type\n    if filename[-3:] == \'.py\':\n        filetype = \'python\'\n    elif filename[-5:] == \'.html\':\n        filetype = \'html\'\n    elif filename[-5:] == \'.load\':\n        filetype = \'html\'\n    elif filename[-4:] == \'.css\':\n        filetype = \'css\'\n    elif filename[-3:] == \'.js\':\n        filetype = \'js\'\n    else:\n        filetype = \'html\'\n\n    # ## check if file is not there\n    if (\'revert\' in request.vars) and os.path.exists(path + \'.bak\'):\n        try:\n            data = safe_read(path + \'.bak\')\n            data1 = safe_read(path)\n        except IOError:\n            session.flash = T(\'Invalid action\')\n            if \'from_ajax\' in request.vars:\n                 return response.json({\'error\': str(T(\'Invalid action\'))})\n            else:\n                redirect(URL(\'site\'))\n\n        safe_write(path, data)\n        file_hash = md5_hash(data)\n        saved_on = time.ctime(os.stat(path)[stat.ST_MTIME])\n        safe_write(path + \'.bak\', data1)\n        response.flash = T(\'file "%s" of %s restored\', (filename, saved_on))\n    else:\n        try:\n            data = safe_read(path)\n        except IOError:\n            session.flash = T(\'Invalid action\')\n            if \'from_ajax\' in request.vars:\n                return response.json({\'error\': str(T(\'Invalid action\'))})\n            else:\n                redirect(URL(\'site\'))\n\n        lineno_old = count_lines(data)\n        file_hash = md5_hash(data)\n        saved_on = time.ctime(os.stat(path)[stat.ST_MTIME])\n\n        if request.vars.file_hash and request.vars.file_hash != file_hash:\n            session.flash = T(\'file changed on disk\')\n            data = request.vars.data.replace(\'\\r\\n\', \'\\n\').strip() + \'\\n\'\n            safe_write(path + \'.1\', data)\n            if \'from_ajax\' in request.vars:\n                return response.json({\'error\': str(T(\'file changed on disk\')),\n                                      \'redirect\': URL(\'resolve\',\n                                                      args=request.args)})\n            else:\n                redirect(URL(\'resolve\', args=request.args))\n        elif request.vars.data:\n            safe_write(path + \'.bak\', data)\n            data = request.vars.data.replace(\'\\r\\n\', \'\\n\').strip() + \'\\n\'\n            safe_write(path, data)\n            lineno_new = count_lines(data)\n            log_progress(app,\'EDIT\',filename,progress=lineno_new-lineno_old)\n            file_hash = md5_hash(data)\n            saved_on = time.ctime(os.stat(path)[stat.ST_MTIME])\n            response.flash = T(\'file saved on %s\', saved_on)\n\n    data_or_revert = (request.vars.data or request.vars.revert)\n\n    # Check compile errors\n    highlight = None\n    if filetype == \'python\' and request.vars.data:\n        import _ast\n        try:\n            code = request.vars.data.rstrip().replace(\'\\r\\n\',\'\\n\')+\'\\n\'\n            compile(code, path, "exec", _ast.PyCF_ONLY_AST)\n        except Exception, e:\n            start = sum([len(line)+1 for l, line\n                            in enumerate(request.vars.data.split("\\n"))\n                            if l < e.lineno-1])\n            if e.text and e.offset:\n                offset = e.offset - (len(e.text) - len(e.text.splitlines()[-1]))\n            else:\n                offset = 0\n            highlight = {\'start\': start, \'end\': start + offset + 1, \'lineno\': e.lineno}\n            try:\n                ex_name = e.__class__.__name__\n            except:\n                ex_name = \'unknown exception!\'\n            response.flash = DIV(T(\'failed to compile file because:\'), BR(),\n                                 B(ex_name), \' \'+T(\'at line %s\', e.lineno),\n                                 offset and \' \'+T(\'at char %s\', offset) or \'\',\n                                 PRE(str(e)))\n\n    if data_or_revert and request.args[1] == \'modules\':\n        # Lets try to reload the modules\n        try:\n            mopath = \'.\'.join(request.args[2:])[:-3]\n            exec \'import applications.%s.modules.%s\' % (request.args[0], mopath)\n            reload(sys.modules[\'applications.%s.modules.%s\'\n                    % (request.args[0], mopath)])\n        except Exception, e:\n            response.flash = DIV(T(\'failed to reload module because:\'),PRE(str(e)))\n\n    edit_controller = None\n    editviewlinks = None\n    view_link = None\n    if filetype == \'html\' and len(request.args) >= 3:\n        cfilename = os.path.join(request.args[0], \'controllers\',\n                                 request.args[2] + \'.py\')\n        if os.path.exists(apath(cfilename, r=request)):\n            edit_controller = URL(\'edit\', args=[cfilename])\n            view = request.args[3].replace(\'.html\',\'\')\n            view_link = URL(request.args[0],request.args[2],view)\n    elif filetype == \'python\' and request.args[1] == \'controllers\':\n        ## it\'s a controller file.\n        ## Create links to all of the associated view files.\n        app = get_app()\n        viewname = os.path.splitext(request.args[2])[0]\n        viewpath = os.path.join(app,\'views\',viewname)\n        aviewpath = apath(viewpath, r=request)\n        viewlist = []\n        if os.path.exists(aviewpath):\n            if os.path.isdir(aviewpath):\n                viewlist = glob(os.path.join(aviewpath,\'*.html\'))\n        elif os.path.exists(aviewpath+\'.html\'):\n            viewlist.append(aviewpath+\'.html\')\n        if len(viewlist):\n            editviewlinks = []\n            for v in viewlist:\n                vf = os.path.split(v)[-1]\n                vargs = "/".join([viewpath.replace(os.sep,"/"),vf])\n                editviewlinks.append(A(vf.split(".")[0],\\\n                    _href=URL(\'edit\',args=[vargs])))\n\n    if len(request.args) > 2 and request.args[1] == \'controllers\':\n        controller = (request.args[2])[:-3]\n        functions = regex_expose.findall(data)\n    else:\n        (controller, functions) = (None, None)\n\n    if \'from_ajax\' in request.vars:\n        return response.json({\'file_hash\': file_hash, \'saved_on\': saved_on, \'functions\':functions, \'controller\': controller, \'application\': request.args[0], \'highlight\': highlight })\n    else:\n\n        editarea_preferences = {}\n        editarea_preferences[\'FONT_SIZE\'] = \'10\'\n        editarea_preferences[\'FULL_SCREEN\'] = \'false\'\n        editarea_preferences[\'ALLOW_TOGGLE\'] = \'true\'\n        editarea_preferences[\'REPLACE_TAB_BY_SPACES\'] = \'4\'\n        editarea_preferences[\'DISPLAY\'] = \'onload\'\n        for key in editarea_preferences:\n            if globals().has_key(key):\n                editarea_preferences[key]=globals()[key]\n        return dict(app=request.args[0],\n                    filename=filename,\n                    filetype=filetype,\n                    data=data,\n                    edit_controller=edit_controller,\n                    file_hash=file_hash,\n                    saved_on=saved_on,\n                    controller=controller,\n                    functions=functions,\n                    view_link=view_link,\n                    editarea_preferences=editarea_preferences,\n                    editviewlinks=editviewlinks)\n\ndef resolve():\n    """\n    """\n\n    filename = \'/\'.join(request.args)\n    # ## check if file is not there\n    path = apath(filename, r=request)\n    a = safe_read(path).split(\'\\n\')\n    try:\n        b = safe_read(path + \'.1\').split(\'\\n\')\n    except IOError:\n        session.flash = \'Other file, no longer there\'\n        redirect(URL(\'edit\', args=request.args))\n\n    d = difflib.ndiff(a, b)\n\n    def leading(line):\n        """  """\n\n        # TODO: we really need to comment this\n        z = \'\'\n        for (k, c) in enumerate(line):\n            if c == \' \':\n                z += \'&nbsp;\'\n            elif c == \' \\t\':\n                z += \'&nbsp;\'\n            elif k == 0 and c == \'?\':\n                pass\n            else:\n                break\n\n        return XML(z)\n\n    def getclass(item):\n        """ Determine item class """\n\n        if item[0] == \' \':\n            return \'normal\'\n        if item[0] == \'+\':\n            return \'plus\'\n        if item[0] == \'-\':\n            return \'minus\'\n\n    if request.vars:\n        c = \'\\n\'.join([item[2:].rstrip() for (i, item) in enumerate(d) if item[0] \\\n                           == \' \' or \'line%i\' % i in request.vars])\n        safe_write(path, c)\n        session.flash = \'files merged\'\n        redirect(URL(\'edit\', args=request.args))\n    else:\n        # Making the short circuit compatible with <= python2.4\n        gen_data = lambda index,item: not item[:1] in [\'+\',\'-\'] and "" \\\n                   or INPUT(_type=\'checkbox\',\n                            _name=\'line%i\' % index,\n                            value=item[0] == \'+\')\n\n        diff = TABLE(*[TR(TD(gen_data(i,item)),\n                          TD(item[0]),\n                          TD(leading(item[2:]),\n                          TT(item[2:].rstrip())), _class=getclass(item))\n                       for (i, item) in enumerate(d) if item[0] != \'?\'])\n\n    return dict(diff=diff, filename=filename)\n\n\ndef edit_language():\n    """ Edit language file """\n    app = get_app()\n    filename = \'/\'.join(request.args)\n    strings = read_dict(apath(filename, r=request))\n\n    if \'__corrupted__\' in strings:\n       form = SPAN(strings[\'__corrupted__\'],_class=\'error\')\n       return dict(filename=filename, form=form)\n\n    keys = sorted(strings.keys(),lambda x,y: cmp(unicode(x,\'utf-8\').lower(), unicode(y,\'utf-8\').lower()))\n    rows = []\n    rows.append(H2(T(\'Original/Translation\')))\n\n    for key in keys:\n        name = md5_hash(key)\n        s = strings[key]\n        (prefix, sep, key) = key.partition(\'\\x01\')\n        if sep:\n            prefix = SPAN(prefix+\': \', _class=\'tm_ftag\')\n            k = key\n        else:\n            (k, prefix) = (prefix, \'\')\n\n        _class=\'untranslated\' if k==s else \'translated\'\n\n        if len(key) <= 40:\n            elem = INPUT(_type=\'text\', _name=name, value=s,\n                         _size=70,_class=_class)\n        else:\n            elem = TEXTAREA(_name=name, value=s, _cols=70,\n                            _rows=5, _class=_class)\n\n        # Making the short circuit compatible with <= python2.4\n        k = (s != k) and k or B(k)\n\n        rows.append(P(prefix, k, BR(), elem, TAG.BUTTON(T(\'delete\'),\n                            _onclick=\'return delkey("%s")\' % name), _id=name))\n\n    rows.append(INPUT(_type=\'submit\', _value=T(\'update\')))\n    form = FORM(*rows)\n    if form.accepts(request.vars, keepvalues=True):\n        strs = dict()\n        for key in keys:\n            name = md5_hash(key)\n            if form.vars[name]==chr(127): continue\n            strs[key] = form.vars[name]\n        write_dict(apath(filename, r=request), strs)\n        session.flash = T(\'file saved on %(time)s\', dict(time=time.ctime()))\n        redirect(URL(r=request,args=request.args))\n    return dict(app=request.args[0], filename=filename, form=form)\n\ndef edit_plurals():\n    """ Edit plurals file """\n    #import ipdb; ipdb.set_trace()\n    app = get_app()\n    filename = \'/\'.join(request.args)\n    plurals = read_plural_dict(apath(filename, r=request)) # plural forms dictionary\n    nplurals = int(request.vars.nplurals)-1 # plural forms quantity\n    xnplurals = xrange(nplurals)\n\n    if \'__corrupted__\' in plurals:\n       # show error message and exit\n       form = SPAN(plurals[\'__corrupted__\'],_class=\'error\')\n       return dict(filename=filename, form=form)\n\n    keys = sorted(plurals.keys(),lambda x,y: cmp(unicode(x,\'utf-8\').lower(), unicode(y,\'utf-8\').lower()))\n    rows = []\n\n    row=[T("Singular Form")]\n    row.extend([T("Plural Form #%s", n+1) for n in xnplurals])\n    table=TABLE(THEAD(TR(row)))\n\n    for key in keys:\n        name = md5_hash(key)\n        forms = plurals[key]\n\n        if len(forms) < nplurals:\n            forms.extend(None for i in xrange(nplurals-len(forms)))\n\n        row = [B(key)]\n        row.extend([INPUT(_type=\'text\', _name=name+\'_\'+str(n), value=forms[n], _size=20) for n in xnplurals])\n        row.append(TD(TAG.BUTTON(T(\'delete\'), _onclick=\'return delkey("%s")\' % name)))\n        rows.append(TR(row, _id=name))\n    if rows:\n        table.append(TBODY(rows))\n    rows=[table, INPUT(_type=\'submit\', _value=T(\'update\'))]\n    form = FORM(*rows)\n    if form.accepts(request.vars, keepvalues=True):\n        new_plurals = dict()\n        for key in keys:\n            name = md5_hash(key)\n            if form.vars[name+\'_0\']==chr(127): continue\n            new_plurals[key] = [form.vars[name+\'_\'+str(n)] for n in xnplurals]\n        write_plural_dict(apath(filename, r=request), new_plurals)\n        session.flash = T(\'file saved on %(time)s\', dict(time=time.ctime()))\n        redirect(URL(r=request, args=request.args, vars=dict(nplurals=request.vars.nplurals)))\n    return dict(app=request.args[0], filename=filename, form=form)\n\n\ndef about():\n    """ Read about info """\n    app = get_app()\n    # ## check if file is not there\n    about = safe_read(apath(\'%s/ABOUT\' % app, r=request))\n    license = safe_read(apath(\'%s/LICENSE\' % app, r=request))\n    return dict(app=app, about=MARKMIN(about), license=MARKMIN(license),progress=report_progress(app))\n\n\ndef design():\n    """ Application design handler """\n    app = get_app()\n\n    if not response.flash and app == request.application:\n        msg = T(\'ATTENTION: you cannot edit the running application!\')\n        response.flash = msg\n\n    if request.vars and not request.vars.token==session.token:\n        redirect(URL(\'logout\'))\n\n    if request.vars.pluginfile!=None and not isinstance(request.vars.pluginfile,str):\n        filename=os.path.basename(request.vars.pluginfile.filename)\n        if plugin_install(app, request.vars.pluginfile.file,\n                          request, filename):\n            session.flash = T(\'new plugin installed\')\n            redirect(URL(\'design\',args=app))\n        else:\n            session.flash = \\\n                T(\'unable to create application "%s"\', request.vars.filename)\n        redirect(URL(r=request))\n    elif isinstance(request.vars.pluginfile,str):\n        session.flash = T(\'plugin not specified\')\n        redirect(URL(r=request))\n\n\n    # If we have only pyc files it means that\n    # we cannot design\n    if os.path.exists(apath(\'%s/compiled\' % app, r=request)):\n        session.flash = \\\n            T(\'application is compiled and cannot be designed\')\n        redirect(URL(\'site\'))\n\n    # Get all models\n    models = listdir(apath(\'%s/models/\' % app, r=request), \'.*\\.py$\')\n    models=[x.replace(\'\\\\\',\'/\') for x in models]\n    defines = {}\n    for m in models:\n        data = safe_read(apath(\'%s/models/%s\' % (app, m), r=request))\n        defines[m] = regex_tables.findall(data)\n        defines[m].sort()\n\n    # Get all controllers\n    controllers = sorted(listdir(apath(\'%s/controllers/\' % app, r=request), \'.*\\.py$\'))\n    controllers = [x.replace(\'\\\\\',\'/\') for x in controllers]\n    functions = {}\n    for c in controllers:\n        data = safe_read(apath(\'%s/controllers/%s\' % (app, c), r=request))\n        items = regex_expose.findall(data)\n        functions[c] = items\n\n    # Get all views\n    views = sorted(listdir(apath(\'%s/views/\' % app, r=request), \'[\\w/\\-]+(\\.\\w+)+$\'))\n    views = [x.replace(\'\\\\\',\'/\') for x in views if not x.endswith(\'.bak\')]\n    extend = {}\n    include = {}\n    for c in views:\n        data = safe_read(apath(\'%s/views/%s\' % (app, c), r=request))\n        items = regex_extend.findall(data)\n\n        if items:\n            extend[c] = items[0][1]\n\n        items = regex_include.findall(data)\n        include[c] = [i[1] for i in items]\n\n    # Get all modules\n    modules = listdir(apath(\'%s/modules/\' % app, r=request), \'.*\\.py$\')\n    modules = modules=[x.replace(\'\\\\\',\'/\') for x in modules]\n    modules.sort()\n\n    # Get all private files\n    privates = listdir(apath(\'%s/private/\' % app, r=request), \'[^\\.#].*\')\n    privates = [x.replace(\'\\\\\',\'/\') for x in privates]\n    privates.sort()\n\n    # Get all static files\n    statics = listdir(apath(\'%s/static/\' % app, r=request), \'[^\\.#].*\')\n    statics = [x.replace(\'\\\\\',\'/\') for x in statics]\n    statics.sort()\n\n    # Get all languages\n    all_languages=dict([(lang+\'.py\',info[0]) for lang,info\n                        in read_possible_languages(apath(app, r=request)).iteritems()\n                        if info[2]!=0]) # info[2] is langfile_mtime:\n                                        # get only existed files\n    languages = sorted(all_languages)\n\n    plural_rules = {}\n    all_plurals = PLURAL_RULES\n    for langfile,lang in all_languages.iteritems():\n        lang=lang.strip()\n        match_language = regex_language.match(lang)\n        if match_language:\n            match_language = tuple(part\n                                   for part in match_language.groups()\n                                   if part)\n            plang = lang_sampling(match_language, all_plurals.keys())\n            if plang:\n               plural=all_plurals[plang]\n               plural_rules[langfile]=(plural[0],plang,plural[4],plural[3])\n            else:\n               plural_rules[langfile]=(0,lang,\'plural_rules-%s.py\'%lang,\'\')\n\n    plurals = listdir(apath(\'%s/languages/\' % app, r=request),\n                      \'^plural-[\\w-]+\\.py$\')\n\n    #Get crontab\n    cronfolder = apath(\'%s/cron\' % app, r=request)\n    if not os.path.exists(cronfolder): os.mkdir(cronfolder)\n    crontab = apath(\'%s/cron/crontab\' % app, r=request)\n    if not os.path.exists(crontab):\n        safe_write(crontab, \'#crontab\')\n\n    plugins=[]\n    def filter_plugins(items,plugins):\n        plugins+=[item[7:].split(\'/\')[0].split(\'.\')[0] for item in items if item.startswith(\'plugin_\')]\n        plugins[:]=list(set(plugins))\n        plugins.sort()\n        return [item for item in items if not item.startswith(\'plugin_\')]\n\n    return dict(app=app,\n                models=filter_plugins(models,plugins),\n                defines=defines,\n                controllers=filter_plugins(controllers,plugins),\n                functions=functions,\n                views=filter_plugins(views,plugins),\n                modules=filter_plugins(modules,plugins),\n                extend=extend,\n                include=include,\n                privates=filter_plugins(privates,plugins),\n                statics=filter_plugins(statics,plugins),\n                languages=languages,\n                plurals=plurals,\n                plural_rules=plural_rules,\n                crontab=crontab,\n                plugins=plugins)\n\ndef delete_plugin():\n    """ Object delete handler """\n    app=request.args(0)\n    plugin = request.args(1)\n    plugin_name=\'plugin_\'+plugin\n\n    dialog = FORM.confirm(\n        T(\'Delete\'),\n        {T(\'Cancel\'):URL(\'design\', args=app)})\n\n    if dialog.accepted:\n        try:\n            for folder in [\'models\',\'views\',\'controllers\',\'static\',\'modules\', \'private\']:\n                path=os.path.join(apath(app,r=request),folder)\n                for item in os.listdir(path):\n                    if item.rsplit(\'.\',1)[0] == plugin_name:\n                        filename=os.path.join(path,item)\n                        if os.path.isdir(filename):\n                            shutil.rmtree(filename)\n                        else:\n                            os.unlink(filename)\n            session.flash = T(\'plugin "%(plugin)s" deleted\',\n                              dict(plugin=plugin))\n        except Exception:\n            session.flash = T(\'unable to delete file plugin "%(plugin)s"\',\n                              dict(plugin=plugin))\n        redirect(URL(\'design\', args=request.args(0), anchor=request.vars.id2))\n    return dict(dialog=dialog,plugin=plugin)\n\ndef plugin():\n    """ Application design handler """\n    app = get_app()\n    plugin = request.args(1)\n\n    if not response.flash and app == request.application:\n        msg = T(\'ATTENTION: you cannot edit the running application!\')\n        response.flash = msg\n\n    # If we have only pyc files it means that\n    # we cannot design\n    if os.path.exists(apath(\'%s/compiled\' % app, r=request)):\n        session.flash = \\\n            T(\'application is compiled and cannot be designed\')\n        redirect(URL(\'site\'))\n\n    # Get all models\n    models = listdir(apath(\'%s/models/\' % app, r=request), \'.*\\.py$\')\n    models=[x.replace(\'\\\\\',\'/\') for x in models]\n    defines = {}\n    for m in models:\n        data = safe_read(apath(\'%s/models/%s\' % (app, m), r=request))\n        defines[m] = regex_tables.findall(data)\n        defines[m].sort()\n\n    # Get all controllers\n    controllers = sorted(listdir(apath(\'%s/controllers/\' % app, r=request), \'.*\\.py$\'))\n    controllers = [x.replace(\'\\\\\',\'/\') for x in controllers]\n    functions = {}\n    for c in controllers:\n        data = safe_read(apath(\'%s/controllers/%s\' % (app, c), r=request))\n        items = regex_expose.findall(data)\n        functions[c] = items\n\n    # Get all views\n    views = sorted(listdir(apath(\'%s/views/\' % app, r=request), \'[\\w/\\-]+\\.\\w+$\'))\n    views = [x.replace(\'\\\\\',\'/\') for x in views]\n    extend = {}\n    include = {}\n    for c in views:\n        data = safe_read(apath(\'%s/views/%s\' % (app, c), r=request))\n        items = regex_extend.findall(data)\n        if items:\n            extend[c] = items[0][1]\n\n        items = regex_include.findall(data)\n        include[c] = [i[1] for i in items]\n\n    # Get all modules\n    modules = listdir(apath(\'%s/modules/\' % app, r=request), \'.*\\.py$\')\n    modules = modules=[x.replace(\'\\\\\',\'/\') for x in modules]\n    modules.sort()\n\n    # Get all private files\n    privates = listdir(apath(\'%s/private/\' % app, r=request), \'[^\\.#].*\')\n    privates = [x.replace(\'\\\\\',\'/\') for x in privates]\n    privates.sort()\n\n    # Get all static files\n    statics = listdir(apath(\'%s/static/\' % app, r=request), \'[^\\.#].*\')\n    statics = [x.replace(\'\\\\\',\'/\') for x in statics]\n    statics.sort()\n\n    # Get all languages\n    languages = sorted([lang+\'.py\' for lang, info in\n                    T.get_possible_languages_info().iteritems()\n                    if info[2]!=0]) # info[2] is langfile_mtime:\n                                    # get only existed files\n\n    #Get crontab\n    crontab = apath(\'%s/cron/crontab\' % app, r=request)\n    if not os.path.exists(crontab):\n        safe_write(crontab, \'#crontab\')\n\n    def filter_plugins(items):\n        regex=re.compile(\'^plugin_\'+plugin+\'(/.*|\\..*)?$\')\n        return [item for item in items if item and regex.match(item)]\n\n    return dict(app=app,\n                models=filter_plugins(models),\n                defines=defines,\n                controllers=filter_plugins(controllers),\n                functions=functions,\n                views=filter_plugins(views),\n                modules=filter_plugins(modules),\n                extend=extend,\n                include=include,\n                privates=filter_plugins(privates),\n                statics=filter_plugins(statics),\n                languages=languages,\n                crontab=crontab)\n\n\ndef create_file():\n    """ Create files handler """\n    if request.vars and not request.vars.token==session.token:\n        redirect(URL(\'logout\'))\n    try:\n        anchor=\'#\'+request.vars.id if request.vars.id else \'\'\n        if request.vars.app:\n            app = get_app(request.vars.app)\n            path = abspath(request.vars.location)\n        else:\n            app = get_app(name=request.vars.location.split(\'/\')[0])\n            path = apath(request.vars.location, r=request)\n        filename = re.sub(\'[^\\w./-]+\', \'_\', request.vars.filename)\n        if path[-7:] == \'/rules/\':\n            # Handle plural rules files\n            if len(filename) == 0:\n                raise SyntaxError\n            if not filename[-3:] == \'.py\':\n                filename += \'.py\'\n            lang = re.match(\'^plural_rules-(.*)\\.py$\',filename).group(1)\n            langinfo = read_possible_languages(apath(app, r=request))[lang]\n            text = dedent("""\n                   #!/usr/bin/env python\n                   # -*- coding: utf8 -*-\n                   # Plural-Forms for %(lang)s (%(langname)s)\n\n                   nplurals=2  # for example, English language has 2 forms:\n                               # 1 singular and 1 plural\n\n                   # Determine plural_id for number *n* as sequence of positive\n                   # integers: 0,1,...\n                   # NOTE! For singular form ALWAYS return plural_id = 0\n                   get_plural_id = lambda n: int(n != 1)\n\n                   # Construct and return plural form of *word* using\n                   # *plural_id* (which ALWAYS>0). This function will be executed\n                   # for words (or phrases) not found in plural_dict dictionary.\n                   # By default this function simply returns word in singular:\n                   construct_plural_form = lambda word, plural_id: word\n                   """)[1:] % dict(lang=langinfo[0], langname=langinfo[1])\n\n        elif path[-11:] == \'/languages/\':\n            # Handle language files\n            if len(filename) == 0:\n                raise SyntaxError\n            if not filename[-3:] == \'.py\':\n                filename += \'.py\'\n            path=os.path.join(apath(app, r=request),\'languages\',filename)\n            if not os.path.exists(path):\n                safe_write(path, \'\')\n            # create language xx[-yy].py file:\n            findT(apath(app, r=request), filename[:-3])\n            session.flash = T(\'language file "%(filename)s" created/updated\',\n                               dict(filename=filename))\n            redirect(request.vars.sender+anchor)\n\n        elif path[-8:] == \'/models/\':\n            # Handle python models\n            if not filename[-3:] == \'.py\':\n                filename += \'.py\'\n\n            if len(filename) == 3:\n                raise SyntaxError\n\n            text = \'# coding: utf8\\n\'\n\n        elif path[-13:] == \'/controllers/\':\n            # Handle python controllers\n            if not filename[-3:] == \'.py\':\n                filename += \'.py\'\n\n            if len(filename) == 3:\n                raise SyntaxError\n\n            text = \'# coding: utf8\\n# %s\\ndef index(): return dict(message="hello from %s")\'\n            text = text % (T(\'try something like\'), filename)\n\n        elif path[-7:] == \'/views/\':\n            if request.vars.plugin and not filename.startswith(\'plugin_%s/\' % request.vars.plugin):\n                filename = \'plugin_%s/%s\' % (request.vars.plugin, filename)\n            # Handle template (html) views\n            if filename.find(\'.\')<0:\n                filename += \'.html\'\n            extension = filename.split(\'.\')[-1].lower()\n\n            if len(filename) == 5:\n                raise SyntaxError\n\n            msg = T(\'This is the %(filename)s template\', dict(filename=filename))\n            if extension == \'html\':\n                text = dedent("""\n                   {{extend \'layout.html\'}}\n                   <h1>%s</h1>\n                   {{=BEAUTIFY(response._vars)}}""" % msg)[1:]\n            else:\n                generic = os.path.join(path,\'generic.\'+extension)\n                if os.path.exists(generic):\n                    text = read_file(generic)\n                else:\n                    text = \'\'\n\n        elif path[-9:] == \'/modules/\':\n            if request.vars.plugin and not filename.startswith(\'plugin_%s/\' % request.vars.plugin):\n                filename = \'plugin_%s/%s\' % (request.vars.plugin, filename)\n            # Handle python module files\n            if not filename[-3:] == \'.py\':\n                filename += \'.py\'\n\n            if len(filename) == 3:\n                raise SyntaxError\n\n            text = dedent("""\n                   #!/usr/bin/env python\n                   # coding: utf8\n                   from gluon import *\\n""")[1:]\n\n        elif (path[-8:] == \'/static/\') or (path[-9:] == \'/private/\'):\n            if request.vars.plugin and not filename.startswith(\'plugin_%s/\' % request.vars.plugin):\n                filename = \'plugin_%s/%s\' % (request.vars.plugin, filename)\n            text = \'\'\n            \n        else:\n            redirect(request.vars.sender+anchor)\n\n        full_filename = os.path.join(path, filename)\n        dirpath = os.path.dirname(full_filename)\n\n        if not os.path.exists(dirpath):\n            os.makedirs(dirpath)\n\n        if os.path.exists(full_filename):\n            raise SyntaxError\n\n        safe_write(full_filename, text)\n        log_progress(app,\'CREATE\',filename)\n        session.flash = T(\'file "%(filename)s" created\',\n                          dict(filename=full_filename[len(path):]))\n        vars={}\n        if request.vars.id: vars[\'id\']=request.vars.id\n        if request.vars.app: vars[\'app\']=request.vars.app\n        redirect(URL(\'edit\',\n                 args=[os.path.join(request.vars.location, filename)], vars=vars))\n    except Exception, e:\n        if not isinstance(e,HTTP):\n            session.flash = T(\'cannot create file\')\n\n    redirect(request.vars.sender+anchor)\n\n\ndef upload_file():\n    """ File uploading handler """\n    if request.vars and not request.vars.token==session.token:\n        redirect(URL(\'logout\'))\n    try:\n        filename = None\n        app = get_app(name=request.vars.location.split(\'/\')[0])\n        path = apath(request.vars.location, r=request)\n\n        if request.vars.filename:\n            filename = re.sub(\'[^\\w\\./]+\', \'_\', request.vars.filename)\n        else:\n            filename = os.path.split(request.vars.file.filename)[-1]\n\n        if path[-8:] == \'/models/\' and not filename[-3:] == \'.py\':\n            filename += \'.py\'\n\n        if path[-9:] == \'/modules/\' and not filename[-3:] == \'.py\':\n            filename += \'.py\'\n\n        if path[-13:] == \'/controllers/\' and not filename[-3:] == \'.py\':\n            filename += \'.py\'\n\n        if path[-7:] == \'/views/\' and not filename[-5:] == \'.html\':\n            filename += \'.html\'\n\n        if path[-11:] == \'/languages/\' and not filename[-3:] == \'.py\':\n            filename += \'.py\'\n\n        filename = os.path.join(path, filename)\n        dirpath = os.path.dirname(filename)\n\n        if not os.path.exists(dirpath):\n            os.makedirs(dirpath)\n\n        data = request.vars.file.file.read()\n        lineno = count_lines(data)\n        safe_write(filename, data, \'wb\')\n        log_progress(app,\'UPLOAD\',filename,lineno)\n        session.flash = T(\'file "%(filename)s" uploaded\',\n                          dict(filename=filename[len(path):]))\n    except Exception:\n        if filename:\n            d = dict(filename = filename[len(path):])\n        else:\n            d = dict(filename = \'unkown\')\n        session.flash = T(\'cannot upload file "%(filename)s"\', d)\n\n    redirect(request.vars.sender)\n\n\ndef errors():\n    """ Error handler """\n    import operator\n    import os\n    import pickle\n    import hashlib\n\n    app = get_app()\n\n    method = request.args(1) or \'new\'\n    db_ready = {}\n    db_ready[\'status\'] = get_ticket_storage(app)\n    db_ready[\'errmessage\'] = T("No ticket_storage.txt found under /private folder")\n    db_ready[\'errlink\'] = "http://web2py.com/books/default/chapter/29/13#Collecting-tickets"\n\n    if method == \'new\':\n        errors_path = apath(\'%s/errors\' % app, r=request)\n\n        delete_hashes = []\n        for item in request.vars:\n            if item[:7] == \'delete_\':\n                delete_hashes.append(item[7:])\n\n        hash2error = dict()\n\n        for fn in listdir(errors_path, \'^[a-fA-F0-9.\\-]+$\'):\n            fullpath = os.path.join(errors_path, fn)\n            if not os.path.isfile(fullpath): continue\n            try:\n                fullpath_file = open(fullpath, \'r\')\n                try:\n                    error = pickle.load(fullpath_file)\n                finally:\n                    fullpath_file.close()\n            except IOError:\n                continue\n            except EOFError:\n                continue\n\n            hash = hashlib.md5(error[\'traceback\']).hexdigest()\n\n            if hash in delete_hashes:\n                os.unlink(fullpath)\n            else:\n                try:\n                    hash2error[hash][\'count\'] += 1\n                except KeyError:\n                    error_lines = error[\'traceback\'].split("\\n")\n                    last_line = error_lines[-2]\n                    error_causer = os.path.split(error[\'layer\'])[1]\n                    hash2error[hash] = dict(count=1, pickel=error,\n                                            causer=error_causer,\n                                            last_line=last_line,\n                                            hash=hash,ticket=fn)\n\n        decorated = [(x[\'count\'], x) for x in hash2error.values()]\n        decorated.sort(key=operator.itemgetter(0), reverse=True)\n\n        return dict(errors = [x[1] for x in decorated], app=app, method=method, db_ready=db_ready)\n\n\n    elif method == \'dbnew\':\n        errors_path = apath(\'%s/errors\' % app, r=request)\n        tk_db, tk_table = get_ticket_storage(app)\n\n        delete_hashes = []\n        for item in request.vars:\n            if item[:7] == \'delete_\':\n                delete_hashes.append(item[7:])\n\n        hash2error = dict()\n\n        for fn in tk_db(tk_table.id>0).select():\n            try:\n                error = pickle.loads(fn.ticket_data)\n            except AttributeError:\n                tk_db(tk_table.id == fn.id).delete()\n                tk_db.commit()\n\n            hash = hashlib.md5(error[\'traceback\']).hexdigest()\n\n            if hash in delete_hashes:\n                tk_db(tk_table.id == fn.id).delete()\n                tk_db.commit()\n            else:\n                try:\n                    hash2error[\'hash\'][\'count\'] += 1\n                except KeyError:\n                    error_lines = error[\'traceback\'].split("\\n")\n                    last_line = error_lines[-2]\n                    error_causer = os.path.split(error[\'layer\'])[1]\n                    hash2error[hash] = dict(count=1, pickel=error,\n                                            causer=error_causer,\n                                            last_line=last_line,\n                                            hash=hash,ticket=fn.ticket_id)\n\n        decorated = [(x[\'count\'], x) for x in hash2error.values()]\n\n        decorated.sort(key=operator.itemgetter(0), reverse=True)\n\n        return dict(errors = [x[1] for x in decorated], app=app, method=method)\n\n    elif method == \'dbold\':\n        tk_db, tk_table = get_ticket_storage(app)\n        for item in request.vars:\n            if item[:7] == \'delete_\':\n                tk_db(tk_table.ticket_id == item[7:]).delete()\n                tk_db.commit()\n        tickets_ = tk_db(tk_table.id>0).select(tk_table.ticket_id, tk_table.created_datetime, orderby=~tk_table.created_datetime)\n        tickets = [row.ticket_id for row in tickets_]\n        times = dict([(row.ticket_id, row.created_datetime) for row in tickets_])\n\n        return dict(app=app, tickets=tickets, method=method, times=times)\n\n    else:\n        for item in request.vars:\n            if item[:7] == \'delete_\':\n                os.unlink(apath(\'%s/errors/%s\' % (app, item[7:]), r=request))\n        func = lambda p: os.stat(apath(\'%s/errors/%s\' % \\\n                                           (app, p), r=request)).st_mtime\n        tickets = sorted(listdir(apath(\'%s/errors/\' % app, r=request), \'^\\w.*\'),\n                         key=func,\n                         reverse=True)\n\n        return dict(app=app, tickets=tickets, method=method, db_ready=db_ready)\n\ndef get_ticket_storage(app):\n    private_folder = apath(\'%s/private\' % app, r=request)\n    ticket_file = os.path.join(private_folder, \'ticket_storage.txt\')\n    if os.path.exists(ticket_file):\n        db_string = open(ticket_file).read()\n        db_string = db_string.strip().replace(\'\\r\',\'\').replace(\'\\n\',\'\')\n    else:\n        return False\n    tickets_table = \'web2py_ticket\'\n    tablename = tickets_table + \'_\' + app\n    db_path = apath(\'%s/databases\' % app, r=request)\n    ticketsdb = DAL(db_string, folder=db_path, auto_import=True)\n    if not ticketsdb.get(tablename):\n        table = ticketsdb.define_table(\n                tablename,\n                Field(\'ticket_id\', length=100),\n                Field(\'ticket_data\', \'text\'),\n                Field(\'created_datetime\', \'datetime\'),\n                )\n    return ticketsdb , ticketsdb.get(tablename)\n\ndef make_link(path):\n    """ Create a link from a path """\n    tryFile = path.replace(\'\\\\\', \'/\')\n\n    if os.path.isabs(tryFile) and os.path.isfile(tryFile):\n        (folder, filename) = os.path.split(tryFile)\n        (base, ext) = os.path.splitext(filename)\n        app = get_app()\n\n        editable = {\'controllers\': \'.py\', \'models\': \'.py\', \'views\': \'.html\'}\n        for key in editable.keys():\n            check_extension = folder.endswith("%s/%s" % (app,key))\n            if ext.lower() == editable[key] and check_extension:\n                return A(\'"\' + tryFile + \'"\',\n                         _href=URL(r=request,\n                         f=\'edit/%s/%s/%s\' % (app, key, filename))).xml()\n    return \'\'\n\n\ndef make_links(traceback):\n    """ Make links using the given traceback """\n\n    lwords = traceback.split(\'"\')\n\n    # Making the short circuit compatible with <= python2.4\n    result = (len(lwords) != 0) and lwords[0] or \'\'\n\n    i = 1\n\n    while i < len(lwords):\n        link = make_link(lwords[i])\n\n        if link == \'\':\n            result += \'"\' + lwords[i]\n        else:\n            result += link\n\n            if i + 1 < len(lwords):\n                result += lwords[i + 1]\n                i = i + 1\n\n        i = i + 1\n\n    return result\n\n\nclass TRACEBACK(object):\n    """ Generate the traceback """\n\n    def __init__(self, text):\n        """ TRACEBACK constructor """\n\n        self.s = make_links(CODE(text).xml())\n\n    def xml(self):\n        """ Returns the xml """\n\n        return self.s\n\n\ndef ticket():\n    """ Ticket handler """\n\n    if len(request.args) != 2:\n        session.flash = T(\'invalid ticket\')\n        redirect(URL(\'site\'))\n\n    app = get_app()\n    myversion = request.env.web2py_version\n    ticket = request.args[1]\n    e = RestrictedError()\n    e.load(request, app, ticket)\n\n    return dict(app=app,\n                ticket=ticket,\n                output=e.output,\n                traceback=(e.traceback and TRACEBACK(e.traceback)),\n                snapshot=e.snapshot,\n                code=e.code,\n                layer=e.layer,\n                myversion=myversion)\n\ndef ticketdb():\n    """ Ticket handler """\n\n    if len(request.args) != 2:\n        session.flash = T(\'invalid ticket\')\n        redirect(URL(\'site\'))\n\n    app = get_app()\n    myversion = request.env.web2py_version\n    ticket = request.args[1]\n    e = RestrictedError()\n    request.tickets_db = get_ticket_storage(app)[0]\n    e.load(request, app, ticket)\n    response.view = \'default/ticket.html\'\n    return dict(app=app,\n                ticket=ticket,\n                output=e.output,\n                traceback=(e.traceback and TRACEBACK(e.traceback)),\n                snapshot=e.snapshot,\n                code=e.code,\n                layer=e.layer,\n                myversion=myversion)\n\ndef error():\n    """ Generate a ticket (for testing) """\n    raise RuntimeError(\'admin ticket generator at your service\')\n\ndef update_languages():\n    """ Update available languages """\n\n    app = get_app()\n    update_all_languages(apath(app, r=request))\n    session.flash = T(\'Language files (static strings) updated\')\n    redirect(URL(\'design\',args=app,anchor=\'languages\'))\n\n\ndef twitter():\n    session.forget()\n    session._unlock(response)\n    import gluon.tools\n    import gluon.contrib.simplejson as sj\n    try:\n        if TWITTER_HASH:\n            page = urllib.urlopen("http://search.twitter.com/search.json?q=%%40%s" % TWITTER_HASH).read()\n            data = sj.loads(page, encoding="utf-8")[\'results\']\n            d = dict()\n            for e in data:\n                d[e["id"]] = e\n            r = reversed(sorted(d))\n            return dict(tweets = [d[k] for k in r])\n        else:\n            return \'disabled\'\n    except Exception, e:\n        return DIV(T(\'Unable to download because:\'),BR(),str(e))\n\n\ndef user():\n    if MULTI_USER_MODE:\n        if not db(db.auth_user).count():\n            auth.settings.registration_requires_approval = False\n        return dict(form=auth())\n    else:\n        return dict(form=T("Disabled"))\n\ndef reload_routes():\n    """ Reload routes.py """\n    import gluon.rewrite\n    gluon.rewrite.load()\n    redirect(URL(\'site\'))\n\ndef manage_students():\n    if not (MULTI_USER_MODE and is_manager()):\n        session.flash = T(\'Not Authorized\')\n        redirect(URL(\'site\'))\n    db.auth_user.registration_key.writable = True\n    grid = SQLFORM.grid(db.auth_user)\n    return locals()\n\ndef bulk_register():\n    if not (MULTI_USER_MODE and is_manager()):\n        session.flash = T(\'Not Authorized\')\n        redirect(URL(\'site\'))\n    form = SQLFORM.factory(Field(\'emails\',\'text\'))\n    if form.process().accepted:\n        emails = [x.strip() for x in form.vars.emails.split(\'\\n\') if x.strip()]\n        n = 0\n        for email in emails:\n            if not db.auth_user(email=email):\n                n += db.auth_user.insert(email = email) and 1 or 0\n        session.flash = T(\'%s students registered\',n)\n        redirect(URL(\'site\'))\n    return locals()\n\n### Begin experimental stuff need fixes:\n# 1) should run in its own process - cannot os.chdir\n# 2) should not prompt user at console\n# 3) should give option to force commit and not reuqire manual merge\n\ndef git_pull():\n    """ Git Pull handler """\n    app = get_app()\n    if not have_git:\n        session.flash = GIT_MISSING\n        redirect(URL(\'site\'))\n    dialog = FORM.confirm(T(\'Pull\'),\n                         {T(\'Cancel\'):URL(\'site\')})    \n    if dialog.accepted:\n        try:\n            repo = Repo(os.path.join(apath(r=request),app))\n            origin = repo.remotes.origin\n            origin.fetch()\n            origin.pull()\n            session.flash = T("Application updated via git pull")\n            redirect(URL(\'site\'))\n        except CheckoutError, message:\n            logging.error(message)\n            session.flash = T("Pull failed, certain files could not be checked out. Check logs for details.")\n            redirect(URL(\'site\'))\n        except UnmergedEntriesError:\n            session.flash = T("Pull is not possible because you have unmerged files. Fix them up in the work tree, and then try again.")\n            redirect(URL(\'site\'))\n        except AssertionError:\n            session.flash = T("Pull is not possible because you have unmerged files. Fix them up in the work tree, and then try again.")\n            redirect(URL(\'site\'))\n        except GitCommandError, status:\n            logging.error(str(status))\n            session.flash = T("Pull failed, git exited abnormally. See logs for details.")\n            redirect(URL(\'site\'))\n        except Exception,e:\n            logging.error("Unexpected error:", sys.exc_info()[0])\n            session.flash = T("Pull failed, git exited abnormally. See logs for details.")\n            redirect(URL(\'site\'))\n    elif \'cancel\' in request.vars:\n        redirect(URL(\'site\'))\n    return dict(app=app,dialog=dialog)\n\n\ndef git_push():\n    """ Git Push handler """\n    app = get_app()\n    if not have_git:\n        session.flash = GIT_MISSING\n        redirect(URL(\'site\'))\n    form = SQLFORM.factory(Field(\'changelog\',requires=IS_NOT_EMPTY()))\n    form.element(\'input[type=submit]\')[\'_value\']=T(\'Push\')\n    form.add_button(T(\'Cancel\'),URL(\'site\'))\n    form.process()\n    if form.accepted:\n        try:\n            repo = Repo(os.path.join(apath(r=request),app))\n            index = repo.index\n            index.add([apath(r=request)+app+\'/*\'])\n            new_commit = index.commit(form.vars.changelog)\n            origin = repo.remotes.origin\n            origin.push()\n            session.flash = T("Git repo updated with latest application changes.")\n            redirect(URL(\'site\'))\n        except UnmergedEntriesError:\n            session.flash = T("Push failed, there are unmerged entries in the cache. Resolve merge issues manually and try again.")\n            redirect(URL(\'site\'))\n        except Exception, e:\n            logging.error("Unexpected error:", sys.exc_info()[0])\n            session.flash = T("Push failed, git exited abnormally. See logs for details.")\n            redirect(URL(\'site\'))\n    return dict(app=app,form=form)\n\n\nresponse._vars=response._caller(resolve)\n'
p7
sS'snapshot'
p8
(dp9
S'exception'
p10
(dp11
S'__getslice__'
p12
S"<method-wrapper '__getslice__' of exceptions.IOError object>"
p13
sS'__str__'
p14
S"<method-wrapper '__str__' of exceptions.IOError object>"
p15
sS'__reduce__'
p16
S'<built-in method __reduce__ of exceptions.IOError object>'
p17
sS'__dict__'
p18
S'{}'
p19
sS'__sizeof__'
p20
S'<built-in method __sizeof__ of exceptions.IOError object>'
p21
sS'__init__'
p22
S"<method-wrapper '__init__' of exceptions.IOError object>"
p23
sS'__setattr__'
p24
S"<method-wrapper '__setattr__' of exceptions.IOError object>"
p25
sS'__reduce_ex__'
p26
S'<built-in method __reduce_ex__ of exceptions.IOError object>'
p27
sS'__new__'
p28
S'<built-in method __new__ of type object>'
p29
sS'errno'
p30
S'21'
p31
sS'__format__'
p32
S'<built-in method __format__ of exceptions.IOError object>'
p33
sS'__class__'
p34
S"<type 'exceptions.IOError'>"
p35
sS'filename'
p36
S"'/home/mayank/IIIT/sem 3/SSAD&Project/web2py/applications/taship1/views'"
p37
sS'__doc__'
p38
S"'I/O operation failed.'"
p39
sS'__getitem__'
p40
S"<method-wrapper '__getitem__' of exceptions.IOError object>"
p41
sS'__setstate__'
p42
S'<built-in method __setstate__ of exceptions.IOError object>'
p43
sS'__getattribute__'
p44
S"<method-wrapper '__getattribute__' of exceptions.IOError object>"
p45
sS'args'
p46
S"(21, 'Is a directory')"
p47
sS'__subclasshook__'
p48
S'<built-in method __subclasshook__ of type object>'
p49
sS'__unicode__'
p50
S'<built-in method __unicode__ of exceptions.IOError object>'
p51
sS'strerror'
p52
S"'Is a directory'"
p53
sS'__delattr__'
p54
S"<method-wrapper '__delattr__' of exceptions.IOError object>"
p55
sS'__repr__'
p56
S"<method-wrapper '__repr__' of exceptions.IOError object>"
p57
sS'__hash__'
p58
S"<method-wrapper '__hash__' of exceptions.IOError object>"
p59
ssS'evalue'
p60
S"[Errno 21] Is a directory: '/home/mayank/IIIT/sem 3/SSAD&Project/web2py/applications/taship1/views'"
p61
sS'request'
p62
ccopy_reg
_reconstructor
p63
(cgluon.html
BEAUTIFY
p64
c__builtin__
object
p65
NtRp66
(dp67
S'attributes'
p68
(dp69
sS'components'
p70
(lp71
g63
(cgluon.html
TABLE
p72
g65
NtRp73
(dp74
g68
(dp75
S'level'
p76
I5
ssS'parent'
p77
Nsg70
(lp78
g63
(cgluon.html
TR
p79
g65
NtRp80
(dp81
g68
(dp82
sg77
g73
sg70
(lp83
g63
(cgluon.html
TD
p84
g65
NtRp85
(dp86
g68
(dp87
S'_style'
p88
S'font-weight:bold;vertical-align:top'
p89
ssg77
g80
sg70
(lp90
S'ajax'
p91
asbag63
(g84
g65
NtRp92
(dp93
g68
(dp94
S'_valign'
p95
S'top'
p96
ssg77
g80
sg70
(lp97
S':'
asbag63
(g84
g65
NtRp98
(dp99
g68
(dp100
sg77
g80
sg70
(lp101
g63
(g64
g65
NtRp102
(dp103
g68
(dp104
g76
I5
ssg77
g98
sg70
(lp105
S'False'
p106
asbasbasbag63
(g79
g65
NtRp107
(dp108
g68
(dp109
sg77
g73
sg70
(lp110
g63
(g84
g65
NtRp111
(dp112
g68
(dp113
g88
g89
ssg77
g107
sg70
(lp114
S'application'
p115
asbag63
(g84
g65
NtRp116
(dp117
g68
(dp118
g95
g96
ssg77
g107
sg70
(lp119
S':'
asbag63
(g84
g65
NtRp120
(dp121
g68
(dp122
sg77
g107
sg70
(lp123
g63
(g64
g65
NtRp124
(dp125
g68
(dp126
g76
I5
ssg77
g120
sg70
(lp127
S'admin'
p128
asbasbasbag63
(g79
g65
NtRp129
(dp130
g68
(dp131
sg77
g73
sg70
(lp132
g63
(g84
g65
NtRp133
(dp134
g68
(dp135
g88
g89
ssg77
g129
sg70
(lp136
g46
asbag63
(g84
g65
NtRp137
(dp138
g68
(dp139
g95
g96
ssg77
g129
sg70
(lp140
S':'
asbag63
(g84
g65
NtRp141
(dp142
g68
(dp143
sg77
g129
sg70
(lp144
g63
(g64
g65
NtRp145
(dp146
g68
(dp147
g76
I5
ssg77
g141
sg70
(lp148
g63
(g72
g65
NtRp149
(dp150
g68
(dp151
g76
I4
ssg77
Nsg70
(lp152
g63
(g79
g65
NtRp153
(dp154
g68
(dp155
sg77
g149
sg70
(lp156
g63
(g84
g65
NtRp157
(dp158
g68
(dp159
sg77
g153
sg70
(lp160
g63
(g64
g65
NtRp161
(dp162
g68
(dp163
g76
I4
ssg77
g157
sg70
(lp164
S'taship1'
p165
asbasbasbag63
(g79
g65
NtRp166
(dp167
g68
(dp168
sg77
g149
sg70
(lp169
g63
(g84
g65
NtRp170
(dp171
g68
(dp172
sg77
g166
sg70
(lp173
g63
(g64
g65
NtRp174
(dp175
g68
(dp176
g76
I4
ssg77
g170
sg70
(lp177
S'views'
p178
asbasbasbasbasbasbasbag63
(g79
g65
NtRp179
(dp180
g68
(dp181
sg77
g73
sg70
(lp182
g63
(g84
g65
NtRp183
(dp184
g68
(dp185
g88
g89
ssg77
g179
sg70
(lp186
S'body'
p187
asbag63
(g84
g65
NtRp188
(dp189
g68
(dp190
g95
g96
ssg77
g179
sg70
(lp191
S':'
asbag63
(g84
g65
NtRp192
(dp193
g68
(dp194
sg77
g179
sg70
(lp195
g63
(g64
g65
NtRp196
(dp197
g68
(dp198
g76
I5
ssg77
g192
sg70
(lp199
S'<cStringIO.StringO object at 0x7f5c94186c70>'
p200
asbasbasbag63
(g79
g65
NtRp201
(dp202
g68
(dp203
sg77
g73
sg70
(lp204
g63
(g84
g65
NtRp205
(dp206
g68
(dp207
g88
g89
ssg77
g201
sg70
(lp208
S'cid'
p209
asbag63
(g84
g65
NtRp210
(dp211
g68
(dp212
g95
g96
ssg77
g201
sg70
(lp213
S':'
asbag63
(g84
g65
NtRp214
(dp215
g68
(dp216
sg77
g201
sg70
(lp217
g63
(g64
g65
NtRp218
(dp219
g68
(dp220
g76
I5
ssg77
g214
sg70
(lp221
S'None'
p222
asbasbasbag63
(g79
g65
NtRp223
(dp224
g68
(dp225
sg77
g73
sg70
(lp226
g63
(g84
g65
NtRp227
(dp228
g68
(dp229
g88
g89
ssg77
g223
sg70
(lp230
S'client'
p231
asbag63
(g84
g65
NtRp232
(dp233
g68
(dp234
g95
g96
ssg77
g223
sg70
(lp235
S':'
asbag63
(g84
g65
NtRp236
(dp237
g68
(dp238
sg77
g223
sg70
(lp239
g63
(g64
g65
NtRp240
(dp241
g68
(dp242
g76
I5
ssg77
g236
sg70
(lp243
S'127.0.0.1'
p244
asbasbasbag63
(g79
g65
NtRp245
(dp246
g68
(dp247
sg77
g73
sg70
(lp248
g63
(g84
g65
NtRp249
(dp250
g68
(dp251
g88
g89
ssg77
g245
sg70
(lp252
S'controller'
p253
asbag63
(g84
g65
NtRp254
(dp255
g68
(dp256
g95
g96
ssg77
g245
sg70
(lp257
S':'
asbag63
(g84
g65
NtRp258
(dp259
g68
(dp260
sg77
g245
sg70
(lp261
g63
(g64
g65
NtRp262
(dp263
g68
(dp264
g76
I5
ssg77
g258
sg70
(lp265
S'default'
p266
asbasbasbag63
(g79
g65
NtRp267
(dp268
g68
(dp269
sg77
g73
sg70
(lp270
g63
(g84
g65
NtRp271
(dp272
g68
(dp273
g88
g89
ssg77
g267
sg70
(lp274
S'cookies'
p275
asbag63
(g84
g65
NtRp276
(dp277
g68
(dp278
g95
g96
ssg77
g267
sg70
(lp279
S':'
asbag63
(g84
g65
NtRp280
(dp281
g68
(dp282
sg77
g267
sg70
(lp283
g63
(g64
g65
NtRp284
(dp285
g68
(dp286
g76
I5
ssg77
g280
sg70
(lp287
g63
(g72
g65
NtRp288
(dp289
g68
(dp290
g76
I4
ssg77
Nsg70
(lp291
g63
(g79
g65
NtRp292
(dp293
g68
(dp294
sg77
g288
sg70
(lp295
g63
(g84
g65
NtRp296
(dp297
g68
(dp298
g88
g89
ssg77
g292
sg70
(lp299
S'session_id_admin'
p300
asbag63
(g84
g65
NtRp301
(dp302
g68
(dp303
g95
g96
ssg77
g292
sg70
(lp304
S':'
asbag63
(g84
g65
NtRp305
(dp306
g68
(dp307
sg77
g292
sg70
(lp308
g63
(g64
g65
NtRp309
(dp310
g68
(dp311
g76
I4
ssg77
g305
sg70
(lp312
S'127.0.0.1-5dcf2937-67e2-4b75-8344-2e4702696999'
p313
ag63
(g72
g65
NtRp314
(dp315
g68
(dp316
g76
I3
ssg77
Nsg70
(lp317
g63
(g79
g65
NtRp318
(dp319
g68
(dp320
sg77
g314
sg70
(lp321
g63
(g84
g65
NtRp322
(dp323
g68
(dp324
g88
g89
ssg77
g318
sg70
(lp325
S'comment'
p326
asbag63
(g84
g65
NtRp327
(dp328
g68
(dp329
g95
g96
ssg77
g318
sg70
(lp330
S':'
asbag63
(g84
g65
NtRp331
(dp332
g68
(dp333
sg77
g318
sg70
(lp334
g63
(g64
g65
NtRp335
(dp336
g68
(dp337
g76
I3
ssg77
g331
sg70
(lp338
S''
asbasbasbag63
(g79
g65
NtRp339
(dp340
g68
(dp341
sg77
g314
sg70
(lp342
g63
(g84
g65
NtRp343
(dp344
g68
(dp345
g88
g89
ssg77
g339
sg70
(lp346
S'domain'
p347
asbag63
(g84
g65
NtRp348
(dp349
g68
(dp350
g95
g96
ssg77
g339
sg70
(lp351
S':'
asbag63
(g84
g65
NtRp352
(dp353
g68
(dp354
sg77
g339
sg70
(lp355
g63
(g64
g65
NtRp356
(dp357
g68
(dp358
g76
I3
ssg77
g352
sg70
(lp359
S''
asbasbasbag63
(g79
g65
NtRp360
(dp361
g68
(dp362
sg77
g314
sg70
(lp363
g63
(g84
g65
NtRp364
(dp365
g68
(dp366
g88
g89
ssg77
g360
sg70
(lp367
S'expires'
p368
asbag63
(g84
g65
NtRp369
(dp370
g68
(dp371
g95
g96
ssg77
g360
sg70
(lp372
S':'
asbag63
(g84
g65
NtRp373
(dp374
g68
(dp375
sg77
g360
sg70
(lp376
g63
(g64
g65
NtRp377
(dp378
g68
(dp379
g76
I3
ssg77
g373
sg70
(lp380
S''
asbasbasbag63
(g79
g65
NtRp381
(dp382
g68
(dp383
sg77
g314
sg70
(lp384
g63
(g84
g65
NtRp385
(dp386
g68
(dp387
g88
g89
ssg77
g381
sg70
(lp388
S'httponly'
p389
asbag63
(g84
g65
NtRp390
(dp391
g68
(dp392
g95
g96
ssg77
g381
sg70
(lp393
S':'
asbag63
(g84
g65
NtRp394
(dp395
g68
(dp396
sg77
g381
sg70
(lp397
g63
(g64
g65
NtRp398
(dp399
g68
(dp400
g76
I3
ssg77
g394
sg70
(lp401
S''
asbasbasbag63
(g79
g65
NtRp402
(dp403
g68
(dp404
sg77
g314
sg70
(lp405
g63
(g84
g65
NtRp406
(dp407
g68
(dp408
g88
g89
ssg77
g402
sg70
(lp409
S'max-age'
p410
asbag63
(g84
g65
NtRp411
(dp412
g68
(dp413
g95
g96
ssg77
g402
sg70
(lp414
S':'
asbag63
(g84
g65
NtRp415
(dp416
g68
(dp417
sg77
g402
sg70
(lp418
g63
(g64
g65
NtRp419
(dp420
g68
(dp421
g76
I3
ssg77
g415
sg70
(lp422
S''
asbasbasbag63
(g79
g65
NtRp423
(dp424
g68
(dp425
sg77
g314
sg70
(lp426
g63
(g84
g65
NtRp427
(dp428
g68
(dp429
g88
g89
ssg77
g423
sg70
(lp430
S'path'
p431
asbag63
(g84
g65
NtRp432
(dp433
g68
(dp434
g95
g96
ssg77
g423
sg70
(lp435
S':'
asbag63
(g84
g65
NtRp436
(dp437
g68
(dp438
sg77
g423
sg70
(lp439
g63
(g64
g65
NtRp440
(dp441
g68
(dp442
g76
I3
ssg77
g436
sg70
(lp443
S''
asbasbasbag63
(g79
g65
NtRp444
(dp445
g68
(dp446
sg77
g314
sg70
(lp447
g63
(g84
g65
NtRp448
(dp449
g68
(dp450
g88
g89
ssg77
g444
sg70
(lp451
S'secure'
p452
asbag63
(g84
g65
NtRp453
(dp454
g68
(dp455
g95
g96
ssg77
g444
sg70
(lp456
S':'
asbag63
(g84
g65
NtRp457
(dp458
g68
(dp459
sg77
g444
sg70
(lp460
g63
(g64
g65
NtRp461
(dp462
g68
(dp463
g76
I3
ssg77
g457
sg70
(lp464
S''
asbasbasbag63
(g79
g65
NtRp465
(dp466
g68
(dp467
sg77
g314
sg70
(lp468
g63
(g84
g65
NtRp469
(dp470
g68
(dp471
g88
g89
ssg77
g465
sg70
(lp472
S'version'
p473
asbag63
(g84
g65
NtRp474
(dp475
g68
(dp476
g95
g96
ssg77
g465
sg70
(lp477
S':'
asbag63
(g84
g65
NtRp478
(dp479
g68
(dp480
sg77
g465
sg70
(lp481
g63
(g64
g65
NtRp482
(dp483
g68
(dp484
g76
I3
ssg77
g478
sg70
(lp485
S''
asbasbasbasbasbasbasbag63
(g79
g65
NtRp486
(dp487
g68
(dp488
sg77
g288
sg70
(lp489
g63
(g84
g65
NtRp490
(dp491
g68
(dp492
g88
g89
ssg77
g486
sg70
(lp493
S'session_id_project'
p494
asbag63
(g84
g65
NtRp495
(dp496
g68
(dp497
g95
g96
ssg77
g486
sg70
(lp498
S':'
asbag63
(g84
g65
NtRp499
(dp500
g68
(dp501
sg77
g486
sg70
(lp502
g63
(g64
g65
NtRp503
(dp504
g68
(dp505
g76
I4
ssg77
g499
sg70
(lp506
S'127.0.0.1-465253d6-f72b-4103-9ac6-ab562270bdef'
p507
ag63
(g72
g65
NtRp508
(dp509
g68
(dp510
g76
I3
ssg77
Nsg70
(lp511
g63
(g79
g65
NtRp512
(dp513
g68
(dp514
sg77
g508
sg70
(lp515
g63
(g84
g65
NtRp516
(dp517
g68
(dp518
g88
g89
ssg77
g512
sg70
(lp519
g326
asbag63
(g84
g65
NtRp520
(dp521
g68
(dp522
g95
g96
ssg77
g512
sg70
(lp523
S':'
asbag63
(g84
g65
NtRp524
(dp525
g68
(dp526
sg77
g512
sg70
(lp527
g63
(g64
g65
NtRp528
(dp529
g68
(dp530
g76
I3
ssg77
g524
sg70
(lp531
S''
asbasbasbag63
(g79
g65
NtRp532
(dp533
g68
(dp534
sg77
g508
sg70
(lp535
g63
(g84
g65
NtRp536
(dp537
g68
(dp538
g88
g89
ssg77
g532
sg70
(lp539
g347
asbag63
(g84
g65
NtRp540
(dp541
g68
(dp542
g95
g96
ssg77
g532
sg70
(lp543
S':'
asbag63
(g84
g65
NtRp544
(dp545
g68
(dp546
sg77
g532
sg70
(lp547
g63
(g64
g65
NtRp548
(dp549
g68
(dp550
g76
I3
ssg77
g544
sg70
(lp551
S''
asbasbasbag63
(g79
g65
NtRp552
(dp553
g68
(dp554
sg77
g508
sg70
(lp555
g63
(g84
g65
NtRp556
(dp557
g68
(dp558
g88
g89
ssg77
g552
sg70
(lp559
g368
asbag63
(g84
g65
NtRp560
(dp561
g68
(dp562
g95
g96
ssg77
g552
sg70
(lp563
S':'
asbag63
(g84
g65
NtRp564
(dp565
g68
(dp566
sg77
g552
sg70
(lp567
g63
(g64
g65
NtRp568
(dp569
g68
(dp570
g76
I3
ssg77
g564
sg70
(lp571
S''
asbasbasbag63
(g79
g65
NtRp572
(dp573
g68
(dp574
sg77
g508
sg70
(lp575
g63
(g84
g65
NtRp576
(dp577
g68
(dp578
g88
g89
ssg77
g572
sg70
(lp579
g389
asbag63
(g84
g65
NtRp580
(dp581
g68
(dp582
g95
g96
ssg77
g572
sg70
(lp583
S':'
asbag63
(g84
g65
NtRp584
(dp585
g68
(dp586
sg77
g572
sg70
(lp587
g63
(g64
g65
NtRp588
(dp589
g68
(dp590
g76
I3
ssg77
g584
sg70
(lp591
S''
asbasbasbag63
(g79
g65
NtRp592
(dp593
g68
(dp594
sg77
g508
sg70
(lp595
g63
(g84
g65
NtRp596
(dp597
g68
(dp598
g88
g89
ssg77
g592
sg70
(lp599
g410
asbag63
(g84
g65
NtRp600
(dp601
g68
(dp602
g95
g96
ssg77
g592
sg70
(lp603
S':'
asbag63
(g84
g65
NtRp604
(dp605
g68
(dp606
sg77
g592
sg70
(lp607
g63
(g64
g65
NtRp608
(dp609
g68
(dp610
g76
I3
ssg77
g604
sg70
(lp611
S''
asbasbasbag63
(g79
g65
NtRp612
(dp613
g68
(dp614
sg77
g508
sg70
(lp615
g63
(g84
g65
NtRp616
(dp617
g68
(dp618
g88
g89
ssg77
g612
sg70
(lp619
g431
asbag63
(g84
g65
NtRp620
(dp621
g68
(dp622
g95
g96
ssg77
g612
sg70
(lp623
S':'
asbag63
(g84
g65
NtRp624
(dp625
g68
(dp626
sg77
g612
sg70
(lp627
g63
(g64
g65
NtRp628
(dp629
g68
(dp630
g76
I3
ssg77
g624
sg70
(lp631
S''
asbasbasbag63
(g79
g65
NtRp632
(dp633
g68
(dp634
sg77
g508
sg70
(lp635
g63
(g84
g65
NtRp636
(dp637
g68
(dp638
g88
g89
ssg77
g632
sg70
(lp639
g452
asbag63
(g84
g65
NtRp640
(dp641
g68
(dp642
g95
g96
ssg77
g632
sg70
(lp643
S':'
asbag63
(g84
g65
NtRp644
(dp645
g68
(dp646
sg77
g632
sg70
(lp647
g63
(g64
g65
NtRp648
(dp649
g68
(dp650
g76
I3
ssg77
g644
sg70
(lp651
S''
asbasbasbag63
(g79
g65
NtRp652
(dp653
g68
(dp654
sg77
g508
sg70
(lp655
g63
(g84
g65
NtRp656
(dp657
g68
(dp658
g88
g89
ssg77
g652
sg70
(lp659
g473
asbag63
(g84
g65
NtRp660
(dp661
g68
(dp662
g95
g96
ssg77
g652
sg70
(lp663
S':'
asbag63
(g84
g65
NtRp664
(dp665
g68
(dp666
sg77
g652
sg70
(lp667
g63
(g64
g65
NtRp668
(dp669
g68
(dp670
g76
I3
ssg77
g664
sg70
(lp671
S''
asbasbasbasbasbasbasbag63
(g79
g65
NtRp672
(dp673
g68
(dp674
sg77
g288
sg70
(lp675
g63
(g84
g65
NtRp676
(dp677
g68
(dp678
g88
g89
ssg77
g672
sg70
(lp679
S'session_id_tashi'
p680
asbag63
(g84
g65
NtRp681
(dp682
g68
(dp683
g95
g96
ssg77
g672
sg70
(lp684
S':'
asbag63
(g84
g65
NtRp685
(dp686
g68
(dp687
sg77
g672
sg70
(lp688
g63
(g64
g65
NtRp689
(dp690
g68
(dp691
g76
I4
ssg77
g685
sg70
(lp692
S'127.0.0.1-8380671b-683e-496c-953c-7ba6ca3db8fd'
p693
ag63
(g72
g65
NtRp694
(dp695
g68
(dp696
g76
I3
ssg77
Nsg70
(lp697
g63
(g79
g65
NtRp698
(dp699
g68
(dp700
sg77
g694
sg70
(lp701
g63
(g84
g65
NtRp702
(dp703
g68
(dp704
g88
g89
ssg77
g698
sg70
(lp705
g326
asbag63
(g84
g65
NtRp706
(dp707
g68
(dp708
g95
g96
ssg77
g698
sg70
(lp709
S':'
asbag63
(g84
g65
NtRp710
(dp711
g68
(dp712
sg77
g698
sg70
(lp713
g63
(g64
g65
NtRp714
(dp715
g68
(dp716
g76
I3
ssg77
g710
sg70
(lp717
S''
asbasbasbag63
(g79
g65
NtRp718
(dp719
g68
(dp720
sg77
g694
sg70
(lp721
g63
(g84
g65
NtRp722
(dp723
g68
(dp724
g88
g89
ssg77
g718
sg70
(lp725
g347
asbag63
(g84
g65
NtRp726
(dp727
g68
(dp728
g95
g96
ssg77
g718
sg70
(lp729
S':'
asbag63
(g84
g65
NtRp730
(dp731
g68
(dp732
sg77
g718
sg70
(lp733
g63
(g64
g65
NtRp734
(dp735
g68
(dp736
g76
I3
ssg77
g730
sg70
(lp737
S''
asbasbasbag63
(g79
g65
NtRp738
(dp739
g68
(dp740
sg77
g694
sg70
(lp741
g63
(g84
g65
NtRp742
(dp743
g68
(dp744
g88
g89
ssg77
g738
sg70
(lp745
g368
asbag63
(g84
g65
NtRp746
(dp747
g68
(dp748
g95
g96
ssg77
g738
sg70
(lp749
S':'
asbag63
(g84
g65
NtRp750
(dp751
g68
(dp752
sg77
g738
sg70
(lp753
g63
(g64
g65
NtRp754
(dp755
g68
(dp756
g76
I3
ssg77
g750
sg70
(lp757
S''
asbasbasbag63
(g79
g65
NtRp758
(dp759
g68
(dp760
sg77
g694
sg70
(lp761
g63
(g84
g65
NtRp762
(dp763
g68
(dp764
g88
g89
ssg77
g758
sg70
(lp765
g389
asbag63
(g84
g65
NtRp766
(dp767
g68
(dp768
g95
g96
ssg77
g758
sg70
(lp769
S':'
asbag63
(g84
g65
NtRp770
(dp771
g68
(dp772
sg77
g758
sg70
(lp773
g63
(g64
g65
NtRp774
(dp775
g68
(dp776
g76
I3
ssg77
g770
sg70
(lp777
S''
asbasbasbag63
(g79
g65
NtRp778
(dp779
g68
(dp780
sg77
g694
sg70
(lp781
g63
(g84
g65
NtRp782
(dp783
g68
(dp784
g88
g89
ssg77
g778
sg70
(lp785
g410
asbag63
(g84
g65
NtRp786
(dp787
g68
(dp788
g95
g96
ssg77
g778
sg70
(lp789
S':'
asbag63
(g84
g65
NtRp790
(dp791
g68
(dp792
sg77
g778
sg70
(lp793
g63
(g64
g65
NtRp794
(dp795
g68
(dp796
g76
I3
ssg77
g790
sg70
(lp797
S''
asbasbasbag63
(g79
g65
NtRp798
(dp799
g68
(dp800
sg77
g694
sg70
(lp801
g63
(g84
g65
NtRp802
(dp803
g68
(dp804
g88
g89
ssg77
g798
sg70
(lp805
g431
asbag63
(g84
g65
NtRp806
(dp807
g68
(dp808
g95
g96
ssg77
g798
sg70
(lp809
S':'
asbag63
(g84
g65
NtRp810
(dp811
g68
(dp812
sg77
g798
sg70
(lp813
g63
(g64
g65
NtRp814
(dp815
g68
(dp816
g76
I3
ssg77
g810
sg70
(lp817
S''
asbasbasbag63
(g79
g65
NtRp818
(dp819
g68
(dp820
sg77
g694
sg70
(lp821
g63
(g84
g65
NtRp822
(dp823
g68
(dp824
g88
g89
ssg77
g818
sg70
(lp825
g452
asbag63
(g84
g65
NtRp826
(dp827
g68
(dp828
g95
g96
ssg77
g818
sg70
(lp829
S':'
asbag63
(g84
g65
NtRp830
(dp831
g68
(dp832
sg77
g818
sg70
(lp833
g63
(g64
g65
NtRp834
(dp835
g68
(dp836
g76
I3
ssg77
g830
sg70
(lp837
S''
asbasbasbag63
(g79
g65
NtRp838
(dp839
g68
(dp840
sg77
g694
sg70
(lp841
g63
(g84
g65
NtRp842
(dp843
g68
(dp844
g88
g89
ssg77
g838
sg70
(lp845
g473
asbag63
(g84
g65
NtRp846
(dp847
g68
(dp848
g95
g96
ssg77
g838
sg70
(lp849
S':'
asbag63
(g84
g65
NtRp850
(dp851
g68
(dp852
sg77
g838
sg70
(lp853
g63
(g64
g65
NtRp854
(dp855
g68
(dp856
g76
I3
ssg77
g850
sg70
(lp857
S''
asbasbasbasbasbasbasbag63
(g79
g65
NtRp858
(dp859
g68
(dp860
sg77
g288
sg70
(lp861
g63
(g84
g65
NtRp862
(dp863
g68
(dp864
g88
g89
ssg77
g858
sg70
(lp865
S'session_id_taship1'
p866
asbag63
(g84
g65
NtRp867
(dp868
g68
(dp869
g95
g96
ssg77
g858
sg70
(lp870
S':'
asbag63
(g84
g65
NtRp871
(dp872
g68
(dp873
sg77
g858
sg70
(lp874
g63
(g64
g65
NtRp875
(dp876
g68
(dp877
g76
I4
ssg77
g871
sg70
(lp878
S'127.0.0.1-ba46bc10-544c-4be6-9e27-483a0d6032f3'
p879
ag63
(g72
g65
NtRp880
(dp881
g68
(dp882
g76
I3
ssg77
Nsg70
(lp883
g63
(g79
g65
NtRp884
(dp885
g68
(dp886
sg77
g880
sg70
(lp887
g63
(g84
g65
NtRp888
(dp889
g68
(dp890
g88
g89
ssg77
g884
sg70
(lp891
g326
asbag63
(g84
g65
NtRp892
(dp893
g68
(dp894
g95
g96
ssg77
g884
sg70
(lp895
S':'
asbag63
(g84
g65
NtRp896
(dp897
g68
(dp898
sg77
g884
sg70
(lp899
g63
(g64
g65
NtRp900
(dp901
g68
(dp902
g76
I3
ssg77
g896
sg70
(lp903
S''
asbasbasbag63
(g79
g65
NtRp904
(dp905
g68
(dp906
sg77
g880
sg70
(lp907
g63
(g84
g65
NtRp908
(dp909
g68
(dp910
g88
g89
ssg77
g904
sg70
(lp911
g347
asbag63
(g84
g65
NtRp912
(dp913
g68
(dp914
g95
g96
ssg77
g904
sg70
(lp915
S':'
asbag63
(g84
g65
NtRp916
(dp917
g68
(dp918
sg77
g904
sg70
(lp919
g63
(g64
g65
NtRp920
(dp921
g68
(dp922
g76
I3
ssg77
g916
sg70
(lp923
S''
asbasbasbag63
(g79
g65
NtRp924
(dp925
g68
(dp926
sg77
g880
sg70
(lp927
g63
(g84
g65
NtRp928
(dp929
g68
(dp930
g88
g89
ssg77
g924
sg70
(lp931
g368
asbag63
(g84
g65
NtRp932
(dp933
g68
(dp934
g95
g96
ssg77
g924
sg70
(lp935
S':'
asbag63
(g84
g65
NtRp936
(dp937
g68
(dp938
sg77
g924
sg70
(lp939
g63
(g64
g65
NtRp940
(dp941
g68
(dp942
g76
I3
ssg77
g936
sg70
(lp943
S''
asbasbasbag63
(g79
g65
NtRp944
(dp945
g68
(dp946
sg77
g880
sg70
(lp947
g63
(g84
g65
NtRp948
(dp949
g68
(dp950
g88
g89
ssg77
g944
sg70
(lp951
g389
asbag63
(g84
g65
NtRp952
(dp953
g68
(dp954
g95
g96
ssg77
g944
sg70
(lp955
S':'
asbag63
(g84
g65
NtRp956
(dp957
g68
(dp958
sg77
g944
sg70
(lp959
g63
(g64
g65
NtRp960
(dp961
g68
(dp962
g76
I3
ssg77
g956
sg70
(lp963
S''
asbasbasbag63
(g79
g65
NtRp964
(dp965
g68
(dp966
sg77
g880
sg70
(lp967
g63
(g84
g65
NtRp968
(dp969
g68
(dp970
g88
g89
ssg77
g964
sg70
(lp971
g410
asbag63
(g84
g65
NtRp972
(dp973
g68
(dp974
g95
g96
ssg77
g964
sg70
(lp975
S':'
asbag63
(g84
g65
NtRp976
(dp977
g68
(dp978
sg77
g964
sg70
(lp979
g63
(g64
g65
NtRp980
(dp981
g68
(dp982
g76
I3
ssg77
g976
sg70
(lp983
S''
asbasbasbag63
(g79
g65
NtRp984
(dp985
g68
(dp986
sg77
g880
sg70
(lp987
g63
(g84
g65
NtRp988
(dp989
g68
(dp990
g88
g89
ssg77
g984
sg70
(lp991
g431
asbag63
(g84
g65
NtRp992
(dp993
g68
(dp994
g95
g96
ssg77
g984
sg70
(lp995
S':'
asbag63
(g84
g65
NtRp996
(dp997
g68
(dp998
sg77
g984
sg70
(lp999
g63
(g64
g65
NtRp1000
(dp1001
g68
(dp1002
g76
I3
ssg77
g996
sg70
(lp1003
S''
asbasbasbag63
(g79
g65
NtRp1004
(dp1005
g68
(dp1006
sg77
g880
sg70
(lp1007
g63
(g84
g65
NtRp1008
(dp1009
g68
(dp1010
g88
g89
ssg77
g1004
sg70
(lp1011
g452
asbag63
(g84
g65
NtRp1012
(dp1013
g68
(dp1014
g95
g96
ssg77
g1004
sg70
(lp1015
S':'
asbag63
(g84
g65
NtRp1016
(dp1017
g68
(dp1018
sg77
g1004
sg70
(lp1019
g63
(g64
g65
NtRp1020
(dp1021
g68
(dp1022
g76
I3
ssg77
g1016
sg70
(lp1023
S''
asbasbasbag63
(g79
g65
NtRp1024
(dp1025
g68
(dp1026
sg77
g880
sg70
(lp1027
g63
(g84
g65
NtRp1028
(dp1029
g68
(dp1030
g88
g89
ssg77
g1024
sg70
(lp1031
g473
asbag63
(g84
g65
NtRp1032
(dp1033
g68
(dp1034
g95
g96
ssg77
g1024
sg70
(lp1035
S':'
asbag63
(g84
g65
NtRp1036
(dp1037
g68
(dp1038
sg77
g1024
sg70
(lp1039
g63
(g64
g65
NtRp1040
(dp1041
g68
(dp1042
g76
I3
ssg77
g1036
sg70
(lp1043
S''
asbasbasbasbasbasbasbag63
(g79
g65
NtRp1044
(dp1045
g68
(dp1046
sg77
g288
sg70
(lp1047
g63
(g84
g65
NtRp1048
(dp1049
g68
(dp1050
g88
g89
ssg77
g1044
sg70
(lp1051
S'session_id_welcome'
p1052
asbag63
(g84
g65
NtRp1053
(dp1054
g68
(dp1055
g95
g96
ssg77
g1044
sg70
(lp1056
S':'
asbag63
(g84
g65
NtRp1057
(dp1058
g68
(dp1059
sg77
g1044
sg70
(lp1060
g63
(g64
g65
NtRp1061
(dp1062
g68
(dp1063
g76
I4
ssg77
g1057
sg70
(lp1064
S'127.0.0.1-3bfc019e-6879-4570-8ec3-d47a909e5c58'
p1065
ag63
(g72
g65
NtRp1066
(dp1067
g68
(dp1068
g76
I3
ssg77
Nsg70
(lp1069
g63
(g79
g65
NtRp1070
(dp1071
g68
(dp1072
sg77
g1066
sg70
(lp1073
g63
(g84
g65
NtRp1074
(dp1075
g68
(dp1076
g88
g89
ssg77
g1070
sg70
(lp1077
g326
asbag63
(g84
g65
NtRp1078
(dp1079
g68
(dp1080
g95
g96
ssg77
g1070
sg70
(lp1081
S':'
asbag63
(g84
g65
NtRp1082
(dp1083
g68
(dp1084
sg77
g1070
sg70
(lp1085
g63
(g64
g65
NtRp1086
(dp1087
g68
(dp1088
g76
I3
ssg77
g1082
sg70
(lp1089
S''
asbasbasbag63
(g79
g65
NtRp1090
(dp1091
g68
(dp1092
sg77
g1066
sg70
(lp1093
g63
(g84
g65
NtRp1094
(dp1095
g68
(dp1096
g88
g89
ssg77
g1090
sg70
(lp1097
g347
asbag63
(g84
g65
NtRp1098
(dp1099
g68
(dp1100
g95
g96
ssg77
g1090
sg70
(lp1101
S':'
asbag63
(g84
g65
NtRp1102
(dp1103
g68
(dp1104
sg77
g1090
sg70
(lp1105
g63
(g64
g65
NtRp1106
(dp1107
g68
(dp1108
g76
I3
ssg77
g1102
sg70
(lp1109
S''
asbasbasbag63
(g79
g65
NtRp1110
(dp1111
g68
(dp1112
sg77
g1066
sg70
(lp1113
g63
(g84
g65
NtRp1114
(dp1115
g68
(dp1116
g88
g89
ssg77
g1110
sg70
(lp1117
g368
asbag63
(g84
g65
NtRp1118
(dp1119
g68
(dp1120
g95
g96
ssg77
g1110
sg70
(lp1121
S':'
asbag63
(g84
g65
NtRp1122
(dp1123
g68
(dp1124
sg77
g1110
sg70
(lp1125
g63
(g64
g65
NtRp1126
(dp1127
g68
(dp1128
g76
I3
ssg77
g1122
sg70
(lp1129
S''
asbasbasbag63
(g79
g65
NtRp1130
(dp1131
g68
(dp1132
sg77
g1066
sg70
(lp1133
g63
(g84
g65
NtRp1134
(dp1135
g68
(dp1136
g88
g89
ssg77
g1130
sg70
(lp1137
g389
asbag63
(g84
g65
NtRp1138
(dp1139
g68
(dp1140
g95
g96
ssg77
g1130
sg70
(lp1141
S':'
asbag63
(g84
g65
NtRp1142
(dp1143
g68
(dp1144
sg77
g1130
sg70
(lp1145
g63
(g64
g65
NtRp1146
(dp1147
g68
(dp1148
g76
I3
ssg77
g1142
sg70
(lp1149
S''
asbasbasbag63
(g79
g65
NtRp1150
(dp1151
g68
(dp1152
sg77
g1066
sg70
(lp1153
g63
(g84
g65
NtRp1154
(dp1155
g68
(dp1156
g88
g89
ssg77
g1150
sg70
(lp1157
g410
asbag63
(g84
g65
NtRp1158
(dp1159
g68
(dp1160
g95
g96
ssg77
g1150
sg70
(lp1161
S':'
asbag63
(g84
g65
NtRp1162
(dp1163
g68
(dp1164
sg77
g1150
sg70
(lp1165
g63
(g64
g65
NtRp1166
(dp1167
g68
(dp1168
g76
I3
ssg77
g1162
sg70
(lp1169
S''
asbasbasbag63
(g79
g65
NtRp1170
(dp1171
g68
(dp1172
sg77
g1066
sg70
(lp1173
g63
(g84
g65
NtRp1174
(dp1175
g68
(dp1176
g88
g89
ssg77
g1170
sg70
(lp1177
g431
asbag63
(g84
g65
NtRp1178
(dp1179
g68
(dp1180
g95
g96
ssg77
g1170
sg70
(lp1181
S':'
asbag63
(g84
g65
NtRp1182
(dp1183
g68
(dp1184
sg77
g1170
sg70
(lp1185
g63
(g64
g65
NtRp1186
(dp1187
g68
(dp1188
g76
I3
ssg77
g1182
sg70
(lp1189
S''
asbasbasbag63
(g79
g65
NtRp1190
(dp1191
g68
(dp1192
sg77
g1066
sg70
(lp1193
g63
(g84
g65
NtRp1194
(dp1195
g68
(dp1196
g88
g89
ssg77
g1190
sg70
(lp1197
g452
asbag63
(g84
g65
NtRp1198
(dp1199
g68
(dp1200
g95
g96
ssg77
g1190
sg70
(lp1201
S':'
asbag63
(g84
g65
NtRp1202
(dp1203
g68
(dp1204
sg77
g1190
sg70
(lp1205
g63
(g64
g65
NtRp1206
(dp1207
g68
(dp1208
g76
I3
ssg77
g1202
sg70
(lp1209
S''
asbasbasbag63
(g79
g65
NtRp1210
(dp1211
g68
(dp1212
sg77
g1066
sg70
(lp1213
g63
(g84
g65
NtRp1214
(dp1215
g68
(dp1216
g88
g89
ssg77
g1210
sg70
(lp1217
g473
asbag63
(g84
g65
NtRp1218
(dp1219
g68
(dp1220
g95
g96
ssg77
g1210
sg70
(lp1221
S':'
asbag63
(g84
g65
NtRp1222
(dp1223
g68
(dp1224
sg77
g1210
sg70
(lp1225
g63
(g64
g65
NtRp1226
(dp1227
g68
(dp1228
g76
I3
ssg77
g1222
sg70
(lp1229
S''
asbasbasbasbasbasbasbasbasbasbasbag63
(g79
g65
NtRp1230
(dp1231
g68
(dp1232
sg77
g73
sg70
(lp1233
g63
(g84
g65
NtRp1234
(dp1235
g68
(dp1236
g88
g89
ssg77
g1230
sg70
(lp1237
S'env'
p1238
asbag63
(g84
g65
NtRp1239
(dp1240
g68
(dp1241
g95
g96
ssg77
g1230
sg70
(lp1242
S':'
asbag63
(g84
g65
NtRp1243
(dp1244
g68
(dp1245
sg77
g1230
sg70
(lp1246
g63
(g64
g65
NtRp1247
(dp1248
g68
(dp1249
g76
I5
ssg77
g1243
sg70
(lp1250
g63
(g72
g65
NtRp1251
(dp1252
g68
(dp1253
g76
I4
ssg77
Nsg70
(lp1254
g63
(g79
g65
NtRp1255
(dp1256
g68
(dp1257
sg77
g1251
sg70
(lp1258
g63
(g84
g65
NtRp1259
(dp1260
g68
(dp1261
g88
g89
ssg77
g1255
sg70
(lp1262
S'app_folders'
p1263
asbag63
(g84
g65
NtRp1264
(dp1265
g68
(dp1266
g95
g96
ssg77
g1255
sg70
(lp1267
S':'
asbag63
(g84
g65
NtRp1268
(dp1269
g68
(dp1270
sg77
g1255
sg70
(lp1271
g63
(g64
g65
NtRp1272
(dp1273
g68
(dp1274
g76
I4
ssg77
g1268
sg70
(lp1275
S"set(['/home/mayank/IIIT/sem 3/SSAD&Project/web2py/applications/taship1/', '/home/mayank/IIIT/sem 3/SSAD&Project/web2py/applications/admin/', '/home/mayank/IIIT/sem 3/SSAD&Project/web2py/applications/welcome/'])"
p1276
asbasbasbag63
(g79
g65
NtRp1277
(dp1278
g68
(dp1279
sg77
g1251
sg70
(lp1280
g63
(g84
g65
NtRp1281
(dp1282
g68
(dp1283
g88
g89
ssg77
g1277
sg70
(lp1284
S'applications_parent'
p1285
asbag63
(g84
g65
NtRp1286
(dp1287
g68
(dp1288
g95
g96
ssg77
g1277
sg70
(lp1289
S':'
asbag63
(g84
g65
NtRp1290
(dp1291
g68
(dp1292
sg77
g1277
sg70
(lp1293
g63
(g64
g65
NtRp1294
(dp1295
g68
(dp1296
g76
I4
ssg77
g1290
sg70
(lp1297
S'/home/mayank/IIIT/sem 3/SSAD&Project/web2py'
p1298
asbasbasbag63
(g79
g65
NtRp1299
(dp1300
g68
(dp1301
sg77
g1251
sg70
(lp1302
g63
(g84
g65
NtRp1303
(dp1304
g68
(dp1305
g88
g89
ssg77
g1299
sg70
(lp1306
S'cmd_args'
p1307
asbag63
(g84
g65
NtRp1308
(dp1309
g68
(dp1310
g95
g96
ssg77
g1299
sg70
(lp1311
S':'
asbag63
(g84
g65
NtRp1312
(dp1313
g68
(dp1314
sg77
g1299
sg70
(lp1315
g63
(g64
g65
NtRp1316
(dp1317
g68
(dp1318
g76
I4
ssg77
g1312
sg70
(lp1319
g63
(g72
g65
NtRp1320
(dp1321
g68
(dp1322
g76
I3
ssg77
Nsg70
(lp1323
sbasbasbasbag63
(g79
g65
NtRp1324
(dp1325
g68
(dp1326
sg77
g1251
sg70
(lp1327
g63
(g84
g65
NtRp1328
(dp1329
g68
(dp1330
g88
g89
ssg77
g1324
sg70
(lp1331
S'cmd_options'
p1332
asbag63
(g84
g65
NtRp1333
(dp1334
g68
(dp1335
g95
g96
ssg77
g1324
sg70
(lp1336
S':'
asbag63
(g84
g65
NtRp1337
(dp1338
g68
(dp1339
sg77
g1324
sg70
(lp1340
g63
(g64
g65
NtRp1341
(dp1342
g68
(dp1343
g76
I4
ssg77
g1337
sg70
(lp1344
S"<Values at 0x202e320: {'verbose': False, 'ip': '127.0.0.1', 'with_scheduler': False, 'ips': ['127.0.1.1'], 'shutdown_timeout': 5, 'taskbar': False, 'port': 8000, 'maxthreads': None, 'softcron': False, 'server_name': 'mayank', 'bpython': False, 'nogui': False, 'nocron': False, 'extcron': False, 'run_system_tests': False, 'test': None, 'folder': '/home/mayank/IIIT/sem 3/SSAD&Project/web2py', 'config': '', 'import_models': False, 'winservice': '', 'shell': None, 'run': '', 'log_filename': 'httpserver.log', 'debuglevel': 30, 'args': [''], 'socket_timeout': 5, 'ssl_ca_certificate': None, 'scheduler': None, 'profiler_filename': None, 'ssl_private_key': '', 'scheduler_groups': None, 'password': '<ask>', 'request_queue_size': 5, 'ssl_certificate': '', 'cronjob': False, 'numthreads': None, 'quiet': False, 'interfaces': None, 'minthreads': None, 'timeout': 10, 'plain': False, 'nobanner': False, 'pid_filename': 'httpserver.pid'}>"
p1345
asbasbasbag63
(g79
g65
NtRp1346
(dp1347
g68
(dp1348
sg77
g1251
sg70
(lp1349
g63
(g84
g65
NtRp1350
(dp1351
g68
(dp1352
g88
g89
ssg77
g1346
sg70
(lp1353
S'db_sessions'
p1354
asbag63
(g84
g65
NtRp1355
(dp1356
g68
(dp1357
g95
g96
ssg77
g1346
sg70
(lp1358
S':'
asbag63
(g84
g65
NtRp1359
(dp1360
g68
(dp1361
sg77
g1346
sg70
(lp1362
g63
(g64
g65
NtRp1363
(dp1364
g68
(dp1365
g76
I4
ssg77
g1359
sg70
(lp1366
S'set([])'
p1367
asbasbasbag63
(g79
g65
NtRp1368
(dp1369
g68
(dp1370
sg77
g1251
sg70
(lp1371
g63
(g84
g65
NtRp1372
(dp1373
g68
(dp1374
g88
g89
ssg77
g1368
sg70
(lp1375
S'debugging'
p1376
asbag63
(g84
g65
NtRp1377
(dp1378
g68
(dp1379
g95
g96
ssg77
g1368
sg70
(lp1380
S':'
asbag63
(g84
g65
NtRp1381
(dp1382
g68
(dp1383
sg77
g1368
sg70
(lp1384
g63
(g64
g65
NtRp1385
(dp1386
g68
(dp1387
g76
I4
ssg77
g1381
sg70
(lp1388
g106
asbasbasbag63
(g79
g65
NtRp1389
(dp1390
g68
(dp1391
sg77
g1251
sg70
(lp1392
g63
(g84
g65
NtRp1393
(dp1394
g68
(dp1395
g88
g89
ssg77
g1389
sg70
(lp1396
S'gluon_parent'
p1397
asbag63
(g84
g65
NtRp1398
(dp1399
g68
(dp1400
g95
g96
ssg77
g1389
sg70
(lp1401
S':'
asbag63
(g84
g65
NtRp1402
(dp1403
g68
(dp1404
sg77
g1389
sg70
(lp1405
g63
(g64
g65
NtRp1406
(dp1407
g68
(dp1408
g76
I4
ssg77
g1402
sg70
(lp1409
S'/home/mayank/IIIT/sem 3/SSAD&Project/web2py'
p1410
asbasbasbag63
(g79
g65
NtRp1411
(dp1412
g68
(dp1413
sg77
g1251
sg70
(lp1414
g63
(g84
g65
NtRp1415
(dp1416
g68
(dp1417
g88
g89
ssg77
g1411
sg70
(lp1418
S'http_accept'
p1419
asbag63
(g84
g65
NtRp1420
(dp1421
g68
(dp1422
g95
g96
ssg77
g1411
sg70
(lp1423
S':'
asbag63
(g84
g65
NtRp1424
(dp1425
g68
(dp1426
sg77
g1411
sg70
(lp1427
g63
(g64
g65
NtRp1428
(dp1429
g68
(dp1430
g76
I4
ssg77
g1424
sg70
(lp1431
S'text/html,application/xhtml+xml,application/xml;q=0.9,*/*;q=0.8'
p1432
asbasbasbag63
(g79
g65
NtRp1433
(dp1434
g68
(dp1435
sg77
g1251
sg70
(lp1436
g63
(g84
g65
NtRp1437
(dp1438
g68
(dp1439
g88
g89
ssg77
g1433
sg70
(lp1440
S'http_accept_encoding'
p1441
asbag63
(g84
g65
NtRp1442
(dp1443
g68
(dp1444
g95
g96
ssg77
g1433
sg70
(lp1445
S':'
asbag63
(g84
g65
NtRp1446
(dp1447
g68
(dp1448
sg77
g1433
sg70
(lp1449
g63
(g64
g65
NtRp1450
(dp1451
g68
(dp1452
g76
I4
ssg77
g1446
sg70
(lp1453
S'gzip, deflate'
p1454
asbasbasbag63
(g79
g65
NtRp1455
(dp1456
g68
(dp1457
sg77
g1251
sg70
(lp1458
g63
(g84
g65
NtRp1459
(dp1460
g68
(dp1461
g88
g89
ssg77
g1455
sg70
(lp1462
S'http_accept_language'
p1463
asbag63
(g84
g65
NtRp1464
(dp1465
g68
(dp1466
g95
g96
ssg77
g1455
sg70
(lp1467
S':'
asbag63
(g84
g65
NtRp1468
(dp1469
g68
(dp1470
sg77
g1455
sg70
(lp1471
g63
(g64
g65
NtRp1472
(dp1473
g68
(dp1474
g76
I4
ssg77
g1468
sg70
(lp1475
S'en-US,en;q=0.5'
p1476
asbasbasbag63
(g79
g65
NtRp1477
(dp1478
g68
(dp1479
sg77
g1251
sg70
(lp1480
g63
(g84
g65
NtRp1481
(dp1482
g68
(dp1483
g88
g89
ssg77
g1477
sg70
(lp1484
S'http_connection'
p1485
asbag63
(g84
g65
NtRp1486
(dp1487
g68
(dp1488
g95
g96
ssg77
g1477
sg70
(lp1489
S':'
asbag63
(g84
g65
NtRp1490
(dp1491
g68
(dp1492
sg77
g1477
sg70
(lp1493
g63
(g64
g65
NtRp1494
(dp1495
g68
(dp1496
g76
I4
ssg77
g1490
sg70
(lp1497
S'keep-alive'
p1498
asbasbasbag63
(g79
g65
NtRp1499
(dp1500
g68
(dp1501
sg77
g1251
sg70
(lp1502
g63
(g84
g65
NtRp1503
(dp1504
g68
(dp1505
g88
g89
ssg77
g1499
sg70
(lp1506
S'http_cookie'
p1507
asbag63
(g84
g65
NtRp1508
(dp1509
g68
(dp1510
g95
g96
ssg77
g1499
sg70
(lp1511
S':'
asbag63
(g84
g65
NtRp1512
(dp1513
g68
(dp1514
sg77
g1499
sg70
(lp1515
g63
(g64
g65
NtRp1516
(dp1517
g68
(dp1518
g76
I4
ssg77
g1512
sg70
(lp1519
S'session_id_welcome=127.0.0.1-3bfc019e-6879-4570-8ec3-d47a909e5c58; session_id_admin=127.0.0.1-5dcf2937-67e2-4b75-8344-2e4702696999; session_id_taship1=127.0.0.1-ba46bc10-544c-4be6-9e27-483a0d6032f3; session_id_tashi=127.0.0.1-8380671b-683e-496c-953c-7ba6ca3db8fd; session_id_project=127.0.0.1-465253d6-f72b-4103-9ac6-ab562270bdef'
p1520
asbasbasbag63
(g79
g65
NtRp1521
(dp1522
g68
(dp1523
sg77
g1251
sg70
(lp1524
g63
(g84
g65
NtRp1525
(dp1526
g68
(dp1527
g88
g89
ssg77
g1521
sg70
(lp1528
S'http_host'
p1529
asbag63
(g84
g65
NtRp1530
(dp1531
g68
(dp1532
g95
g96
ssg77
g1521
sg70
(lp1533
S':'
asbag63
(g84
g65
NtRp1534
(dp1535
g68
(dp1536
sg77
g1521
sg70
(lp1537
g63
(g64
g65
NtRp1538
(dp1539
g68
(dp1540
g76
I4
ssg77
g1534
sg70
(lp1541
S'127.0.0.1:8000'
p1542
asbasbasbag63
(g79
g65
NtRp1543
(dp1544
g68
(dp1545
sg77
g1251
sg70
(lp1546
g63
(g84
g65
NtRp1547
(dp1548
g68
(dp1549
g88
g89
ssg77
g1543
sg70
(lp1550
S'http_user_agent'
p1551
asbag63
(g84
g65
NtRp1552
(dp1553
g68
(dp1554
g95
g96
ssg77
g1543
sg70
(lp1555
S':'
asbag63
(g84
g65
NtRp1556
(dp1557
g68
(dp1558
sg77
g1543
sg70
(lp1559
g63
(g64
g65
NtRp1560
(dp1561
g68
(dp1562
g76
I4
ssg77
g1556
sg70
(lp1563
S'Mozilla/5.0 (X11; Ubuntu; Linux x86_64; rv:16.0) Gecko/20100101 Firefox/16.0'
p1564
asbasbasbag63
(g79
g65
NtRp1565
(dp1566
g68
(dp1567
sg77
g1251
sg70
(lp1568
g63
(g84
g65
NtRp1569
(dp1570
g68
(dp1571
g88
g89
ssg77
g1565
sg70
(lp1572
S'is_jython'
p1573
asbag63
(g84
g65
NtRp1574
(dp1575
g68
(dp1576
g95
g96
ssg77
g1565
sg70
(lp1577
S':'
asbag63
(g84
g65
NtRp1578
(dp1579
g68
(dp1580
sg77
g1565
sg70
(lp1581
g63
(g64
g65
NtRp1582
(dp1583
g68
(dp1584
g76
I4
ssg77
g1578
sg70
(lp1585
g106
asbasbasbag63
(g79
g65
NtRp1586
(dp1587
g68
(dp1588
sg77
g1251
sg70
(lp1589
g63
(g84
g65
NtRp1590
(dp1591
g68
(dp1592
g88
g89
ssg77
g1586
sg70
(lp1593
S'is_pypy'
p1594
asbag63
(g84
g65
NtRp1595
(dp1596
g68
(dp1597
g95
g96
ssg77
g1586
sg70
(lp1598
S':'
asbag63
(g84
g65
NtRp1599
(dp1600
g68
(dp1601
sg77
g1586
sg70
(lp1602
g63
(g64
g65
NtRp1603
(dp1604
g68
(dp1605
g76
I4
ssg77
g1599
sg70
(lp1606
g106
asbasbasbag63
(g79
g65
NtRp1607
(dp1608
g68
(dp1609
sg77
g1251
sg70
(lp1610
g63
(g84
g65
NtRp1611
(dp1612
g68
(dp1613
g88
g89
ssg77
g1607
sg70
(lp1614
S'path_info'
p1615
asbag63
(g84
g65
NtRp1616
(dp1617
g68
(dp1618
g95
g96
ssg77
g1607
sg70
(lp1619
S':'
asbag63
(g84
g65
NtRp1620
(dp1621
g68
(dp1622
sg77
g1607
sg70
(lp1623
g63
(g64
g65
NtRp1624
(dp1625
g68
(dp1626
g76
I4
ssg77
g1620
sg70
(lp1627
S'/admin/default/resolve/taship1/views/'
p1628
asbasbasbag63
(g79
g65
NtRp1629
(dp1630
g68
(dp1631
sg77
g1251
sg70
(lp1632
g63
(g84
g65
NtRp1633
(dp1634
g68
(dp1635
g88
g89
ssg77
g1629
sg70
(lp1636
S'query_string'
p1637
asbag63
(g84
g65
NtRp1638
(dp1639
g68
(dp1640
g95
g96
ssg77
g1629
sg70
(lp1641
S':'
asbag63
(g84
g65
NtRp1642
(dp1643
g68
(dp1644
sg77
g1629
sg70
(lp1645
g63
(g64
g65
NtRp1646
(dp1647
g68
(dp1648
g76
I4
ssg77
g1642
sg70
(lp1649
S''
asbasbasbag63
(g79
g65
NtRp1650
(dp1651
g68
(dp1652
sg77
g1251
sg70
(lp1653
g63
(g84
g65
NtRp1654
(dp1655
g68
(dp1656
g88
g89
ssg77
g1650
sg70
(lp1657
S'remote_addr'
p1658
asbag63
(g84
g65
NtRp1659
(dp1660
g68
(dp1661
g95
g96
ssg77
g1650
sg70
(lp1662
S':'
asbag63
(g84
g65
NtRp1663
(dp1664
g68
(dp1665
sg77
g1650
sg70
(lp1666
g63
(g64
g65
NtRp1667
(dp1668
g68
(dp1669
g76
I4
ssg77
g1663
sg70
(lp1670
g244
asbasbasbag63
(g79
g65
NtRp1671
(dp1672
g68
(dp1673
sg77
g1251
sg70
(lp1674
g63
(g84
g65
NtRp1675
(dp1676
g68
(dp1677
g88
g89
ssg77
g1671
sg70
(lp1678
S'remote_port'
p1679
asbag63
(g84
g65
NtRp1680
(dp1681
g68
(dp1682
g95
g96
ssg77
g1671
sg70
(lp1683
S':'
asbag63
(g84
g65
NtRp1684
(dp1685
g68
(dp1686
sg77
g1671
sg70
(lp1687
g63
(g64
g65
NtRp1688
(dp1689
g68
(dp1690
g76
I4
ssg77
g1684
sg70
(lp1691
S'38844'
p1692
asbasbasbag63
(g79
g65
NtRp1693
(dp1694
g68
(dp1695
sg77
g1251
sg70
(lp1696
g63
(g84
g65
NtRp1697
(dp1698
g68
(dp1699
g88
g89
ssg77
g1693
sg70
(lp1700
S'request_method'
p1701
asbag63
(g84
g65
NtRp1702
(dp1703
g68
(dp1704
g95
g96
ssg77
g1693
sg70
(lp1705
S':'
asbag63
(g84
g65
NtRp1706
(dp1707
g68
(dp1708
sg77
g1693
sg70
(lp1709
g63
(g64
g65
NtRp1710
(dp1711
g68
(dp1712
g76
I4
ssg77
g1706
sg70
(lp1713
S'GET'
p1714
asbasbasbag63
(g79
g65
NtRp1715
(dp1716
g68
(dp1717
sg77
g1251
sg70
(lp1718
g63
(g84
g65
NtRp1719
(dp1720
g68
(dp1721
g88
g89
ssg77
g1715
sg70
(lp1722
S'request_uri'
p1723
asbag63
(g84
g65
NtRp1724
(dp1725
g68
(dp1726
g95
g96
ssg77
g1715
sg70
(lp1727
S':'
asbag63
(g84
g65
NtRp1728
(dp1729
g68
(dp1730
sg77
g1715
sg70
(lp1731
g63
(g64
g65
NtRp1732
(dp1733
g68
(dp1734
g76
I4
ssg77
g1728
sg70
(lp1735
g1628
asbasbasbag63
(g79
g65
NtRp1736
(dp1737
g68
(dp1738
sg77
g1251
sg70
(lp1739
g63
(g84
g65
NtRp1740
(dp1741
g68
(dp1742
g88
g89
ssg77
g1736
sg70
(lp1743
S'script_name'
p1744
asbag63
(g84
g65
NtRp1745
(dp1746
g68
(dp1747
g95
g96
ssg77
g1736
sg70
(lp1748
S':'
asbag63
(g84
g65
NtRp1749
(dp1750
g68
(dp1751
sg77
g1736
sg70
(lp1752
g63
(g64
g65
NtRp1753
(dp1754
g68
(dp1755
g76
I4
ssg77
g1749
sg70
(lp1756
S''
asbasbasbag63
(g79
g65
NtRp1757
(dp1758
g68
(dp1759
sg77
g1251
sg70
(lp1760
g63
(g84
g65
NtRp1761
(dp1762
g68
(dp1763
g88
g89
ssg77
g1757
sg70
(lp1764
S'server_name'
p1765
asbag63
(g84
g65
NtRp1766
(dp1767
g68
(dp1768
g95
g96
ssg77
g1757
sg70
(lp1769
S':'
asbag63
(g84
g65
NtRp1770
(dp1771
g68
(dp1772
sg77
g1757
sg70
(lp1773
g63
(g64
g65
NtRp1774
(dp1775
g68
(dp1776
g76
I4
ssg77
g1770
sg70
(lp1777
S'mayank'
p1778
asbasbasbag63
(g79
g65
NtRp1779
(dp1780
g68
(dp1781
sg77
g1251
sg70
(lp1782
g63
(g84
g65
NtRp1783
(dp1784
g68
(dp1785
g88
g89
ssg77
g1779
sg70
(lp1786
S'server_port'
p1787
asbag63
(g84
g65
NtRp1788
(dp1789
g68
(dp1790
g95
g96
ssg77
g1779
sg70
(lp1791
S':'
asbag63
(g84
g65
NtRp1792
(dp1793
g68
(dp1794
sg77
g1779
sg70
(lp1795
g63
(g64
g65
NtRp1796
(dp1797
g68
(dp1798
g76
I4
ssg77
g1792
sg70
(lp1799
S'8000'
p1800
asbasbasbag63
(g79
g65
NtRp1801
(dp1802
g68
(dp1803
sg77
g1251
sg70
(lp1804
g63
(g84
g65
NtRp1805
(dp1806
g68
(dp1807
g88
g89
ssg77
g1801
sg70
(lp1808
S'server_protocol'
p1809
asbag63
(g84
g65
NtRp1810
(dp1811
g68
(dp1812
g95
g96
ssg77
g1801
sg70
(lp1813
S':'
asbag63
(g84
g65
NtRp1814
(dp1815
g68
(dp1816
sg77
g1801
sg70
(lp1817
g63
(g64
g65
NtRp1818
(dp1819
g68
(dp1820
g76
I4
ssg77
g1814
sg70
(lp1821
S'HTTP/1.1'
p1822
asbasbasbag63
(g79
g65
NtRp1823
(dp1824
g68
(dp1825
sg77
g1251
sg70
(lp1826
g63
(g84
g65
NtRp1827
(dp1828
g68
(dp1829
g88
g89
ssg77
g1823
sg70
(lp1830
S'server_software'
p1831
asbag63
(g84
g65
NtRp1832
(dp1833
g68
(dp1834
g95
g96
ssg77
g1823
sg70
(lp1835
S':'
asbag63
(g84
g65
NtRp1836
(dp1837
g68
(dp1838
sg77
g1823
sg70
(lp1839
g63
(g64
g65
NtRp1840
(dp1841
g68
(dp1842
g76
I4
ssg77
g1836
sg70
(lp1843
S'Rocket 1.2.4'
p1844
asbasbasbag63
(g79
g65
NtRp1845
(dp1846
g68
(dp1847
sg77
g1251
sg70
(lp1848
g63
(g84
g65
NtRp1849
(dp1850
g68
(dp1851
g88
g89
ssg77
g1845
sg70
(lp1852
S'web2py_crontype'
p1853
asbag63
(g84
g65
NtRp1854
(dp1855
g68
(dp1856
g95
g96
ssg77
g1845
sg70
(lp1857
S':'
asbag63
(g84
g65
NtRp1858
(dp1859
g68
(dp1860
sg77
g1845
sg70
(lp1861
g63
(g64
g65
NtRp1862
(dp1863
g68
(dp1864
g76
I4
ssg77
g1858
sg70
(lp1865
S'hard'
p1866
asbasbasbag63
(g79
g65
NtRp1867
(dp1868
g68
(dp1869
sg77
g1251
sg70
(lp1870
g63
(g84
g65
NtRp1871
(dp1872
g68
(dp1873
g88
g89
ssg77
g1867
sg70
(lp1874
S'web2py_path'
p1875
asbag63
(g84
g65
NtRp1876
(dp1877
g68
(dp1878
g95
g96
ssg77
g1867
sg70
(lp1879
S':'
asbag63
(g84
g65
NtRp1880
(dp1881
g68
(dp1882
sg77
g1867
sg70
(lp1883
g63
(g64
g65
NtRp1884
(dp1885
g68
(dp1886
g76
I4
ssg77
g1880
sg70
(lp1887
g1298
asbasbasbag63
(g79
g65
NtRp1888
(dp1889
g68
(dp1890
sg77
g1251
sg70
(lp1891
g63
(g84
g65
NtRp1892
(dp1893
g68
(dp1894
g88
g89
ssg77
g1888
sg70
(lp1895
S'web2py_version'
p1896
asbag63
(g84
g65
NtRp1897
(dp1898
g68
(dp1899
g95
g96
ssg77
g1888
sg70
(lp1900
S':'
asbag63
(g84
g65
NtRp1901
(dp1902
g68
(dp1903
sg77
g1888
sg70
(lp1904
g63
(g64
g65
NtRp1905
(dp1906
g68
(dp1907
g76
I4
ssg77
g1901
sg70
(lp1908
g63
(g72
g65
NtRp1909
(dp1910
g68
(dp1911
g76
I3
ssg77
Nsg70
(lp1912
g63
(g79
g65
NtRp1913
(dp1914
g68
(dp1915
sg77
g1909
sg70
(lp1916
g63
(g84
g65
NtRp1917
(dp1918
g68
(dp1919
sg77
g1913
sg70
(lp1920
g63
(g64
g65
NtRp1921
(dp1922
g68
(dp1923
g76
I3
ssg77
g1917
sg70
(lp1924
S'2'
asbasbasbag63
(g79
g65
NtRp1925
(dp1926
g68
(dp1927
sg77
g1909
sg70
(lp1928
g63
(g84
g65
NtRp1929
(dp1930
g68
(dp1931
sg77
g1925
sg70
(lp1932
g63
(g64
g65
NtRp1933
(dp1934
g68
(dp1935
g76
I3
ssg77
g1929
sg70
(lp1936
S'0'
asbasbasbag63
(g79
g65
NtRp1937
(dp1938
g68
(dp1939
sg77
g1909
sg70
(lp1940
g63
(g84
g65
NtRp1941
(dp1942
g68
(dp1943
sg77
g1937
sg70
(lp1944
g63
(g64
g65
NtRp1945
(dp1946
g68
(dp1947
g76
I3
ssg77
g1941
sg70
(lp1948
S'8'
asbasbasbag63
(g79
g65
NtRp1949
(dp1950
g68
(dp1951
sg77
g1909
sg70
(lp1952
g63
(g84
g65
NtRp1953
(dp1954
g68
(dp1955
sg77
g1949
sg70
(lp1956
g63
(g64
g65
NtRp1957
(dp1958
g68
(dp1959
g76
I3
ssg77
g1953
sg70
(lp1960
S'datetime.datetime(2012, 9, 7, 3, 47, 51)'
p1961
asbasbasbag63
(g79
g65
NtRp1962
(dp1963
g68
(dp1964
sg77
g1909
sg70
(lp1965
g63
(g84
g65
NtRp1966
(dp1967
g68
(dp1968
sg77
g1962
sg70
(lp1969
g63
(g64
g65
NtRp1970
(dp1971
g68
(dp1972
g76
I3
ssg77
g1966
sg70
(lp1973
S'stable'
p1974
asbasbasbasbasbasbasbag63
(g79
g65
NtRp1975
(dp1976
g68
(dp1977
sg77
g1251
sg70
(lp1978
g63
(g84
g65
NtRp1979
(dp1980
g68
(dp1981
g88
g89
ssg77
g1975
sg70
(lp1982
S'wsgi_errors'
p1983
asbag63
(g84
g65
NtRp1984
(dp1985
g68
(dp1986
g95
g96
ssg77
g1975
sg70
(lp1987
S':'
asbag63
(g84
g65
NtRp1988
(dp1989
g68
(dp1990
sg77
g1975
sg70
(lp1991
g63
(g64
g65
NtRp1992
(dp1993
g68
(dp1994
g76
I4
ssg77
g1988
sg70
(lp1995
S"<open file '<stderr>', mode 'w' at 0x7f5cb5883270>"
p1996
asbasbasbag63
(g79
g65
NtRp1997
(dp1998
g68
(dp1999
sg77
g1251
sg70
(lp2000
g63
(g84
g65
NtRp2001
(dp2002
g68
(dp2003
g88
g89
ssg77
g1997
sg70
(lp2004
S'wsgi_file_wrapper'
p2005
asbag63
(g84
g65
NtRp2006
(dp2007
g68
(dp2008
g95
g96
ssg77
g1997
sg70
(lp2009
S':'
asbag63
(g84
g65
NtRp2010
(dp2011
g68
(dp2012
sg77
g1997
sg70
(lp2013
g63
(g64
g65
NtRp2014
(dp2015
g68
(dp2016
g76
I4
ssg77
g2010
sg70
(lp2017
S'<class wsgiref.util.FileWrapper at 0x1fbc120>'
p2018
asbasbasbag63
(g79
g65
NtRp2019
(dp2020
g68
(dp2021
sg77
g1251
sg70
(lp2022
g63
(g84
g65
NtRp2023
(dp2024
g68
(dp2025
g88
g89
ssg77
g2019
sg70
(lp2026
S'wsgi_input'
p2027
asbag63
(g84
g65
NtRp2028
(dp2029
g68
(dp2030
g95
g96
ssg77
g2019
sg70
(lp2031
S':'
asbag63
(g84
g65
NtRp2032
(dp2033
g68
(dp2034
sg77
g2019
sg70
(lp2035
g63
(g64
g65
NtRp2036
(dp2037
g68
(dp2038
g76
I4
ssg77
g2032
sg70
(lp2039
S'<socket._fileobject object at 0x7f5c9845ecd0>'
p2040
asbasbasbag63
(g79
g65
NtRp2041
(dp2042
g68
(dp2043
sg77
g1251
sg70
(lp2044
g63
(g84
g65
NtRp2045
(dp2046
g68
(dp2047
g88
g89
ssg77
g2041
sg70
(lp2048
S'wsgi_multiprocess'
p2049
asbag63
(g84
g65
NtRp2050
(dp2051
g68
(dp2052
g95
g96
ssg77
g2041
sg70
(lp2053
S':'
asbag63
(g84
g65
NtRp2054
(dp2055
g68
(dp2056
sg77
g2041
sg70
(lp2057
g63
(g64
g65
NtRp2058
(dp2059
g68
(dp2060
g76
I4
ssg77
g2054
sg70
(lp2061
g106
asbasbasbag63
(g79
g65
NtRp2062
(dp2063
g68
(dp2064
sg77
g1251
sg70
(lp2065
g63
(g84
g65
NtRp2066
(dp2067
g68
(dp2068
g88
g89
ssg77
g2062
sg70
(lp2069
S'wsgi_multithread'
p2070
asbag63
(g84
g65
NtRp2071
(dp2072
g68
(dp2073
g95
g96
ssg77
g2062
sg70
(lp2074
S':'
asbag63
(g84
g65
NtRp2075
(dp2076
g68
(dp2077
sg77
g2062
sg70
(lp2078
g63
(g64
g65
NtRp2079
(dp2080
g68
(dp2081
g76
I4
ssg77
g2075
sg70
(lp2082
S'True'
p2083
asbasbasbag63
(g79
g65
NtRp2084
(dp2085
g68
(dp2086
sg77
g1251
sg70
(lp2087
g63
(g84
g65
NtRp2088
(dp2089
g68
(dp2090
g88
g89
ssg77
g2084
sg70
(lp2091
S'wsgi_run_once'
p2092
asbag63
(g84
g65
NtRp2093
(dp2094
g68
(dp2095
g95
g96
ssg77
g2084
sg70
(lp2096
S':'
asbag63
(g84
g65
NtRp2097
(dp2098
g68
(dp2099
sg77
g2084
sg70
(lp2100
g63
(g64
g65
NtRp2101
(dp2102
g68
(dp2103
g76
I4
ssg77
g2097
sg70
(lp2104
g106
asbasbasbag63
(g79
g65
NtRp2105
(dp2106
g68
(dp2107
sg77
g1251
sg70
(lp2108
g63
(g84
g65
NtRp2109
(dp2110
g68
(dp2111
g88
g89
ssg77
g2105
sg70
(lp2112
S'wsgi_url_scheme'
p2113
asbag63
(g84
g65
NtRp2114
(dp2115
g68
(dp2116
g95
g96
ssg77
g2105
sg70
(lp2117
S':'
asbag63
(g84
g65
NtRp2118
(dp2119
g68
(dp2120
sg77
g2105
sg70
(lp2121
g63
(g64
g65
NtRp2122
(dp2123
g68
(dp2124
g76
I4
ssg77
g2118
sg70
(lp2125
S'http'
p2126
asbasbasbag63
(g79
g65
NtRp2127
(dp2128
g68
(dp2129
sg77
g1251
sg70
(lp2130
g63
(g84
g65
NtRp2131
(dp2132
g68
(dp2133
g88
g89
ssg77
g2127
sg70
(lp2134
S'wsgi_version'
p2135
asbag63
(g84
g65
NtRp2136
(dp2137
g68
(dp2138
g95
g96
ssg77
g2127
sg70
(lp2139
S':'
asbag63
(g84
g65
NtRp2140
(dp2141
g68
(dp2142
sg77
g2127
sg70
(lp2143
g63
(g64
g65
NtRp2144
(dp2145
g68
(dp2146
g76
I4
ssg77
g2140
sg70
(lp2147
g63
(g72
g65
NtRp2148
(dp2149
g68
(dp2150
g76
I3
ssg77
Nsg70
(lp2151
g63
(g79
g65
NtRp2152
(dp2153
g68
(dp2154
sg77
g2148
sg70
(lp2155
g63
(g84
g65
NtRp2156
(dp2157
g68
(dp2158
sg77
g2152
sg70
(lp2159
g63
(g64
g65
NtRp2160
(dp2161
g68
(dp2162
g76
I3
ssg77
g2156
sg70
(lp2163
S'1'
asbasbasbag63
(g79
g65
NtRp2164
(dp2165
g68
(dp2166
sg77
g2148
sg70
(lp2167
g63
(g84
g65
NtRp2168
(dp2169
g68
(dp2170
sg77
g2164
sg70
(lp2171
g63
(g64
g65
NtRp2172
(dp2173
g68
(dp2174
g76
I3
ssg77
g2168
sg70
(lp2175
S'0'
asbasbasbasbasbasbasbasbasbasbasbag63
(g79
g65
NtRp2176
(dp2177
g68
(dp2178
sg77
g73
sg70
(lp2179
g63
(g84
g65
NtRp2180
(dp2181
g68
(dp2182
g88
g89
ssg77
g2176
sg70
(lp2183
S'extension'
p2184
asbag63
(g84
g65
NtRp2185
(dp2186
g68
(dp2187
g95
g96
ssg77
g2176
sg70
(lp2188
S':'
asbag63
(g84
g65
NtRp2189
(dp2190
g68
(dp2191
sg77
g2176
sg70
(lp2192
g63
(g64
g65
NtRp2193
(dp2194
g68
(dp2195
g76
I5
ssg77
g2189
sg70
(lp2196
S'html'
p2197
asbasbasbag63
(g79
g65
NtRp2198
(dp2199
g68
(dp2200
sg77
g73
sg70
(lp2201
g63
(g84
g65
NtRp2202
(dp2203
g68
(dp2204
g88
g89
ssg77
g2198
sg70
(lp2205
S'folder'
p2206
asbag63
(g84
g65
NtRp2207
(dp2208
g68
(dp2209
g95
g96
ssg77
g2198
sg70
(lp2210
S':'
asbag63
(g84
g65
NtRp2211
(dp2212
g68
(dp2213
sg77
g2198
sg70
(lp2214
g63
(g64
g65
NtRp2215
(dp2216
g68
(dp2217
g76
I5
ssg77
g2211
sg70
(lp2218
S'/home/mayank/IIIT/sem 3/SSAD&Project/web2py/applications/admin/'
p2219
asbasbasbag63
(g79
g65
NtRp2220
(dp2221
g68
(dp2222
sg77
g73
sg70
(lp2223
g63
(g84
g65
NtRp2224
(dp2225
g68
(dp2226
g88
g89
ssg77
g2220
sg70
(lp2227
S'function'
p2228
asbag63
(g84
g65
NtRp2229
(dp2230
g68
(dp2231
g95
g96
ssg77
g2220
sg70
(lp2232
S':'
asbag63
(g84
g65
NtRp2233
(dp2234
g68
(dp2235
sg77
g2220
sg70
(lp2236
g63
(g64
g65
NtRp2237
(dp2238
g68
(dp2239
g76
I5
ssg77
g2233
sg70
(lp2240
S'resolve'
p2241
asbasbasbag63
(g79
g65
NtRp2242
(dp2243
g68
(dp2244
sg77
g73
sg70
(lp2245
g63
(g84
g65
NtRp2246
(dp2247
g68
(dp2248
g88
g89
ssg77
g2242
sg70
(lp2249
S'get_vars'
p2250
asbag63
(g84
g65
NtRp2251
(dp2252
g68
(dp2253
g95
g96
ssg77
g2242
sg70
(lp2254
S':'
asbag63
(g84
g65
NtRp2255
(dp2256
g68
(dp2257
sg77
g2242
sg70
(lp2258
g63
(g64
g65
NtRp2259
(dp2260
g68
(dp2261
g76
I5
ssg77
g2255
sg70
(lp2262
g63
(g72
g65
NtRp2263
(dp2264
g68
(dp2265
g76
I4
ssg77
Nsg70
(lp2266
sbasbasbasbag63
(g79
g65
NtRp2267
(dp2268
g68
(dp2269
sg77
g73
sg70
(lp2270
g63
(g84
g65
NtRp2271
(dp2272
g68
(dp2273
g88
g89
ssg77
g2267
sg70
(lp2274
S'global_settings'
p2275
asbag63
(g84
g65
NtRp2276
(dp2277
g68
(dp2278
g95
g96
ssg77
g2267
sg70
(lp2279
S':'
asbag63
(g84
g65
NtRp2280
(dp2281
g68
(dp2282
sg77
g2267
sg70
(lp2283
g63
(g64
g65
NtRp2284
(dp2285
g68
(dp2286
g76
I5
ssg77
g2280
sg70
(lp2287
g63
(g72
g65
NtRp2288
(dp2289
g68
(dp2290
g76
I4
ssg77
Nsg70
(lp2291
g63
(g79
g65
NtRp2292
(dp2293
g68
(dp2294
sg77
g2288
sg70
(lp2295
g63
(g84
g65
NtRp2296
(dp2297
g68
(dp2298
g88
g89
ssg77
g2292
sg70
(lp2299
g1263
asbag63
(g84
g65
NtRp2300
(dp2301
g68
(dp2302
g95
g96
ssg77
g2292
sg70
(lp2303
S':'
asbag63
(g84
g65
NtRp2304
(dp2305
g68
(dp2306
sg77
g2292
sg70
(lp2307
g63
(g64
g65
NtRp2308
(dp2309
g68
(dp2310
g76
I4
ssg77
g2304
sg70
(lp2311
S"set(['/home/mayank/IIIT/sem 3/SSAD&Project/web2py/applications/taship1/', '/home/mayank/IIIT/sem 3/SSAD&Project/web2py/applications/admin/', '/home/mayank/IIIT/sem 3/SSAD&Project/web2py/applications/welcome/'])"
p2312
asbasbasbag63
(g79
g65
NtRp2313
(dp2314
g68
(dp2315
sg77
g2288
sg70
(lp2316
g63
(g84
g65
NtRp2317
(dp2318
g68
(dp2319
g88
g89
ssg77
g2313
sg70
(lp2320
g1285
asbag63
(g84
g65
NtRp2321
(dp2322
g68
(dp2323
g95
g96
ssg77
g2313
sg70
(lp2324
S':'
asbag63
(g84
g65
NtRp2325
(dp2326
g68
(dp2327
sg77
g2313
sg70
(lp2328
g63
(g64
g65
NtRp2329
(dp2330
g68
(dp2331
g76
I4
ssg77
g2325
sg70
(lp2332
g1298
asbasbasbag63
(g79
g65
NtRp2333
(dp2334
g68
(dp2335
sg77
g2288
sg70
(lp2336
g63
(g84
g65
NtRp2337
(dp2338
g68
(dp2339
g88
g89
ssg77
g2333
sg70
(lp2340
g1307
asbag63
(g84
g65
NtRp2341
(dp2342
g68
(dp2343
g95
g96
ssg77
g2333
sg70
(lp2344
S':'
asbag63
(g84
g65
NtRp2345
(dp2346
g68
(dp2347
sg77
g2333
sg70
(lp2348
g63
(g64
g65
NtRp2349
(dp2350
g68
(dp2351
g76
I4
ssg77
g2345
sg70
(lp2352
g63
(g72
g65
NtRp2353
(dp2354
g68
(dp2355
g76
I3
ssg77
Nsg70
(lp2356
sbasbasbasbag63
(g79
g65
NtRp2357
(dp2358
g68
(dp2359
sg77
g2288
sg70
(lp2360
g63
(g84
g65
NtRp2361
(dp2362
g68
(dp2363
g88
g89
ssg77
g2357
sg70
(lp2364
g1332
asbag63
(g84
g65
NtRp2365
(dp2366
g68
(dp2367
g95
g96
ssg77
g2357
sg70
(lp2368
S':'
asbag63
(g84
g65
NtRp2369
(dp2370
g68
(dp2371
sg77
g2357
sg70
(lp2372
g63
(g64
g65
NtRp2373
(dp2374
g68
(dp2375
g76
I4
ssg77
g2369
sg70
(lp2376
S"<Values at 0x202e320: {'verbose': False, 'ip': '127.0.0.1', 'with_scheduler': False, 'ips': ['127.0.1.1'], 'shutdown_timeout': 5, 'taskbar': False, 'port': 8000, 'maxthreads': None, 'softcron': False, 'server_name': 'mayank', 'bpython': False, 'nogui': False, 'nocron': False, 'extcron': False, 'run_system_tests': False, 'test': None, 'folder': '/home/mayank/IIIT/sem 3/SSAD&Project/web2py', 'config': '', 'import_models': False, 'winservice': '', 'shell': None, 'run': '', 'log_filename': 'httpserver.log', 'debuglevel': 30, 'args': [''], 'socket_timeout': 5, 'ssl_ca_certificate': None, 'scheduler': None, 'profiler_filename': None, 'ssl_private_key': '', 'scheduler_groups': None, 'password': '<ask>', 'request_queue_size': 5, 'ssl_certificate': '', 'cronjob': False, 'numthreads': None, 'quiet': False, 'interfaces': None, 'minthreads': None, 'timeout': 10, 'plain': False, 'nobanner': False, 'pid_filename': 'httpserver.pid'}>"
p2377
asbasbasbag63
(g79
g65
NtRp2378
(dp2379
g68
(dp2380
sg77
g2288
sg70
(lp2381
g63
(g84
g65
NtRp2382
(dp2383
g68
(dp2384
g88
g89
ssg77
g2378
sg70
(lp2385
g1354
asbag63
(g84
g65
NtRp2386
(dp2387
g68
(dp2388
g95
g96
ssg77
g2378
sg70
(lp2389
S':'
asbag63
(g84
g65
NtRp2390
(dp2391
g68
(dp2392
sg77
g2378
sg70
(lp2393
g63
(g64
g65
NtRp2394
(dp2395
g68
(dp2396
g76
I4
ssg77
g2390
sg70
(lp2397
S'set([])'
p2398
asbasbasbag63
(g79
g65
NtRp2399
(dp2400
g68
(dp2401
sg77
g2288
sg70
(lp2402
g63
(g84
g65
NtRp2403
(dp2404
g68
(dp2405
g88
g89
ssg77
g2399
sg70
(lp2406
g1376
asbag63
(g84
g65
NtRp2407
(dp2408
g68
(dp2409
g95
g96
ssg77
g2399
sg70
(lp2410
S':'
asbag63
(g84
g65
NtRp2411
(dp2412
g68
(dp2413
sg77
g2399
sg70
(lp2414
g63
(g64
g65
NtRp2415
(dp2416
g68
(dp2417
g76
I4
ssg77
g2411
sg70
(lp2418
g106
asbasbasbag63
(g79
g65
NtRp2419
(dp2420
g68
(dp2421
sg77
g2288
sg70
(lp2422
g63
(g84
g65
NtRp2423
(dp2424
g68
(dp2425
g88
g89
ssg77
g2419
sg70
(lp2426
g1397
asbag63
(g84
g65
NtRp2427
(dp2428
g68
(dp2429
g95
g96
ssg77
g2419
sg70
(lp2430
S':'
asbag63
(g84
g65
NtRp2431
(dp2432
g68
(dp2433
sg77
g2419
sg70
(lp2434
g63
(g64
g65
NtRp2435
(dp2436
g68
(dp2437
g76
I4
ssg77
g2431
sg70
(lp2438
g1410
asbasbasbag63
(g79
g65
NtRp2439
(dp2440
g68
(dp2441
sg77
g2288
sg70
(lp2442
g63
(g84
g65
NtRp2443
(dp2444
g68
(dp2445
g88
g89
ssg77
g2439
sg70
(lp2446
g1573
asbag63
(g84
g65
NtRp2447
(dp2448
g68
(dp2449
g95
g96
ssg77
g2439
sg70
(lp2450
S':'
asbag63
(g84
g65
NtRp2451
(dp2452
g68
(dp2453
sg77
g2439
sg70
(lp2454
g63
(g64
g65
NtRp2455
(dp2456
g68
(dp2457
g76
I4
ssg77
g2451
sg70
(lp2458
g106
asbasbasbag63
(g79
g65
NtRp2459
(dp2460
g68
(dp2461
sg77
g2288
sg70
(lp2462
g63
(g84
g65
NtRp2463
(dp2464
g68
(dp2465
g88
g89
ssg77
g2459
sg70
(lp2466
g1594
asbag63
(g84
g65
NtRp2467
(dp2468
g68
(dp2469
g95
g96
ssg77
g2459
sg70
(lp2470
S':'
asbag63
(g84
g65
NtRp2471
(dp2472
g68
(dp2473
sg77
g2459
sg70
(lp2474
g63
(g64
g65
NtRp2475
(dp2476
g68
(dp2477
g76
I4
ssg77
g2471
sg70
(lp2478
g106
asbasbasbag63
(g79
g65
NtRp2479
(dp2480
g68
(dp2481
sg77
g2288
sg70
(lp2482
g63
(g84
g65
NtRp2483
(dp2484
g68
(dp2485
g88
g89
ssg77
g2479
sg70
(lp2486
g1853
asbag63
(g84
g65
NtRp2487
(dp2488
g68
(dp2489
g95
g96
ssg77
g2479
sg70
(lp2490
S':'
asbag63
(g84
g65
NtRp2491
(dp2492
g68
(dp2493
sg77
g2479
sg70
(lp2494
g63
(g64
g65
NtRp2495
(dp2496
g68
(dp2497
g76
I4
ssg77
g2491
sg70
(lp2498
g1866
asbasbasbag63
(g79
g65
NtRp2499
(dp2500
g68
(dp2501
sg77
g2288
sg70
(lp2502
g63
(g84
g65
NtRp2503
(dp2504
g68
(dp2505
g88
g89
ssg77
g2499
sg70
(lp2506
g1896
asbag63
(g84
g65
NtRp2507
(dp2508
g68
(dp2509
g95
g96
ssg77
g2499
sg70
(lp2510
S':'
asbag63
(g84
g65
NtRp2511
(dp2512
g68
(dp2513
sg77
g2499
sg70
(lp2514
g63
(g64
g65
NtRp2515
(dp2516
g68
(dp2517
g76
I4
ssg77
g2511
sg70
(lp2518
g63
(g72
g65
NtRp2519
(dp2520
g68
(dp2521
g76
I3
ssg77
Nsg70
(lp2522
g63
(g79
g65
NtRp2523
(dp2524
g68
(dp2525
sg77
g2519
sg70
(lp2526
g63
(g84
g65
NtRp2527
(dp2528
g68
(dp2529
sg77
g2523
sg70
(lp2530
g63
(g64
g65
NtRp2531
(dp2532
g68
(dp2533
g76
I3
ssg77
g2527
sg70
(lp2534
S'2'
asbasbasbag63
(g79
g65
NtRp2535
(dp2536
g68
(dp2537
sg77
g2519
sg70
(lp2538
g63
(g84
g65
NtRp2539
(dp2540
g68
(dp2541
sg77
g2535
sg70
(lp2542
g63
(g64
g65
NtRp2543
(dp2544
g68
(dp2545
g76
I3
ssg77
g2539
sg70
(lp2546
S'0'
asbasbasbag63
(g79
g65
NtRp2547
(dp2548
g68
(dp2549
sg77
g2519
sg70
(lp2550
g63
(g84
g65
NtRp2551
(dp2552
g68
(dp2553
sg77
g2547
sg70
(lp2554
g63
(g64
g65
NtRp2555
(dp2556
g68
(dp2557
g76
I3
ssg77
g2551
sg70
(lp2558
S'8'
asbasbasbag63
(g79
g65
NtRp2559
(dp2560
g68
(dp2561
sg77
g2519
sg70
(lp2562
g63
(g84
g65
NtRp2563
(dp2564
g68
(dp2565
sg77
g2559
sg70
(lp2566
g63
(g64
g65
NtRp2567
(dp2568
g68
(dp2569
g76
I3
ssg77
g2563
sg70
(lp2570
S'datetime.datetime(2012, 9, 7, 3, 47, 51)'
p2571
asbasbasbag63
(g79
g65
NtRp2572
(dp2573
g68
(dp2574
sg77
g2519
sg70
(lp2575
g63
(g84
g65
NtRp2576
(dp2577
g68
(dp2578
sg77
g2572
sg70
(lp2579
g63
(g64
g65
NtRp2580
(dp2581
g68
(dp2582
g76
I3
ssg77
g2576
sg70
(lp2583
g1974
asbasbasbasbasbasbasbasbasbasbasbag63
(g79
g65
NtRp2584
(dp2585
g68
(dp2586
sg77
g73
sg70
(lp2587
g63
(g84
g65
NtRp2588
(dp2589
g68
(dp2590
g88
g89
ssg77
g2584
sg70
(lp2591
S'is_https'
p2592
asbag63
(g84
g65
NtRp2593
(dp2594
g68
(dp2595
g95
g96
ssg77
g2584
sg70
(lp2596
S':'
asbag63
(g84
g65
NtRp2597
(dp2598
g68
(dp2599
sg77
g2584
sg70
(lp2600
g63
(g64
g65
NtRp2601
(dp2602
g68
(dp2603
g76
I5
ssg77
g2597
sg70
(lp2604
g106
asbasbasbag63
(g79
g65
NtRp2605
(dp2606
g68
(dp2607
sg77
g73
sg70
(lp2608
g63
(g84
g65
NtRp2609
(dp2610
g68
(dp2611
g88
g89
ssg77
g2605
sg70
(lp2612
S'is_local'
p2613
asbag63
(g84
g65
NtRp2614
(dp2615
g68
(dp2616
g95
g96
ssg77
g2605
sg70
(lp2617
S':'
asbag63
(g84
g65
NtRp2618
(dp2619
g68
(dp2620
sg77
g2605
sg70
(lp2621
g63
(g64
g65
NtRp2622
(dp2623
g68
(dp2624
g76
I5
ssg77
g2618
sg70
(lp2625
g2083
asbasbasbag63
(g79
g65
NtRp2626
(dp2627
g68
(dp2628
sg77
g73
sg70
(lp2629
g63
(g84
g65
NtRp2630
(dp2631
g68
(dp2632
g88
g89
ssg77
g2626
sg70
(lp2633
S'is_restful'
p2634
asbag63
(g84
g65
NtRp2635
(dp2636
g68
(dp2637
g95
g96
ssg77
g2626
sg70
(lp2638
S':'
asbag63
(g84
g65
NtRp2639
(dp2640
g68
(dp2641
sg77
g2626
sg70
(lp2642
g63
(g64
g65
NtRp2643
(dp2644
g68
(dp2645
g76
I5
ssg77
g2639
sg70
(lp2646
g106
asbasbasbag63
(g79
g65
NtRp2647
(dp2648
g68
(dp2649
sg77
g73
sg70
(lp2650
g63
(g84
g65
NtRp2651
(dp2652
g68
(dp2653
g88
g89
ssg77
g2647
sg70
(lp2654
S'now'
p2655
asbag63
(g84
g65
NtRp2656
(dp2657
g68
(dp2658
g95
g96
ssg77
g2647
sg70
(lp2659
S':'
asbag63
(g84
g65
NtRp2660
(dp2661
g68
(dp2662
sg77
g2647
sg70
(lp2663
g63
(g64
g65
NtRp2664
(dp2665
g68
(dp2666
g76
I5
ssg77
g2660
sg70
(lp2667
S'datetime.datetime(2012, 10, 14, 9, 6, 43, 55278)'
p2668
asbasbasbag63
(g79
g65
NtRp2669
(dp2670
g68
(dp2671
sg77
g73
sg70
(lp2672
g63
(g84
g65
NtRp2673
(dp2674
g68
(dp2675
g88
g89
ssg77
g2669
sg70
(lp2676
S'post_vars'
p2677
asbag63
(g84
g65
NtRp2678
(dp2679
g68
(dp2680
g95
g96
ssg77
g2669
sg70
(lp2681
S':'
asbag63
(g84
g65
NtRp2682
(dp2683
g68
(dp2684
sg77
g2669
sg70
(lp2685
g63
(g64
g65
NtRp2686
(dp2687
g68
(dp2688
g76
I5
ssg77
g2682
sg70
(lp2689
g63
(g72
g65
NtRp2690
(dp2691
g68
(dp2692
g76
I4
ssg77
Nsg70
(lp2693
sbasbasbasbag63
(g79
g65
NtRp2694
(dp2695
g68
(dp2696
sg77
g73
sg70
(lp2697
g63
(g84
g65
NtRp2698
(dp2699
g68
(dp2700
g88
g89
ssg77
g2694
sg70
(lp2701
S'raw_args'
p2702
asbag63
(g84
g65
NtRp2703
(dp2704
g68
(dp2705
g95
g96
ssg77
g2694
sg70
(lp2706
S':'
asbag63
(g84
g65
NtRp2707
(dp2708
g68
(dp2709
sg77
g2694
sg70
(lp2710
g63
(g64
g65
NtRp2711
(dp2712
g68
(dp2713
g76
I5
ssg77
g2707
sg70
(lp2714
S'taship1/views/'
p2715
asbasbasbag63
(g79
g65
NtRp2716
(dp2717
g68
(dp2718
sg77
g73
sg70
(lp2719
g63
(g84
g65
NtRp2720
(dp2721
g68
(dp2722
g88
g89
ssg77
g2716
sg70
(lp2723
S'raw_extension'
p2724
asbag63
(g84
g65
NtRp2725
(dp2726
g68
(dp2727
g95
g96
ssg77
g2716
sg70
(lp2728
S':'
asbag63
(g84
g65
NtRp2729
(dp2730
g68
(dp2731
sg77
g2716
sg70
(lp2732
g63
(g64
g65
NtRp2733
(dp2734
g68
(dp2735
g76
I5
ssg77
g2729
sg70
(lp2736
S'None'
p2737
asbasbasbag63
(g79
g65
NtRp2738
(dp2739
g68
(dp2740
sg77
g73
sg70
(lp2741
g63
(g84
g65
NtRp2742
(dp2743
g68
(dp2744
g88
g89
ssg77
g2738
sg70
(lp2745
S'url'
p2746
asbag63
(g84
g65
NtRp2747
(dp2748
g68
(dp2749
g95
g96
ssg77
g2738
sg70
(lp2750
S':'
asbag63
(g84
g65
NtRp2751
(dp2752
g68
(dp2753
sg77
g2738
sg70
(lp2754
g63
(g64
g65
NtRp2755
(dp2756
g68
(dp2757
g76
I5
ssg77
g2751
sg70
(lp2758
g1628
asbasbasbag63
(g79
g65
NtRp2759
(dp2760
g68
(dp2761
sg77
g73
sg70
(lp2762
g63
(g84
g65
NtRp2763
(dp2764
g68
(dp2765
g88
g89
ssg77
g2759
sg70
(lp2766
S'utcnow'
p2767
asbag63
(g84
g65
NtRp2768
(dp2769
g68
(dp2770
g95
g96
ssg77
g2759
sg70
(lp2771
S':'
asbag63
(g84
g65
NtRp2772
(dp2773
g68
(dp2774
sg77
g2759
sg70
(lp2775
g63
(g64
g65
NtRp2776
(dp2777
g68
(dp2778
g76
I5
ssg77
g2772
sg70
(lp2779
S'datetime.datetime(2012, 10, 14, 3, 36, 43, 55319)'
p2780
asbasbasbag63
(g79
g65
NtRp2781
(dp2782
g68
(dp2783
sg77
g73
sg70
(lp2784
g63
(g84
g65
NtRp2785
(dp2786
g68
(dp2787
g88
g89
ssg77
g2781
sg70
(lp2788
S'uuid'
p2789
asbag63
(g84
g65
NtRp2790
(dp2791
g68
(dp2792
g95
g96
ssg77
g2781
sg70
(lp2793
S':'
asbag63
(g84
g65
NtRp2794
(dp2795
g68
(dp2796
sg77
g2781
sg70
(lp2797
g63
(g64
g65
NtRp2798
(dp2799
g68
(dp2800
g76
I5
ssg77
g2794
sg70
(lp2801
S'admin/127.0.0.1.2012-10-14.09-06-43.0f38e2f7-1188-499e-89d6-de1b2218b37e'
p2802
asbasbasbag63
(g79
g65
NtRp2803
(dp2804
g68
(dp2805
sg77
g73
sg70
(lp2806
g63
(g84
g65
NtRp2807
(dp2808
g68
(dp2809
g88
g89
ssg77
g2803
sg70
(lp2810
S'vars'
p2811
asbag63
(g84
g65
NtRp2812
(dp2813
g68
(dp2814
g95
g96
ssg77
g2803
sg70
(lp2815
S':'
asbag63
(g84
g65
NtRp2816
(dp2817
g68
(dp2818
sg77
g2803
sg70
(lp2819
g63
(g64
g65
NtRp2820
(dp2821
g68
(dp2822
g76
I5
ssg77
g2816
sg70
(lp2823
g63
(g72
g65
NtRp2824
(dp2825
g68
(dp2826
g76
I4
ssg77
Nsg70
(lp2827
sbasbasbasbag63
(g79
g65
NtRp2828
(dp2829
g68
(dp2830
sg77
g73
sg70
(lp2831
g63
(g84
g65
NtRp2832
(dp2833
g68
(dp2834
g88
g89
ssg77
g2828
sg70
(lp2835
S'wsgi'
p2836
asbag63
(g84
g65
NtRp2837
(dp2838
g68
(dp2839
g95
g96
ssg77
g2828
sg70
(lp2840
S':'
asbag63
(g84
g65
NtRp2841
(dp2842
g68
(dp2843
sg77
g2828
sg70
(lp2844
g63
(g64
g65
NtRp2845
(dp2846
g68
(dp2847
g76
I5
ssg77
g2841
sg70
(lp2848
g63
(g72
g65
NtRp2849
(dp2850
g68
(dp2851
g76
I4
ssg77
Nsg70
(lp2852
g63
(g79
g65
NtRp2853
(dp2854
g68
(dp2855
sg77
g2849
sg70
(lp2856
g63
(g84
g65
NtRp2857
(dp2858
g68
(dp2859
g88
g89
ssg77
g2853
sg70
(lp2860
S'environ'
p2861
asbag63
(g84
g65
NtRp2862
(dp2863
g68
(dp2864
g95
g96
ssg77
g2853
sg70
(lp2865
S':'
asbag63
(g84
g65
NtRp2866
(dp2867
g68
(dp2868
sg77
g2853
sg70
(lp2869
g63
(g64
g65
NtRp2870
(dp2871
g68
(dp2872
g76
I4
ssg77
g2866
sg70
(lp2873
g63
(g72
g65
NtRp2874
(dp2875
g68
(dp2876
g76
I3
ssg77
Nsg70
(lp2877
g63
(g79
g65
NtRp2878
(dp2879
g68
(dp2880
sg77
g2874
sg70
(lp2881
g63
(g84
g65
NtRp2882
(dp2883
g68
(dp2884
g88
g89
ssg77
g2878
sg70
(lp2885
S'HTTP_ACCEPT'
p2886
asbag63
(g84
g65
NtRp2887
(dp2888
g68
(dp2889
g95
g96
ssg77
g2878
sg70
(lp2890
S':'
asbag63
(g84
g65
NtRp2891
(dp2892
g68
(dp2893
sg77
g2878
sg70
(lp2894
g63
(g64
g65
NtRp2895
(dp2896
g68
(dp2897
g76
I3
ssg77
g2891
sg70
(lp2898
g1432
asbasbasbag63
(g79
g65
NtRp2899
(dp2900
g68
(dp2901
sg77
g2874
sg70
(lp2902
g63
(g84
g65
NtRp2903
(dp2904
g68
(dp2905
g88
g89
ssg77
g2899
sg70
(lp2906
S'HTTP_ACCEPT_ENCODING'
p2907
asbag63
(g84
g65
NtRp2908
(dp2909
g68
(dp2910
g95
g96
ssg77
g2899
sg70
(lp2911
S':'
asbag63
(g84
g65
NtRp2912
(dp2913
g68
(dp2914
sg77
g2899
sg70
(lp2915
g63
(g64
g65
NtRp2916
(dp2917
g68
(dp2918
g76
I3
ssg77
g2912
sg70
(lp2919
g1454
asbasbasbag63
(g79
g65
NtRp2920
(dp2921
g68
(dp2922
sg77
g2874
sg70
(lp2923
g63
(g84
g65
NtRp2924
(dp2925
g68
(dp2926
g88
g89
ssg77
g2920
sg70
(lp2927
S'HTTP_ACCEPT_LANGUAGE'
p2928
asbag63
(g84
g65
NtRp2929
(dp2930
g68
(dp2931
g95
g96
ssg77
g2920
sg70
(lp2932
S':'
asbag63
(g84
g65
NtRp2933
(dp2934
g68
(dp2935
sg77
g2920
sg70
(lp2936
g63
(g64
g65
NtRp2937
(dp2938
g68
(dp2939
g76
I3
ssg77
g2933
sg70
(lp2940
g1476
asbasbasbag63
(g79
g65
NtRp2941
(dp2942
g68
(dp2943
sg77
g2874
sg70
(lp2944
g63
(g84
g65
NtRp2945
(dp2946
g68
(dp2947
g88
g89
ssg77
g2941
sg70
(lp2948
S'HTTP_CONNECTION'
p2949
asbag63
(g84
g65
NtRp2950
(dp2951
g68
(dp2952
g95
g96
ssg77
g2941
sg70
(lp2953
S':'
asbag63
(g84
g65
NtRp2954
(dp2955
g68
(dp2956
sg77
g2941
sg70
(lp2957
g63
(g64
g65
NtRp2958
(dp2959
g68
(dp2960
g76
I3
ssg77
g2954
sg70
(lp2961
g1498
asbasbasbag63
(g79
g65
NtRp2962
(dp2963
g68
(dp2964
sg77
g2874
sg70
(lp2965
g63
(g84
g65
NtRp2966
(dp2967
g68
(dp2968
g88
g89
ssg77
g2962
sg70
(lp2969
S'HTTP_COOKIE'
p2970
asbag63
(g84
g65
NtRp2971
(dp2972
g68
(dp2973
g95
g96
ssg77
g2962
sg70
(lp2974
S':'
asbag63
(g84
g65
NtRp2975
(dp2976
g68
(dp2977
sg77
g2962
sg70
(lp2978
g63
(g64
g65
NtRp2979
(dp2980
g68
(dp2981
g76
I3
ssg77
g2975
sg70
(lp2982
g1520
asbasbasbag63
(g79
g65
NtRp2983
(dp2984
g68
(dp2985
sg77
g2874
sg70
(lp2986
g63
(g84
g65
NtRp2987
(dp2988
g68
(dp2989
g88
g89
ssg77
g2983
sg70
(lp2990
S'HTTP_HOST'
p2991
asbag63
(g84
g65
NtRp2992
(dp2993
g68
(dp2994
g95
g96
ssg77
g2983
sg70
(lp2995
S':'
asbag63
(g84
g65
NtRp2996
(dp2997
g68
(dp2998
sg77
g2983
sg70
(lp2999
g63
(g64
g65
NtRp3000
(dp3001
g68
(dp3002
g76
I3
ssg77
g2996
sg70
(lp3003
g1542
asbasbasbag63
(g79
g65
NtRp3004
(dp3005
g68
(dp3006
sg77
g2874
sg70
(lp3007
g63
(g84
g65
NtRp3008
(dp3009
g68
(dp3010
g88
g89
ssg77
g3004
sg70
(lp3011
S'HTTP_USER_AGENT'
p3012
asbag63
(g84
g65
NtRp3013
(dp3014
g68
(dp3015
g95
g96
ssg77
g3004
sg70
(lp3016
S':'
asbag63
(g84
g65
NtRp3017
(dp3018
g68
(dp3019
sg77
g3004
sg70
(lp3020
g63
(g64
g65
NtRp3021
(dp3022
g68
(dp3023
g76
I3
ssg77
g3017
sg70
(lp3024
g1564
asbasbasbag63
(g79
g65
NtRp3025
(dp3026
g68
(dp3027
sg77
g2874
sg70
(lp3028
g63
(g84
g65
NtRp3029
(dp3030
g68
(dp3031
g88
g89
ssg77
g3025
sg70
(lp3032
S'PATH_INFO'
p3033
asbag63
(g84
g65
NtRp3034
(dp3035
g68
(dp3036
g95
g96
ssg77
g3025
sg70
(lp3037
S':'
asbag63
(g84
g65
NtRp3038
(dp3039
g68
(dp3040
sg77
g3025
sg70
(lp3041
g63
(g64
g65
NtRp3042
(dp3043
g68
(dp3044
g76
I3
ssg77
g3038
sg70
(lp3045
g1628
asbasbasbag63
(g79
g65
NtRp3046
(dp3047
g68
(dp3048
sg77
g2874
sg70
(lp3049
g63
(g84
g65
NtRp3050
(dp3051
g68
(dp3052
g88
g89
ssg77
g3046
sg70
(lp3053
S'QUERY_STRING'
p3054
asbag63
(g84
g65
NtRp3055
(dp3056
g68
(dp3057
g95
g96
ssg77
g3046
sg70
(lp3058
S':'
asbag63
(g84
g65
NtRp3059
(dp3060
g68
(dp3061
sg77
g3046
sg70
(lp3062
g63
(g64
g65
NtRp3063
(dp3064
g68
(dp3065
g76
I3
ssg77
g3059
sg70
(lp3066
S''
asbasbasbag63
(g79
g65
NtRp3067
(dp3068
g68
(dp3069
sg77
g2874
sg70
(lp3070
g63
(g84
g65
NtRp3071
(dp3072
g68
(dp3073
g88
g89
ssg77
g3067
sg70
(lp3074
S'REMOTE_ADDR'
p3075
asbag63
(g84
g65
NtRp3076
(dp3077
g68
(dp3078
g95
g96
ssg77
g3067
sg70
(lp3079
S':'
asbag63
(g84
g65
NtRp3080
(dp3081
g68
(dp3082
sg77
g3067
sg70
(lp3083
g63
(g64
g65
NtRp3084
(dp3085
g68
(dp3086
g76
I3
ssg77
g3080
sg70
(lp3087
g244
asbasbasbag63
(g79
g65
NtRp3088
(dp3089
g68
(dp3090
sg77
g2874
sg70
(lp3091
g63
(g84
g65
NtRp3092
(dp3093
g68
(dp3094
g88
g89
ssg77
g3088
sg70
(lp3095
S'REMOTE_PORT'
p3096
asbag63
(g84
g65
NtRp3097
(dp3098
g68
(dp3099
g95
g96
ssg77
g3088
sg70
(lp3100
S':'
asbag63
(g84
g65
NtRp3101
(dp3102
g68
(dp3103
sg77
g3088
sg70
(lp3104
g63
(g64
g65
NtRp3105
(dp3106
g68
(dp3107
g76
I3
ssg77
g3101
sg70
(lp3108
g1692
asbasbasbag63
(g79
g65
NtRp3109
(dp3110
g68
(dp3111
sg77
g2874
sg70
(lp3112
g63
(g84
g65
NtRp3113
(dp3114
g68
(dp3115
g88
g89
ssg77
g3109
sg70
(lp3116
S'REQUEST_METHOD'
p3117
asbag63
(g84
g65
NtRp3118
(dp3119
g68
(dp3120
g95
g96
ssg77
g3109
sg70
(lp3121
S':'
asbag63
(g84
g65
NtRp3122
(dp3123
g68
(dp3124
sg77
g3109
sg70
(lp3125
g63
(g64
g65
NtRp3126
(dp3127
g68
(dp3128
g76
I3
ssg77
g3122
sg70
(lp3129
g1714
asbasbasbag63
(g79
g65
NtRp3130
(dp3131
g68
(dp3132
sg77
g2874
sg70
(lp3133
g63
(g84
g65
NtRp3134
(dp3135
g68
(dp3136
g88
g89
ssg77
g3130
sg70
(lp3137
S'REQUEST_URI'
p3138
asbag63
(g84
g65
NtRp3139
(dp3140
g68
(dp3141
g95
g96
ssg77
g3130
sg70
(lp3142
S':'
asbag63
(g84
g65
NtRp3143
(dp3144
g68
(dp3145
sg77
g3130
sg70
(lp3146
g63
(g64
g65
NtRp3147
(dp3148
g68
(dp3149
g76
I3
ssg77
g3143
sg70
(lp3150
g1628
asbasbasbag63
(g79
g65
NtRp3151
(dp3152
g68
(dp3153
sg77
g2874
sg70
(lp3154
g63
(g84
g65
NtRp3155
(dp3156
g68
(dp3157
g88
g89
ssg77
g3151
sg70
(lp3158
S'SCRIPT_NAME'
p3159
asbag63
(g84
g65
NtRp3160
(dp3161
g68
(dp3162
g95
g96
ssg77
g3151
sg70
(lp3163
S':'
asbag63
(g84
g65
NtRp3164
(dp3165
g68
(dp3166
sg77
g3151
sg70
(lp3167
g63
(g64
g65
NtRp3168
(dp3169
g68
(dp3170
g76
I3
ssg77
g3164
sg70
(lp3171
S''
asbasbasbag63
(g79
g65
NtRp3172
(dp3173
g68
(dp3174
sg77
g2874
sg70
(lp3175
g63
(g84
g65
NtRp3176
(dp3177
g68
(dp3178
g88
g89
ssg77
g3172
sg70
(lp3179
S'SERVER_NAME'
p3180
asbag63
(g84
g65
NtRp3181
(dp3182
g68
(dp3183
g95
g96
ssg77
g3172
sg70
(lp3184
S':'
asbag63
(g84
g65
NtRp3185
(dp3186
g68
(dp3187
sg77
g3172
sg70
(lp3188
g63
(g64
g65
NtRp3189
(dp3190
g68
(dp3191
g76
I3
ssg77
g3185
sg70
(lp3192
g1778
asbasbasbag63
(g79
g65
NtRp3193
(dp3194
g68
(dp3195
sg77
g2874
sg70
(lp3196
g63
(g84
g65
NtRp3197
(dp3198
g68
(dp3199
g88
g89
ssg77
g3193
sg70
(lp3200
S'SERVER_PORT'
p3201
asbag63
(g84
g65
NtRp3202
(dp3203
g68
(dp3204
g95
g96
ssg77
g3193
sg70
(lp3205
S':'
asbag63
(g84
g65
NtRp3206
(dp3207
g68
(dp3208
sg77
g3193
sg70
(lp3209
g63
(g64
g65
NtRp3210
(dp3211
g68
(dp3212
g76
I3
ssg77
g3206
sg70
(lp3213
g1800
asbasbasbag63
(g79
g65
NtRp3214
(dp3215
g68
(dp3216
sg77
g2874
sg70
(lp3217
g63
(g84
g65
NtRp3218
(dp3219
g68
(dp3220
g88
g89
ssg77
g3214
sg70
(lp3221
S'SERVER_PROTOCOL'
p3222
asbag63
(g84
g65
NtRp3223
(dp3224
g68
(dp3225
g95
g96
ssg77
g3214
sg70
(lp3226
S':'
asbag63
(g84
g65
NtRp3227
(dp3228
g68
(dp3229
sg77
g3214
sg70
(lp3230
g63
(g64
g65
NtRp3231
(dp3232
g68
(dp3233
g76
I3
ssg77
g3227
sg70
(lp3234
g1822
asbasbasbag63
(g79
g65
NtRp3235
(dp3236
g68
(dp3237
sg77
g2874
sg70
(lp3238
g63
(g84
g65
NtRp3239
(dp3240
g68
(dp3241
g88
g89
ssg77
g3235
sg70
(lp3242
S'SERVER_SOFTWARE'
p3243
asbag63
(g84
g65
NtRp3244
(dp3245
g68
(dp3246
g95
g96
ssg77
g3235
sg70
(lp3247
S':'
asbag63
(g84
g65
NtRp3248
(dp3249
g68
(dp3250
sg77
g3235
sg70
(lp3251
g63
(g64
g65
NtRp3252
(dp3253
g68
(dp3254
g76
I3
ssg77
g3248
sg70
(lp3255
g1844
asbasbasbag63
(g79
g65
NtRp3256
(dp3257
g68
(dp3258
sg77
g2874
sg70
(lp3259
g63
(g84
g65
NtRp3260
(dp3261
g68
(dp3262
g88
g89
ssg77
g3256
sg70
(lp3263
S'wsgi.errors'
p3264
asbag63
(g84
g65
NtRp3265
(dp3266
g68
(dp3267
g95
g96
ssg77
g3256
sg70
(lp3268
S':'
asbag63
(g84
g65
NtRp3269
(dp3270
g68
(dp3271
sg77
g3256
sg70
(lp3272
g63
(g64
g65
NtRp3273
(dp3274
g68
(dp3275
g76
I3
ssg77
g3269
sg70
(lp3276
S"<open file '<stderr>', mode 'w' at 0x7f5cb5883270>"
p3277
asbasbasbag63
(g79
g65
NtRp3278
(dp3279
g68
(dp3280
sg77
g2874
sg70
(lp3281
g63
(g84
g65
NtRp3282
(dp3283
g68
(dp3284
g88
g89
ssg77
g3278
sg70
(lp3285
S'wsgi.file_wrapper'
p3286
asbag63
(g84
g65
NtRp3287
(dp3288
g68
(dp3289
g95
g96
ssg77
g3278
sg70
(lp3290
S':'
asbag63
(g84
g65
NtRp3291
(dp3292
g68
(dp3293
sg77
g3278
sg70
(lp3294
g63
(g64
g65
NtRp3295
(dp3296
g68
(dp3297
g76
I3
ssg77
g3291
sg70
(lp3298
S'<class wsgiref.util.FileWrapper at 0x1fbc120>'
p3299
asbasbasbag63
(g79
g65
NtRp3300
(dp3301
g68
(dp3302
sg77
g2874
sg70
(lp3303
g63
(g84
g65
NtRp3304
(dp3305
g68
(dp3306
g88
g89
ssg77
g3300
sg70
(lp3307
S'wsgi.input'
p3308
asbag63
(g84
g65
NtRp3309
(dp3310
g68
(dp3311
g95
g96
ssg77
g3300
sg70
(lp3312
S':'
asbag63
(g84
g65
NtRp3313
(dp3314
g68
(dp3315
sg77
g3300
sg70
(lp3316
g63
(g64
g65
NtRp3317
(dp3318
g68
(dp3319
g76
I3
ssg77
g3313
sg70
(lp3320
S'<cStringIO.StringO object at 0x7f5c94186c70>'
p3321
asbasbasbag63
(g79
g65
NtRp3322
(dp3323
g68
(dp3324
sg77
g2874
sg70
(lp3325
g63
(g84
g65
NtRp3326
(dp3327
g68
(dp3328
g88
g89
ssg77
g3322
sg70
(lp3329
S'wsgi.multiprocess'
p3330
asbag63
(g84
g65
NtRp3331
(dp3332
g68
(dp3333
g95
g96
ssg77
g3322
sg70
(lp3334
S':'
asbag63
(g84
g65
NtRp3335
(dp3336
g68
(dp3337
sg77
g3322
sg70
(lp3338
g63
(g64
g65
NtRp3339
(dp3340
g68
(dp3341
g76
I3
ssg77
g3335
sg70
(lp3342
g106
asbasbasbag63
(g79
g65
NtRp3343
(dp3344
g68
(dp3345
sg77
g2874
sg70
(lp3346
g63
(g84
g65
NtRp3347
(dp3348
g68
(dp3349
g88
g89
ssg77
g3343
sg70
(lp3350
S'wsgi.multithread'
p3351
asbag63
(g84
g65
NtRp3352
(dp3353
g68
(dp3354
g95
g96
ssg77
g3343
sg70
(lp3355
S':'
asbag63
(g84
g65
NtRp3356
(dp3357
g68
(dp3358
sg77
g3343
sg70
(lp3359
g63
(g64
g65
NtRp3360
(dp3361
g68
(dp3362
g76
I3
ssg77
g3356
sg70
(lp3363
g2083
asbasbasbag63
(g79
g65
NtRp3364
(dp3365
g68
(dp3366
sg77
g2874
sg70
(lp3367
g63
(g84
g65
NtRp3368
(dp3369
g68
(dp3370
g88
g89
ssg77
g3364
sg70
(lp3371
S'wsgi.run_once'
p3372
asbag63
(g84
g65
NtRp3373
(dp3374
g68
(dp3375
g95
g96
ssg77
g3364
sg70
(lp3376
S':'
asbag63
(g84
g65
NtRp3377
(dp3378
g68
(dp3379
sg77
g3364
sg70
(lp3380
g63
(g64
g65
NtRp3381
(dp3382
g68
(dp3383
g76
I3
ssg77
g3377
sg70
(lp3384
g106
asbasbasbag63
(g79
g65
NtRp3385
(dp3386
g68
(dp3387
sg77
g2874
sg70
(lp3388
g63
(g84
g65
NtRp3389
(dp3390
g68
(dp3391
g88
g89
ssg77
g3385
sg70
(lp3392
S'wsgi.url_scheme'
p3393
asbag63
(g84
g65
NtRp3394
(dp3395
g68
(dp3396
g95
g96
ssg77
g3385
sg70
(lp3397
S':'
asbag63
(g84
g65
NtRp3398
(dp3399
g68
(dp3400
sg77
g3385
sg70
(lp3401
g63
(g64
g65
NtRp3402
(dp3403
g68
(dp3404
g76
I3
ssg77
g3398
sg70
(lp3405
g2126
asbasbasbag63
(g79
g65
NtRp3406
(dp3407
g68
(dp3408
sg77
g2874
sg70
(lp3409
g63
(g84
g65
NtRp3410
(dp3411
g68
(dp3412
g88
g89
ssg77
g3406
sg70
(lp3413
S'wsgi.version'
p3414
asbag63
(g84
g65
NtRp3415
(dp3416
g68
(dp3417
g95
g96
ssg77
g3406
sg70
(lp3418
S':'
asbag63
(g84
g65
NtRp3419
(dp3420
g68
(dp3421
sg77
g3406
sg70
(lp3422
g63
(g64
g65
NtRp3423
(dp3424
g68
(dp3425
g76
I3
ssg77
g3419
sg70
(lp3426
S'1'
asbasbasbasbasbasbasbasbasbasbasbasbasbsS'frames'
p3427
(lp3428
(dp3429
S'file'
p3430
S'/home/mayank/IIIT/sem 3/SSAD&Project/web2py/gluon/restricted.py'
p3431
sS'dump'
p3432
(dp3433
S'environment'
p3434
S"{'A': <class 'gluon.html.A'>, 'ALLOW_TOGGLE': 'true', 'A_button': <function A_button>, 'B': <class 'gluon.html.B'>, 'BEAUTIFY': <class 'gluon.html.BEAUTIFY'>, 'BODY': <class 'gluon.html.BODY'>, 'BR': <class 'gluon.html.BR'>, 'BUTTON': <class 'gluon.html.BUTTON'>, 'CAT': <class 'gluon.html.CAT'>, 'CENTER': <class 'gluon.html.CENTER'>, ...}"
p3435
sS'ccode'
p3436
S'<code object <module> at 0x7f5c9819dbb0, file "/...plications/admin/controllers/default.py", line 3>'
p3437
ssS'lnum'
p3438
I209
sS'lines'
p3439
(dp3440
I204
S'    try:'
p3441
sI205
S'        if type(code) == types.CodeType:'
p3442
sI206
S'            ccode = code'
p3443
sI207
S'        else:'
p3444
sI208
S'            ccode = compile2(code,layer)'
p3445
sI209
S'        exec ccode in environment'
p3446
sI210
S'    except HTTP:'
p3447
sI211
S'        raise'
p3448
sI212
S'    except RestrictedError:'
p3449
sI213
S'        # do not encapsulate (obfuscate) the original RestrictedError'
p3450
ssS'call'
p3451
S"(code='# coding: utf8\\n\\nEXPERIMENTAL_STUFF = True\\n\\nif EX...form)\\n\\n\\nresponse._vars=response._caller(resolve)\\n', environment={'A': <class 'gluon.html.A'>, 'ALLOW_TOGGLE': 'true', 'A_button': <function A_button>, 'B': <class 'gluon.html.B'>, 'BEAUTIFY': <class 'gluon.html.BEAUTIFY'>, 'BODY': <class 'gluon.html.BODY'>, 'BR': <class 'gluon.html.BR'>, 'BUTTON': <class 'gluon.html.BUTTON'>, 'CAT': <class 'gluon.html.CAT'>, 'CENTER': <class 'gluon.html.CENTER'>, ...}, layer='/home/mayank/IIIT/sem 3/SSAD&Project/web2py/applications/admin/controllers/default.py')"
p3452
sS'func'
p3453
S'restricted'
p3454
sa(dp3455
g3430
S'/home/mayank/IIIT/sem 3/SSAD&Project/web2py/applications/admin/controllers/default.py'
p3456
sg3432
(dp3457
sg3438
I1726
sg3439
(dp3458
I1715
S"            redirect(URL('site'))"
p3459
sI1716
S'        except UnmergedEntriesError:'
p3460
sI1717
S'            session.flash = T("Push failed, there are unmerged entries in the cache. Resolve merge issues manually and try again.")'
p3461
sI1718
S"            redirect(URL('site'))"
p3462
sI1719
S'        except Exception, e:'
p3463
sI1720
S'            logging.error("Unexpected error:", sys.exc_info()[0])'
p3464
sI1721
S'            session.flash = T("Push failed, git exited abnormally. See logs for details.")'
p3465
sI1722
S"            redirect(URL('site'))"
p3466
sI1723
S'    return dict(app=app,form=form)'
p3467
sI1724
S''
ssg3451
S'()'
p3468
sg3453
S'<module>'
p3469
sa(dp3470
g3430
S'/home/mayank/IIIT/sem 3/SSAD&Project/web2py/gluon/globals.py'
p3471
sg3432
(dp3472
S'self'
p3473
S'undefined'
p3474
sS'f'
S'<function resolve>'
p3475
ssg3438
I185
sg3439
(dp3476
I180
S'        self.menu = []             # used by the default view layout'
p3477
sI181
S'        self.files = []            # used by web2py_ajax.html'
p3478
sI182
S'        self.generic_patterns = [] # patterns to allow generic views'
p3479
sI183
S"        self.delimiters = ('{{','}}')"
p3480
sI184
S'        self._vars = None'
p3481
sI185
S'        self._caller = lambda f: f()'
p3482
sI186
S'        self._view_environment = None'
p3483
sI187
S'        self._custom_commit = None'
p3484
sI188
S'        self._custom_rollback = None'
p3485
sI189
S''
ssg3451
S'(f=<function resolve>)'
p3486
sg3453
S'<lambda>'
p3487
sa(dp3488
g3430
S'/home/mayank/IIIT/sem 3/SSAD&Project/web2py/applications/admin/controllers/default.py'
p3489
sg3432
(dp3490
S'a'
g3474
sS'path'
p3491
S"'/home/mayank/IIIT/sem 3/SSAD&Project/web2py/applications/taship1/views'"
p3492
sS').split'
p3493
S'<built-in method split of str object>'
p3494
sS'global safe_read'
p3495
S'<function safe_read>'
p3496
ssg3438
I703
sg3439
(dp3497
I704
S'    try:'
p3498
sI705
S"        b = safe_read(path + '.1').split('\\n')"
p3499
sI706
S'    except IOError:'
p3500
sI707
S"        session.flash = 'Other file, no longer there'"
p3501
sI698
S'    """'
p3502
sI699
S''
sI700
S"    filename = '/'.join(request.args)"
p3503
sI701
S'    # ## check if file is not there'
p3504
sI702
S'    path = apath(filename, r=request)'
p3505
sI703
S"    a = safe_read(path).split('\\n')"
p3506
ssg3451
S'()'
p3507
sg3453
S'resolve'
p3508
sa(dp3509
g3430
S'/home/mayank/IIIT/sem 3/SSAD&Project/web2py/applications/admin/controllers/default.py'
p3510
sg3432
(dp3511
S'a'
S"'/home/mayank/IIIT/sem 3/SSAD&Project/web2py/applications/taship1/views'"
p3512
sS'safe_file'
p3513
g3474
sS'global safe_open'
p3514
S'<function safe_open>'
p3515
sS'b'
S"'r'"
p3516
ssg3438
I66
sg3439
(dp3517
I64
S''
sI65
S"def safe_read(a, b='r'):"
p3518
sI66
S'    safe_file = safe_open(a, b)'
p3519
sI67
S'    try:'
p3520
sI68
S'        return safe_file.read()'
p3521
sI69
S'    finally:'
p3522
sI70
S'        safe_file.close()'
p3523
sI61
S'            def write(self,data): pass'
p3524
sI62
S'        return tmp()'
p3525
sI63
S'    return open(a,b)'
p3526
ssg3451
S"(a='/home/mayank/IIIT/sem 3/SSAD&Project/web2py/applications/taship1/views', b='r')"
p3527
sg3453
S'safe_read'
p3528
sa(dp3529
g3430
S'/home/mayank/IIIT/sem 3/SSAD&Project/web2py/applications/admin/controllers/default.py'
p3530
sg3432
(dp3531
S'a'
S"'/home/mayank/IIIT/sem 3/SSAD&Project/web2py/applications/taship1/views'"
p3532
sS'builtinopen'
p3533
S'<built-in function open>'
p3534
sS'b'
S"'r'"
p3535
ssg3438
I63
sg3439
(dp3536
I64
S''
sI65
S"def safe_read(a, b='r'):"
p3537
sI66
S'    safe_file = safe_open(a, b)'
p3538
sI67
S'    try:'
p3539
sI58
S'def safe_open(a,b):'
p3540
sI59
S"    if DEMO_MODE and ('w' in b or 'a' in b):"
p3541
sI60
S'        class tmp:'
p3542
sI61
S'            def write(self,data): pass'
p3543
sI62
S'        return tmp()'
p3544
sI63
S'    return open(a,b)'
p3545
ssg3451
S"(a='/home/mayank/IIIT/sem 3/SSAD&Project/web2py/applications/taship1/views', b='r')"
p3546
sg3453
S'safe_open'
p3547
sasS'pyver'
p3548
S'Python 2.7.3: /usr/bin/python'
p3549
sS'session'
p3550
g63
(g64
g65
NtRp3551
(dp3552
g68
(dp3553
sg70
(lp3554
g63
(g72
g65
NtRp3555
(dp3556
g68
(dp3557
g76
I5
ssg77
Nsg70
(lp3558
g63
(g79
g65
NtRp3559
(dp3560
g68
(dp3561
sg77
g3555
sg70
(lp3562
g63
(g84
g65
NtRp3563
(dp3564
g68
(dp3565
g88
g89
ssg77
g3559
sg70
(lp3566
S'authorized'
p3567
asbag63
(g84
g65
NtRp3568
(dp3569
g68
(dp3570
g95
g96
ssg77
g3559
sg70
(lp3571
S':'
asbag63
(g84
g65
NtRp3572
(dp3573
g68
(dp3574
sg77
g3559
sg70
(lp3575
g63
(g64
g65
NtRp3576
(dp3577
g68
(dp3578
g76
I5
ssg77
g3572
sg70
(lp3579
g2083
asbasbasbag63
(g79
g65
NtRp3580
(dp3581
g68
(dp3582
sg77
g3555
sg70
(lp3583
g63
(g84
g65
NtRp3584
(dp3585
g68
(dp3586
g88
g89
ssg77
g3580
sg70
(lp3587
S'check_version'
p3588
asbag63
(g84
g65
NtRp3589
(dp3590
g68
(dp3591
g95
g96
ssg77
g3580
sg70
(lp3592
S':'
asbag63
(g84
g65
NtRp3593
(dp3594
g68
(dp3595
sg77
g3580
sg70
(lp3596
g63
(g64
g65
NtRp3597
(dp3598
g68
(dp3599
g76
I5
ssg77
g3593
sg70
(lp3600
g106
asbasbasbag63
(g79
g65
NtRp3601
(dp3602
g68
(dp3603
sg77
g3555
sg70
(lp3604
g63
(g84
g65
NtRp3605
(dp3606
g68
(dp3607
g88
g89
ssg77
g3601
sg70
(lp3608
S'flash'
p3609
asbag63
(g84
g65
NtRp3610
(dp3611
g68
(dp3612
g95
g96
ssg77
g3601
sg70
(lp3613
S':'
asbag63
(g84
g65
NtRp3614
(dp3615
g68
(dp3616
sg77
g3601
sg70
(lp3617
g63
(g64
g65
NtRp3618
(dp3619
g68
(dp3620
g76
I5
ssg77
g3614
sg70
(lp3621
S'None'
p3622
asbasbasbag63
(g79
g65
NtRp3623
(dp3624
g68
(dp3625
sg77
g3555
sg70
(lp3626
g63
(g84
g65
NtRp3627
(dp3628
g68
(dp3629
g88
g89
ssg77
g3623
sg70
(lp3630
S'last_time'
p3631
asbag63
(g84
g65
NtRp3632
(dp3633
g68
(dp3634
g95
g96
ssg77
g3623
sg70
(lp3635
S':'
asbag63
(g84
g65
NtRp3636
(dp3637
g68
(dp3638
sg77
g3623
sg70
(lp3639
g63
(g64
g65
NtRp3640
(dp3641
g68
(dp3642
g76
I5
ssg77
g3636
sg70
(lp3643
S'1350185803.062841'
p3644
asbasbasbag63
(g79
g65
NtRp3645
(dp3646
g68
(dp3647
sg77
g3555
sg70
(lp3648
g63
(g84
g65
NtRp3649
(dp3650
g68
(dp3651
g88
g89
ssg77
g3645
sg70
(lp3652
S'pam_user'
p3653
asbag63
(g84
g65
NtRp3654
(dp3655
g68
(dp3656
g95
g96
ssg77
g3645
sg70
(lp3657
S':'
asbag63
(g84
g65
NtRp3658
(dp3659
g68
(dp3660
sg77
g3645
sg70
(lp3661
g63
(g64
g65
NtRp3662
(dp3663
g68
(dp3664
g76
I5
ssg77
g3658
sg70
(lp3665
S'None'
p3666
asbasbasbag63
(g79
g65
NtRp3667
(dp3668
g68
(dp3669
sg77
g3555
sg70
(lp3670
g63
(g84
g65
NtRp3671
(dp3672
g68
(dp3673
g88
g89
ssg77
g3667
sg70
(lp3674
S'token'
p3675
asbag63
(g84
g65
NtRp3676
(dp3677
g68
(dp3678
g95
g96
ssg77
g3667
sg70
(lp3679
S':'
asbag63
(g84
g65
NtRp3680
(dp3681
g68
(dp3682
sg77
g3667
sg70
(lp3683
g63
(g64
g65
NtRp3684
(dp3685
g68
(dp3686
g76
I5
ssg77
g3680
sg70
(lp3687
S'd510846f-e036-43d8-8c63-b31e762f7d5a'
p3688
asbasbasbasbasbsS'etype'
p3689
S"<type 'exceptions.IOError'>"
p3690
sS'date'
p3691
S'Sun Oct 14 09:06:43 2012'
p3692
sS'response'
p3693
g63
(g64
g65
NtRp3694
(dp3695
g68
(dp3696
sg70
(lp3697
g63
(g72
g65
NtRp3698
(dp3699
g68
(dp3700
g76
I5
ssg77
Nsg70
(lp3701
g63
(g79
g65
NtRp3702
(dp3703
g68
(dp3704
sg77
g3698
sg70
(lp3705
g63
(g84
g65
NtRp3706
(dp3707
g68
(dp3708
g88
g89
ssg77
g3702
sg70
(lp3709
g187
asbag63
(g84
g65
NtRp3710
(dp3711
g68
(dp3712
g95
g96
ssg77
g3702
sg70
(lp3713
S':'
asbag63
(g84
g65
NtRp3714
(dp3715
g68
(dp3716
sg77
g3702
sg70
(lp3717
g63
(g64
g65
NtRp3718
(dp3719
g68
(dp3720
g76
I5
ssg77
g3714
sg70
(lp3721
S'<cStringIO.StringO object at 0x7f5c941869d0>'
p3722
asbasbasbag63
(g79
g65
NtRp3723
(dp3724
g68
(dp3725
sg77
g3698
sg70
(lp3726
g63
(g84
g65
NtRp3727
(dp3728
g68
(dp3729
g88
g89
ssg77
g3723
sg70
(lp3730
g275
asbag63
(g84
g65
NtRp3731
(dp3732
g68
(dp3733
g95
g96
ssg77
g3723
sg70
(lp3734
S':'
asbag63
(g84
g65
NtRp3735
(dp3736
g68
(dp3737
sg77
g3723
sg70
(lp3738
g63
(g64
g65
NtRp3739
(dp3740
g68
(dp3741
g76
I5
ssg77
g3735
sg70
(lp3742
g63
(g72
g65
NtRp3743
(dp3744
g68
(dp3745
g76
I4
ssg77
Nsg70
(lp3746
g63
(g79
g65
NtRp3747
(dp3748
g68
(dp3749
sg77
g3743
sg70
(lp3750
g63
(g84
g65
NtRp3751
(dp3752
g68
(dp3753
g88
g89
ssg77
g3747
sg70
(lp3754
S'session_id_admin'
p3755
asbag63
(g84
g65
NtRp3756
(dp3757
g68
(dp3758
g95
g96
ssg77
g3747
sg70
(lp3759
S':'
asbag63
(g84
g65
NtRp3760
(dp3761
g68
(dp3762
sg77
g3747
sg70
(lp3763
g63
(g64
g65
NtRp3764
(dp3765
g68
(dp3766
g76
I4
ssg77
g3760
sg70
(lp3767
g313
ag63
(g72
g65
NtRp3768
(dp3769
g68
(dp3770
g76
I3
ssg77
Nsg70
(lp3771
g63
(g79
g65
NtRp3772
(dp3773
g68
(dp3774
sg77
g3768
sg70
(lp3775
g63
(g84
g65
NtRp3776
(dp3777
g68
(dp3778
g88
g89
ssg77
g3772
sg70
(lp3779
g326
asbag63
(g84
g65
NtRp3780
(dp3781
g68
(dp3782
g95
g96
ssg77
g3772
sg70
(lp3783
S':'
asbag63
(g84
g65
NtRp3784
(dp3785
g68
(dp3786
sg77
g3772
sg70
(lp3787
g63
(g64
g65
NtRp3788
(dp3789
g68
(dp3790
g76
I3
ssg77
g3784
sg70
(lp3791
S''
asbasbasbag63
(g79
g65
NtRp3792
(dp3793
g68
(dp3794
sg77
g3768
sg70
(lp3795
g63
(g84
g65
NtRp3796
(dp3797
g68
(dp3798
g88
g89
ssg77
g3792
sg70
(lp3799
g347
asbag63
(g84
g65
NtRp3800
(dp3801
g68
(dp3802
g95
g96
ssg77
g3792
sg70
(lp3803
S':'
asbag63
(g84
g65
NtRp3804
(dp3805
g68
(dp3806
sg77
g3792
sg70
(lp3807
g63
(g64
g65
NtRp3808
(dp3809
g68
(dp3810
g76
I3
ssg77
g3804
sg70
(lp3811
S''
asbasbasbag63
(g79
g65
NtRp3812
(dp3813
g68
(dp3814
sg77
g3768
sg70
(lp3815
g63
(g84
g65
NtRp3816
(dp3817
g68
(dp3818
g88
g89
ssg77
g3812
sg70
(lp3819
g368
asbag63
(g84
g65
NtRp3820
(dp3821
g68
(dp3822
g95
g96
ssg77
g3812
sg70
(lp3823
S':'
asbag63
(g84
g65
NtRp3824
(dp3825
g68
(dp3826
sg77
g3812
sg70
(lp3827
g63
(g64
g65
NtRp3828
(dp3829
g68
(dp3830
g76
I3
ssg77
g3824
sg70
(lp3831
S''
asbasbasbag63
(g79
g65
NtRp3832
(dp3833
g68
(dp3834
sg77
g3768
sg70
(lp3835
g63
(g84
g65
NtRp3836
(dp3837
g68
(dp3838
g88
g89
ssg77
g3832
sg70
(lp3839
g389
asbag63
(g84
g65
NtRp3840
(dp3841
g68
(dp3842
g95
g96
ssg77
g3832
sg70
(lp3843
S':'
asbag63
(g84
g65
NtRp3844
(dp3845
g68
(dp3846
sg77
g3832
sg70
(lp3847
g63
(g64
g65
NtRp3848
(dp3849
g68
(dp3850
g76
I3
ssg77
g3844
sg70
(lp3851
S''
asbasbasbag63
(g79
g65
NtRp3852
(dp3853
g68
(dp3854
sg77
g3768
sg70
(lp3855
g63
(g84
g65
NtRp3856
(dp3857
g68
(dp3858
g88
g89
ssg77
g3852
sg70
(lp3859
g410
asbag63
(g84
g65
NtRp3860
(dp3861
g68
(dp3862
g95
g96
ssg77
g3852
sg70
(lp3863
S':'
asbag63
(g84
g65
NtRp3864
(dp3865
g68
(dp3866
sg77
g3852
sg70
(lp3867
g63
(g64
g65
NtRp3868
(dp3869
g68
(dp3870
g76
I3
ssg77
g3864
sg70
(lp3871
S''
asbasbasbag63
(g79
g65
NtRp3872
(dp3873
g68
(dp3874
sg77
g3768
sg70
(lp3875
g63
(g84
g65
NtRp3876
(dp3877
g68
(dp3878
g88
g89
ssg77
g3872
sg70
(lp3879
g431
asbag63
(g84
g65
NtRp3880
(dp3881
g68
(dp3882
g95
g96
ssg77
g3872
sg70
(lp3883
S':'
asbag63
(g84
g65
NtRp3884
(dp3885
g68
(dp3886
sg77
g3872
sg70
(lp3887
g63
(g64
g65
NtRp3888
(dp3889
g68
(dp3890
g76
I3
ssg77
g3884
sg70
(lp3891
S'/'
asbasbasbag63
(g79
g65
NtRp3892
(dp3893
g68
(dp3894
sg77
g3768
sg70
(lp3895
g63
(g84
g65
NtRp3896
(dp3897
g68
(dp3898
g88
g89
ssg77
g3892
sg70
(lp3899
g452
asbag63
(g84
g65
NtRp3900
(dp3901
g68
(dp3902
g95
g96
ssg77
g3892
sg70
(lp3903
S':'
asbag63
(g84
g65
NtRp3904
(dp3905
g68
(dp3906
sg77
g3892
sg70
(lp3907
g63
(g64
g65
NtRp3908
(dp3909
g68
(dp3910
g76
I3
ssg77
g3904
sg70
(lp3911
S''
asbasbasbag63
(g79
g65
NtRp3912
(dp3913
g68
(dp3914
sg77
g3768
sg70
(lp3915
g63
(g84
g65
NtRp3916
(dp3917
g68
(dp3918
g88
g89
ssg77
g3912
sg70
(lp3919
g473
asbag63
(g84
g65
NtRp3920
(dp3921
g68
(dp3922
g95
g96
ssg77
g3912
sg70
(lp3923
S':'
asbag63
(g84
g65
NtRp3924
(dp3925
g68
(dp3926
sg77
g3912
sg70
(lp3927
g63
(g64
g65
NtRp3928
(dp3929
g68
(dp3930
g76
I3
ssg77
g3924
sg70
(lp3931
S''
asbasbasbasbasbasbasbasbasbasbasbag63
(g79
g65
NtRp3932
(dp3933
g68
(dp3934
sg77
g3698
sg70
(lp3935
g63
(g84
g65
NtRp3936
(dp3937
g68
(dp3938
g88
g89
ssg77
g3932
sg70
(lp3939
S'delimiters'
p3940
asbag63
(g84
g65
NtRp3941
(dp3942
g68
(dp3943
g95
g96
ssg77
g3932
sg70
(lp3944
S':'
asbag63
(g84
g65
NtRp3945
(dp3946
g68
(dp3947
sg77
g3932
sg70
(lp3948
g63
(g64
g65
NtRp3949
(dp3950
g68
(dp3951
g76
I5
ssg77
g3945
sg70
(lp3952
g63
(g72
g65
NtRp3953
(dp3954
g68
(dp3955
g76
I4
ssg77
Nsg70
(lp3956
g63
(g79
g65
NtRp3957
(dp3958
g68
(dp3959
sg77
g3953
sg70
(lp3960
g63
(g84
g65
NtRp3961
(dp3962
g68
(dp3963
sg77
g3957
sg70
(lp3964
g63
(g64
g65
NtRp3965
(dp3966
g68
(dp3967
g76
I4
ssg77
g3961
sg70
(lp3968
S'{{'
p3969
asbasbasbag63
(g79
g65
NtRp3970
(dp3971
g68
(dp3972
sg77
g3953
sg70
(lp3973
g63
(g84
g65
NtRp3974
(dp3975
g68
(dp3976
sg77
g3970
sg70
(lp3977
g63
(g64
g65
NtRp3978
(dp3979
g68
(dp3980
g76
I4
ssg77
g3974
sg70
(lp3981
S'}}'
p3982
asbasbasbasbasbasbasbag63
(g79
g65
NtRp3983
(dp3984
g68
(dp3985
sg77
g3698
sg70
(lp3986
g63
(g84
g65
NtRp3987
(dp3988
g68
(dp3989
g88
g89
ssg77
g3983
sg70
(lp3990
S'files'
p3991
asbag63
(g84
g65
NtRp3992
(dp3993
g68
(dp3994
g95
g96
ssg77
g3983
sg70
(lp3995
S':'
asbag63
(g84
g65
NtRp3996
(dp3997
g68
(dp3998
sg77
g3983
sg70
(lp3999
g63
(g64
g65
NtRp4000
(dp4001
g68
(dp4002
g76
I5
ssg77
g3996
sg70
(lp4003
g63
(g72
g65
NtRp4004
(dp4005
g68
(dp4006
g76
I4
ssg77
Nsg70
(lp4007
g63
(g79
g65
NtRp4008
(dp4009
g68
(dp4010
sg77
g4004
sg70
(lp4011
g63
(g84
g65
NtRp4012
(dp4013
g68
(dp4014
sg77
g4008
sg70
(lp4015
g63
(g64
g65
NtRp4016
(dp4017
g68
(dp4018
g76
I4
ssg77
g4012
sg70
(lp4019
S'/admin/static/plugin_multiselect/jquery.dimensions.js'
p4020
asbasbasbag63
(g79
g65
NtRp4021
(dp4022
g68
(dp4023
sg77
g4004
sg70
(lp4024
g63
(g84
g65
NtRp4025
(dp4026
g68
(dp4027
sg77
g4021
sg70
(lp4028
g63
(g64
g65
NtRp4029
(dp4030
g68
(dp4031
g76
I4
ssg77
g4025
sg70
(lp4032
S'/admin/static/plugin_multiselect/jquery.multiselect.js'
p4033
asbasbasbag63
(g79
g65
NtRp4034
(dp4035
g68
(dp4036
sg77
g4004
sg70
(lp4037
g63
(g84
g65
NtRp4038
(dp4039
g68
(dp4040
sg77
g4034
sg70
(lp4041
g63
(g64
g65
NtRp4042
(dp4043
g68
(dp4044
g76
I4
ssg77
g4038
sg70
(lp4045
S'/admin/static/plugin_multiselect/jquery.multiselect.css'
p4046
asbasbasbag63
(g79
g65
NtRp4047
(dp4048
g68
(dp4049
sg77
g4004
sg70
(lp4050
g63
(g84
g65
NtRp4051
(dp4052
g68
(dp4053
sg77
g4047
sg70
(lp4054
g63
(g64
g65
NtRp4055
(dp4056
g68
(dp4057
g76
I4
ssg77
g4051
sg70
(lp4058
S'/admin/static/plugin_multiselect/start.js'
p4059
asbasbasbasbasbasbasbag63
(g79
g65
NtRp4060
(dp4061
g68
(dp4062
sg77
g3698
sg70
(lp4063
g63
(g84
g65
NtRp4064
(dp4065
g68
(dp4066
g88
g89
ssg77
g4060
sg70
(lp4067
S'flash'
p4068
asbag63
(g84
g65
NtRp4069
(dp4070
g68
(dp4071
g95
g96
ssg77
g4060
sg70
(lp4072
S':'
asbag63
(g84
g65
NtRp4073
(dp4074
g68
(dp4075
sg77
g4060
sg70
(lp4076
g63
(g64
g65
NtRp4077
(dp4078
g68
(dp4079
g76
I5
ssg77
g4073
sg70
(lp4080
S''
asbasbasbag63
(g79
g65
NtRp4081
(dp4082
g68
(dp4083
sg77
g3698
sg70
(lp4084
g63
(g84
g65
NtRp4085
(dp4086
g68
(dp4087
g88
g89
ssg77
g4081
sg70
(lp4088
S'generic_patterns'
p4089
asbag63
(g84
g65
NtRp4090
(dp4091
g68
(dp4092
g95
g96
ssg77
g4081
sg70
(lp4093
S':'
asbag63
(g84
g65
NtRp4094
(dp4095
g68
(dp4096
sg77
g4081
sg70
(lp4097
g63
(g64
g65
NtRp4098
(dp4099
g68
(dp4100
g76
I5
ssg77
g4094
sg70
(lp4101
g63
(g72
g65
NtRp4102
(dp4103
g68
(dp4104
g76
I4
ssg77
Nsg70
(lp4105
sbasbasbasbag63
(g79
g65
NtRp4106
(dp4107
g68
(dp4108
sg77
g3698
sg70
(lp4109
g63
(g84
g65
NtRp4110
(dp4111
g68
(dp4112
g88
g89
ssg77
g4106
sg70
(lp4113
S'headers'
p4114
asbag63
(g84
g65
NtRp4115
(dp4116
g68
(dp4117
g95
g96
ssg77
g4106
sg70
(lp4118
S':'
asbag63
(g84
g65
NtRp4119
(dp4120
g68
(dp4121
sg77
g4106
sg70
(lp4122
g63
(g64
g65
NtRp4123
(dp4124
g68
(dp4125
g76
I5
ssg77
g4119
sg70
(lp4126
g63
(g72
g65
NtRp4127
(dp4128
g68
(dp4129
g76
I4
ssg77
Nsg70
(lp4130
g63
(g79
g65
NtRp4131
(dp4132
g68
(dp4133
sg77
g4127
sg70
(lp4134
g63
(g84
g65
NtRp4135
(dp4136
g68
(dp4137
g88
g89
ssg77
g4131
sg70
(lp4138
S'Cache-Control'
p4139
asbag63
(g84
g65
NtRp4140
(dp4141
g68
(dp4142
g95
g96
ssg77
g4131
sg70
(lp4143
S':'
asbag63
(g84
g65
NtRp4144
(dp4145
g68
(dp4146
sg77
g4131
sg70
(lp4147
g63
(g64
g65
NtRp4148
(dp4149
g68
(dp4150
g76
I4
ssg77
g4144
sg70
(lp4151
S'no-store, no-cache, must-revalidate, post-check=0, pre-check=0'
p4152
asbasbasbag63
(g79
g65
NtRp4153
(dp4154
g68
(dp4155
sg77
g4127
sg70
(lp4156
g63
(g84
g65
NtRp4157
(dp4158
g68
(dp4159
g88
g89
ssg77
g4153
sg70
(lp4160
S'Content-Type'
p4161
asbag63
(g84
g65
NtRp4162
(dp4163
g68
(dp4164
g95
g96
ssg77
g4153
sg70
(lp4165
S':'
asbag63
(g84
g65
NtRp4166
(dp4167
g68
(dp4168
sg77
g4153
sg70
(lp4169
g63
(g64
g65
NtRp4170
(dp4171
g68
(dp4172
g76
I4
ssg77
g4166
sg70
(lp4173
S'text/html; charset=utf-8'
p4174
asbasbasbag63
(g79
g65
NtRp4175
(dp4176
g68
(dp4177
sg77
g4127
sg70
(lp4178
g63
(g84
g65
NtRp4179
(dp4180
g68
(dp4181
g88
g89
ssg77
g4175
sg70
(lp4182
S'Expires'
p4183
asbag63
(g84
g65
NtRp4184
(dp4185
g68
(dp4186
g95
g96
ssg77
g4175
sg70
(lp4187
S':'
asbag63
(g84
g65
NtRp4188
(dp4189
g68
(dp4190
sg77
g4175
sg70
(lp4191
g63
(g64
g65
NtRp4192
(dp4193
g68
(dp4194
g76
I4
ssg77
g4188
sg70
(lp4195
S'Sun, 14 Oct 2012 03:36:43 GMT'
p4196
asbasbasbag63
(g79
g65
NtRp4197
(dp4198
g68
(dp4199
sg77
g4127
sg70
(lp4200
g63
(g84
g65
NtRp4201
(dp4202
g68
(dp4203
g88
g89
ssg77
g4197
sg70
(lp4204
S'Pragma'
p4205
asbag63
(g84
g65
NtRp4206
(dp4207
g68
(dp4208
g95
g96
ssg77
g4197
sg70
(lp4209
S':'
asbag63
(g84
g65
NtRp4210
(dp4211
g68
(dp4212
sg77
g4197
sg70
(lp4213
g63
(g64
g65
NtRp4214
(dp4215
g68
(dp4216
g76
I4
ssg77
g4210
sg70
(lp4217
S'no-cache'
p4218
asbasbasbag63
(g79
g65
NtRp4219
(dp4220
g68
(dp4221
sg77
g4127
sg70
(lp4222
g63
(g84
g65
NtRp4223
(dp4224
g68
(dp4225
g88
g89
ssg77
g4219
sg70
(lp4226
S'X-Powered-By'
p4227
asbag63
(g84
g65
NtRp4228
(dp4229
g68
(dp4230
g95
g96
ssg77
g4219
sg70
(lp4231
S':'
asbag63
(g84
g65
NtRp4232
(dp4233
g68
(dp4234
sg77
g4219
sg70
(lp4235
g63
(g64
g65
NtRp4236
(dp4237
g68
(dp4238
g76
I4
ssg77
g4232
sg70
(lp4239
S'web2py'
p4240
asbasbasbasbasbasbasbag63
(g79
g65
NtRp4241
(dp4242
g68
(dp4243
sg77
g3698
sg70
(lp4244
g63
(g84
g65
NtRp4245
(dp4246
g68
(dp4247
g88
g89
ssg77
g4241
sg70
(lp4248
S'menu'
p4249
asbag63
(g84
g65
NtRp4250
(dp4251
g68
(dp4252
g95
g96
ssg77
g4241
sg70
(lp4253
S':'
asbag63
(g84
g65
NtRp4254
(dp4255
g68
(dp4256
sg77
g4241
sg70
(lp4257
g63
(g64
g65
NtRp4258
(dp4259
g68
(dp4260
g76
I5
ssg77
g4254
sg70
(lp4261
g63
(g72
g65
NtRp4262
(dp4263
g68
(dp4264
g76
I4
ssg77
Nsg70
(lp4265
g63
(g79
g65
NtRp4266
(dp4267
g68
(dp4268
sg77
g4262
sg70
(lp4269
g63
(g84
g65
NtRp4270
(dp4271
g68
(dp4272
sg77
g4266
sg70
(lp4273
g63
(g64
g65
NtRp4274
(dp4275
g68
(dp4276
g76
I4
ssg77
g4270
sg70
(lp4277
g63
(g72
g65
NtRp4278
(dp4279
g68
(dp4280
g76
I3
ssg77
Nsg70
(lp4281
g63
(g79
g65
NtRp4282
(dp4283
g68
(dp4284
sg77
g4278
sg70
(lp4285
g63
(g84
g65
NtRp4286
(dp4287
g68
(dp4288
sg77
g4282
sg70
(lp4289
g63
(g64
g65
NtRp4290
(dp4291
g68
(dp4292
g76
I3
ssg77
g4286
sg70
(lp4293
cgluon.languages
lazyT_unpickle
p4294
(S's\x04\x00\x00\x00Site'
tRp4295
asbasbasbag63
(g79
g65
NtRp4296
(dp4297
g68
(dp4298
sg77
g4278
sg70
(lp4299
g63
(g84
g65
NtRp4300
(dp4301
g68
(dp4302
sg77
g4296
sg70
(lp4303
g63
(g64
g65
NtRp4304
(dp4305
g68
(dp4306
g76
I3
ssg77
g4300
sg70
(lp4307
g106
asbasbasbag63
(g79
g65
NtRp4308
(dp4309
g68
(dp4310
sg77
g4278
sg70
(lp4311
g63
(g84
g65
NtRp4312
(dp4313
g68
(dp4314
sg77
g4308
sg70
(lp4315
g63
(g64
g65
NtRp4316
(dp4317
g68
(dp4318
g76
I3
ssg77
g4312
sg70
(lp4319
S'/admin/default/site'
p4320
asbasbasbasbasbasbasbag63
(g79
g65
NtRp4321
(dp4322
g68
(dp4323
sg77
g4262
sg70
(lp4324
g63
(g84
g65
NtRp4325
(dp4326
g68
(dp4327
sg77
g4321
sg70
(lp4328
g63
(g64
g65
NtRp4329
(dp4330
g68
(dp4331
g76
I4
ssg77
g4325
sg70
(lp4332
g63
(g72
g65
NtRp4333
(dp4334
g68
(dp4335
g76
I3
ssg77
Nsg70
(lp4336
g63
(g79
g65
NtRp4337
(dp4338
g68
(dp4339
sg77
g4333
sg70
(lp4340
g63
(g84
g65
NtRp4341
(dp4342
g68
(dp4343
sg77
g4337
sg70
(lp4344
g63
(g64
g65
NtRp4345
(dp4346
g68
(dp4347
g76
I3
ssg77
g4341
sg70
(lp4348
g4294
(S's\x04\x00\x00\x00Edit'
tRp4349
asbasbasbag63
(g79
g65
NtRp4350
(dp4351
g68
(dp4352
sg77
g4333
sg70
(lp4353
g63
(g84
g65
NtRp4354
(dp4355
g68
(dp4356
sg77
g4350
sg70
(lp4357
g63
(g64
g65
NtRp4358
(dp4359
g68
(dp4360
g76
I3
ssg77
g4354
sg70
(lp4361
g106
asbasbasbag63
(g79
g65
NtRp4362
(dp4363
g68
(dp4364
sg77
g4333
sg70
(lp4365
g63
(g84
g65
NtRp4366
(dp4367
g68
(dp4368
sg77
g4362
sg70
(lp4369
g63
(g64
g65
NtRp4370
(dp4371
g68
(dp4372
g76
I3
ssg77
g4366
sg70
(lp4373
S'/admin/default/design/taship1'
p4374
asbasbasbasbasbasbasbag63
(g79
g65
NtRp4375
(dp4376
g68
(dp4377
sg77
g4262
sg70
(lp4378
g63
(g84
g65
NtRp4379
(dp4380
g68
(dp4381
sg77
g4375
sg70
(lp4382
g63
(g64
g65
NtRp4383
(dp4384
g68
(dp4385
g76
I4
ssg77
g4379
sg70
(lp4386
g63
(g72
g65
NtRp4387
(dp4388
g68
(dp4389
g76
I3
ssg77
Nsg70
(lp4390
g63
(g79
g65
NtRp4391
(dp4392
g68
(dp4393
sg77
g4387
sg70
(lp4394
g63
(g84
g65
NtRp4395
(dp4396
g68
(dp4397
sg77
g4391
sg70
(lp4398
g63
(g64
g65
NtRp4399
(dp4400
g68
(dp4401
g76
I3
ssg77
g4395
sg70
(lp4402
g4294
(S's\x05\x00\x00\x00About'
tRp4403
asbasbasbag63
(g79
g65
NtRp4404
(dp4405
g68
(dp4406
sg77
g4387
sg70
(lp4407
g63
(g84
g65
NtRp4408
(dp4409
g68
(dp4410
sg77
g4404
sg70
(lp4411
g63
(g64
g65
NtRp4412
(dp4413
g68
(dp4414
g76
I3
ssg77
g4408
sg70
(lp4415
g106
asbasbasbag63
(g79
g65
NtRp4416
(dp4417
g68
(dp4418
sg77
g4387
sg70
(lp4419
g63
(g84
g65
NtRp4420
(dp4421
g68
(dp4422
sg77
g4416
sg70
(lp4423
g63
(g64
g65
NtRp4424
(dp4425
g68
(dp4426
g76
I3
ssg77
g4420
sg70
(lp4427
S'/admin/default/about/taship1'
p4428
asbasbasbasbasbasbasbag63
(g79
g65
NtRp4429
(dp4430
g68
(dp4431
sg77
g4262
sg70
(lp4432
g63
(g84
g65
NtRp4433
(dp4434
g68
(dp4435
sg77
g4429
sg70
(lp4436
g63
(g64
g65
NtRp4437
(dp4438
g68
(dp4439
g76
I4
ssg77
g4433
sg70
(lp4440
g63
(g72
g65
NtRp4441
(dp4442
g68
(dp4443
g76
I3
ssg77
Nsg70
(lp4444
g63
(g79
g65
NtRp4445
(dp4446
g68
(dp4447
sg77
g4441
sg70
(lp4448
g63
(g84
g65
NtRp4449
(dp4450
g68
(dp4451
sg77
g4445
sg70
(lp4452
g63
(g64
g65
NtRp4453
(dp4454
g68
(dp4455
g76
I3
ssg77
g4449
sg70
(lp4456
g4294
(S's\x06\x00\x00\x00Errors'
tRp4457
asbasbasbag63
(g79
g65
NtRp4458
(dp4459
g68
(dp4460
sg77
g4441
sg70
(lp4461
g63
(g84
g65
NtRp4462
(dp4463
g68
(dp4464
sg77
g4458
sg70
(lp4465
g63
(g64
g65
NtRp4466
(dp4467
g68
(dp4468
g76
I3
ssg77
g4462
sg70
(lp4469
g106
asbasbasbag63
(g79
g65
NtRp4470
(dp4471
g68
(dp4472
sg77
g4441
sg70
(lp4473
g63
(g84
g65
NtRp4474
(dp4475
g68
(dp4476
sg77
g4470
sg70
(lp4477
g63
(g64
g65
NtRp4478
(dp4479
g68
(dp4480
g76
I3
ssg77
g4474
sg70
(lp4481
S'/admin/default/errors/taship1'
p4482
asbasbasbasbasbasbasbag63
(g79
g65
NtRp4483
(dp4484
g68
(dp4485
sg77
g4262
sg70
(lp4486
g63
(g84
g65
NtRp4487
(dp4488
g68
(dp4489
sg77
g4483
sg70
(lp4490
g63
(g64
g65
NtRp4491
(dp4492
g68
(dp4493
g76
I4
ssg77
g4487
sg70
(lp4494
g63
(g72
g65
NtRp4495
(dp4496
g68
(dp4497
g76
I3
ssg77
Nsg70
(lp4498
g63
(g79
g65
NtRp4499
(dp4500
g68
(dp4501
sg77
g4495
sg70
(lp4502
g63
(g84
g65
NtRp4503
(dp4504
g68
(dp4505
sg77
g4499
sg70
(lp4506
g63
(g64
g65
NtRp4507
(dp4508
g68
(dp4509
g76
I3
ssg77
g4503
sg70
(lp4510
g4294
(S's\n\x00\x00\x00Versioning'
tRp4511
asbasbasbag63
(g79
g65
NtRp4512
(dp4513
g68
(dp4514
sg77
g4495
sg70
(lp4515
g63
(g84
g65
NtRp4516
(dp4517
g68
(dp4518
sg77
g4512
sg70
(lp4519
g63
(g64
g65
NtRp4520
(dp4521
g68
(dp4522
g76
I3
ssg77
g4516
sg70
(lp4523
g106
asbasbasbag63
(g79
g65
NtRp4524
(dp4525
g68
(dp4526
sg77
g4495
sg70
(lp4527
g63
(g84
g65
NtRp4528
(dp4529
g68
(dp4530
sg77
g4524
sg70
(lp4531
g63
(g64
g65
NtRp4532
(dp4533
g68
(dp4534
g76
I3
ssg77
g4528
sg70
(lp4535
S'/admin/mercurial/commit/taship1'
p4536
asbasbasbasbasbasbasbag63
(g79
g65
NtRp4537
(dp4538
g68
(dp4539
sg77
g4262
sg70
(lp4540
g63
(g84
g65
NtRp4541
(dp4542
g68
(dp4543
sg77
g4537
sg70
(lp4544
g63
(g64
g65
NtRp4545
(dp4546
g68
(dp4547
g76
I4
ssg77
g4541
sg70
(lp4548
g63
(g72
g65
NtRp4549
(dp4550
g68
(dp4551
g76
I3
ssg77
Nsg70
(lp4552
g63
(g79
g65
NtRp4553
(dp4554
g68
(dp4555
sg77
g4549
sg70
(lp4556
g63
(g84
g65
NtRp4557
(dp4558
g68
(dp4559
sg77
g4553
sg70
(lp4560
g63
(g64
g65
NtRp4561
(dp4562
g68
(dp4563
g76
I3
ssg77
g4557
sg70
(lp4564
g4294
(S's\x06\x00\x00\x00Logout'
tRp4565
asbasbasbag63
(g79
g65
NtRp4566
(dp4567
g68
(dp4568
sg77
g4549
sg70
(lp4569
g63
(g84
g65
NtRp4570
(dp4571
g68
(dp4572
sg77
g4566
sg70
(lp4573
g63
(g64
g65
NtRp4574
(dp4575
g68
(dp4576
g76
I3
ssg77
g4570
sg70
(lp4577
g106
asbasbasbag63
(g79
g65
NtRp4578
(dp4579
g68
(dp4580
sg77
g4549
sg70
(lp4581
g63
(g84
g65
NtRp4582
(dp4583
g68
(dp4584
sg77
g4578
sg70
(lp4585
g63
(g64
g65
NtRp4586
(dp4587
g68
(dp4588
g76
I3
ssg77
g4582
sg70
(lp4589
S'/admin/default/logout'
p4590
asbasbasbasbasbasbasbag63
(g79
g65
NtRp4591
(dp4592
g68
(dp4593
sg77
g4262
sg70
(lp4594
g63
(g84
g65
NtRp4595
(dp4596
g68
(dp4597
sg77
g4591
sg70
(lp4598
g63
(g64
g65
NtRp4599
(dp4600
g68
(dp4601
g76
I4
ssg77
g4595
sg70
(lp4602
g63
(g72
g65
NtRp4603
(dp4604
g68
(dp4605
g76
I3
ssg77
Nsg70
(lp4606
g63
(g79
g65
NtRp4607
(dp4608
g68
(dp4609
sg77
g4603
sg70
(lp4610
g63
(g84
g65
NtRp4611
(dp4612
g68
(dp4613
sg77
g4607
sg70
(lp4614
g63
(g64
g65
NtRp4615
(dp4616
g68
(dp4617
g76
I3
ssg77
g4611
sg70
(lp4618
g4294
(S's\x05\x00\x00\x00Debug'
tRp4619
asbasbasbag63
(g79
g65
NtRp4620
(dp4621
g68
(dp4622
sg77
g4603
sg70
(lp4623
g63
(g84
g65
NtRp4624
(dp4625
g68
(dp4626
sg77
g4620
sg70
(lp4627
g63
(g64
g65
NtRp4628
(dp4629
g68
(dp4630
g76
I3
ssg77
g4624
sg70
(lp4631
g106
asbasbasbag63
(g79
g65
NtRp4632
(dp4633
g68
(dp4634
sg77
g4603
sg70
(lp4635
g63
(g84
g65
NtRp4636
(dp4637
g68
(dp4638
sg77
g4632
sg70
(lp4639
g63
(g64
g65
NtRp4640
(dp4641
g68
(dp4642
g76
I3
ssg77
g4636
sg70
(lp4643
S'/admin/debug/interact'
p4644
asbasbasbasbasbasbasbag63
(g79
g65
NtRp4645
(dp4646
g68
(dp4647
sg77
g4262
sg70
(lp4648
g63
(g84
g65
NtRp4649
(dp4650
g68
(dp4651
sg77
g4645
sg70
(lp4652
g63
(g64
g65
NtRp4653
(dp4654
g68
(dp4655
g76
I4
ssg77
g4649
sg70
(lp4656
g63
(g72
g65
NtRp4657
(dp4658
g68
(dp4659
g76
I3
ssg77
Nsg70
(lp4660
g63
(g79
g65
NtRp4661
(dp4662
g68
(dp4663
sg77
g4657
sg70
(lp4664
g63
(g84
g65
NtRp4665
(dp4666
g68
(dp4667
sg77
g4661
sg70
(lp4668
g63
(g64
g65
NtRp4669
(dp4670
g68
(dp4671
g76
I3
ssg77
g4665
sg70
(lp4672
g4294
(S's\x04\x00\x00\x00Help'
tRp4673
asbasbasbag63
(g79
g65
NtRp4674
(dp4675
g68
(dp4676
sg77
g4657
sg70
(lp4677
g63
(g84
g65
NtRp4678
(dp4679
g68
(dp4680
sg77
g4674
sg70
(lp4681
g63
(g64
g65
NtRp4682
(dp4683
g68
(dp4684
g76
I3
ssg77
g4678
sg70
(lp4685
g106
asbasbasbag63
(g79
g65
NtRp4686
(dp4687
g68
(dp4688
sg77
g4657
sg70
(lp4689
g63
(g84
g65
NtRp4690
(dp4691
g68
(dp4692
sg77
g4686
sg70
(lp4693
g63
(g64
g65
NtRp4694
(dp4695
g68
(dp4696
g76
I3
ssg77
g4690
sg70
(lp4697
S'/examples/default/index'
p4698
asbasbasbasbasbasbasbasbasbasbasbag63
(g79
g65
NtRp4699
(dp4700
g68
(dp4701
sg77
g3698
sg70
(lp4702
g63
(g84
g65
NtRp4703
(dp4704
g68
(dp4705
g88
g89
ssg77
g4699
sg70
(lp4706
S'meta'
p4707
asbag63
(g84
g65
NtRp4708
(dp4709
g68
(dp4710
g95
g96
ssg77
g4699
sg70
(lp4711
S':'
asbag63
(g84
g65
NtRp4712
(dp4713
g68
(dp4714
sg77
g4699
sg70
(lp4715
g63
(g64
g65
NtRp4716
(dp4717
g68
(dp4718
g76
I5
ssg77
g4712
sg70
(lp4719
g63
(g72
g65
NtRp4720
(dp4721
g68
(dp4722
g76
I4
ssg77
Nsg70
(lp4723
sbasbasbasbag63
(g79
g65
NtRp4724
(dp4725
g68
(dp4726
sg77
g3698
sg70
(lp4727
g63
(g84
g65
NtRp4728
(dp4729
g68
(dp4730
g88
g89
ssg77
g4724
sg70
(lp4731
S'models_to_run'
p4732
asbag63
(g84
g65
NtRp4733
(dp4734
g68
(dp4735
g95
g96
ssg77
g4724
sg70
(lp4736
S':'
asbag63
(g84
g65
NtRp4737
(dp4738
g68
(dp4739
sg77
g4724
sg70
(lp4740
g63
(g64
g65
NtRp4741
(dp4742
g68
(dp4743
g76
I5
ssg77
g4737
sg70
(lp4744
g63
(g72
g65
NtRp4745
(dp4746
g68
(dp4747
g76
I4
ssg77
Nsg70
(lp4748
g63
(g79
g65
NtRp4749
(dp4750
g68
(dp4751
sg77
g4745
sg70
(lp4752
g63
(g84
g65
NtRp4753
(dp4754
g68
(dp4755
sg77
g4749
sg70
(lp4756
g63
(g64
g65
NtRp4757
(dp4758
g68
(dp4759
g76
I4
ssg77
g4753
sg70
(lp4760
S'^\\w+\\.py$'
p4761
asbasbasbag63
(g79
g65
NtRp4762
(dp4763
g68
(dp4764
sg77
g4745
sg70
(lp4765
g63
(g84
g65
NtRp4766
(dp4767
g68
(dp4768
sg77
g4762
sg70
(lp4769
g63
(g64
g65
NtRp4770
(dp4771
g68
(dp4772
g76
I4
ssg77
g4766
sg70
(lp4773
S'^default/\\w+\\.py$'
p4774
asbasbasbag63
(g79
g65
NtRp4775
(dp4776
g68
(dp4777
sg77
g4745
sg70
(lp4778
g63
(g84
g65
NtRp4779
(dp4780
g68
(dp4781
sg77
g4775
sg70
(lp4782
g63
(g64
g65
NtRp4783
(dp4784
g68
(dp4785
g76
I4
ssg77
g4779
sg70
(lp4786
S'^default/resolve/\\w+\\.py$'
p4787
asbasbasbasbasbasbasbag63
(g79
g65
NtRp4788
(dp4789
g68
(dp4790
sg77
g3698
sg70
(lp4791
g63
(g84
g65
NtRp4792
(dp4793
g68
(dp4794
g88
g89
ssg77
g4788
sg70
(lp4795
S'postprocessing'
p4796
asbag63
(g84
g65
NtRp4797
(dp4798
g68
(dp4799
g95
g96
ssg77
g4788
sg70
(lp4800
S':'
asbag63
(g84
g65
NtRp4801
(dp4802
g68
(dp4803
sg77
g4788
sg70
(lp4804
g63
(g64
g65
NtRp4805
(dp4806
g68
(dp4807
g76
I5
ssg77
g4801
sg70
(lp4808
g63
(g72
g65
NtRp4809
(dp4810
g68
(dp4811
g76
I4
ssg77
Nsg70
(lp4812
sbasbasbasbag63
(g79
g65
NtRp4813
(dp4814
g68
(dp4815
sg77
g3698
sg70
(lp4816
g63
(g84
g65
NtRp4817
(dp4818
g68
(dp4819
g88
g89
ssg77
g4813
sg70
(lp4820
S'session_file'
p4821
asbag63
(g84
g65
NtRp4822
(dp4823
g68
(dp4824
g95
g96
ssg77
g4813
sg70
(lp4825
S':'
asbag63
(g84
g65
NtRp4826
(dp4827
g68
(dp4828
sg77
g4813
sg70
(lp4829
g63
(g64
g65
NtRp4830
(dp4831
g68
(dp4832
g76
I5
ssg77
g4826
sg70
(lp4833
S"<open file '/home/mayank/IIIT/sem 3/SSAD&Project/web2py/applications/admin/sessions/127.0.0.1-5dcf2937-67e2-4b75-8344-2e4702696999', mode 'rb+' at 0x7f5c90203db0>"
p4834
asbasbasbag63
(g79
g65
NtRp4835
(dp4836
g68
(dp4837
sg77
g3698
sg70
(lp4838
g63
(g84
g65
NtRp4839
(dp4840
g68
(dp4841
g88
g89
ssg77
g4835
sg70
(lp4842
S'session_filename'
p4843
asbag63
(g84
g65
NtRp4844
(dp4845
g68
(dp4846
g95
g96
ssg77
g4835
sg70
(lp4847
S':'
asbag63
(g84
g65
NtRp4848
(dp4849
g68
(dp4850
sg77
g4835
sg70
(lp4851
g63
(g64
g65
NtRp4852
(dp4853
g68
(dp4854
g76
I5
ssg77
g4848
sg70
(lp4855
S'/home/mayank/IIIT/sem 3/SSAD&Project/web2py/applications/admin/sessions/127.0.0.1-5dcf2937-67e2-4b75-8344-2e4702696999'
p4856
asbasbasbag63
(g79
g65
NtRp4857
(dp4858
g68
(dp4859
sg77
g3698
sg70
(lp4860
g63
(g84
g65
NtRp4861
(dp4862
g68
(dp4863
g88
g89
ssg77
g4857
sg70
(lp4864
S'session_id'
p4865
asbag63
(g84
g65
NtRp4866
(dp4867
g68
(dp4868
g95
g96
ssg77
g4857
sg70
(lp4869
S':'
asbag63
(g84
g65
NtRp4870
(dp4871
g68
(dp4872
sg77
g4857
sg70
(lp4873
g63
(g64
g65
NtRp4874
(dp4875
g68
(dp4876
g76
I5
ssg77
g4870
sg70
(lp4877
g313
asbasbasbag63
(g79
g65
NtRp4878
(dp4879
g68
(dp4880
sg77
g3698
sg70
(lp4881
g63
(g84
g65
NtRp4882
(dp4883
g68
(dp4884
g88
g89
ssg77
g4878
sg70
(lp4885
S'session_id_name'
p4886
asbag63
(g84
g65
NtRp4887
(dp4888
g68
(dp4889
g95
g96
ssg77
g4878
sg70
(lp4890
S':'
asbag63
(g84
g65
NtRp4891
(dp4892
g68
(dp4893
sg77
g4878
sg70
(lp4894
g63
(g64
g65
NtRp4895
(dp4896
g68
(dp4897
g76
I5
ssg77
g4891
sg70
(lp4898
g3755
asbasbasbag63
(g79
g65
NtRp4899
(dp4900
g68
(dp4901
sg77
g3698
sg70
(lp4902
g63
(g84
g65
NtRp4903
(dp4904
g68
(dp4905
g88
g89
ssg77
g4899
sg70
(lp4906
S'session_locked'
p4907
asbag63
(g84
g65
NtRp4908
(dp4909
g68
(dp4910
g95
g96
ssg77
g4899
sg70
(lp4911
S':'
asbag63
(g84
g65
NtRp4912
(dp4913
g68
(dp4914
sg77
g4899
sg70
(lp4915
g63
(g64
g65
NtRp4916
(dp4917
g68
(dp4918
g76
I5
ssg77
g4912
sg70
(lp4919
g2083
asbasbasbag63
(g79
g65
NtRp4920
(dp4921
g68
(dp4922
sg77
g3698
sg70
(lp4923
g63
(g84
g65
NtRp4924
(dp4925
g68
(dp4926
g88
g89
ssg77
g4920
sg70
(lp4927
S'session_new'
p4928
asbag63
(g84
g65
NtRp4929
(dp4930
g68
(dp4931
g95
g96
ssg77
g4920
sg70
(lp4932
S':'
asbag63
(g84
g65
NtRp4933
(dp4934
g68
(dp4935
sg77
g4920
sg70
(lp4936
g63
(g64
g65
NtRp4937
(dp4938
g68
(dp4939
g76
I5
ssg77
g4933
sg70
(lp4940
g106
asbasbasbag63
(g79
g65
NtRp4941
(dp4942
g68
(dp4943
sg77
g3698
sg70
(lp4944
g63
(g84
g65
NtRp4945
(dp4946
g68
(dp4947
g88
g89
ssg77
g4941
sg70
(lp4948
S'status'
p4949
asbag63
(g84
g65
NtRp4950
(dp4951
g68
(dp4952
g95
g96
ssg77
g4941
sg70
(lp4953
S':'
asbag63
(g84
g65
NtRp4954
(dp4955
g68
(dp4956
sg77
g4941
sg70
(lp4957
g63
(g64
g65
NtRp4958
(dp4959
g68
(dp4960
g76
I5
ssg77
g4954
sg70
(lp4961
S'200'
p4962
asbasbasbag63
(g79
g65
NtRp4963
(dp4964
g68
(dp4965
sg77
g3698
sg70
(lp4966
g63
(g84
g65
NtRp4967
(dp4968
g68
(dp4969
g88
g89
ssg77
g4963
sg70
(lp4970
S'subtitle'
p4971
asbag63
(g84
g65
NtRp4972
(dp4973
g68
(dp4974
g95
g96
ssg77
g4963
sg70
(lp4975
S':'
asbag63
(g84
g65
NtRp4976
(dp4977
g68
(dp4978
sg77
g4963
sg70
(lp4979
g63
(g64
g65
NtRp4980
(dp4981
g68
(dp4982
g76
I5
ssg77
g4976
sg70
(lp4983
S'admin'
p4984
asbasbasbag63
(g79
g65
NtRp4985
(dp4986
g68
(dp4987
sg77
g3698
sg70
(lp4988
g63
(g84
g65
NtRp4989
(dp4990
g68
(dp4991
g88
g89
ssg77
g4985
sg70
(lp4992
S'title'
p4993
asbag63
(g84
g65
NtRp4994
(dp4995
g68
(dp4996
g95
g96
ssg77
g4985
sg70
(lp4997
S':'
asbag63
(g84
g65
NtRp4998
(dp4999
g68
(dp5000
sg77
g4985
sg70
(lp5001
g63
(g64
g65
NtRp5002
(dp5003
g68
(dp5004
g76
I5
ssg77
g4998
sg70
(lp5005
S'resolve taship1/views'
p5006
asbasbasbag63
(g79
g65
NtRp5007
(dp5008
g68
(dp5009
sg77
g3698
sg70
(lp5010
g63
(g84
g65
NtRp5011
(dp5012
g68
(dp5013
g88
g89
ssg77
g5007
sg70
(lp5014
S'view'
p5015
asbag63
(g84
g65
NtRp5016
(dp5017
g68
(dp5018
g95
g96
ssg77
g5007
sg70
(lp5019
S':'
asbag63
(g84
g65
NtRp5020
(dp5021
g68
(dp5022
sg77
g5007
sg70
(lp5023
g63
(g64
g65
NtRp5024
(dp5025
g68
(dp5026
g76
I5
ssg77
g5020
sg70
(lp5027
S'default/resolve.html'
p5028
asbasbasbasbasbsS'locals'
p5029
(dp5030
S'a'
S"'/home/mayank/IIIT/sem 3/SSAD&Project/web2py/applications/taship1/views'"
p5031
sS'b'
S"'r'"
p5032
sssS'traceback'
p5033
S'Traceback (most recent call last):\n  File "/home/mayank/IIIT/sem 3/SSAD&Project/web2py/gluon/restricted.py", line 209, in restricted\n    exec ccode in environment\n  File "/home/mayank/IIIT/sem 3/SSAD&Project/web2py/applications/admin/controllers/default.py", line 1726, in <module>\n  File "/home/mayank/IIIT/sem 3/SSAD&Project/web2py/gluon/globals.py", line 185, in <lambda>\n    self._caller = lambda f: f()\n  File "/home/mayank/IIIT/sem 3/SSAD&Project/web2py/applications/admin/controllers/default.py", line 703, in resolve\n    a = safe_read(path).split(\'\\n\')\n  File "/home/mayank/IIIT/sem 3/SSAD&Project/web2py/applications/admin/controllers/default.py", line 66, in safe_read\n    safe_file = safe_open(a, b)\n  File "/home/mayank/IIIT/sem 3/SSAD&Project/web2py/applications/admin/controllers/default.py", line 63, in safe_open\n    return open(a,b)\nIOError: [Errno 21] Is a directory: \'/home/mayank/IIIT/sem 3/SSAD&Project/web2py/applications/taship1/views\'\n'
p5034
s.