(dp1
S'output'
p2
S"<class 'git.errors.InvalidGitRepositoryError'> /tmp"
p3
sS'layer'
p4
S'/home/mayank/IIIT/sem 3/SSAD&Project/web2py/applications/admin/controllers/openshift.py'
p5
sS'code'
p6
S'import os\nfrom distutils import dir_util\ntry:\n    from git import *\nexcept ImportError:\n    session.flash = T(\'requires python-git, but not installed\')\n    redirect(URL(\'default\',\'site\'))\n\ndef deploy():\n    apps = sorted(file for file in os.listdir(apath(r=request)))\n    form = SQLFORM.factory(\n        Field(\'osrepo\',default=\'/tmp\',label=T(\'Path to local openshift repo root.\'),\n              requires=EXISTS(error_message=T(\'directory not found\'))),\n        Field(\'osname\',default=\'web2py\',label=T(\'WSGI reference name\')),\n        Field(\'applications\',\'list:string\',\n              requires=IS_IN_SET(apps,multiple=True),\n              label=T(\'web2py apps to deploy\')))\n\n    cmd = output = errors= ""\n    if form.accepts(request,session):\n        try:\n            kill()\n        except:\n            pass\n        \n        ignore_apps = [item for item in apps if not item in form.vars.applications]\n        regex = re.compile(\'\\(applications/\\(.*\')\n        w2p_origin = os.getcwd()\n        osrepo = form.vars.osrepo\n        osname = form.vars.osname\n        #Git code starts here\n        repo = Repo(form.vars.osrepo)\n        index = repo.index\n        assert repo.bare == False\n\n        for i in form.vars.applications:\n            appsrc = os.path.join(apath(r=request),i)\n            appdest = os.path.join(osrepo,\'wsgi\',osname,\'applications\',i)\n            dir_util.copy_tree(appsrc,appdest)\n            #shutil.copytree(appsrc,appdest)\n            index.add([\'wsgi/\'+osname+\'/applications/\'+i])\n            new_commit = index.commit("Deploy from Web2py IDE")\n        \n        origin = repo.remotes.origin\n        origin.push\n        origin.push()\n        #Git code ends here\n    return dict(form=form,command=cmd)\n        \nclass EXISTS(object):\n    def __init__(self, error_message=\'file not found\'):\n        self.error_message = error_message\n    def __call__(self, value):\n        if os.path.exists(value):\n            return (value,None)\n        return (value,self.error_message)\n\nresponse._vars=response._caller(deploy)\n'
p7
sS'snapshot'
p8
(dp9
S'exception'
p10
(dp11
S'__module__'
p12
S"'git.errors'"
p13
sS'__getslice__'
p14
S"<method-wrapper '__getslice__' of InvalidGitRepositoryError object>"
p15
sS'__str__'
p16
S"<method-wrapper '__str__' of InvalidGitRepositoryError object>"
p17
sS'__reduce__'
p18
S'<built-in method __reduce__ of InvalidGitRepositoryError object>'
p19
sS'__dict__'
p20
S'{}'
p21
sS'__sizeof__'
p22
S'<built-in method __sizeof__ of InvalidGitRepositoryError object>'
p23
sS'__weakref__'
p24
S'None'
p25
sS'__init__'
p26
S"<method-wrapper '__init__' of InvalidGitRepositoryError object>"
p27
sS'__setattr__'
p28
S"<method-wrapper '__setattr__' of InvalidGitRepositoryError object>"
p29
sS'__reduce_ex__'
p30
S'<built-in method __reduce_ex__ of InvalidGitRepositoryError object>'
p31
sS'__new__'
p32
S'<built-in method __new__ of type object>'
p33
sS'__format__'
p34
S'<built-in method __format__ of InvalidGitRepositoryError object>'
p35
sS'__class__'
p36
S"<class 'git.errors.InvalidGitRepositoryError'>"
p37
sS'__doc__'
p38
S'None'
p39
sS'__getitem__'
p40
S"<method-wrapper '__getitem__' of InvalidGitRepositoryError object>"
p41
sS'__setstate__'
p42
S'<built-in method __setstate__ of InvalidGitRepositoryError object>'
p43
sS'__getattribute__'
p44
S"<method-wrapper '__getattribute__' of InvalidGitRepositoryError object>"
p45
sS'args'
p46
S"('/tmp',)"
p47
sS'__subclasshook__'
p48
S'<built-in method __subclasshook__ of type object>'
p49
sS'__unicode__'
p50
S'<built-in method __unicode__ of InvalidGitRepositoryError object>'
p51
sS'__delattr__'
p52
S"<method-wrapper '__delattr__' of InvalidGitRepositoryError object>"
p53
sS'__repr__'
p54
S"<method-wrapper '__repr__' of InvalidGitRepositoryError object>"
p55
sS'__hash__'
p56
S"<method-wrapper '__hash__' of InvalidGitRepositoryError object>"
p57
ssS'evalue'
p58
S'/tmp'
p59
sS'request'
p60
ccopy_reg
_reconstructor
p61
(cgluon.html
BEAUTIFY
p62
c__builtin__
object
p63
NtRp64
(dp65
S'attributes'
p66
(dp67
sS'components'
p68
(lp69
g61
(cgluon.html
TABLE
p70
g63
NtRp71
(dp72
g66
(dp73
S'level'
p74
I5
ssS'parent'
p75
Nsg68
(lp76
g61
(cgluon.html
TR
p77
g63
NtRp78
(dp79
g66
(dp80
sg75
g71
sg68
(lp81
g61
(cgluon.html
TD
p82
g63
NtRp83
(dp84
g66
(dp85
S'_style'
p86
S'font-weight:bold;vertical-align:top'
p87
ssg75
g78
sg68
(lp88
S'ajax'
p89
asbag61
(g82
g63
NtRp90
(dp91
g66
(dp92
S'_valign'
p93
S'top'
p94
ssg75
g78
sg68
(lp95
S':'
asbag61
(g82
g63
NtRp96
(dp97
g66
(dp98
sg75
g78
sg68
(lp99
g61
(g62
g63
NtRp100
(dp101
g66
(dp102
g74
I5
ssg75
g96
sg68
(lp103
S'False'
p104
asbasbasbag61
(g77
g63
NtRp105
(dp106
g66
(dp107
sg75
g71
sg68
(lp108
g61
(g82
g63
NtRp109
(dp110
g66
(dp111
g86
g87
ssg75
g105
sg68
(lp112
S'application'
p113
asbag61
(g82
g63
NtRp114
(dp115
g66
(dp116
g93
g94
ssg75
g105
sg68
(lp117
S':'
asbag61
(g82
g63
NtRp118
(dp119
g66
(dp120
sg75
g105
sg68
(lp121
g61
(g62
g63
NtRp122
(dp123
g66
(dp124
g74
I5
ssg75
g118
sg68
(lp125
S'admin'
p126
asbasbasbag61
(g77
g63
NtRp127
(dp128
g66
(dp129
sg75
g71
sg68
(lp130
g61
(g82
g63
NtRp131
(dp132
g66
(dp133
g86
g87
ssg75
g127
sg68
(lp134
g46
asbag61
(g82
g63
NtRp135
(dp136
g66
(dp137
g93
g94
ssg75
g127
sg68
(lp138
S':'
asbag61
(g82
g63
NtRp139
(dp140
g66
(dp141
sg75
g127
sg68
(lp142
g61
(g62
g63
NtRp143
(dp144
g66
(dp145
g74
I5
ssg75
g139
sg68
(lp146
g61
(g70
g63
NtRp147
(dp148
g66
(dp149
g74
I4
ssg75
Nsg68
(lp150
sbasbasbasbag61
(g77
g63
NtRp151
(dp152
g66
(dp153
sg75
g71
sg68
(lp154
g61
(g82
g63
NtRp155
(dp156
g66
(dp157
g86
g87
ssg75
g151
sg68
(lp158
S'body'
p159
asbag61
(g82
g63
NtRp160
(dp161
g66
(dp162
g93
g94
ssg75
g151
sg68
(lp163
S':'
asbag61
(g82
g63
NtRp164
(dp165
g66
(dp166
sg75
g151
sg68
(lp167
g61
(g62
g63
NtRp168
(dp169
g66
(dp170
g74
I5
ssg75
g164
sg68
(lp171
S"<open file '<fdopen>', mode 'w+b' at 0x7f05dc133660>"
p172
asbasbasbag61
(g77
g63
NtRp173
(dp174
g66
(dp175
sg75
g71
sg68
(lp176
g61
(g82
g63
NtRp177
(dp178
g66
(dp179
g86
g87
ssg75
g173
sg68
(lp180
S'cid'
p181
asbag61
(g82
g63
NtRp182
(dp183
g66
(dp184
g93
g94
ssg75
g173
sg68
(lp185
S':'
asbag61
(g82
g63
NtRp186
(dp187
g66
(dp188
sg75
g173
sg68
(lp189
g61
(g62
g63
NtRp190
(dp191
g66
(dp192
g74
I5
ssg75
g186
sg68
(lp193
S'None'
p194
asbasbasbag61
(g77
g63
NtRp195
(dp196
g66
(dp197
sg75
g71
sg68
(lp198
g61
(g82
g63
NtRp199
(dp200
g66
(dp201
g86
g87
ssg75
g195
sg68
(lp202
S'client'
p203
asbag61
(g82
g63
NtRp204
(dp205
g66
(dp206
g93
g94
ssg75
g195
sg68
(lp207
S':'
asbag61
(g82
g63
NtRp208
(dp209
g66
(dp210
sg75
g195
sg68
(lp211
g61
(g62
g63
NtRp212
(dp213
g66
(dp214
g74
I5
ssg75
g208
sg68
(lp215
S'127.0.0.1'
p216
asbasbasbag61
(g77
g63
NtRp217
(dp218
g66
(dp219
sg75
g71
sg68
(lp220
g61
(g82
g63
NtRp221
(dp222
g66
(dp223
g86
g87
ssg75
g217
sg68
(lp224
S'controller'
p225
asbag61
(g82
g63
NtRp226
(dp227
g66
(dp228
g93
g94
ssg75
g217
sg68
(lp229
S':'
asbag61
(g82
g63
NtRp230
(dp231
g66
(dp232
sg75
g217
sg68
(lp233
g61
(g62
g63
NtRp234
(dp235
g66
(dp236
g74
I5
ssg75
g230
sg68
(lp237
S'openshift'
p238
asbasbasbag61
(g77
g63
NtRp239
(dp240
g66
(dp241
sg75
g71
sg68
(lp242
g61
(g82
g63
NtRp243
(dp244
g66
(dp245
g86
g87
ssg75
g239
sg68
(lp246
S'cookies'
p247
asbag61
(g82
g63
NtRp248
(dp249
g66
(dp250
g93
g94
ssg75
g239
sg68
(lp251
S':'
asbag61
(g82
g63
NtRp252
(dp253
g66
(dp254
sg75
g239
sg68
(lp255
g61
(g62
g63
NtRp256
(dp257
g66
(dp258
g74
I5
ssg75
g252
sg68
(lp259
g61
(g70
g63
NtRp260
(dp261
g66
(dp262
g74
I4
ssg75
Nsg68
(lp263
g61
(g77
g63
NtRp264
(dp265
g66
(dp266
sg75
g260
sg68
(lp267
g61
(g82
g63
NtRp268
(dp269
g66
(dp270
g86
g87
ssg75
g264
sg68
(lp271
S'PHPSESSID'
p272
asbag61
(g82
g63
NtRp273
(dp274
g66
(dp275
g93
g94
ssg75
g264
sg68
(lp276
S':'
asbag61
(g82
g63
NtRp277
(dp278
g66
(dp279
sg75
g264
sg68
(lp280
g61
(g62
g63
NtRp281
(dp282
g66
(dp283
g74
I4
ssg75
g277
sg68
(lp284
S'f57cemf8gf2d3ov3kfa3tfmo72'
p285
ag61
(g70
g63
NtRp286
(dp287
g66
(dp288
g74
I3
ssg75
Nsg68
(lp289
g61
(g77
g63
NtRp290
(dp291
g66
(dp292
sg75
g286
sg68
(lp293
g61
(g82
g63
NtRp294
(dp295
g66
(dp296
g86
g87
ssg75
g290
sg68
(lp297
S'comment'
p298
asbag61
(g82
g63
NtRp299
(dp300
g66
(dp301
g93
g94
ssg75
g290
sg68
(lp302
S':'
asbag61
(g82
g63
NtRp303
(dp304
g66
(dp305
sg75
g290
sg68
(lp306
g61
(g62
g63
NtRp307
(dp308
g66
(dp309
g74
I3
ssg75
g303
sg68
(lp310
S''
asbasbasbag61
(g77
g63
NtRp311
(dp312
g66
(dp313
sg75
g286
sg68
(lp314
g61
(g82
g63
NtRp315
(dp316
g66
(dp317
g86
g87
ssg75
g311
sg68
(lp318
S'domain'
p319
asbag61
(g82
g63
NtRp320
(dp321
g66
(dp322
g93
g94
ssg75
g311
sg68
(lp323
S':'
asbag61
(g82
g63
NtRp324
(dp325
g66
(dp326
sg75
g311
sg68
(lp327
g61
(g62
g63
NtRp328
(dp329
g66
(dp330
g74
I3
ssg75
g324
sg68
(lp331
S''
asbasbasbag61
(g77
g63
NtRp332
(dp333
g66
(dp334
sg75
g286
sg68
(lp335
g61
(g82
g63
NtRp336
(dp337
g66
(dp338
g86
g87
ssg75
g332
sg68
(lp339
S'expires'
p340
asbag61
(g82
g63
NtRp341
(dp342
g66
(dp343
g93
g94
ssg75
g332
sg68
(lp344
S':'
asbag61
(g82
g63
NtRp345
(dp346
g66
(dp347
sg75
g332
sg68
(lp348
g61
(g62
g63
NtRp349
(dp350
g66
(dp351
g74
I3
ssg75
g345
sg68
(lp352
S''
asbasbasbag61
(g77
g63
NtRp353
(dp354
g66
(dp355
sg75
g286
sg68
(lp356
g61
(g82
g63
NtRp357
(dp358
g66
(dp359
g86
g87
ssg75
g353
sg68
(lp360
S'httponly'
p361
asbag61
(g82
g63
NtRp362
(dp363
g66
(dp364
g93
g94
ssg75
g353
sg68
(lp365
S':'
asbag61
(g82
g63
NtRp366
(dp367
g66
(dp368
sg75
g353
sg68
(lp369
g61
(g62
g63
NtRp370
(dp371
g66
(dp372
g74
I3
ssg75
g366
sg68
(lp373
S''
asbasbasbag61
(g77
g63
NtRp374
(dp375
g66
(dp376
sg75
g286
sg68
(lp377
g61
(g82
g63
NtRp378
(dp379
g66
(dp380
g86
g87
ssg75
g374
sg68
(lp381
S'max-age'
p382
asbag61
(g82
g63
NtRp383
(dp384
g66
(dp385
g93
g94
ssg75
g374
sg68
(lp386
S':'
asbag61
(g82
g63
NtRp387
(dp388
g66
(dp389
sg75
g374
sg68
(lp390
g61
(g62
g63
NtRp391
(dp392
g66
(dp393
g74
I3
ssg75
g387
sg68
(lp394
S''
asbasbasbag61
(g77
g63
NtRp395
(dp396
g66
(dp397
sg75
g286
sg68
(lp398
g61
(g82
g63
NtRp399
(dp400
g66
(dp401
g86
g87
ssg75
g395
sg68
(lp402
S'path'
p403
asbag61
(g82
g63
NtRp404
(dp405
g66
(dp406
g93
g94
ssg75
g395
sg68
(lp407
S':'
asbag61
(g82
g63
NtRp408
(dp409
g66
(dp410
sg75
g395
sg68
(lp411
g61
(g62
g63
NtRp412
(dp413
g66
(dp414
g74
I3
ssg75
g408
sg68
(lp415
S''
asbasbasbag61
(g77
g63
NtRp416
(dp417
g66
(dp418
sg75
g286
sg68
(lp419
g61
(g82
g63
NtRp420
(dp421
g66
(dp422
g86
g87
ssg75
g416
sg68
(lp423
S'secure'
p424
asbag61
(g82
g63
NtRp425
(dp426
g66
(dp427
g93
g94
ssg75
g416
sg68
(lp428
S':'
asbag61
(g82
g63
NtRp429
(dp430
g66
(dp431
sg75
g416
sg68
(lp432
g61
(g62
g63
NtRp433
(dp434
g66
(dp435
g74
I3
ssg75
g429
sg68
(lp436
S''
asbasbasbag61
(g77
g63
NtRp437
(dp438
g66
(dp439
sg75
g286
sg68
(lp440
g61
(g82
g63
NtRp441
(dp442
g66
(dp443
g86
g87
ssg75
g437
sg68
(lp444
S'version'
p445
asbag61
(g82
g63
NtRp446
(dp447
g66
(dp448
g93
g94
ssg75
g437
sg68
(lp449
S':'
asbag61
(g82
g63
NtRp450
(dp451
g66
(dp452
sg75
g437
sg68
(lp453
g61
(g62
g63
NtRp454
(dp455
g66
(dp456
g74
I3
ssg75
g450
sg68
(lp457
S''
asbasbasbasbasbasbasbag61
(g77
g63
NtRp458
(dp459
g66
(dp460
sg75
g260
sg68
(lp461
g61
(g82
g63
NtRp462
(dp463
g66
(dp464
g86
g87
ssg75
g458
sg68
(lp465
S'session_id_admin'
p466
asbag61
(g82
g63
NtRp467
(dp468
g66
(dp469
g93
g94
ssg75
g458
sg68
(lp470
S':'
asbag61
(g82
g63
NtRp471
(dp472
g66
(dp473
sg75
g458
sg68
(lp474
g61
(g62
g63
NtRp475
(dp476
g66
(dp477
g74
I4
ssg75
g471
sg68
(lp478
S'127.0.0.1-594402c1-c0c9-4fde-9994-1ceb12564fea'
p479
ag61
(g70
g63
NtRp480
(dp481
g66
(dp482
g74
I3
ssg75
Nsg68
(lp483
g61
(g77
g63
NtRp484
(dp485
g66
(dp486
sg75
g480
sg68
(lp487
g61
(g82
g63
NtRp488
(dp489
g66
(dp490
g86
g87
ssg75
g484
sg68
(lp491
g298
asbag61
(g82
g63
NtRp492
(dp493
g66
(dp494
g93
g94
ssg75
g484
sg68
(lp495
S':'
asbag61
(g82
g63
NtRp496
(dp497
g66
(dp498
sg75
g484
sg68
(lp499
g61
(g62
g63
NtRp500
(dp501
g66
(dp502
g74
I3
ssg75
g496
sg68
(lp503
S''
asbasbasbag61
(g77
g63
NtRp504
(dp505
g66
(dp506
sg75
g480
sg68
(lp507
g61
(g82
g63
NtRp508
(dp509
g66
(dp510
g86
g87
ssg75
g504
sg68
(lp511
g319
asbag61
(g82
g63
NtRp512
(dp513
g66
(dp514
g93
g94
ssg75
g504
sg68
(lp515
S':'
asbag61
(g82
g63
NtRp516
(dp517
g66
(dp518
sg75
g504
sg68
(lp519
g61
(g62
g63
NtRp520
(dp521
g66
(dp522
g74
I3
ssg75
g516
sg68
(lp523
S''
asbasbasbag61
(g77
g63
NtRp524
(dp525
g66
(dp526
sg75
g480
sg68
(lp527
g61
(g82
g63
NtRp528
(dp529
g66
(dp530
g86
g87
ssg75
g524
sg68
(lp531
g340
asbag61
(g82
g63
NtRp532
(dp533
g66
(dp534
g93
g94
ssg75
g524
sg68
(lp535
S':'
asbag61
(g82
g63
NtRp536
(dp537
g66
(dp538
sg75
g524
sg68
(lp539
g61
(g62
g63
NtRp540
(dp541
g66
(dp542
g74
I3
ssg75
g536
sg68
(lp543
S''
asbasbasbag61
(g77
g63
NtRp544
(dp545
g66
(dp546
sg75
g480
sg68
(lp547
g61
(g82
g63
NtRp548
(dp549
g66
(dp550
g86
g87
ssg75
g544
sg68
(lp551
g361
asbag61
(g82
g63
NtRp552
(dp553
g66
(dp554
g93
g94
ssg75
g544
sg68
(lp555
S':'
asbag61
(g82
g63
NtRp556
(dp557
g66
(dp558
sg75
g544
sg68
(lp559
g61
(g62
g63
NtRp560
(dp561
g66
(dp562
g74
I3
ssg75
g556
sg68
(lp563
S''
asbasbasbag61
(g77
g63
NtRp564
(dp565
g66
(dp566
sg75
g480
sg68
(lp567
g61
(g82
g63
NtRp568
(dp569
g66
(dp570
g86
g87
ssg75
g564
sg68
(lp571
g382
asbag61
(g82
g63
NtRp572
(dp573
g66
(dp574
g93
g94
ssg75
g564
sg68
(lp575
S':'
asbag61
(g82
g63
NtRp576
(dp577
g66
(dp578
sg75
g564
sg68
(lp579
g61
(g62
g63
NtRp580
(dp581
g66
(dp582
g74
I3
ssg75
g576
sg68
(lp583
S''
asbasbasbag61
(g77
g63
NtRp584
(dp585
g66
(dp586
sg75
g480
sg68
(lp587
g61
(g82
g63
NtRp588
(dp589
g66
(dp590
g86
g87
ssg75
g584
sg68
(lp591
g403
asbag61
(g82
g63
NtRp592
(dp593
g66
(dp594
g93
g94
ssg75
g584
sg68
(lp595
S':'
asbag61
(g82
g63
NtRp596
(dp597
g66
(dp598
sg75
g584
sg68
(lp599
g61
(g62
g63
NtRp600
(dp601
g66
(dp602
g74
I3
ssg75
g596
sg68
(lp603
S''
asbasbasbag61
(g77
g63
NtRp604
(dp605
g66
(dp606
sg75
g480
sg68
(lp607
g61
(g82
g63
NtRp608
(dp609
g66
(dp610
g86
g87
ssg75
g604
sg68
(lp611
g424
asbag61
(g82
g63
NtRp612
(dp613
g66
(dp614
g93
g94
ssg75
g604
sg68
(lp615
S':'
asbag61
(g82
g63
NtRp616
(dp617
g66
(dp618
sg75
g604
sg68
(lp619
g61
(g62
g63
NtRp620
(dp621
g66
(dp622
g74
I3
ssg75
g616
sg68
(lp623
S''
asbasbasbag61
(g77
g63
NtRp624
(dp625
g66
(dp626
sg75
g480
sg68
(lp627
g61
(g82
g63
NtRp628
(dp629
g66
(dp630
g86
g87
ssg75
g624
sg68
(lp631
g445
asbag61
(g82
g63
NtRp632
(dp633
g66
(dp634
g93
g94
ssg75
g624
sg68
(lp635
S':'
asbag61
(g82
g63
NtRp636
(dp637
g66
(dp638
sg75
g624
sg68
(lp639
g61
(g62
g63
NtRp640
(dp641
g66
(dp642
g74
I3
ssg75
g636
sg68
(lp643
S''
asbasbasbasbasbasbasbag61
(g77
g63
NtRp644
(dp645
g66
(dp646
sg75
g260
sg68
(lp647
g61
(g82
g63
NtRp648
(dp649
g66
(dp650
g86
g87
ssg75
g644
sg68
(lp651
S'session_id_welcome'
p652
asbag61
(g82
g63
NtRp653
(dp654
g66
(dp655
g93
g94
ssg75
g644
sg68
(lp656
S':'
asbag61
(g82
g63
NtRp657
(dp658
g66
(dp659
sg75
g644
sg68
(lp660
g61
(g62
g63
NtRp661
(dp662
g66
(dp663
g74
I4
ssg75
g657
sg68
(lp664
S'127.0.0.1-f9ea527d-815e-48bc-b79e-4801130e63bc'
p665
ag61
(g70
g63
NtRp666
(dp667
g66
(dp668
g74
I3
ssg75
Nsg68
(lp669
g61
(g77
g63
NtRp670
(dp671
g66
(dp672
sg75
g666
sg68
(lp673
g61
(g82
g63
NtRp674
(dp675
g66
(dp676
g86
g87
ssg75
g670
sg68
(lp677
g298
asbag61
(g82
g63
NtRp678
(dp679
g66
(dp680
g93
g94
ssg75
g670
sg68
(lp681
S':'
asbag61
(g82
g63
NtRp682
(dp683
g66
(dp684
sg75
g670
sg68
(lp685
g61
(g62
g63
NtRp686
(dp687
g66
(dp688
g74
I3
ssg75
g682
sg68
(lp689
S''
asbasbasbag61
(g77
g63
NtRp690
(dp691
g66
(dp692
sg75
g666
sg68
(lp693
g61
(g82
g63
NtRp694
(dp695
g66
(dp696
g86
g87
ssg75
g690
sg68
(lp697
g319
asbag61
(g82
g63
NtRp698
(dp699
g66
(dp700
g93
g94
ssg75
g690
sg68
(lp701
S':'
asbag61
(g82
g63
NtRp702
(dp703
g66
(dp704
sg75
g690
sg68
(lp705
g61
(g62
g63
NtRp706
(dp707
g66
(dp708
g74
I3
ssg75
g702
sg68
(lp709
S''
asbasbasbag61
(g77
g63
NtRp710
(dp711
g66
(dp712
sg75
g666
sg68
(lp713
g61
(g82
g63
NtRp714
(dp715
g66
(dp716
g86
g87
ssg75
g710
sg68
(lp717
g340
asbag61
(g82
g63
NtRp718
(dp719
g66
(dp720
g93
g94
ssg75
g710
sg68
(lp721
S':'
asbag61
(g82
g63
NtRp722
(dp723
g66
(dp724
sg75
g710
sg68
(lp725
g61
(g62
g63
NtRp726
(dp727
g66
(dp728
g74
I3
ssg75
g722
sg68
(lp729
S''
asbasbasbag61
(g77
g63
NtRp730
(dp731
g66
(dp732
sg75
g666
sg68
(lp733
g61
(g82
g63
NtRp734
(dp735
g66
(dp736
g86
g87
ssg75
g730
sg68
(lp737
g361
asbag61
(g82
g63
NtRp738
(dp739
g66
(dp740
g93
g94
ssg75
g730
sg68
(lp741
S':'
asbag61
(g82
g63
NtRp742
(dp743
g66
(dp744
sg75
g730
sg68
(lp745
g61
(g62
g63
NtRp746
(dp747
g66
(dp748
g74
I3
ssg75
g742
sg68
(lp749
S''
asbasbasbag61
(g77
g63
NtRp750
(dp751
g66
(dp752
sg75
g666
sg68
(lp753
g61
(g82
g63
NtRp754
(dp755
g66
(dp756
g86
g87
ssg75
g750
sg68
(lp757
g382
asbag61
(g82
g63
NtRp758
(dp759
g66
(dp760
g93
g94
ssg75
g750
sg68
(lp761
S':'
asbag61
(g82
g63
NtRp762
(dp763
g66
(dp764
sg75
g750
sg68
(lp765
g61
(g62
g63
NtRp766
(dp767
g66
(dp768
g74
I3
ssg75
g762
sg68
(lp769
S''
asbasbasbag61
(g77
g63
NtRp770
(dp771
g66
(dp772
sg75
g666
sg68
(lp773
g61
(g82
g63
NtRp774
(dp775
g66
(dp776
g86
g87
ssg75
g770
sg68
(lp777
g403
asbag61
(g82
g63
NtRp778
(dp779
g66
(dp780
g93
g94
ssg75
g770
sg68
(lp781
S':'
asbag61
(g82
g63
NtRp782
(dp783
g66
(dp784
sg75
g770
sg68
(lp785
g61
(g62
g63
NtRp786
(dp787
g66
(dp788
g74
I3
ssg75
g782
sg68
(lp789
S''
asbasbasbag61
(g77
g63
NtRp790
(dp791
g66
(dp792
sg75
g666
sg68
(lp793
g61
(g82
g63
NtRp794
(dp795
g66
(dp796
g86
g87
ssg75
g790
sg68
(lp797
g424
asbag61
(g82
g63
NtRp798
(dp799
g66
(dp800
g93
g94
ssg75
g790
sg68
(lp801
S':'
asbag61
(g82
g63
NtRp802
(dp803
g66
(dp804
sg75
g790
sg68
(lp805
g61
(g62
g63
NtRp806
(dp807
g66
(dp808
g74
I3
ssg75
g802
sg68
(lp809
S''
asbasbasbag61
(g77
g63
NtRp810
(dp811
g66
(dp812
sg75
g666
sg68
(lp813
g61
(g82
g63
NtRp814
(dp815
g66
(dp816
g86
g87
ssg75
g810
sg68
(lp817
g445
asbag61
(g82
g63
NtRp818
(dp819
g66
(dp820
g93
g94
ssg75
g810
sg68
(lp821
S':'
asbag61
(g82
g63
NtRp822
(dp823
g66
(dp824
sg75
g810
sg68
(lp825
g61
(g62
g63
NtRp826
(dp827
g66
(dp828
g74
I3
ssg75
g822
sg68
(lp829
S''
asbasbasbasbasbasbasbasbasbasbasbag61
(g77
g63
NtRp830
(dp831
g66
(dp832
sg75
g71
sg68
(lp833
g61
(g82
g63
NtRp834
(dp835
g66
(dp836
g86
g87
ssg75
g830
sg68
(lp837
S'env'
p838
asbag61
(g82
g63
NtRp839
(dp840
g66
(dp841
g93
g94
ssg75
g830
sg68
(lp842
S':'
asbag61
(g82
g63
NtRp843
(dp844
g66
(dp845
sg75
g830
sg68
(lp846
g61
(g62
g63
NtRp847
(dp848
g66
(dp849
g74
I5
ssg75
g843
sg68
(lp850
g61
(g70
g63
NtRp851
(dp852
g66
(dp853
g74
I4
ssg75
Nsg68
(lp854
g61
(g77
g63
NtRp855
(dp856
g66
(dp857
sg75
g851
sg68
(lp858
g61
(g82
g63
NtRp859
(dp860
g66
(dp861
g86
g87
ssg75
g855
sg68
(lp862
S'app_folders'
p863
asbag61
(g82
g63
NtRp864
(dp865
g66
(dp866
g93
g94
ssg75
g855
sg68
(lp867
S':'
asbag61
(g82
g63
NtRp868
(dp869
g66
(dp870
sg75
g855
sg68
(lp871
g61
(g62
g63
NtRp872
(dp873
g66
(dp874
g74
I4
ssg75
g868
sg68
(lp875
S"set(['/home/mayank/IIIT/sem 3/SSAD&Project/web2py/applications/admin/', '/home/mayank/IIIT/sem 3/SSAD&Project/web2py/applications/welcome/'])"
p876
asbasbasbag61
(g77
g63
NtRp877
(dp878
g66
(dp879
sg75
g851
sg68
(lp880
g61
(g82
g63
NtRp881
(dp882
g66
(dp883
g86
g87
ssg75
g877
sg68
(lp884
S'applications_parent'
p885
asbag61
(g82
g63
NtRp886
(dp887
g66
(dp888
g93
g94
ssg75
g877
sg68
(lp889
S':'
asbag61
(g82
g63
NtRp890
(dp891
g66
(dp892
sg75
g877
sg68
(lp893
g61
(g62
g63
NtRp894
(dp895
g66
(dp896
g74
I4
ssg75
g890
sg68
(lp897
S'/home/mayank/IIIT/sem 3/SSAD&Project/web2py'
p898
asbasbasbag61
(g77
g63
NtRp899
(dp900
g66
(dp901
sg75
g851
sg68
(lp902
g61
(g82
g63
NtRp903
(dp904
g66
(dp905
g86
g87
ssg75
g899
sg68
(lp906
S'cmd_args'
p907
asbag61
(g82
g63
NtRp908
(dp909
g66
(dp910
g93
g94
ssg75
g899
sg68
(lp911
S':'
asbag61
(g82
g63
NtRp912
(dp913
g66
(dp914
sg75
g899
sg68
(lp915
g61
(g62
g63
NtRp916
(dp917
g66
(dp918
g74
I4
ssg75
g912
sg68
(lp919
g61
(g70
g63
NtRp920
(dp921
g66
(dp922
g74
I3
ssg75
Nsg68
(lp923
sbasbasbasbag61
(g77
g63
NtRp924
(dp925
g66
(dp926
sg75
g851
sg68
(lp927
g61
(g82
g63
NtRp928
(dp929
g66
(dp930
g86
g87
ssg75
g924
sg68
(lp931
S'cmd_options'
p932
asbag61
(g82
g63
NtRp933
(dp934
g66
(dp935
g93
g94
ssg75
g924
sg68
(lp936
S':'
asbag61
(g82
g63
NtRp937
(dp938
g66
(dp939
sg75
g924
sg68
(lp940
g61
(g62
g63
NtRp941
(dp942
g66
(dp943
g74
I4
ssg75
g937
sg68
(lp944
S"<Values at 0x1eb4758: {'verbose': False, 'ip': '127.0.0.1', 'with_scheduler': False, 'ips': ['127.0.1.1'], 'shutdown_timeout': 5, 'taskbar': False, 'port': 8000, 'maxthreads': None, 'softcron': False, 'server_name': 'mayank', 'bpython': False, 'nogui': False, 'nocron': False, 'extcron': False, 'run_system_tests': False, 'test': None, 'folder': '/home/mayank/IIIT/sem 3/SSAD&Project/web2py', 'config': '', 'import_models': False, 'winservice': '', 'shell': None, 'run': '', 'log_filename': 'httpserver.log', 'debuglevel': 30, 'args': [''], 'socket_timeout': 5, 'ssl_ca_certificate': None, 'scheduler': None, 'profiler_filename': None, 'ssl_private_key': '', 'scheduler_groups': None, 'password': '<ask>', 'request_queue_size': 5, 'ssl_certificate': '', 'cronjob': False, 'numthreads': None, 'quiet': False, 'interfaces': None, 'minthreads': None, 'timeout': 10, 'plain': False, 'nobanner': False, 'pid_filename': 'httpserver.pid'}>"
p945
asbasbasbag61
(g77
g63
NtRp946
(dp947
g66
(dp948
sg75
g851
sg68
(lp949
g61
(g82
g63
NtRp950
(dp951
g66
(dp952
g86
g87
ssg75
g946
sg68
(lp953
S'content_length'
p954
asbag61
(g82
g63
NtRp955
(dp956
g66
(dp957
g93
g94
ssg75
g946
sg68
(lp958
S':'
asbag61
(g82
g63
NtRp959
(dp960
g66
(dp961
sg75
g946
sg68
(lp962
g61
(g62
g63
NtRp963
(dp964
g66
(dp965
g74
I4
ssg75
g959
sg68
(lp966
S'680'
p967
asbasbasbag61
(g77
g63
NtRp968
(dp969
g66
(dp970
sg75
g851
sg68
(lp971
g61
(g82
g63
NtRp972
(dp973
g66
(dp974
g86
g87
ssg75
g968
sg68
(lp975
S'content_type'
p976
asbag61
(g82
g63
NtRp977
(dp978
g66
(dp979
g93
g94
ssg75
g968
sg68
(lp980
S':'
asbag61
(g82
g63
NtRp981
(dp982
g66
(dp983
sg75
g968
sg68
(lp984
g61
(g62
g63
NtRp985
(dp986
g66
(dp987
g74
I4
ssg75
g981
sg68
(lp988
S'multipart/form-data; boundary=---------------------------920361379319022764249176881'
p989
asbasbasbag61
(g77
g63
NtRp990
(dp991
g66
(dp992
sg75
g851
sg68
(lp993
g61
(g82
g63
NtRp994
(dp995
g66
(dp996
g86
g87
ssg75
g990
sg68
(lp997
S'db_sessions'
p998
asbag61
(g82
g63
NtRp999
(dp1000
g66
(dp1001
g93
g94
ssg75
g990
sg68
(lp1002
S':'
asbag61
(g82
g63
NtRp1003
(dp1004
g66
(dp1005
sg75
g990
sg68
(lp1006
g61
(g62
g63
NtRp1007
(dp1008
g66
(dp1009
g74
I4
ssg75
g1003
sg68
(lp1010
S'set([])'
p1011
asbasbasbag61
(g77
g63
NtRp1012
(dp1013
g66
(dp1014
sg75
g851
sg68
(lp1015
g61
(g82
g63
NtRp1016
(dp1017
g66
(dp1018
g86
g87
ssg75
g1012
sg68
(lp1019
S'debugging'
p1020
asbag61
(g82
g63
NtRp1021
(dp1022
g66
(dp1023
g93
g94
ssg75
g1012
sg68
(lp1024
S':'
asbag61
(g82
g63
NtRp1025
(dp1026
g66
(dp1027
sg75
g1012
sg68
(lp1028
g61
(g62
g63
NtRp1029
(dp1030
g66
(dp1031
g74
I4
ssg75
g1025
sg68
(lp1032
g104
asbasbasbag61
(g77
g63
NtRp1033
(dp1034
g66
(dp1035
sg75
g851
sg68
(lp1036
g61
(g82
g63
NtRp1037
(dp1038
g66
(dp1039
g86
g87
ssg75
g1033
sg68
(lp1040
S'gluon_parent'
p1041
asbag61
(g82
g63
NtRp1042
(dp1043
g66
(dp1044
g93
g94
ssg75
g1033
sg68
(lp1045
S':'
asbag61
(g82
g63
NtRp1046
(dp1047
g66
(dp1048
sg75
g1033
sg68
(lp1049
g61
(g62
g63
NtRp1050
(dp1051
g66
(dp1052
g74
I4
ssg75
g1046
sg68
(lp1053
S'/home/mayank/IIIT/sem 3/SSAD&Project/web2py'
p1054
asbasbasbag61
(g77
g63
NtRp1055
(dp1056
g66
(dp1057
sg75
g851
sg68
(lp1058
g61
(g82
g63
NtRp1059
(dp1060
g66
(dp1061
g86
g87
ssg75
g1055
sg68
(lp1062
S'http_accept'
p1063
asbag61
(g82
g63
NtRp1064
(dp1065
g66
(dp1066
g93
g94
ssg75
g1055
sg68
(lp1067
S':'
asbag61
(g82
g63
NtRp1068
(dp1069
g66
(dp1070
sg75
g1055
sg68
(lp1071
g61
(g62
g63
NtRp1072
(dp1073
g66
(dp1074
g74
I4
ssg75
g1068
sg68
(lp1075
S'text/html,application/xhtml+xml,application/xml;q=0.9,*/*;q=0.8'
p1076
asbasbasbag61
(g77
g63
NtRp1077
(dp1078
g66
(dp1079
sg75
g851
sg68
(lp1080
g61
(g82
g63
NtRp1081
(dp1082
g66
(dp1083
g86
g87
ssg75
g1077
sg68
(lp1084
S'http_accept_encoding'
p1085
asbag61
(g82
g63
NtRp1086
(dp1087
g66
(dp1088
g93
g94
ssg75
g1077
sg68
(lp1089
S':'
asbag61
(g82
g63
NtRp1090
(dp1091
g66
(dp1092
sg75
g1077
sg68
(lp1093
g61
(g62
g63
NtRp1094
(dp1095
g66
(dp1096
g74
I4
ssg75
g1090
sg68
(lp1097
S'gzip, deflate'
p1098
asbasbasbag61
(g77
g63
NtRp1099
(dp1100
g66
(dp1101
sg75
g851
sg68
(lp1102
g61
(g82
g63
NtRp1103
(dp1104
g66
(dp1105
g86
g87
ssg75
g1099
sg68
(lp1106
S'http_accept_language'
p1107
asbag61
(g82
g63
NtRp1108
(dp1109
g66
(dp1110
g93
g94
ssg75
g1099
sg68
(lp1111
S':'
asbag61
(g82
g63
NtRp1112
(dp1113
g66
(dp1114
sg75
g1099
sg68
(lp1115
g61
(g62
g63
NtRp1116
(dp1117
g66
(dp1118
g74
I4
ssg75
g1112
sg68
(lp1119
S'en-US,en;q=0.5'
p1120
asbasbasbag61
(g77
g63
NtRp1121
(dp1122
g66
(dp1123
sg75
g851
sg68
(lp1124
g61
(g82
g63
NtRp1125
(dp1126
g66
(dp1127
g86
g87
ssg75
g1121
sg68
(lp1128
S'http_connection'
p1129
asbag61
(g82
g63
NtRp1130
(dp1131
g66
(dp1132
g93
g94
ssg75
g1121
sg68
(lp1133
S':'
asbag61
(g82
g63
NtRp1134
(dp1135
g66
(dp1136
sg75
g1121
sg68
(lp1137
g61
(g62
g63
NtRp1138
(dp1139
g66
(dp1140
g74
I4
ssg75
g1134
sg68
(lp1141
S'keep-alive'
p1142
asbasbasbag61
(g77
g63
NtRp1143
(dp1144
g66
(dp1145
sg75
g851
sg68
(lp1146
g61
(g82
g63
NtRp1147
(dp1148
g66
(dp1149
g86
g87
ssg75
g1143
sg68
(lp1150
S'http_content_length'
p1151
asbag61
(g82
g63
NtRp1152
(dp1153
g66
(dp1154
g93
g94
ssg75
g1143
sg68
(lp1155
S':'
asbag61
(g82
g63
NtRp1156
(dp1157
g66
(dp1158
sg75
g1143
sg68
(lp1159
g61
(g62
g63
NtRp1160
(dp1161
g66
(dp1162
g74
I4
ssg75
g1156
sg68
(lp1163
g967
asbasbasbag61
(g77
g63
NtRp1164
(dp1165
g66
(dp1166
sg75
g851
sg68
(lp1167
g61
(g82
g63
NtRp1168
(dp1169
g66
(dp1170
g86
g87
ssg75
g1164
sg68
(lp1171
S'http_content_type'
p1172
asbag61
(g82
g63
NtRp1173
(dp1174
g66
(dp1175
g93
g94
ssg75
g1164
sg68
(lp1176
S':'
asbag61
(g82
g63
NtRp1177
(dp1178
g66
(dp1179
sg75
g1164
sg68
(lp1180
g61
(g62
g63
NtRp1181
(dp1182
g66
(dp1183
g74
I4
ssg75
g1177
sg68
(lp1184
g989
asbasbasbag61
(g77
g63
NtRp1185
(dp1186
g66
(dp1187
sg75
g851
sg68
(lp1188
g61
(g82
g63
NtRp1189
(dp1190
g66
(dp1191
g86
g87
ssg75
g1185
sg68
(lp1192
S'http_cookie'
p1193
asbag61
(g82
g63
NtRp1194
(dp1195
g66
(dp1196
g93
g94
ssg75
g1185
sg68
(lp1197
S':'
asbag61
(g82
g63
NtRp1198
(dp1199
g66
(dp1200
sg75
g1185
sg68
(lp1201
g61
(g62
g63
NtRp1202
(dp1203
g66
(dp1204
g74
I4
ssg75
g1198
sg68
(lp1205
S'session_id_welcome=127.0.0.1-f9ea527d-815e-48bc-b79e-4801130e63bc; PHPSESSID=f57cemf8gf2d3ov3kfa3tfmo72; session_id_admin=127.0.0.1-594402c1-c0c9-4fde-9994-1ceb12564fea'
p1206
asbasbasbag61
(g77
g63
NtRp1207
(dp1208
g66
(dp1209
sg75
g851
sg68
(lp1210
g61
(g82
g63
NtRp1211
(dp1212
g66
(dp1213
g86
g87
ssg75
g1207
sg68
(lp1214
S'http_host'
p1215
asbag61
(g82
g63
NtRp1216
(dp1217
g66
(dp1218
g93
g94
ssg75
g1207
sg68
(lp1219
S':'
asbag61
(g82
g63
NtRp1220
(dp1221
g66
(dp1222
sg75
g1207
sg68
(lp1223
g61
(g62
g63
NtRp1224
(dp1225
g66
(dp1226
g74
I4
ssg75
g1220
sg68
(lp1227
S'127.0.0.1:8000'
p1228
asbasbasbag61
(g77
g63
NtRp1229
(dp1230
g66
(dp1231
sg75
g851
sg68
(lp1232
g61
(g82
g63
NtRp1233
(dp1234
g66
(dp1235
g86
g87
ssg75
g1229
sg68
(lp1236
S'http_referer'
p1237
asbag61
(g82
g63
NtRp1238
(dp1239
g66
(dp1240
g93
g94
ssg75
g1229
sg68
(lp1241
S':'
asbag61
(g82
g63
NtRp1242
(dp1243
g66
(dp1244
sg75
g1229
sg68
(lp1245
g61
(g62
g63
NtRp1246
(dp1247
g66
(dp1248
g74
I4
ssg75
g1242
sg68
(lp1249
S'http://127.0.0.1:8000/admin/openshift/deploy'
p1250
asbasbasbag61
(g77
g63
NtRp1251
(dp1252
g66
(dp1253
sg75
g851
sg68
(lp1254
g61
(g82
g63
NtRp1255
(dp1256
g66
(dp1257
g86
g87
ssg75
g1251
sg68
(lp1258
S'http_user_agent'
p1259
asbag61
(g82
g63
NtRp1260
(dp1261
g66
(dp1262
g93
g94
ssg75
g1251
sg68
(lp1263
S':'
asbag61
(g82
g63
NtRp1264
(dp1265
g66
(dp1266
sg75
g1251
sg68
(lp1267
g61
(g62
g63
NtRp1268
(dp1269
g66
(dp1270
g74
I4
ssg75
g1264
sg68
(lp1271
S'Mozilla/5.0 (X11; Ubuntu; Linux x86_64; rv:16.0) Gecko/20100101 Firefox/16.0'
p1272
asbasbasbag61
(g77
g63
NtRp1273
(dp1274
g66
(dp1275
sg75
g851
sg68
(lp1276
g61
(g82
g63
NtRp1277
(dp1278
g66
(dp1279
g86
g87
ssg75
g1273
sg68
(lp1280
S'is_jython'
p1281
asbag61
(g82
g63
NtRp1282
(dp1283
g66
(dp1284
g93
g94
ssg75
g1273
sg68
(lp1285
S':'
asbag61
(g82
g63
NtRp1286
(dp1287
g66
(dp1288
sg75
g1273
sg68
(lp1289
g61
(g62
g63
NtRp1290
(dp1291
g66
(dp1292
g74
I4
ssg75
g1286
sg68
(lp1293
g104
asbasbasbag61
(g77
g63
NtRp1294
(dp1295
g66
(dp1296
sg75
g851
sg68
(lp1297
g61
(g82
g63
NtRp1298
(dp1299
g66
(dp1300
g86
g87
ssg75
g1294
sg68
(lp1301
S'is_pypy'
p1302
asbag61
(g82
g63
NtRp1303
(dp1304
g66
(dp1305
g93
g94
ssg75
g1294
sg68
(lp1306
S':'
asbag61
(g82
g63
NtRp1307
(dp1308
g66
(dp1309
sg75
g1294
sg68
(lp1310
g61
(g62
g63
NtRp1311
(dp1312
g66
(dp1313
g74
I4
ssg75
g1307
sg68
(lp1314
g104
asbasbasbag61
(g77
g63
NtRp1315
(dp1316
g66
(dp1317
sg75
g851
sg68
(lp1318
g61
(g82
g63
NtRp1319
(dp1320
g66
(dp1321
g86
g87
ssg75
g1315
sg68
(lp1322
S'path_info'
p1323
asbag61
(g82
g63
NtRp1324
(dp1325
g66
(dp1326
g93
g94
ssg75
g1315
sg68
(lp1327
S':'
asbag61
(g82
g63
NtRp1328
(dp1329
g66
(dp1330
sg75
g1315
sg68
(lp1331
g61
(g62
g63
NtRp1332
(dp1333
g66
(dp1334
g74
I4
ssg75
g1328
sg68
(lp1335
S'/admin/openshift/deploy'
p1336
asbasbasbag61
(g77
g63
NtRp1337
(dp1338
g66
(dp1339
sg75
g851
sg68
(lp1340
g61
(g82
g63
NtRp1341
(dp1342
g66
(dp1343
g86
g87
ssg75
g1337
sg68
(lp1344
S'query_string'
p1345
asbag61
(g82
g63
NtRp1346
(dp1347
g66
(dp1348
g93
g94
ssg75
g1337
sg68
(lp1349
S':'
asbag61
(g82
g63
NtRp1350
(dp1351
g66
(dp1352
sg75
g1337
sg68
(lp1353
g61
(g62
g63
NtRp1354
(dp1355
g66
(dp1356
g74
I4
ssg75
g1350
sg68
(lp1357
S''
asbasbasbag61
(g77
g63
NtRp1358
(dp1359
g66
(dp1360
sg75
g851
sg68
(lp1361
g61
(g82
g63
NtRp1362
(dp1363
g66
(dp1364
g86
g87
ssg75
g1358
sg68
(lp1365
S'remote_addr'
p1366
asbag61
(g82
g63
NtRp1367
(dp1368
g66
(dp1369
g93
g94
ssg75
g1358
sg68
(lp1370
S':'
asbag61
(g82
g63
NtRp1371
(dp1372
g66
(dp1373
sg75
g1358
sg68
(lp1374
g61
(g62
g63
NtRp1375
(dp1376
g66
(dp1377
g74
I4
ssg75
g1371
sg68
(lp1378
g216
asbasbasbag61
(g77
g63
NtRp1379
(dp1380
g66
(dp1381
sg75
g851
sg68
(lp1382
g61
(g82
g63
NtRp1383
(dp1384
g66
(dp1385
g86
g87
ssg75
g1379
sg68
(lp1386
S'remote_port'
p1387
asbag61
(g82
g63
NtRp1388
(dp1389
g66
(dp1390
g93
g94
ssg75
g1379
sg68
(lp1391
S':'
asbag61
(g82
g63
NtRp1392
(dp1393
g66
(dp1394
sg75
g1379
sg68
(lp1395
g61
(g62
g63
NtRp1396
(dp1397
g66
(dp1398
g74
I4
ssg75
g1392
sg68
(lp1399
S'48839'
p1400
asbasbasbag61
(g77
g63
NtRp1401
(dp1402
g66
(dp1403
sg75
g851
sg68
(lp1404
g61
(g82
g63
NtRp1405
(dp1406
g66
(dp1407
g86
g87
ssg75
g1401
sg68
(lp1408
S'request_method'
p1409
asbag61
(g82
g63
NtRp1410
(dp1411
g66
(dp1412
g93
g94
ssg75
g1401
sg68
(lp1413
S':'
asbag61
(g82
g63
NtRp1414
(dp1415
g66
(dp1416
sg75
g1401
sg68
(lp1417
g61
(g62
g63
NtRp1418
(dp1419
g66
(dp1420
g74
I4
ssg75
g1414
sg68
(lp1421
S'POST'
p1422
asbasbasbag61
(g77
g63
NtRp1423
(dp1424
g66
(dp1425
sg75
g851
sg68
(lp1426
g61
(g82
g63
NtRp1427
(dp1428
g66
(dp1429
g86
g87
ssg75
g1423
sg68
(lp1430
S'request_uri'
p1431
asbag61
(g82
g63
NtRp1432
(dp1433
g66
(dp1434
g93
g94
ssg75
g1423
sg68
(lp1435
S':'
asbag61
(g82
g63
NtRp1436
(dp1437
g66
(dp1438
sg75
g1423
sg68
(lp1439
g61
(g62
g63
NtRp1440
(dp1441
g66
(dp1442
g74
I4
ssg75
g1436
sg68
(lp1443
g1336
asbasbasbag61
(g77
g63
NtRp1444
(dp1445
g66
(dp1446
sg75
g851
sg68
(lp1447
g61
(g82
g63
NtRp1448
(dp1449
g66
(dp1450
g86
g87
ssg75
g1444
sg68
(lp1451
S'script_name'
p1452
asbag61
(g82
g63
NtRp1453
(dp1454
g66
(dp1455
g93
g94
ssg75
g1444
sg68
(lp1456
S':'
asbag61
(g82
g63
NtRp1457
(dp1458
g66
(dp1459
sg75
g1444
sg68
(lp1460
g61
(g62
g63
NtRp1461
(dp1462
g66
(dp1463
g74
I4
ssg75
g1457
sg68
(lp1464
S''
asbasbasbag61
(g77
g63
NtRp1465
(dp1466
g66
(dp1467
sg75
g851
sg68
(lp1468
g61
(g82
g63
NtRp1469
(dp1470
g66
(dp1471
g86
g87
ssg75
g1465
sg68
(lp1472
S'server_name'
p1473
asbag61
(g82
g63
NtRp1474
(dp1475
g66
(dp1476
g93
g94
ssg75
g1465
sg68
(lp1477
S':'
asbag61
(g82
g63
NtRp1478
(dp1479
g66
(dp1480
sg75
g1465
sg68
(lp1481
g61
(g62
g63
NtRp1482
(dp1483
g66
(dp1484
g74
I4
ssg75
g1478
sg68
(lp1485
S'mayank'
p1486
asbasbasbag61
(g77
g63
NtRp1487
(dp1488
g66
(dp1489
sg75
g851
sg68
(lp1490
g61
(g82
g63
NtRp1491
(dp1492
g66
(dp1493
g86
g87
ssg75
g1487
sg68
(lp1494
S'server_port'
p1495
asbag61
(g82
g63
NtRp1496
(dp1497
g66
(dp1498
g93
g94
ssg75
g1487
sg68
(lp1499
S':'
asbag61
(g82
g63
NtRp1500
(dp1501
g66
(dp1502
sg75
g1487
sg68
(lp1503
g61
(g62
g63
NtRp1504
(dp1505
g66
(dp1506
g74
I4
ssg75
g1500
sg68
(lp1507
S'8000'
p1508
asbasbasbag61
(g77
g63
NtRp1509
(dp1510
g66
(dp1511
sg75
g851
sg68
(lp1512
g61
(g82
g63
NtRp1513
(dp1514
g66
(dp1515
g86
g87
ssg75
g1509
sg68
(lp1516
S'server_protocol'
p1517
asbag61
(g82
g63
NtRp1518
(dp1519
g66
(dp1520
g93
g94
ssg75
g1509
sg68
(lp1521
S':'
asbag61
(g82
g63
NtRp1522
(dp1523
g66
(dp1524
sg75
g1509
sg68
(lp1525
g61
(g62
g63
NtRp1526
(dp1527
g66
(dp1528
g74
I4
ssg75
g1522
sg68
(lp1529
S'HTTP/1.1'
p1530
asbasbasbag61
(g77
g63
NtRp1531
(dp1532
g66
(dp1533
sg75
g851
sg68
(lp1534
g61
(g82
g63
NtRp1535
(dp1536
g66
(dp1537
g86
g87
ssg75
g1531
sg68
(lp1538
S'server_software'
p1539
asbag61
(g82
g63
NtRp1540
(dp1541
g66
(dp1542
g93
g94
ssg75
g1531
sg68
(lp1543
S':'
asbag61
(g82
g63
NtRp1544
(dp1545
g66
(dp1546
sg75
g1531
sg68
(lp1547
g61
(g62
g63
NtRp1548
(dp1549
g66
(dp1550
g74
I4
ssg75
g1544
sg68
(lp1551
S'Rocket 1.2.4'
p1552
asbasbasbag61
(g77
g63
NtRp1553
(dp1554
g66
(dp1555
sg75
g851
sg68
(lp1556
g61
(g82
g63
NtRp1557
(dp1558
g66
(dp1559
g86
g87
ssg75
g1553
sg68
(lp1560
S'web2py_crontype'
p1561
asbag61
(g82
g63
NtRp1562
(dp1563
g66
(dp1564
g93
g94
ssg75
g1553
sg68
(lp1565
S':'
asbag61
(g82
g63
NtRp1566
(dp1567
g66
(dp1568
sg75
g1553
sg68
(lp1569
g61
(g62
g63
NtRp1570
(dp1571
g66
(dp1572
g74
I4
ssg75
g1566
sg68
(lp1573
S'hard'
p1574
asbasbasbag61
(g77
g63
NtRp1575
(dp1576
g66
(dp1577
sg75
g851
sg68
(lp1578
g61
(g82
g63
NtRp1579
(dp1580
g66
(dp1581
g86
g87
ssg75
g1575
sg68
(lp1582
S'web2py_path'
p1583
asbag61
(g82
g63
NtRp1584
(dp1585
g66
(dp1586
g93
g94
ssg75
g1575
sg68
(lp1587
S':'
asbag61
(g82
g63
NtRp1588
(dp1589
g66
(dp1590
sg75
g1575
sg68
(lp1591
g61
(g62
g63
NtRp1592
(dp1593
g66
(dp1594
g74
I4
ssg75
g1588
sg68
(lp1595
g898
asbasbasbag61
(g77
g63
NtRp1596
(dp1597
g66
(dp1598
sg75
g851
sg68
(lp1599
g61
(g82
g63
NtRp1600
(dp1601
g66
(dp1602
g86
g87
ssg75
g1596
sg68
(lp1603
S'web2py_version'
p1604
asbag61
(g82
g63
NtRp1605
(dp1606
g66
(dp1607
g93
g94
ssg75
g1596
sg68
(lp1608
S':'
asbag61
(g82
g63
NtRp1609
(dp1610
g66
(dp1611
sg75
g1596
sg68
(lp1612
g61
(g62
g63
NtRp1613
(dp1614
g66
(dp1615
g74
I4
ssg75
g1609
sg68
(lp1616
g61
(g70
g63
NtRp1617
(dp1618
g66
(dp1619
g74
I3
ssg75
Nsg68
(lp1620
g61
(g77
g63
NtRp1621
(dp1622
g66
(dp1623
sg75
g1617
sg68
(lp1624
g61
(g82
g63
NtRp1625
(dp1626
g66
(dp1627
sg75
g1621
sg68
(lp1628
g61
(g62
g63
NtRp1629
(dp1630
g66
(dp1631
g74
I3
ssg75
g1625
sg68
(lp1632
S'2'
asbasbasbag61
(g77
g63
NtRp1633
(dp1634
g66
(dp1635
sg75
g1617
sg68
(lp1636
g61
(g82
g63
NtRp1637
(dp1638
g66
(dp1639
sg75
g1633
sg68
(lp1640
g61
(g62
g63
NtRp1641
(dp1642
g66
(dp1643
g74
I3
ssg75
g1637
sg68
(lp1644
S'0'
asbasbasbag61
(g77
g63
NtRp1645
(dp1646
g66
(dp1647
sg75
g1617
sg68
(lp1648
g61
(g82
g63
NtRp1649
(dp1650
g66
(dp1651
sg75
g1645
sg68
(lp1652
g61
(g62
g63
NtRp1653
(dp1654
g66
(dp1655
g74
I3
ssg75
g1649
sg68
(lp1656
S'8'
asbasbasbag61
(g77
g63
NtRp1657
(dp1658
g66
(dp1659
sg75
g1617
sg68
(lp1660
g61
(g82
g63
NtRp1661
(dp1662
g66
(dp1663
sg75
g1657
sg68
(lp1664
g61
(g62
g63
NtRp1665
(dp1666
g66
(dp1667
g74
I3
ssg75
g1661
sg68
(lp1668
S'datetime.datetime(2012, 9, 7, 3, 47, 51)'
p1669
asbasbasbag61
(g77
g63
NtRp1670
(dp1671
g66
(dp1672
sg75
g1617
sg68
(lp1673
g61
(g82
g63
NtRp1674
(dp1675
g66
(dp1676
sg75
g1670
sg68
(lp1677
g61
(g62
g63
NtRp1678
(dp1679
g66
(dp1680
g74
I3
ssg75
g1674
sg68
(lp1681
S'stable'
p1682
asbasbasbasbasbasbasbag61
(g77
g63
NtRp1683
(dp1684
g66
(dp1685
sg75
g851
sg68
(lp1686
g61
(g82
g63
NtRp1687
(dp1688
g66
(dp1689
g86
g87
ssg75
g1683
sg68
(lp1690
S'wsgi_errors'
p1691
asbag61
(g82
g63
NtRp1692
(dp1693
g66
(dp1694
g93
g94
ssg75
g1683
sg68
(lp1695
S':'
asbag61
(g82
g63
NtRp1696
(dp1697
g66
(dp1698
sg75
g1683
sg68
(lp1699
g61
(g62
g63
NtRp1700
(dp1701
g66
(dp1702
g74
I4
ssg75
g1696
sg68
(lp1703
S"<open file '<stderr>', mode 'w' at 0x7f05f8815270>"
p1704
asbasbasbag61
(g77
g63
NtRp1705
(dp1706
g66
(dp1707
sg75
g851
sg68
(lp1708
g61
(g82
g63
NtRp1709
(dp1710
g66
(dp1711
g86
g87
ssg75
g1705
sg68
(lp1712
S'wsgi_file_wrapper'
p1713
asbag61
(g82
g63
NtRp1714
(dp1715
g66
(dp1716
g93
g94
ssg75
g1705
sg68
(lp1717
S':'
asbag61
(g82
g63
NtRp1718
(dp1719
g66
(dp1720
sg75
g1705
sg68
(lp1721
g61
(g62
g63
NtRp1722
(dp1723
g66
(dp1724
g74
I4
ssg75
g1718
sg68
(lp1725
S'<class wsgiref.util.FileWrapper at 0x1e38c18>'
p1726
asbasbasbag61
(g77
g63
NtRp1727
(dp1728
g66
(dp1729
sg75
g851
sg68
(lp1730
g61
(g82
g63
NtRp1731
(dp1732
g66
(dp1733
g86
g87
ssg75
g1727
sg68
(lp1734
S'wsgi_input'
p1735
asbag61
(g82
g63
NtRp1736
(dp1737
g66
(dp1738
g93
g94
ssg75
g1727
sg68
(lp1739
S':'
asbag61
(g82
g63
NtRp1740
(dp1741
g66
(dp1742
sg75
g1727
sg68
(lp1743
g61
(g62
g63
NtRp1744
(dp1745
g66
(dp1746
g74
I4
ssg75
g1740
sg68
(lp1747
S'<socket._fileobject object at 0x7f05dc1409d0>'
p1748
asbasbasbag61
(g77
g63
NtRp1749
(dp1750
g66
(dp1751
sg75
g851
sg68
(lp1752
g61
(g82
g63
NtRp1753
(dp1754
g66
(dp1755
g86
g87
ssg75
g1749
sg68
(lp1756
S'wsgi_multiprocess'
p1757
asbag61
(g82
g63
NtRp1758
(dp1759
g66
(dp1760
g93
g94
ssg75
g1749
sg68
(lp1761
S':'
asbag61
(g82
g63
NtRp1762
(dp1763
g66
(dp1764
sg75
g1749
sg68
(lp1765
g61
(g62
g63
NtRp1766
(dp1767
g66
(dp1768
g74
I4
ssg75
g1762
sg68
(lp1769
g104
asbasbasbag61
(g77
g63
NtRp1770
(dp1771
g66
(dp1772
sg75
g851
sg68
(lp1773
g61
(g82
g63
NtRp1774
(dp1775
g66
(dp1776
g86
g87
ssg75
g1770
sg68
(lp1777
S'wsgi_multithread'
p1778
asbag61
(g82
g63
NtRp1779
(dp1780
g66
(dp1781
g93
g94
ssg75
g1770
sg68
(lp1782
S':'
asbag61
(g82
g63
NtRp1783
(dp1784
g66
(dp1785
sg75
g1770
sg68
(lp1786
g61
(g62
g63
NtRp1787
(dp1788
g66
(dp1789
g74
I4
ssg75
g1783
sg68
(lp1790
S'True'
p1791
asbasbasbag61
(g77
g63
NtRp1792
(dp1793
g66
(dp1794
sg75
g851
sg68
(lp1795
g61
(g82
g63
NtRp1796
(dp1797
g66
(dp1798
g86
g87
ssg75
g1792
sg68
(lp1799
S'wsgi_run_once'
p1800
asbag61
(g82
g63
NtRp1801
(dp1802
g66
(dp1803
g93
g94
ssg75
g1792
sg68
(lp1804
S':'
asbag61
(g82
g63
NtRp1805
(dp1806
g66
(dp1807
sg75
g1792
sg68
(lp1808
g61
(g62
g63
NtRp1809
(dp1810
g66
(dp1811
g74
I4
ssg75
g1805
sg68
(lp1812
g104
asbasbasbag61
(g77
g63
NtRp1813
(dp1814
g66
(dp1815
sg75
g851
sg68
(lp1816
g61
(g82
g63
NtRp1817
(dp1818
g66
(dp1819
g86
g87
ssg75
g1813
sg68
(lp1820
S'wsgi_url_scheme'
p1821
asbag61
(g82
g63
NtRp1822
(dp1823
g66
(dp1824
g93
g94
ssg75
g1813
sg68
(lp1825
S':'
asbag61
(g82
g63
NtRp1826
(dp1827
g66
(dp1828
sg75
g1813
sg68
(lp1829
g61
(g62
g63
NtRp1830
(dp1831
g66
(dp1832
g74
I4
ssg75
g1826
sg68
(lp1833
S'http'
p1834
asbasbasbag61
(g77
g63
NtRp1835
(dp1836
g66
(dp1837
sg75
g851
sg68
(lp1838
g61
(g82
g63
NtRp1839
(dp1840
g66
(dp1841
g86
g87
ssg75
g1835
sg68
(lp1842
S'wsgi_version'
p1843
asbag61
(g82
g63
NtRp1844
(dp1845
g66
(dp1846
g93
g94
ssg75
g1835
sg68
(lp1847
S':'
asbag61
(g82
g63
NtRp1848
(dp1849
g66
(dp1850
sg75
g1835
sg68
(lp1851
g61
(g62
g63
NtRp1852
(dp1853
g66
(dp1854
g74
I4
ssg75
g1848
sg68
(lp1855
g61
(g70
g63
NtRp1856
(dp1857
g66
(dp1858
g74
I3
ssg75
Nsg68
(lp1859
g61
(g77
g63
NtRp1860
(dp1861
g66
(dp1862
sg75
g1856
sg68
(lp1863
g61
(g82
g63
NtRp1864
(dp1865
g66
(dp1866
sg75
g1860
sg68
(lp1867
g61
(g62
g63
NtRp1868
(dp1869
g66
(dp1870
g74
I3
ssg75
g1864
sg68
(lp1871
S'1'
asbasbasbag61
(g77
g63
NtRp1872
(dp1873
g66
(dp1874
sg75
g1856
sg68
(lp1875
g61
(g82
g63
NtRp1876
(dp1877
g66
(dp1878
sg75
g1872
sg68
(lp1879
g61
(g62
g63
NtRp1880
(dp1881
g66
(dp1882
g74
I3
ssg75
g1876
sg68
(lp1883
S'0'
asbasbasbasbasbasbasbasbasbasbasbag61
(g77
g63
NtRp1884
(dp1885
g66
(dp1886
sg75
g71
sg68
(lp1887
g61
(g82
g63
NtRp1888
(dp1889
g66
(dp1890
g86
g87
ssg75
g1884
sg68
(lp1891
S'extension'
p1892
asbag61
(g82
g63
NtRp1893
(dp1894
g66
(dp1895
g93
g94
ssg75
g1884
sg68
(lp1896
S':'
asbag61
(g82
g63
NtRp1897
(dp1898
g66
(dp1899
sg75
g1884
sg68
(lp1900
g61
(g62
g63
NtRp1901
(dp1902
g66
(dp1903
g74
I5
ssg75
g1897
sg68
(lp1904
S'html'
p1905
asbasbasbag61
(g77
g63
NtRp1906
(dp1907
g66
(dp1908
sg75
g71
sg68
(lp1909
g61
(g82
g63
NtRp1910
(dp1911
g66
(dp1912
g86
g87
ssg75
g1906
sg68
(lp1913
S'folder'
p1914
asbag61
(g82
g63
NtRp1915
(dp1916
g66
(dp1917
g93
g94
ssg75
g1906
sg68
(lp1918
S':'
asbag61
(g82
g63
NtRp1919
(dp1920
g66
(dp1921
sg75
g1906
sg68
(lp1922
g61
(g62
g63
NtRp1923
(dp1924
g66
(dp1925
g74
I5
ssg75
g1919
sg68
(lp1926
S'/home/mayank/IIIT/sem 3/SSAD&Project/web2py/applications/admin/'
p1927
asbasbasbag61
(g77
g63
NtRp1928
(dp1929
g66
(dp1930
sg75
g71
sg68
(lp1931
g61
(g82
g63
NtRp1932
(dp1933
g66
(dp1934
g86
g87
ssg75
g1928
sg68
(lp1935
S'function'
p1936
asbag61
(g82
g63
NtRp1937
(dp1938
g66
(dp1939
g93
g94
ssg75
g1928
sg68
(lp1940
S':'
asbag61
(g82
g63
NtRp1941
(dp1942
g66
(dp1943
sg75
g1928
sg68
(lp1944
g61
(g62
g63
NtRp1945
(dp1946
g66
(dp1947
g74
I5
ssg75
g1941
sg68
(lp1948
S'deploy'
p1949
asbasbasbag61
(g77
g63
NtRp1950
(dp1951
g66
(dp1952
sg75
g71
sg68
(lp1953
g61
(g82
g63
NtRp1954
(dp1955
g66
(dp1956
g86
g87
ssg75
g1950
sg68
(lp1957
S'get_vars'
p1958
asbag61
(g82
g63
NtRp1959
(dp1960
g66
(dp1961
g93
g94
ssg75
g1950
sg68
(lp1962
S':'
asbag61
(g82
g63
NtRp1963
(dp1964
g66
(dp1965
sg75
g1950
sg68
(lp1966
g61
(g62
g63
NtRp1967
(dp1968
g66
(dp1969
g74
I5
ssg75
g1963
sg68
(lp1970
g61
(g70
g63
NtRp1971
(dp1972
g66
(dp1973
g74
I4
ssg75
Nsg68
(lp1974
sbasbasbasbag61
(g77
g63
NtRp1975
(dp1976
g66
(dp1977
sg75
g71
sg68
(lp1978
g61
(g82
g63
NtRp1979
(dp1980
g66
(dp1981
g86
g87
ssg75
g1975
sg68
(lp1982
S'global_settings'
p1983
asbag61
(g82
g63
NtRp1984
(dp1985
g66
(dp1986
g93
g94
ssg75
g1975
sg68
(lp1987
S':'
asbag61
(g82
g63
NtRp1988
(dp1989
g66
(dp1990
sg75
g1975
sg68
(lp1991
g61
(g62
g63
NtRp1992
(dp1993
g66
(dp1994
g74
I5
ssg75
g1988
sg68
(lp1995
g61
(g70
g63
NtRp1996
(dp1997
g66
(dp1998
g74
I4
ssg75
Nsg68
(lp1999
g61
(g77
g63
NtRp2000
(dp2001
g66
(dp2002
sg75
g1996
sg68
(lp2003
g61
(g82
g63
NtRp2004
(dp2005
g66
(dp2006
g86
g87
ssg75
g2000
sg68
(lp2007
g863
asbag61
(g82
g63
NtRp2008
(dp2009
g66
(dp2010
g93
g94
ssg75
g2000
sg68
(lp2011
S':'
asbag61
(g82
g63
NtRp2012
(dp2013
g66
(dp2014
sg75
g2000
sg68
(lp2015
g61
(g62
g63
NtRp2016
(dp2017
g66
(dp2018
g74
I4
ssg75
g2012
sg68
(lp2019
S"set(['/home/mayank/IIIT/sem 3/SSAD&Project/web2py/applications/admin/', '/home/mayank/IIIT/sem 3/SSAD&Project/web2py/applications/welcome/'])"
p2020
asbasbasbag61
(g77
g63
NtRp2021
(dp2022
g66
(dp2023
sg75
g1996
sg68
(lp2024
g61
(g82
g63
NtRp2025
(dp2026
g66
(dp2027
g86
g87
ssg75
g2021
sg68
(lp2028
g885
asbag61
(g82
g63
NtRp2029
(dp2030
g66
(dp2031
g93
g94
ssg75
g2021
sg68
(lp2032
S':'
asbag61
(g82
g63
NtRp2033
(dp2034
g66
(dp2035
sg75
g2021
sg68
(lp2036
g61
(g62
g63
NtRp2037
(dp2038
g66
(dp2039
g74
I4
ssg75
g2033
sg68
(lp2040
g898
asbasbasbag61
(g77
g63
NtRp2041
(dp2042
g66
(dp2043
sg75
g1996
sg68
(lp2044
g61
(g82
g63
NtRp2045
(dp2046
g66
(dp2047
g86
g87
ssg75
g2041
sg68
(lp2048
g907
asbag61
(g82
g63
NtRp2049
(dp2050
g66
(dp2051
g93
g94
ssg75
g2041
sg68
(lp2052
S':'
asbag61
(g82
g63
NtRp2053
(dp2054
g66
(dp2055
sg75
g2041
sg68
(lp2056
g61
(g62
g63
NtRp2057
(dp2058
g66
(dp2059
g74
I4
ssg75
g2053
sg68
(lp2060
g61
(g70
g63
NtRp2061
(dp2062
g66
(dp2063
g74
I3
ssg75
Nsg68
(lp2064
sbasbasbasbag61
(g77
g63
NtRp2065
(dp2066
g66
(dp2067
sg75
g1996
sg68
(lp2068
g61
(g82
g63
NtRp2069
(dp2070
g66
(dp2071
g86
g87
ssg75
g2065
sg68
(lp2072
g932
asbag61
(g82
g63
NtRp2073
(dp2074
g66
(dp2075
g93
g94
ssg75
g2065
sg68
(lp2076
S':'
asbag61
(g82
g63
NtRp2077
(dp2078
g66
(dp2079
sg75
g2065
sg68
(lp2080
g61
(g62
g63
NtRp2081
(dp2082
g66
(dp2083
g74
I4
ssg75
g2077
sg68
(lp2084
S"<Values at 0x1eb4758: {'verbose': False, 'ip': '127.0.0.1', 'with_scheduler': False, 'ips': ['127.0.1.1'], 'shutdown_timeout': 5, 'taskbar': False, 'port': 8000, 'maxthreads': None, 'softcron': False, 'server_name': 'mayank', 'bpython': False, 'nogui': False, 'nocron': False, 'extcron': False, 'run_system_tests': False, 'test': None, 'folder': '/home/mayank/IIIT/sem 3/SSAD&Project/web2py', 'config': '', 'import_models': False, 'winservice': '', 'shell': None, 'run': '', 'log_filename': 'httpserver.log', 'debuglevel': 30, 'args': [''], 'socket_timeout': 5, 'ssl_ca_certificate': None, 'scheduler': None, 'profiler_filename': None, 'ssl_private_key': '', 'scheduler_groups': None, 'password': '<ask>', 'request_queue_size': 5, 'ssl_certificate': '', 'cronjob': False, 'numthreads': None, 'quiet': False, 'interfaces': None, 'minthreads': None, 'timeout': 10, 'plain': False, 'nobanner': False, 'pid_filename': 'httpserver.pid'}>"
p2085
asbasbasbag61
(g77
g63
NtRp2086
(dp2087
g66
(dp2088
sg75
g1996
sg68
(lp2089
g61
(g82
g63
NtRp2090
(dp2091
g66
(dp2092
g86
g87
ssg75
g2086
sg68
(lp2093
g998
asbag61
(g82
g63
NtRp2094
(dp2095
g66
(dp2096
g93
g94
ssg75
g2086
sg68
(lp2097
S':'
asbag61
(g82
g63
NtRp2098
(dp2099
g66
(dp2100
sg75
g2086
sg68
(lp2101
g61
(g62
g63
NtRp2102
(dp2103
g66
(dp2104
g74
I4
ssg75
g2098
sg68
(lp2105
S'set([])'
p2106
asbasbasbag61
(g77
g63
NtRp2107
(dp2108
g66
(dp2109
sg75
g1996
sg68
(lp2110
g61
(g82
g63
NtRp2111
(dp2112
g66
(dp2113
g86
g87
ssg75
g2107
sg68
(lp2114
g1020
asbag61
(g82
g63
NtRp2115
(dp2116
g66
(dp2117
g93
g94
ssg75
g2107
sg68
(lp2118
S':'
asbag61
(g82
g63
NtRp2119
(dp2120
g66
(dp2121
sg75
g2107
sg68
(lp2122
g61
(g62
g63
NtRp2123
(dp2124
g66
(dp2125
g74
I4
ssg75
g2119
sg68
(lp2126
g104
asbasbasbag61
(g77
g63
NtRp2127
(dp2128
g66
(dp2129
sg75
g1996
sg68
(lp2130
g61
(g82
g63
NtRp2131
(dp2132
g66
(dp2133
g86
g87
ssg75
g2127
sg68
(lp2134
g1041
asbag61
(g82
g63
NtRp2135
(dp2136
g66
(dp2137
g93
g94
ssg75
g2127
sg68
(lp2138
S':'
asbag61
(g82
g63
NtRp2139
(dp2140
g66
(dp2141
sg75
g2127
sg68
(lp2142
g61
(g62
g63
NtRp2143
(dp2144
g66
(dp2145
g74
I4
ssg75
g2139
sg68
(lp2146
g1054
asbasbasbag61
(g77
g63
NtRp2147
(dp2148
g66
(dp2149
sg75
g1996
sg68
(lp2150
g61
(g82
g63
NtRp2151
(dp2152
g66
(dp2153
g86
g87
ssg75
g2147
sg68
(lp2154
g1281
asbag61
(g82
g63
NtRp2155
(dp2156
g66
(dp2157
g93
g94
ssg75
g2147
sg68
(lp2158
S':'
asbag61
(g82
g63
NtRp2159
(dp2160
g66
(dp2161
sg75
g2147
sg68
(lp2162
g61
(g62
g63
NtRp2163
(dp2164
g66
(dp2165
g74
I4
ssg75
g2159
sg68
(lp2166
g104
asbasbasbag61
(g77
g63
NtRp2167
(dp2168
g66
(dp2169
sg75
g1996
sg68
(lp2170
g61
(g82
g63
NtRp2171
(dp2172
g66
(dp2173
g86
g87
ssg75
g2167
sg68
(lp2174
g1302
asbag61
(g82
g63
NtRp2175
(dp2176
g66
(dp2177
g93
g94
ssg75
g2167
sg68
(lp2178
S':'
asbag61
(g82
g63
NtRp2179
(dp2180
g66
(dp2181
sg75
g2167
sg68
(lp2182
g61
(g62
g63
NtRp2183
(dp2184
g66
(dp2185
g74
I4
ssg75
g2179
sg68
(lp2186
g104
asbasbasbag61
(g77
g63
NtRp2187
(dp2188
g66
(dp2189
sg75
g1996
sg68
(lp2190
g61
(g82
g63
NtRp2191
(dp2192
g66
(dp2193
g86
g87
ssg75
g2187
sg68
(lp2194
g1561
asbag61
(g82
g63
NtRp2195
(dp2196
g66
(dp2197
g93
g94
ssg75
g2187
sg68
(lp2198
S':'
asbag61
(g82
g63
NtRp2199
(dp2200
g66
(dp2201
sg75
g2187
sg68
(lp2202
g61
(g62
g63
NtRp2203
(dp2204
g66
(dp2205
g74
I4
ssg75
g2199
sg68
(lp2206
g1574
asbasbasbag61
(g77
g63
NtRp2207
(dp2208
g66
(dp2209
sg75
g1996
sg68
(lp2210
g61
(g82
g63
NtRp2211
(dp2212
g66
(dp2213
g86
g87
ssg75
g2207
sg68
(lp2214
g1604
asbag61
(g82
g63
NtRp2215
(dp2216
g66
(dp2217
g93
g94
ssg75
g2207
sg68
(lp2218
S':'
asbag61
(g82
g63
NtRp2219
(dp2220
g66
(dp2221
sg75
g2207
sg68
(lp2222
g61
(g62
g63
NtRp2223
(dp2224
g66
(dp2225
g74
I4
ssg75
g2219
sg68
(lp2226
g61
(g70
g63
NtRp2227
(dp2228
g66
(dp2229
g74
I3
ssg75
Nsg68
(lp2230
g61
(g77
g63
NtRp2231
(dp2232
g66
(dp2233
sg75
g2227
sg68
(lp2234
g61
(g82
g63
NtRp2235
(dp2236
g66
(dp2237
sg75
g2231
sg68
(lp2238
g61
(g62
g63
NtRp2239
(dp2240
g66
(dp2241
g74
I3
ssg75
g2235
sg68
(lp2242
S'2'
asbasbasbag61
(g77
g63
NtRp2243
(dp2244
g66
(dp2245
sg75
g2227
sg68
(lp2246
g61
(g82
g63
NtRp2247
(dp2248
g66
(dp2249
sg75
g2243
sg68
(lp2250
g61
(g62
g63
NtRp2251
(dp2252
g66
(dp2253
g74
I3
ssg75
g2247
sg68
(lp2254
S'0'
asbasbasbag61
(g77
g63
NtRp2255
(dp2256
g66
(dp2257
sg75
g2227
sg68
(lp2258
g61
(g82
g63
NtRp2259
(dp2260
g66
(dp2261
sg75
g2255
sg68
(lp2262
g61
(g62
g63
NtRp2263
(dp2264
g66
(dp2265
g74
I3
ssg75
g2259
sg68
(lp2266
S'8'
asbasbasbag61
(g77
g63
NtRp2267
(dp2268
g66
(dp2269
sg75
g2227
sg68
(lp2270
g61
(g82
g63
NtRp2271
(dp2272
g66
(dp2273
sg75
g2267
sg68
(lp2274
g61
(g62
g63
NtRp2275
(dp2276
g66
(dp2277
g74
I3
ssg75
g2271
sg68
(lp2278
S'datetime.datetime(2012, 9, 7, 3, 47, 51)'
p2279
asbasbasbag61
(g77
g63
NtRp2280
(dp2281
g66
(dp2282
sg75
g2227
sg68
(lp2283
g61
(g82
g63
NtRp2284
(dp2285
g66
(dp2286
sg75
g2280
sg68
(lp2287
g61
(g62
g63
NtRp2288
(dp2289
g66
(dp2290
g74
I3
ssg75
g2284
sg68
(lp2291
g1682
asbasbasbasbasbasbasbasbasbasbasbag61
(g77
g63
NtRp2292
(dp2293
g66
(dp2294
sg75
g71
sg68
(lp2295
g61
(g82
g63
NtRp2296
(dp2297
g66
(dp2298
g86
g87
ssg75
g2292
sg68
(lp2299
S'is_https'
p2300
asbag61
(g82
g63
NtRp2301
(dp2302
g66
(dp2303
g93
g94
ssg75
g2292
sg68
(lp2304
S':'
asbag61
(g82
g63
NtRp2305
(dp2306
g66
(dp2307
sg75
g2292
sg68
(lp2308
g61
(g62
g63
NtRp2309
(dp2310
g66
(dp2311
g74
I5
ssg75
g2305
sg68
(lp2312
g104
asbasbasbag61
(g77
g63
NtRp2313
(dp2314
g66
(dp2315
sg75
g71
sg68
(lp2316
g61
(g82
g63
NtRp2317
(dp2318
g66
(dp2319
g86
g87
ssg75
g2313
sg68
(lp2320
S'is_local'
p2321
asbag61
(g82
g63
NtRp2322
(dp2323
g66
(dp2324
g93
g94
ssg75
g2313
sg68
(lp2325
S':'
asbag61
(g82
g63
NtRp2326
(dp2327
g66
(dp2328
sg75
g2313
sg68
(lp2329
g61
(g62
g63
NtRp2330
(dp2331
g66
(dp2332
g74
I5
ssg75
g2326
sg68
(lp2333
g1791
asbasbasbag61
(g77
g63
NtRp2334
(dp2335
g66
(dp2336
sg75
g71
sg68
(lp2337
g61
(g82
g63
NtRp2338
(dp2339
g66
(dp2340
g86
g87
ssg75
g2334
sg68
(lp2341
S'is_restful'
p2342
asbag61
(g82
g63
NtRp2343
(dp2344
g66
(dp2345
g93
g94
ssg75
g2334
sg68
(lp2346
S':'
asbag61
(g82
g63
NtRp2347
(dp2348
g66
(dp2349
sg75
g2334
sg68
(lp2350
g61
(g62
g63
NtRp2351
(dp2352
g66
(dp2353
g74
I5
ssg75
g2347
sg68
(lp2354
g104
asbasbasbag61
(g77
g63
NtRp2355
(dp2356
g66
(dp2357
sg75
g71
sg68
(lp2358
g61
(g82
g63
NtRp2359
(dp2360
g66
(dp2361
g86
g87
ssg75
g2355
sg68
(lp2362
S'now'
p2363
asbag61
(g82
g63
NtRp2364
(dp2365
g66
(dp2366
g93
g94
ssg75
g2355
sg68
(lp2367
S':'
asbag61
(g82
g63
NtRp2368
(dp2369
g66
(dp2370
sg75
g2355
sg68
(lp2371
g61
(g62
g63
NtRp2372
(dp2373
g66
(dp2374
g74
I5
ssg75
g2368
sg68
(lp2375
S'datetime.datetime(2012, 11, 14, 13, 28, 20, 218399)'
p2376
asbasbasbag61
(g77
g63
NtRp2377
(dp2378
g66
(dp2379
sg75
g71
sg68
(lp2380
g61
(g82
g63
NtRp2381
(dp2382
g66
(dp2383
g86
g87
ssg75
g2377
sg68
(lp2384
S'post_vars'
p2385
asbag61
(g82
g63
NtRp2386
(dp2387
g66
(dp2388
g93
g94
ssg75
g2377
sg68
(lp2389
S':'
asbag61
(g82
g63
NtRp2390
(dp2391
g66
(dp2392
sg75
g2377
sg68
(lp2393
g61
(g62
g63
NtRp2394
(dp2395
g66
(dp2396
g74
I5
ssg75
g2390
sg68
(lp2397
g61
(g70
g63
NtRp2398
(dp2399
g66
(dp2400
g74
I4
ssg75
Nsg68
(lp2401
g61
(g77
g63
NtRp2402
(dp2403
g66
(dp2404
sg75
g2398
sg68
(lp2405
g61
(g82
g63
NtRp2406
(dp2407
g66
(dp2408
g86
g87
ssg75
g2402
sg68
(lp2409
S'applications'
p2410
asbag61
(g82
g63
NtRp2411
(dp2412
g66
(dp2413
g93
g94
ssg75
g2402
sg68
(lp2414
S':'
asbag61
(g82
g63
NtRp2415
(dp2416
g66
(dp2417
sg75
g2402
sg68
(lp2418
g61
(g62
g63
NtRp2419
(dp2420
g66
(dp2421
g74
I4
ssg75
g2415
sg68
(lp2422
S'kkk'
p2423
asbasbasbag61
(g77
g63
NtRp2424
(dp2425
g66
(dp2426
sg75
g2398
sg68
(lp2427
g61
(g82
g63
NtRp2428
(dp2429
g66
(dp2430
g86
g87
ssg75
g2424
sg68
(lp2431
S'osname'
p2432
asbag61
(g82
g63
NtRp2433
(dp2434
g66
(dp2435
g93
g94
ssg75
g2424
sg68
(lp2436
S':'
asbag61
(g82
g63
NtRp2437
(dp2438
g66
(dp2439
sg75
g2424
sg68
(lp2440
g61
(g62
g63
NtRp2441
(dp2442
g66
(dp2443
g74
I4
ssg75
g2437
sg68
(lp2444
S'web2py'
p2445
asbasbasbag61
(g77
g63
NtRp2446
(dp2447
g66
(dp2448
sg75
g2398
sg68
(lp2449
g61
(g82
g63
NtRp2450
(dp2451
g66
(dp2452
g86
g87
ssg75
g2446
sg68
(lp2453
S'osrepo'
p2454
asbag61
(g82
g63
NtRp2455
(dp2456
g66
(dp2457
g93
g94
ssg75
g2446
sg68
(lp2458
S':'
asbag61
(g82
g63
NtRp2459
(dp2460
g66
(dp2461
sg75
g2446
sg68
(lp2462
g61
(g62
g63
NtRp2463
(dp2464
g66
(dp2465
g74
I4
ssg75
g2459
sg68
(lp2466
S'/tmp'
p2467
asbasbasbasbasbasbasbag61
(g77
g63
NtRp2468
(dp2469
g66
(dp2470
sg75
g71
sg68
(lp2471
g61
(g82
g63
NtRp2472
(dp2473
g66
(dp2474
g86
g87
ssg75
g2468
sg68
(lp2475
S'raw_args'
p2476
asbag61
(g82
g63
NtRp2477
(dp2478
g66
(dp2479
g93
g94
ssg75
g2468
sg68
(lp2480
S':'
asbag61
(g82
g63
NtRp2481
(dp2482
g66
(dp2483
sg75
g2468
sg68
(lp2484
g61
(g62
g63
NtRp2485
(dp2486
g66
(dp2487
g74
I5
ssg75
g2481
sg68
(lp2488
S'None'
p2489
asbasbasbag61
(g77
g63
NtRp2490
(dp2491
g66
(dp2492
sg75
g71
sg68
(lp2493
g61
(g82
g63
NtRp2494
(dp2495
g66
(dp2496
g86
g87
ssg75
g2490
sg68
(lp2497
S'raw_extension'
p2498
asbag61
(g82
g63
NtRp2499
(dp2500
g66
(dp2501
g93
g94
ssg75
g2490
sg68
(lp2502
S':'
asbag61
(g82
g63
NtRp2503
(dp2504
g66
(dp2505
sg75
g2490
sg68
(lp2506
g61
(g62
g63
NtRp2507
(dp2508
g66
(dp2509
g74
I5
ssg75
g2503
sg68
(lp2510
S'None'
p2511
asbasbasbag61
(g77
g63
NtRp2512
(dp2513
g66
(dp2514
sg75
g71
sg68
(lp2515
g61
(g82
g63
NtRp2516
(dp2517
g66
(dp2518
g86
g87
ssg75
g2512
sg68
(lp2519
S'url'
p2520
asbag61
(g82
g63
NtRp2521
(dp2522
g66
(dp2523
g93
g94
ssg75
g2512
sg68
(lp2524
S':'
asbag61
(g82
g63
NtRp2525
(dp2526
g66
(dp2527
sg75
g2512
sg68
(lp2528
g61
(g62
g63
NtRp2529
(dp2530
g66
(dp2531
g74
I5
ssg75
g2525
sg68
(lp2532
g1336
asbasbasbag61
(g77
g63
NtRp2533
(dp2534
g66
(dp2535
sg75
g71
sg68
(lp2536
g61
(g82
g63
NtRp2537
(dp2538
g66
(dp2539
g86
g87
ssg75
g2533
sg68
(lp2540
S'utcnow'
p2541
asbag61
(g82
g63
NtRp2542
(dp2543
g66
(dp2544
g93
g94
ssg75
g2533
sg68
(lp2545
S':'
asbag61
(g82
g63
NtRp2546
(dp2547
g66
(dp2548
sg75
g2533
sg68
(lp2549
g61
(g62
g63
NtRp2550
(dp2551
g66
(dp2552
g74
I5
ssg75
g2546
sg68
(lp2553
S'datetime.datetime(2012, 11, 14, 7, 58, 20, 218421)'
p2554
asbasbasbag61
(g77
g63
NtRp2555
(dp2556
g66
(dp2557
sg75
g71
sg68
(lp2558
g61
(g82
g63
NtRp2559
(dp2560
g66
(dp2561
g86
g87
ssg75
g2555
sg68
(lp2562
S'uuid'
p2563
asbag61
(g82
g63
NtRp2564
(dp2565
g66
(dp2566
g93
g94
ssg75
g2555
sg68
(lp2567
S':'
asbag61
(g82
g63
NtRp2568
(dp2569
g66
(dp2570
sg75
g2555
sg68
(lp2571
g61
(g62
g63
NtRp2572
(dp2573
g66
(dp2574
g74
I5
ssg75
g2568
sg68
(lp2575
S'admin/127.0.0.1.2012-11-14.13-28-20.5f0404ad-ee17-40a4-be84-04bac3499d9e'
p2576
asbasbasbag61
(g77
g63
NtRp2577
(dp2578
g66
(dp2579
sg75
g71
sg68
(lp2580
g61
(g82
g63
NtRp2581
(dp2582
g66
(dp2583
g86
g87
ssg75
g2577
sg68
(lp2584
S'vars'
p2585
asbag61
(g82
g63
NtRp2586
(dp2587
g66
(dp2588
g93
g94
ssg75
g2577
sg68
(lp2589
S':'
asbag61
(g82
g63
NtRp2590
(dp2591
g66
(dp2592
sg75
g2577
sg68
(lp2593
g61
(g62
g63
NtRp2594
(dp2595
g66
(dp2596
g74
I5
ssg75
g2590
sg68
(lp2597
g61
(g70
g63
NtRp2598
(dp2599
g66
(dp2600
g74
I4
ssg75
Nsg68
(lp2601
g61
(g77
g63
NtRp2602
(dp2603
g66
(dp2604
sg75
g2598
sg68
(lp2605
g61
(g82
g63
NtRp2606
(dp2607
g66
(dp2608
g86
g87
ssg75
g2602
sg68
(lp2609
g2410
asbag61
(g82
g63
NtRp2610
(dp2611
g66
(dp2612
g93
g94
ssg75
g2602
sg68
(lp2613
S':'
asbag61
(g82
g63
NtRp2614
(dp2615
g66
(dp2616
sg75
g2602
sg68
(lp2617
g61
(g62
g63
NtRp2618
(dp2619
g66
(dp2620
g74
I4
ssg75
g2614
sg68
(lp2621
g2423
asbasbasbag61
(g77
g63
NtRp2622
(dp2623
g66
(dp2624
sg75
g2598
sg68
(lp2625
g61
(g82
g63
NtRp2626
(dp2627
g66
(dp2628
g86
g87
ssg75
g2622
sg68
(lp2629
g2432
asbag61
(g82
g63
NtRp2630
(dp2631
g66
(dp2632
g93
g94
ssg75
g2622
sg68
(lp2633
S':'
asbag61
(g82
g63
NtRp2634
(dp2635
g66
(dp2636
sg75
g2622
sg68
(lp2637
g61
(g62
g63
NtRp2638
(dp2639
g66
(dp2640
g74
I4
ssg75
g2634
sg68
(lp2641
g2445
asbasbasbag61
(g77
g63
NtRp2642
(dp2643
g66
(dp2644
sg75
g2598
sg68
(lp2645
g61
(g82
g63
NtRp2646
(dp2647
g66
(dp2648
g86
g87
ssg75
g2642
sg68
(lp2649
g2454
asbag61
(g82
g63
NtRp2650
(dp2651
g66
(dp2652
g93
g94
ssg75
g2642
sg68
(lp2653
S':'
asbag61
(g82
g63
NtRp2654
(dp2655
g66
(dp2656
sg75
g2642
sg68
(lp2657
g61
(g62
g63
NtRp2658
(dp2659
g66
(dp2660
g74
I4
ssg75
g2654
sg68
(lp2661
g2467
asbasbasbasbasbasbasbag61
(g77
g63
NtRp2662
(dp2663
g66
(dp2664
sg75
g71
sg68
(lp2665
g61
(g82
g63
NtRp2666
(dp2667
g66
(dp2668
g86
g87
ssg75
g2662
sg68
(lp2669
S'wsgi'
p2670
asbag61
(g82
g63
NtRp2671
(dp2672
g66
(dp2673
g93
g94
ssg75
g2662
sg68
(lp2674
S':'
asbag61
(g82
g63
NtRp2675
(dp2676
g66
(dp2677
sg75
g2662
sg68
(lp2678
g61
(g62
g63
NtRp2679
(dp2680
g66
(dp2681
g74
I5
ssg75
g2675
sg68
(lp2682
g61
(g70
g63
NtRp2683
(dp2684
g66
(dp2685
g74
I4
ssg75
Nsg68
(lp2686
g61
(g77
g63
NtRp2687
(dp2688
g66
(dp2689
sg75
g2683
sg68
(lp2690
g61
(g82
g63
NtRp2691
(dp2692
g66
(dp2693
g86
g87
ssg75
g2687
sg68
(lp2694
S'environ'
p2695
asbag61
(g82
g63
NtRp2696
(dp2697
g66
(dp2698
g93
g94
ssg75
g2687
sg68
(lp2699
S':'
asbag61
(g82
g63
NtRp2700
(dp2701
g66
(dp2702
sg75
g2687
sg68
(lp2703
g61
(g62
g63
NtRp2704
(dp2705
g66
(dp2706
g74
I4
ssg75
g2700
sg68
(lp2707
g61
(g70
g63
NtRp2708
(dp2709
g66
(dp2710
g74
I3
ssg75
Nsg68
(lp2711
g61
(g77
g63
NtRp2712
(dp2713
g66
(dp2714
sg75
g2708
sg68
(lp2715
g61
(g82
g63
NtRp2716
(dp2717
g66
(dp2718
g86
g87
ssg75
g2712
sg68
(lp2719
S'CONTENT_LENGTH'
p2720
asbag61
(g82
g63
NtRp2721
(dp2722
g66
(dp2723
g93
g94
ssg75
g2712
sg68
(lp2724
S':'
asbag61
(g82
g63
NtRp2725
(dp2726
g66
(dp2727
sg75
g2712
sg68
(lp2728
g61
(g62
g63
NtRp2729
(dp2730
g66
(dp2731
g74
I3
ssg75
g2725
sg68
(lp2732
g967
asbasbasbag61
(g77
g63
NtRp2733
(dp2734
g66
(dp2735
sg75
g2708
sg68
(lp2736
g61
(g82
g63
NtRp2737
(dp2738
g66
(dp2739
g86
g87
ssg75
g2733
sg68
(lp2740
S'CONTENT_TYPE'
p2741
asbag61
(g82
g63
NtRp2742
(dp2743
g66
(dp2744
g93
g94
ssg75
g2733
sg68
(lp2745
S':'
asbag61
(g82
g63
NtRp2746
(dp2747
g66
(dp2748
sg75
g2733
sg68
(lp2749
g61
(g62
g63
NtRp2750
(dp2751
g66
(dp2752
g74
I3
ssg75
g2746
sg68
(lp2753
g989
asbasbasbag61
(g77
g63
NtRp2754
(dp2755
g66
(dp2756
sg75
g2708
sg68
(lp2757
g61
(g82
g63
NtRp2758
(dp2759
g66
(dp2760
g86
g87
ssg75
g2754
sg68
(lp2761
S'HTTP_ACCEPT'
p2762
asbag61
(g82
g63
NtRp2763
(dp2764
g66
(dp2765
g93
g94
ssg75
g2754
sg68
(lp2766
S':'
asbag61
(g82
g63
NtRp2767
(dp2768
g66
(dp2769
sg75
g2754
sg68
(lp2770
g61
(g62
g63
NtRp2771
(dp2772
g66
(dp2773
g74
I3
ssg75
g2767
sg68
(lp2774
g1076
asbasbasbag61
(g77
g63
NtRp2775
(dp2776
g66
(dp2777
sg75
g2708
sg68
(lp2778
g61
(g82
g63
NtRp2779
(dp2780
g66
(dp2781
g86
g87
ssg75
g2775
sg68
(lp2782
S'HTTP_ACCEPT_ENCODING'
p2783
asbag61
(g82
g63
NtRp2784
(dp2785
g66
(dp2786
g93
g94
ssg75
g2775
sg68
(lp2787
S':'
asbag61
(g82
g63
NtRp2788
(dp2789
g66
(dp2790
sg75
g2775
sg68
(lp2791
g61
(g62
g63
NtRp2792
(dp2793
g66
(dp2794
g74
I3
ssg75
g2788
sg68
(lp2795
g1098
asbasbasbag61
(g77
g63
NtRp2796
(dp2797
g66
(dp2798
sg75
g2708
sg68
(lp2799
g61
(g82
g63
NtRp2800
(dp2801
g66
(dp2802
g86
g87
ssg75
g2796
sg68
(lp2803
S'HTTP_ACCEPT_LANGUAGE'
p2804
asbag61
(g82
g63
NtRp2805
(dp2806
g66
(dp2807
g93
g94
ssg75
g2796
sg68
(lp2808
S':'
asbag61
(g82
g63
NtRp2809
(dp2810
g66
(dp2811
sg75
g2796
sg68
(lp2812
g61
(g62
g63
NtRp2813
(dp2814
g66
(dp2815
g74
I3
ssg75
g2809
sg68
(lp2816
g1120
asbasbasbag61
(g77
g63
NtRp2817
(dp2818
g66
(dp2819
sg75
g2708
sg68
(lp2820
g61
(g82
g63
NtRp2821
(dp2822
g66
(dp2823
g86
g87
ssg75
g2817
sg68
(lp2824
S'HTTP_CONNECTION'
p2825
asbag61
(g82
g63
NtRp2826
(dp2827
g66
(dp2828
g93
g94
ssg75
g2817
sg68
(lp2829
S':'
asbag61
(g82
g63
NtRp2830
(dp2831
g66
(dp2832
sg75
g2817
sg68
(lp2833
g61
(g62
g63
NtRp2834
(dp2835
g66
(dp2836
g74
I3
ssg75
g2830
sg68
(lp2837
g1142
asbasbasbag61
(g77
g63
NtRp2838
(dp2839
g66
(dp2840
sg75
g2708
sg68
(lp2841
g61
(g82
g63
NtRp2842
(dp2843
g66
(dp2844
g86
g87
ssg75
g2838
sg68
(lp2845
S'HTTP_CONTENT_LENGTH'
p2846
asbag61
(g82
g63
NtRp2847
(dp2848
g66
(dp2849
g93
g94
ssg75
g2838
sg68
(lp2850
S':'
asbag61
(g82
g63
NtRp2851
(dp2852
g66
(dp2853
sg75
g2838
sg68
(lp2854
g61
(g62
g63
NtRp2855
(dp2856
g66
(dp2857
g74
I3
ssg75
g2851
sg68
(lp2858
g967
asbasbasbag61
(g77
g63
NtRp2859
(dp2860
g66
(dp2861
sg75
g2708
sg68
(lp2862
g61
(g82
g63
NtRp2863
(dp2864
g66
(dp2865
g86
g87
ssg75
g2859
sg68
(lp2866
S'HTTP_CONTENT_TYPE'
p2867
asbag61
(g82
g63
NtRp2868
(dp2869
g66
(dp2870
g93
g94
ssg75
g2859
sg68
(lp2871
S':'
asbag61
(g82
g63
NtRp2872
(dp2873
g66
(dp2874
sg75
g2859
sg68
(lp2875
g61
(g62
g63
NtRp2876
(dp2877
g66
(dp2878
g74
I3
ssg75
g2872
sg68
(lp2879
g989
asbasbasbag61
(g77
g63
NtRp2880
(dp2881
g66
(dp2882
sg75
g2708
sg68
(lp2883
g61
(g82
g63
NtRp2884
(dp2885
g66
(dp2886
g86
g87
ssg75
g2880
sg68
(lp2887
S'HTTP_COOKIE'
p2888
asbag61
(g82
g63
NtRp2889
(dp2890
g66
(dp2891
g93
g94
ssg75
g2880
sg68
(lp2892
S':'
asbag61
(g82
g63
NtRp2893
(dp2894
g66
(dp2895
sg75
g2880
sg68
(lp2896
g61
(g62
g63
NtRp2897
(dp2898
g66
(dp2899
g74
I3
ssg75
g2893
sg68
(lp2900
g1206
asbasbasbag61
(g77
g63
NtRp2901
(dp2902
g66
(dp2903
sg75
g2708
sg68
(lp2904
g61
(g82
g63
NtRp2905
(dp2906
g66
(dp2907
g86
g87
ssg75
g2901
sg68
(lp2908
S'HTTP_HOST'
p2909
asbag61
(g82
g63
NtRp2910
(dp2911
g66
(dp2912
g93
g94
ssg75
g2901
sg68
(lp2913
S':'
asbag61
(g82
g63
NtRp2914
(dp2915
g66
(dp2916
sg75
g2901
sg68
(lp2917
g61
(g62
g63
NtRp2918
(dp2919
g66
(dp2920
g74
I3
ssg75
g2914
sg68
(lp2921
g1228
asbasbasbag61
(g77
g63
NtRp2922
(dp2923
g66
(dp2924
sg75
g2708
sg68
(lp2925
g61
(g82
g63
NtRp2926
(dp2927
g66
(dp2928
g86
g87
ssg75
g2922
sg68
(lp2929
S'HTTP_REFERER'
p2930
asbag61
(g82
g63
NtRp2931
(dp2932
g66
(dp2933
g93
g94
ssg75
g2922
sg68
(lp2934
S':'
asbag61
(g82
g63
NtRp2935
(dp2936
g66
(dp2937
sg75
g2922
sg68
(lp2938
g61
(g62
g63
NtRp2939
(dp2940
g66
(dp2941
g74
I3
ssg75
g2935
sg68
(lp2942
g1250
asbasbasbag61
(g77
g63
NtRp2943
(dp2944
g66
(dp2945
sg75
g2708
sg68
(lp2946
g61
(g82
g63
NtRp2947
(dp2948
g66
(dp2949
g86
g87
ssg75
g2943
sg68
(lp2950
S'HTTP_USER_AGENT'
p2951
asbag61
(g82
g63
NtRp2952
(dp2953
g66
(dp2954
g93
g94
ssg75
g2943
sg68
(lp2955
S':'
asbag61
(g82
g63
NtRp2956
(dp2957
g66
(dp2958
sg75
g2943
sg68
(lp2959
g61
(g62
g63
NtRp2960
(dp2961
g66
(dp2962
g74
I3
ssg75
g2956
sg68
(lp2963
g1272
asbasbasbag61
(g77
g63
NtRp2964
(dp2965
g66
(dp2966
sg75
g2708
sg68
(lp2967
g61
(g82
g63
NtRp2968
(dp2969
g66
(dp2970
g86
g87
ssg75
g2964
sg68
(lp2971
S'PATH_INFO'
p2972
asbag61
(g82
g63
NtRp2973
(dp2974
g66
(dp2975
g93
g94
ssg75
g2964
sg68
(lp2976
S':'
asbag61
(g82
g63
NtRp2977
(dp2978
g66
(dp2979
sg75
g2964
sg68
(lp2980
g61
(g62
g63
NtRp2981
(dp2982
g66
(dp2983
g74
I3
ssg75
g2977
sg68
(lp2984
g1336
asbasbasbag61
(g77
g63
NtRp2985
(dp2986
g66
(dp2987
sg75
g2708
sg68
(lp2988
g61
(g82
g63
NtRp2989
(dp2990
g66
(dp2991
g86
g87
ssg75
g2985
sg68
(lp2992
S'QUERY_STRING'
p2993
asbag61
(g82
g63
NtRp2994
(dp2995
g66
(dp2996
g93
g94
ssg75
g2985
sg68
(lp2997
S':'
asbag61
(g82
g63
NtRp2998
(dp2999
g66
(dp3000
sg75
g2985
sg68
(lp3001
g61
(g62
g63
NtRp3002
(dp3003
g66
(dp3004
g74
I3
ssg75
g2998
sg68
(lp3005
S''
asbasbasbag61
(g77
g63
NtRp3006
(dp3007
g66
(dp3008
sg75
g2708
sg68
(lp3009
g61
(g82
g63
NtRp3010
(dp3011
g66
(dp3012
g86
g87
ssg75
g3006
sg68
(lp3013
S'REMOTE_ADDR'
p3014
asbag61
(g82
g63
NtRp3015
(dp3016
g66
(dp3017
g93
g94
ssg75
g3006
sg68
(lp3018
S':'
asbag61
(g82
g63
NtRp3019
(dp3020
g66
(dp3021
sg75
g3006
sg68
(lp3022
g61
(g62
g63
NtRp3023
(dp3024
g66
(dp3025
g74
I3
ssg75
g3019
sg68
(lp3026
g216
asbasbasbag61
(g77
g63
NtRp3027
(dp3028
g66
(dp3029
sg75
g2708
sg68
(lp3030
g61
(g82
g63
NtRp3031
(dp3032
g66
(dp3033
g86
g87
ssg75
g3027
sg68
(lp3034
S'REMOTE_PORT'
p3035
asbag61
(g82
g63
NtRp3036
(dp3037
g66
(dp3038
g93
g94
ssg75
g3027
sg68
(lp3039
S':'
asbag61
(g82
g63
NtRp3040
(dp3041
g66
(dp3042
sg75
g3027
sg68
(lp3043
g61
(g62
g63
NtRp3044
(dp3045
g66
(dp3046
g74
I3
ssg75
g3040
sg68
(lp3047
g1400
asbasbasbag61
(g77
g63
NtRp3048
(dp3049
g66
(dp3050
sg75
g2708
sg68
(lp3051
g61
(g82
g63
NtRp3052
(dp3053
g66
(dp3054
g86
g87
ssg75
g3048
sg68
(lp3055
S'REQUEST_METHOD'
p3056
asbag61
(g82
g63
NtRp3057
(dp3058
g66
(dp3059
g93
g94
ssg75
g3048
sg68
(lp3060
S':'
asbag61
(g82
g63
NtRp3061
(dp3062
g66
(dp3063
sg75
g3048
sg68
(lp3064
g61
(g62
g63
NtRp3065
(dp3066
g66
(dp3067
g74
I3
ssg75
g3061
sg68
(lp3068
g1422
asbasbasbag61
(g77
g63
NtRp3069
(dp3070
g66
(dp3071
sg75
g2708
sg68
(lp3072
g61
(g82
g63
NtRp3073
(dp3074
g66
(dp3075
g86
g87
ssg75
g3069
sg68
(lp3076
S'REQUEST_URI'
p3077
asbag61
(g82
g63
NtRp3078
(dp3079
g66
(dp3080
g93
g94
ssg75
g3069
sg68
(lp3081
S':'
asbag61
(g82
g63
NtRp3082
(dp3083
g66
(dp3084
sg75
g3069
sg68
(lp3085
g61
(g62
g63
NtRp3086
(dp3087
g66
(dp3088
g74
I3
ssg75
g3082
sg68
(lp3089
g1336
asbasbasbag61
(g77
g63
NtRp3090
(dp3091
g66
(dp3092
sg75
g2708
sg68
(lp3093
g61
(g82
g63
NtRp3094
(dp3095
g66
(dp3096
g86
g87
ssg75
g3090
sg68
(lp3097
S'SCRIPT_NAME'
p3098
asbag61
(g82
g63
NtRp3099
(dp3100
g66
(dp3101
g93
g94
ssg75
g3090
sg68
(lp3102
S':'
asbag61
(g82
g63
NtRp3103
(dp3104
g66
(dp3105
sg75
g3090
sg68
(lp3106
g61
(g62
g63
NtRp3107
(dp3108
g66
(dp3109
g74
I3
ssg75
g3103
sg68
(lp3110
S''
asbasbasbag61
(g77
g63
NtRp3111
(dp3112
g66
(dp3113
sg75
g2708
sg68
(lp3114
g61
(g82
g63
NtRp3115
(dp3116
g66
(dp3117
g86
g87
ssg75
g3111
sg68
(lp3118
S'SERVER_NAME'
p3119
asbag61
(g82
g63
NtRp3120
(dp3121
g66
(dp3122
g93
g94
ssg75
g3111
sg68
(lp3123
S':'
asbag61
(g82
g63
NtRp3124
(dp3125
g66
(dp3126
sg75
g3111
sg68
(lp3127
g61
(g62
g63
NtRp3128
(dp3129
g66
(dp3130
g74
I3
ssg75
g3124
sg68
(lp3131
g1486
asbasbasbag61
(g77
g63
NtRp3132
(dp3133
g66
(dp3134
sg75
g2708
sg68
(lp3135
g61
(g82
g63
NtRp3136
(dp3137
g66
(dp3138
g86
g87
ssg75
g3132
sg68
(lp3139
S'SERVER_PORT'
p3140
asbag61
(g82
g63
NtRp3141
(dp3142
g66
(dp3143
g93
g94
ssg75
g3132
sg68
(lp3144
S':'
asbag61
(g82
g63
NtRp3145
(dp3146
g66
(dp3147
sg75
g3132
sg68
(lp3148
g61
(g62
g63
NtRp3149
(dp3150
g66
(dp3151
g74
I3
ssg75
g3145
sg68
(lp3152
g1508
asbasbasbag61
(g77
g63
NtRp3153
(dp3154
g66
(dp3155
sg75
g2708
sg68
(lp3156
g61
(g82
g63
NtRp3157
(dp3158
g66
(dp3159
g86
g87
ssg75
g3153
sg68
(lp3160
S'SERVER_PROTOCOL'
p3161
asbag61
(g82
g63
NtRp3162
(dp3163
g66
(dp3164
g93
g94
ssg75
g3153
sg68
(lp3165
S':'
asbag61
(g82
g63
NtRp3166
(dp3167
g66
(dp3168
sg75
g3153
sg68
(lp3169
g61
(g62
g63
NtRp3170
(dp3171
g66
(dp3172
g74
I3
ssg75
g3166
sg68
(lp3173
g1530
asbasbasbag61
(g77
g63
NtRp3174
(dp3175
g66
(dp3176
sg75
g2708
sg68
(lp3177
g61
(g82
g63
NtRp3178
(dp3179
g66
(dp3180
g86
g87
ssg75
g3174
sg68
(lp3181
S'SERVER_SOFTWARE'
p3182
asbag61
(g82
g63
NtRp3183
(dp3184
g66
(dp3185
g93
g94
ssg75
g3174
sg68
(lp3186
S':'
asbag61
(g82
g63
NtRp3187
(dp3188
g66
(dp3189
sg75
g3174
sg68
(lp3190
g61
(g62
g63
NtRp3191
(dp3192
g66
(dp3193
g74
I3
ssg75
g3187
sg68
(lp3194
g1552
asbasbasbag61
(g77
g63
NtRp3195
(dp3196
g66
(dp3197
sg75
g2708
sg68
(lp3198
g61
(g82
g63
NtRp3199
(dp3200
g66
(dp3201
g86
g87
ssg75
g3195
sg68
(lp3202
S'wsgi.errors'
p3203
asbag61
(g82
g63
NtRp3204
(dp3205
g66
(dp3206
g93
g94
ssg75
g3195
sg68
(lp3207
S':'
asbag61
(g82
g63
NtRp3208
(dp3209
g66
(dp3210
sg75
g3195
sg68
(lp3211
g61
(g62
g63
NtRp3212
(dp3213
g66
(dp3214
g74
I3
ssg75
g3208
sg68
(lp3215
S"<open file '<stderr>', mode 'w' at 0x7f05f8815270>"
p3216
asbasbasbag61
(g77
g63
NtRp3217
(dp3218
g66
(dp3219
sg75
g2708
sg68
(lp3220
g61
(g82
g63
NtRp3221
(dp3222
g66
(dp3223
g86
g87
ssg75
g3217
sg68
(lp3224
S'wsgi.file_wrapper'
p3225
asbag61
(g82
g63
NtRp3226
(dp3227
g66
(dp3228
g93
g94
ssg75
g3217
sg68
(lp3229
S':'
asbag61
(g82
g63
NtRp3230
(dp3231
g66
(dp3232
sg75
g3217
sg68
(lp3233
g61
(g62
g63
NtRp3234
(dp3235
g66
(dp3236
g74
I3
ssg75
g3230
sg68
(lp3237
S'<class wsgiref.util.FileWrapper at 0x1e38c18>'
p3238
asbasbasbag61
(g77
g63
NtRp3239
(dp3240
g66
(dp3241
sg75
g2708
sg68
(lp3242
g61
(g82
g63
NtRp3243
(dp3244
g66
(dp3245
g86
g87
ssg75
g3239
sg68
(lp3246
S'wsgi.input'
p3247
asbag61
(g82
g63
NtRp3248
(dp3249
g66
(dp3250
g93
g94
ssg75
g3239
sg68
(lp3251
S':'
asbag61
(g82
g63
NtRp3252
(dp3253
g66
(dp3254
sg75
g3239
sg68
(lp3255
g61
(g62
g63
NtRp3256
(dp3257
g66
(dp3258
g74
I3
ssg75
g3252
sg68
(lp3259
S"<open file '<fdopen>', mode 'w+b' at 0x7f05dc133660>"
p3260
asbasbasbag61
(g77
g63
NtRp3261
(dp3262
g66
(dp3263
sg75
g2708
sg68
(lp3264
g61
(g82
g63
NtRp3265
(dp3266
g66
(dp3267
g86
g87
ssg75
g3261
sg68
(lp3268
S'wsgi.multiprocess'
p3269
asbag61
(g82
g63
NtRp3270
(dp3271
g66
(dp3272
g93
g94
ssg75
g3261
sg68
(lp3273
S':'
asbag61
(g82
g63
NtRp3274
(dp3275
g66
(dp3276
sg75
g3261
sg68
(lp3277
g61
(g62
g63
NtRp3278
(dp3279
g66
(dp3280
g74
I3
ssg75
g3274
sg68
(lp3281
g104
asbasbasbag61
(g77
g63
NtRp3282
(dp3283
g66
(dp3284
sg75
g2708
sg68
(lp3285
g61
(g82
g63
NtRp3286
(dp3287
g66
(dp3288
g86
g87
ssg75
g3282
sg68
(lp3289
S'wsgi.multithread'
p3290
asbag61
(g82
g63
NtRp3291
(dp3292
g66
(dp3293
g93
g94
ssg75
g3282
sg68
(lp3294
S':'
asbag61
(g82
g63
NtRp3295
(dp3296
g66
(dp3297
sg75
g3282
sg68
(lp3298
g61
(g62
g63
NtRp3299
(dp3300
g66
(dp3301
g74
I3
ssg75
g3295
sg68
(lp3302
g1791
asbasbasbag61
(g77
g63
NtRp3303
(dp3304
g66
(dp3305
sg75
g2708
sg68
(lp3306
g61
(g82
g63
NtRp3307
(dp3308
g66
(dp3309
g86
g87
ssg75
g3303
sg68
(lp3310
S'wsgi.run_once'
p3311
asbag61
(g82
g63
NtRp3312
(dp3313
g66
(dp3314
g93
g94
ssg75
g3303
sg68
(lp3315
S':'
asbag61
(g82
g63
NtRp3316
(dp3317
g66
(dp3318
sg75
g3303
sg68
(lp3319
g61
(g62
g63
NtRp3320
(dp3321
g66
(dp3322
g74
I3
ssg75
g3316
sg68
(lp3323
g104
asbasbasbag61
(g77
g63
NtRp3324
(dp3325
g66
(dp3326
sg75
g2708
sg68
(lp3327
g61
(g82
g63
NtRp3328
(dp3329
g66
(dp3330
g86
g87
ssg75
g3324
sg68
(lp3331
S'wsgi.url_scheme'
p3332
asbag61
(g82
g63
NtRp3333
(dp3334
g66
(dp3335
g93
g94
ssg75
g3324
sg68
(lp3336
S':'
asbag61
(g82
g63
NtRp3337
(dp3338
g66
(dp3339
sg75
g3324
sg68
(lp3340
g61
(g62
g63
NtRp3341
(dp3342
g66
(dp3343
g74
I3
ssg75
g3337
sg68
(lp3344
g1834
asbasbasbag61
(g77
g63
NtRp3345
(dp3346
g66
(dp3347
sg75
g2708
sg68
(lp3348
g61
(g82
g63
NtRp3349
(dp3350
g66
(dp3351
g86
g87
ssg75
g3345
sg68
(lp3352
S'wsgi.version'
p3353
asbag61
(g82
g63
NtRp3354
(dp3355
g66
(dp3356
g93
g94
ssg75
g3345
sg68
(lp3357
S':'
asbag61
(g82
g63
NtRp3358
(dp3359
g66
(dp3360
sg75
g3345
sg68
(lp3361
g61
(g62
g63
NtRp3362
(dp3363
g66
(dp3364
g74
I3
ssg75
g3358
sg68
(lp3365
S'1'
asbasbasbasbasbasbasbasbasbasbasbasbasbsS'frames'
p3366
(lp3367
(dp3368
S'file'
p3369
S'/home/mayank/IIIT/sem 3/SSAD&Project/web2py/gluon/restricted.py'
p3370
sS'dump'
p3371
(dp3372
S'environment'
p3373
S"{'A': <class 'gluon.html.A'>, 'ALLOW_TOGGLE': 'true', 'A_button': <function A_button>, 'Actor': <class 'git.actor.Actor'>, 'B': <class 'gluon.html.B'>, 'BEAUTIFY': <class 'gluon.html.BEAUTIFY'>, 'BODY': <class 'gluon.html.BODY'>, 'BR': <class 'gluon.html.BR'>, 'BUTTON': <class 'gluon.html.BUTTON'>, 'Blob': <class 'git.blob.Blob'>, ...}"
p3374
sS'ccode'
p3375
S'<code object <module> at 0x7f05d83d6330, file "/...ications/admin/controllers/openshift.py", line 1>'
p3376
ssS'lnum'
p3377
I209
sS'lines'
p3378
(dp3379
I204
S'    try:'
p3380
sI205
S'        if type(code) == types.CodeType:'
p3381
sI206
S'            ccode = code'
p3382
sI207
S'        else:'
p3383
sI208
S'            ccode = compile2(code,layer)'
p3384
sI209
S'        exec ccode in environment'
p3385
sI210
S'    except HTTP:'
p3386
sI211
S'        raise'
p3387
sI212
S'    except RestrictedError:'
p3388
sI213
S'        # do not encapsulate (obfuscate) the original RestrictedError'
p3389
ssS'call'
p3390
S"(code='import os\\nfrom distutils import dir_util\\ntry:\\n  ...essage)\\n\\nresponse._vars=response._caller(deploy)\\n', environment={'A': <class 'gluon.html.A'>, 'ALLOW_TOGGLE': 'true', 'A_button': <function A_button>, 'Actor': <class 'git.actor.Actor'>, 'B': <class 'gluon.html.B'>, 'BEAUTIFY': <class 'gluon.html.BEAUTIFY'>, 'BODY': <class 'gluon.html.BODY'>, 'BR': <class 'gluon.html.BR'>, 'BUTTON': <class 'gluon.html.BUTTON'>, 'Blob': <class 'git.blob.Blob'>, ...}, layer='/home/mayank/IIIT/sem 3/SSAD&Project/web2py/applications/admin/controllers/openshift.py')"
p3391
sS'func'
p3392
S'restricted'
p3393
sa(dp3394
g3369
S'/home/mayank/IIIT/sem 3/SSAD&Project/web2py/applications/admin/controllers/openshift.py'
p3395
sg3371
(dp3396
sg3377
I58
sg3378
(dp3397
I47
S'        #Git code ends here'
p3398
sI48
S'    return dict(form=form,command=cmd)'
p3399
sI49
S''
sI50
S'class EXISTS(object):'
p3400
sI51
S"    def __init__(self, error_message='file not found'):"
p3401
sI52
S'        self.error_message = error_message'
p3402
sI53
S'    def __call__(self, value):'
p3403
sI54
S'        if os.path.exists(value):'
p3404
sI55
S'            return (value,None)'
p3405
sI56
S'        return (value,self.error_message)'
p3406
ssg3390
S'()'
p3407
sg3392
S'<module>'
p3408
sa(dp3409
g3369
S'/home/mayank/IIIT/sem 3/SSAD&Project/web2py/gluon/globals.py'
p3410
sg3371
(dp3411
S'self'
p3412
S'undefined'
p3413
sS'f'
S'<function deploy>'
p3414
ssg3377
I185
sg3378
(dp3415
I180
S'        self.menu = []             # used by the default view layout'
p3416
sI181
S'        self.files = []            # used by web2py_ajax.html'
p3417
sI182
S'        self.generic_patterns = [] # patterns to allow generic views'
p3418
sI183
S"        self.delimiters = ('{{','}}')"
p3419
sI184
S'        self._vars = None'
p3420
sI185
S'        self._caller = lambda f: f()'
p3421
sI186
S'        self._view_environment = None'
p3422
sI187
S'        self._custom_commit = None'
p3423
sI188
S'        self._custom_rollback = None'
p3424
sI189
S''
ssg3390
S'(f=<function deploy>)'
p3425
sg3392
S'<lambda>'
p3426
sa(dp3427
g3369
S'/home/mayank/IIIT/sem 3/SSAD&Project/web2py/applications/admin/controllers/openshift.py'
p3428
sg3371
(dp3429
S'repo'
p3430
g3413
sS'form.vars.osrepo'
p3431
S"'/tmp'"
p3432
sS'form.vars'
p3433
S"<Storage {'applications': ['kkk'], 'osrepo': '/tmp', 'osname': 'web2py', 'id': None}>"
p3434
sS'global Repo'
p3435
S"<class 'git.repo.Repo'>"
p3436
sS'form'
p3437
S'<gluon.sqlhtml.SQLFORM object>'
p3438
ssg3377
I32
sg3378
(dp3439
I32
S'        repo = Repo(form.vars.osrepo)'
p3440
sI33
S'        index = repo.index'
p3441
sI34
S'        assert repo.bare == False'
p3442
sI35
S''
sI36
S'        for i in form.vars.applications:'
p3443
sI27
S"        regex = re.compile('\\(applications/\\(.*')"
p3444
sI28
S'        w2p_origin = os.getcwd()'
p3445
sI29
S'        osrepo = form.vars.osrepo'
p3446
sI30
S'        osname = form.vars.osname'
p3447
sI31
S'        #Git code starts here'
p3448
ssg3390
S'()'
p3449
sg3392
S'deploy'
p3450
sa(dp3451
g3369
S'/usr/lib/pymodules/python2.7/git/repo.py'
p3452
sg3371
(dp3453
S'epath'
p3454
S"'/tmp'"
p3455
sS'global InvalidGitRepositoryError'
p3456
S"<class 'git.errors.InvalidGitRepositoryError'>"
p3457
ssg3377
I63
sg3378
(dp3458
I64
S''
sI65
S'        self.git = Git(self.wd)'
p3459
sI66
S''
sI67
S'    # Description property'
p3460
sI58
S'            curpath, dummy = os.path.split(curpath)'
p3461
sI59
S'            if not dummy:'
p3462
sI60
S'                break'
p3463
sI61
S''
sI62
S'        if self.path is None:'
p3464
sI63
S'           raise InvalidGitRepositoryError(epath)'
p3465
ssg3390
S'(self=<git.Repo "None">, path=\'/tmp\')'
p3466
sg3392
g26
sasS'pyver'
p3467
S'Python 2.7.3: /usr/bin/python'
p3468
sS'session'
p3469
g61
(g62
g63
NtRp3470
(dp3471
g66
(dp3472
sg68
(lp3473
g61
(g70
g63
NtRp3474
(dp3475
g66
(dp3476
g74
I5
ssg75
Nsg68
(lp3477
g61
(g77
g63
NtRp3478
(dp3479
g66
(dp3480
sg75
g3474
sg68
(lp3481
g61
(g82
g63
NtRp3482
(dp3483
g66
(dp3484
g86
g87
ssg75
g3478
sg68
(lp3485
S'authorized'
p3486
asbag61
(g82
g63
NtRp3487
(dp3488
g66
(dp3489
g93
g94
ssg75
g3478
sg68
(lp3490
S':'
asbag61
(g82
g63
NtRp3491
(dp3492
g66
(dp3493
sg75
g3478
sg68
(lp3494
g61
(g62
g63
NtRp3495
(dp3496
g66
(dp3497
g74
I5
ssg75
g3491
sg68
(lp3498
g1791
asbasbasbag61
(g77
g63
NtRp3499
(dp3500
g66
(dp3501
sg75
g3474
sg68
(lp3502
g61
(g82
g63
NtRp3503
(dp3504
g66
(dp3505
g86
g87
ssg75
g3499
sg68
(lp3506
S'check_version'
p3507
asbag61
(g82
g63
NtRp3508
(dp3509
g66
(dp3510
g93
g94
ssg75
g3499
sg68
(lp3511
S':'
asbag61
(g82
g63
NtRp3512
(dp3513
g66
(dp3514
sg75
g3499
sg68
(lp3515
g61
(g62
g63
NtRp3516
(dp3517
g66
(dp3518
g74
I5
ssg75
g3512
sg68
(lp3519
g104
asbasbasbag61
(g77
g63
NtRp3520
(dp3521
g66
(dp3522
sg75
g3474
sg68
(lp3523
g61
(g82
g63
NtRp3524
(dp3525
g66
(dp3526
g86
g87
ssg75
g3520
sg68
(lp3527
S'flash'
p3528
asbag61
(g82
g63
NtRp3529
(dp3530
g66
(dp3531
g93
g94
ssg75
g3520
sg68
(lp3532
S':'
asbag61
(g82
g63
NtRp3533
(dp3534
g66
(dp3535
sg75
g3520
sg68
(lp3536
g61
(g62
g63
NtRp3537
(dp3538
g66
(dp3539
g74
I5
ssg75
g3533
sg68
(lp3540
S'None'
p3541
asbasbasbag61
(g77
g63
NtRp3542
(dp3543
g66
(dp3544
sg75
g3474
sg68
(lp3545
g61
(g82
g63
NtRp3546
(dp3547
g66
(dp3548
g86
g87
ssg75
g3542
sg68
(lp3549
S'last_time'
p3550
asbag61
(g82
g63
NtRp3551
(dp3552
g66
(dp3553
g93
g94
ssg75
g3542
sg68
(lp3554
S':'
asbag61
(g82
g63
NtRp3555
(dp3556
g66
(dp3557
sg75
g3542
sg68
(lp3558
g61
(g62
g63
NtRp3559
(dp3560
g66
(dp3561
g74
I5
ssg75
g3555
sg68
(lp3562
S'1352879900.223602'
p3563
asbasbasbag61
(g77
g63
NtRp3564
(dp3565
g66
(dp3566
sg75
g3474
sg68
(lp3567
g61
(g82
g63
NtRp3568
(dp3569
g66
(dp3570
g86
g87
ssg75
g3564
sg68
(lp3571
S'pam_user'
p3572
asbag61
(g82
g63
NtRp3573
(dp3574
g66
(dp3575
g93
g94
ssg75
g3564
sg68
(lp3576
S':'
asbag61
(g82
g63
NtRp3577
(dp3578
g66
(dp3579
sg75
g3564
sg68
(lp3580
g61
(g62
g63
NtRp3581
(dp3582
g66
(dp3583
g74
I5
ssg75
g3577
sg68
(lp3584
S'None'
p3585
asbasbasbag61
(g77
g63
NtRp3586
(dp3587
g66
(dp3588
sg75
g3474
sg68
(lp3589
g61
(g82
g63
NtRp3590
(dp3591
g66
(dp3592
g86
g87
ssg75
g3586
sg68
(lp3593
S'token'
p3594
asbag61
(g82
g63
NtRp3595
(dp3596
g66
(dp3597
g93
g94
ssg75
g3586
sg68
(lp3598
S':'
asbag61
(g82
g63
NtRp3599
(dp3600
g66
(dp3601
sg75
g3586
sg68
(lp3602
g61
(g62
g63
NtRp3603
(dp3604
g66
(dp3605
g74
I5
ssg75
g3599
sg68
(lp3606
S'e3d09533-0619-443f-81fd-cad6fc3d4af4'
p3607
asbasbasbasbasbsS'etype'
p3608
S"<class 'git.errors.InvalidGitRepositoryError'>"
p3609
sS'date'
p3610
S'Wed Nov 14 13:28:20 2012'
p3611
sS'response'
p3612
g61
(g62
g63
NtRp3613
(dp3614
g66
(dp3615
sg68
(lp3616
g61
(g70
g63
NtRp3617
(dp3618
g66
(dp3619
g74
I5
ssg75
Nsg68
(lp3620
g61
(g77
g63
NtRp3621
(dp3622
g66
(dp3623
sg75
g3617
sg68
(lp3624
g61
(g82
g63
NtRp3625
(dp3626
g66
(dp3627
g86
g87
ssg75
g3621
sg68
(lp3628
g159
asbag61
(g82
g63
NtRp3629
(dp3630
g66
(dp3631
g93
g94
ssg75
g3621
sg68
(lp3632
S':'
asbag61
(g82
g63
NtRp3633
(dp3634
g66
(dp3635
sg75
g3621
sg68
(lp3636
g61
(g62
g63
NtRp3637
(dp3638
g66
(dp3639
g74
I5
ssg75
g3633
sg68
(lp3640
S'<cStringIO.StringO object at 0x7f05d83a7618>'
p3641
asbasbasbag61
(g77
g63
NtRp3642
(dp3643
g66
(dp3644
sg75
g3617
sg68
(lp3645
g61
(g82
g63
NtRp3646
(dp3647
g66
(dp3648
g86
g87
ssg75
g3642
sg68
(lp3649
g247
asbag61
(g82
g63
NtRp3650
(dp3651
g66
(dp3652
g93
g94
ssg75
g3642
sg68
(lp3653
S':'
asbag61
(g82
g63
NtRp3654
(dp3655
g66
(dp3656
sg75
g3642
sg68
(lp3657
g61
(g62
g63
NtRp3658
(dp3659
g66
(dp3660
g74
I5
ssg75
g3654
sg68
(lp3661
g61
(g70
g63
NtRp3662
(dp3663
g66
(dp3664
g74
I4
ssg75
Nsg68
(lp3665
g61
(g77
g63
NtRp3666
(dp3667
g66
(dp3668
sg75
g3662
sg68
(lp3669
g61
(g82
g63
NtRp3670
(dp3671
g66
(dp3672
g86
g87
ssg75
g3666
sg68
(lp3673
S'session_id_admin'
p3674
asbag61
(g82
g63
NtRp3675
(dp3676
g66
(dp3677
g93
g94
ssg75
g3666
sg68
(lp3678
S':'
asbag61
(g82
g63
NtRp3679
(dp3680
g66
(dp3681
sg75
g3666
sg68
(lp3682
g61
(g62
g63
NtRp3683
(dp3684
g66
(dp3685
g74
I4
ssg75
g3679
sg68
(lp3686
g479
ag61
(g70
g63
NtRp3687
(dp3688
g66
(dp3689
g74
I3
ssg75
Nsg68
(lp3690
g61
(g77
g63
NtRp3691
(dp3692
g66
(dp3693
sg75
g3687
sg68
(lp3694
g61
(g82
g63
NtRp3695
(dp3696
g66
(dp3697
g86
g87
ssg75
g3691
sg68
(lp3698
g298
asbag61
(g82
g63
NtRp3699
(dp3700
g66
(dp3701
g93
g94
ssg75
g3691
sg68
(lp3702
S':'
asbag61
(g82
g63
NtRp3703
(dp3704
g66
(dp3705
sg75
g3691
sg68
(lp3706
g61
(g62
g63
NtRp3707
(dp3708
g66
(dp3709
g74
I3
ssg75
g3703
sg68
(lp3710
S''
asbasbasbag61
(g77
g63
NtRp3711
(dp3712
g66
(dp3713
sg75
g3687
sg68
(lp3714
g61
(g82
g63
NtRp3715
(dp3716
g66
(dp3717
g86
g87
ssg75
g3711
sg68
(lp3718
g319
asbag61
(g82
g63
NtRp3719
(dp3720
g66
(dp3721
g93
g94
ssg75
g3711
sg68
(lp3722
S':'
asbag61
(g82
g63
NtRp3723
(dp3724
g66
(dp3725
sg75
g3711
sg68
(lp3726
g61
(g62
g63
NtRp3727
(dp3728
g66
(dp3729
g74
I3
ssg75
g3723
sg68
(lp3730
S''
asbasbasbag61
(g77
g63
NtRp3731
(dp3732
g66
(dp3733
sg75
g3687
sg68
(lp3734
g61
(g82
g63
NtRp3735
(dp3736
g66
(dp3737
g86
g87
ssg75
g3731
sg68
(lp3738
g340
asbag61
(g82
g63
NtRp3739
(dp3740
g66
(dp3741
g93
g94
ssg75
g3731
sg68
(lp3742
S':'
asbag61
(g82
g63
NtRp3743
(dp3744
g66
(dp3745
sg75
g3731
sg68
(lp3746
g61
(g62
g63
NtRp3747
(dp3748
g66
(dp3749
g74
I3
ssg75
g3743
sg68
(lp3750
S''
asbasbasbag61
(g77
g63
NtRp3751
(dp3752
g66
(dp3753
sg75
g3687
sg68
(lp3754
g61
(g82
g63
NtRp3755
(dp3756
g66
(dp3757
g86
g87
ssg75
g3751
sg68
(lp3758
g361
asbag61
(g82
g63
NtRp3759
(dp3760
g66
(dp3761
g93
g94
ssg75
g3751
sg68
(lp3762
S':'
asbag61
(g82
g63
NtRp3763
(dp3764
g66
(dp3765
sg75
g3751
sg68
(lp3766
g61
(g62
g63
NtRp3767
(dp3768
g66
(dp3769
g74
I3
ssg75
g3763
sg68
(lp3770
S''
asbasbasbag61
(g77
g63
NtRp3771
(dp3772
g66
(dp3773
sg75
g3687
sg68
(lp3774
g61
(g82
g63
NtRp3775
(dp3776
g66
(dp3777
g86
g87
ssg75
g3771
sg68
(lp3778
g382
asbag61
(g82
g63
NtRp3779
(dp3780
g66
(dp3781
g93
g94
ssg75
g3771
sg68
(lp3782
S':'
asbag61
(g82
g63
NtRp3783
(dp3784
g66
(dp3785
sg75
g3771
sg68
(lp3786
g61
(g62
g63
NtRp3787
(dp3788
g66
(dp3789
g74
I3
ssg75
g3783
sg68
(lp3790
S''
asbasbasbag61
(g77
g63
NtRp3791
(dp3792
g66
(dp3793
sg75
g3687
sg68
(lp3794
g61
(g82
g63
NtRp3795
(dp3796
g66
(dp3797
g86
g87
ssg75
g3791
sg68
(lp3798
g403
asbag61
(g82
g63
NtRp3799
(dp3800
g66
(dp3801
g93
g94
ssg75
g3791
sg68
(lp3802
S':'
asbag61
(g82
g63
NtRp3803
(dp3804
g66
(dp3805
sg75
g3791
sg68
(lp3806
g61
(g62
g63
NtRp3807
(dp3808
g66
(dp3809
g74
I3
ssg75
g3803
sg68
(lp3810
S'/'
asbasbasbag61
(g77
g63
NtRp3811
(dp3812
g66
(dp3813
sg75
g3687
sg68
(lp3814
g61
(g82
g63
NtRp3815
(dp3816
g66
(dp3817
g86
g87
ssg75
g3811
sg68
(lp3818
g424
asbag61
(g82
g63
NtRp3819
(dp3820
g66
(dp3821
g93
g94
ssg75
g3811
sg68
(lp3822
S':'
asbag61
(g82
g63
NtRp3823
(dp3824
g66
(dp3825
sg75
g3811
sg68
(lp3826
g61
(g62
g63
NtRp3827
(dp3828
g66
(dp3829
g74
I3
ssg75
g3823
sg68
(lp3830
S''
asbasbasbag61
(g77
g63
NtRp3831
(dp3832
g66
(dp3833
sg75
g3687
sg68
(lp3834
g61
(g82
g63
NtRp3835
(dp3836
g66
(dp3837
g86
g87
ssg75
g3831
sg68
(lp3838
g445
asbag61
(g82
g63
NtRp3839
(dp3840
g66
(dp3841
g93
g94
ssg75
g3831
sg68
(lp3842
S':'
asbag61
(g82
g63
NtRp3843
(dp3844
g66
(dp3845
sg75
g3831
sg68
(lp3846
g61
(g62
g63
NtRp3847
(dp3848
g66
(dp3849
g74
I3
ssg75
g3843
sg68
(lp3850
S''
asbasbasbasbasbasbasbasbasbasbasbag61
(g77
g63
NtRp3851
(dp3852
g66
(dp3853
sg75
g3617
sg68
(lp3854
g61
(g82
g63
NtRp3855
(dp3856
g66
(dp3857
g86
g87
ssg75
g3851
sg68
(lp3858
S'delimiters'
p3859
asbag61
(g82
g63
NtRp3860
(dp3861
g66
(dp3862
g93
g94
ssg75
g3851
sg68
(lp3863
S':'
asbag61
(g82
g63
NtRp3864
(dp3865
g66
(dp3866
sg75
g3851
sg68
(lp3867
g61
(g62
g63
NtRp3868
(dp3869
g66
(dp3870
g74
I5
ssg75
g3864
sg68
(lp3871
g61
(g70
g63
NtRp3872
(dp3873
g66
(dp3874
g74
I4
ssg75
Nsg68
(lp3875
g61
(g77
g63
NtRp3876
(dp3877
g66
(dp3878
sg75
g3872
sg68
(lp3879
g61
(g82
g63
NtRp3880
(dp3881
g66
(dp3882
sg75
g3876
sg68
(lp3883
g61
(g62
g63
NtRp3884
(dp3885
g66
(dp3886
g74
I4
ssg75
g3880
sg68
(lp3887
S'{{'
p3888
asbasbasbag61
(g77
g63
NtRp3889
(dp3890
g66
(dp3891
sg75
g3872
sg68
(lp3892
g61
(g82
g63
NtRp3893
(dp3894
g66
(dp3895
sg75
g3889
sg68
(lp3896
g61
(g62
g63
NtRp3897
(dp3898
g66
(dp3899
g74
I4
ssg75
g3893
sg68
(lp3900
S'}}'
p3901
asbasbasbasbasbasbasbag61
(g77
g63
NtRp3902
(dp3903
g66
(dp3904
sg75
g3617
sg68
(lp3905
g61
(g82
g63
NtRp3906
(dp3907
g66
(dp3908
g86
g87
ssg75
g3902
sg68
(lp3909
S'files'
p3910
asbag61
(g82
g63
NtRp3911
(dp3912
g66
(dp3913
g93
g94
ssg75
g3902
sg68
(lp3914
S':'
asbag61
(g82
g63
NtRp3915
(dp3916
g66
(dp3917
sg75
g3902
sg68
(lp3918
g61
(g62
g63
NtRp3919
(dp3920
g66
(dp3921
g74
I5
ssg75
g3915
sg68
(lp3922
g61
(g70
g63
NtRp3923
(dp3924
g66
(dp3925
g74
I4
ssg75
Nsg68
(lp3926
g61
(g77
g63
NtRp3927
(dp3928
g66
(dp3929
sg75
g3923
sg68
(lp3930
g61
(g82
g63
NtRp3931
(dp3932
g66
(dp3933
sg75
g3927
sg68
(lp3934
g61
(g62
g63
NtRp3935
(dp3936
g66
(dp3937
g74
I4
ssg75
g3931
sg68
(lp3938
S'/admin/static/plugin_multiselect/jquery.dimensions.js'
p3939
asbasbasbag61
(g77
g63
NtRp3940
(dp3941
g66
(dp3942
sg75
g3923
sg68
(lp3943
g61
(g82
g63
NtRp3944
(dp3945
g66
(dp3946
sg75
g3940
sg68
(lp3947
g61
(g62
g63
NtRp3948
(dp3949
g66
(dp3950
g74
I4
ssg75
g3944
sg68
(lp3951
S'/admin/static/plugin_multiselect/jquery.multiselect.js'
p3952
asbasbasbag61
(g77
g63
NtRp3953
(dp3954
g66
(dp3955
sg75
g3923
sg68
(lp3956
g61
(g82
g63
NtRp3957
(dp3958
g66
(dp3959
sg75
g3953
sg68
(lp3960
g61
(g62
g63
NtRp3961
(dp3962
g66
(dp3963
g74
I4
ssg75
g3957
sg68
(lp3964
S'/admin/static/plugin_multiselect/jquery.multiselect.css'
p3965
asbasbasbag61
(g77
g63
NtRp3966
(dp3967
g66
(dp3968
sg75
g3923
sg68
(lp3969
g61
(g82
g63
NtRp3970
(dp3971
g66
(dp3972
sg75
g3966
sg68
(lp3973
g61
(g62
g63
NtRp3974
(dp3975
g66
(dp3976
g74
I4
ssg75
g3970
sg68
(lp3977
S'/admin/static/plugin_multiselect/start.js'
p3978
asbasbasbasbasbasbasbag61
(g77
g63
NtRp3979
(dp3980
g66
(dp3981
sg75
g3617
sg68
(lp3982
g61
(g82
g63
NtRp3983
(dp3984
g66
(dp3985
g86
g87
ssg75
g3979
sg68
(lp3986
S'flash'
p3987
asbag61
(g82
g63
NtRp3988
(dp3989
g66
(dp3990
g93
g94
ssg75
g3979
sg68
(lp3991
S':'
asbag61
(g82
g63
NtRp3992
(dp3993
g66
(dp3994
sg75
g3979
sg68
(lp3995
g61
(g62
g63
NtRp3996
(dp3997
g66
(dp3998
g74
I5
ssg75
g3992
sg68
(lp3999
S''
asbasbasbag61
(g77
g63
NtRp4000
(dp4001
g66
(dp4002
sg75
g3617
sg68
(lp4003
g61
(g82
g63
NtRp4004
(dp4005
g66
(dp4006
g86
g87
ssg75
g4000
sg68
(lp4007
S'generic_patterns'
p4008
asbag61
(g82
g63
NtRp4009
(dp4010
g66
(dp4011
g93
g94
ssg75
g4000
sg68
(lp4012
S':'
asbag61
(g82
g63
NtRp4013
(dp4014
g66
(dp4015
sg75
g4000
sg68
(lp4016
g61
(g62
g63
NtRp4017
(dp4018
g66
(dp4019
g74
I5
ssg75
g4013
sg68
(lp4020
g61
(g70
g63
NtRp4021
(dp4022
g66
(dp4023
g74
I4
ssg75
Nsg68
(lp4024
sbasbasbasbag61
(g77
g63
NtRp4025
(dp4026
g66
(dp4027
sg75
g3617
sg68
(lp4028
g61
(g82
g63
NtRp4029
(dp4030
g66
(dp4031
g86
g87
ssg75
g4025
sg68
(lp4032
S'headers'
p4033
asbag61
(g82
g63
NtRp4034
(dp4035
g66
(dp4036
g93
g94
ssg75
g4025
sg68
(lp4037
S':'
asbag61
(g82
g63
NtRp4038
(dp4039
g66
(dp4040
sg75
g4025
sg68
(lp4041
g61
(g62
g63
NtRp4042
(dp4043
g66
(dp4044
g74
I5
ssg75
g4038
sg68
(lp4045
g61
(g70
g63
NtRp4046
(dp4047
g66
(dp4048
g74
I4
ssg75
Nsg68
(lp4049
g61
(g77
g63
NtRp4050
(dp4051
g66
(dp4052
sg75
g4046
sg68
(lp4053
g61
(g82
g63
NtRp4054
(dp4055
g66
(dp4056
g86
g87
ssg75
g4050
sg68
(lp4057
S'Cache-Control'
p4058
asbag61
(g82
g63
NtRp4059
(dp4060
g66
(dp4061
g93
g94
ssg75
g4050
sg68
(lp4062
S':'
asbag61
(g82
g63
NtRp4063
(dp4064
g66
(dp4065
sg75
g4050
sg68
(lp4066
g61
(g62
g63
NtRp4067
(dp4068
g66
(dp4069
g74
I4
ssg75
g4063
sg68
(lp4070
S'no-store, no-cache, must-revalidate, post-check=0, pre-check=0'
p4071
asbasbasbag61
(g77
g63
NtRp4072
(dp4073
g66
(dp4074
sg75
g4046
sg68
(lp4075
g61
(g82
g63
NtRp4076
(dp4077
g66
(dp4078
g86
g87
ssg75
g4072
sg68
(lp4079
S'Content-Type'
p4080
asbag61
(g82
g63
NtRp4081
(dp4082
g66
(dp4083
g93
g94
ssg75
g4072
sg68
(lp4084
S':'
asbag61
(g82
g63
NtRp4085
(dp4086
g66
(dp4087
sg75
g4072
sg68
(lp4088
g61
(g62
g63
NtRp4089
(dp4090
g66
(dp4091
g74
I4
ssg75
g4085
sg68
(lp4092
S'text/html; charset=utf-8'
p4093
asbasbasbag61
(g77
g63
NtRp4094
(dp4095
g66
(dp4096
sg75
g4046
sg68
(lp4097
g61
(g82
g63
NtRp4098
(dp4099
g66
(dp4100
g86
g87
ssg75
g4094
sg68
(lp4101
S'Expires'
p4102
asbag61
(g82
g63
NtRp4103
(dp4104
g66
(dp4105
g93
g94
ssg75
g4094
sg68
(lp4106
S':'
asbag61
(g82
g63
NtRp4107
(dp4108
g66
(dp4109
sg75
g4094
sg68
(lp4110
g61
(g62
g63
NtRp4111
(dp4112
g66
(dp4113
g74
I4
ssg75
g4107
sg68
(lp4114
S'Wed, 14 Nov 2012 07:58:20 GMT'
p4115
asbasbasbag61
(g77
g63
NtRp4116
(dp4117
g66
(dp4118
sg75
g4046
sg68
(lp4119
g61
(g82
g63
NtRp4120
(dp4121
g66
(dp4122
g86
g87
ssg75
g4116
sg68
(lp4123
S'Pragma'
p4124
asbag61
(g82
g63
NtRp4125
(dp4126
g66
(dp4127
g93
g94
ssg75
g4116
sg68
(lp4128
S':'
asbag61
(g82
g63
NtRp4129
(dp4130
g66
(dp4131
sg75
g4116
sg68
(lp4132
g61
(g62
g63
NtRp4133
(dp4134
g66
(dp4135
g74
I4
ssg75
g4129
sg68
(lp4136
S'no-cache'
p4137
asbasbasbag61
(g77
g63
NtRp4138
(dp4139
g66
(dp4140
sg75
g4046
sg68
(lp4141
g61
(g82
g63
NtRp4142
(dp4143
g66
(dp4144
g86
g87
ssg75
g4138
sg68
(lp4145
S'X-Powered-By'
p4146
asbag61
(g82
g63
NtRp4147
(dp4148
g66
(dp4149
g93
g94
ssg75
g4138
sg68
(lp4150
S':'
asbag61
(g82
g63
NtRp4151
(dp4152
g66
(dp4153
sg75
g4138
sg68
(lp4154
g61
(g62
g63
NtRp4155
(dp4156
g66
(dp4157
g74
I4
ssg75
g4151
sg68
(lp4158
S'web2py'
p4159
asbasbasbasbasbasbasbag61
(g77
g63
NtRp4160
(dp4161
g66
(dp4162
sg75
g3617
sg68
(lp4163
g61
(g82
g63
NtRp4164
(dp4165
g66
(dp4166
g86
g87
ssg75
g4160
sg68
(lp4167
S'menu'
p4168
asbag61
(g82
g63
NtRp4169
(dp4170
g66
(dp4171
g93
g94
ssg75
g4160
sg68
(lp4172
S':'
asbag61
(g82
g63
NtRp4173
(dp4174
g66
(dp4175
sg75
g4160
sg68
(lp4176
g61
(g62
g63
NtRp4177
(dp4178
g66
(dp4179
g74
I5
ssg75
g4173
sg68
(lp4180
g61
(g70
g63
NtRp4181
(dp4182
g66
(dp4183
g74
I4
ssg75
Nsg68
(lp4184
g61
(g77
g63
NtRp4185
(dp4186
g66
(dp4187
sg75
g4181
sg68
(lp4188
g61
(g82
g63
NtRp4189
(dp4190
g66
(dp4191
sg75
g4185
sg68
(lp4192
g61
(g62
g63
NtRp4193
(dp4194
g66
(dp4195
g74
I4
ssg75
g4189
sg68
(lp4196
g61
(g70
g63
NtRp4197
(dp4198
g66
(dp4199
g74
I3
ssg75
Nsg68
(lp4200
g61
(g77
g63
NtRp4201
(dp4202
g66
(dp4203
sg75
g4197
sg68
(lp4204
g61
(g82
g63
NtRp4205
(dp4206
g66
(dp4207
sg75
g4201
sg68
(lp4208
g61
(g62
g63
NtRp4209
(dp4210
g66
(dp4211
g74
I3
ssg75
g4205
sg68
(lp4212
cgluon.languages
lazyT_unpickle
p4213
(S's\x04\x00\x00\x00Site'
tRp4214
asbasbasbag61
(g77
g63
NtRp4215
(dp4216
g66
(dp4217
sg75
g4197
sg68
(lp4218
g61
(g82
g63
NtRp4219
(dp4220
g66
(dp4221
sg75
g4215
sg68
(lp4222
g61
(g62
g63
NtRp4223
(dp4224
g66
(dp4225
g74
I3
ssg75
g4219
sg68
(lp4226
g104
asbasbasbag61
(g77
g63
NtRp4227
(dp4228
g66
(dp4229
sg75
g4197
sg68
(lp4230
g61
(g82
g63
NtRp4231
(dp4232
g66
(dp4233
sg75
g4227
sg68
(lp4234
g61
(g62
g63
NtRp4235
(dp4236
g66
(dp4237
g74
I3
ssg75
g4231
sg68
(lp4238
S'/admin/default/site'
p4239
asbasbasbasbasbasbasbag61
(g77
g63
NtRp4240
(dp4241
g66
(dp4242
sg75
g4181
sg68
(lp4243
g61
(g82
g63
NtRp4244
(dp4245
g66
(dp4246
sg75
g4240
sg68
(lp4247
g61
(g62
g63
NtRp4248
(dp4249
g66
(dp4250
g74
I4
ssg75
g4244
sg68
(lp4251
g61
(g70
g63
NtRp4252
(dp4253
g66
(dp4254
g74
I3
ssg75
Nsg68
(lp4255
g61
(g77
g63
NtRp4256
(dp4257
g66
(dp4258
sg75
g4252
sg68
(lp4259
g61
(g82
g63
NtRp4260
(dp4261
g66
(dp4262
sg75
g4256
sg68
(lp4263
g61
(g62
g63
NtRp4264
(dp4265
g66
(dp4266
g74
I3
ssg75
g4260
sg68
(lp4267
g4213
(S's\x06\x00\x00\x00Logout'
tRp4268
asbasbasbag61
(g77
g63
NtRp4269
(dp4270
g66
(dp4271
sg75
g4252
sg68
(lp4272
g61
(g82
g63
NtRp4273
(dp4274
g66
(dp4275
sg75
g4269
sg68
(lp4276
g61
(g62
g63
NtRp4277
(dp4278
g66
(dp4279
g74
I3
ssg75
g4273
sg68
(lp4280
g104
asbasbasbag61
(g77
g63
NtRp4281
(dp4282
g66
(dp4283
sg75
g4252
sg68
(lp4284
g61
(g82
g63
NtRp4285
(dp4286
g66
(dp4287
sg75
g4281
sg68
(lp4288
g61
(g62
g63
NtRp4289
(dp4290
g66
(dp4291
g74
I3
ssg75
g4285
sg68
(lp4292
S'/admin/default/logout'
p4293
asbasbasbasbasbasbasbag61
(g77
g63
NtRp4294
(dp4295
g66
(dp4296
sg75
g4181
sg68
(lp4297
g61
(g82
g63
NtRp4298
(dp4299
g66
(dp4300
sg75
g4294
sg68
(lp4301
g61
(g62
g63
NtRp4302
(dp4303
g66
(dp4304
g74
I4
ssg75
g4298
sg68
(lp4305
g61
(g70
g63
NtRp4306
(dp4307
g66
(dp4308
g74
I3
ssg75
Nsg68
(lp4309
g61
(g77
g63
NtRp4310
(dp4311
g66
(dp4312
sg75
g4306
sg68
(lp4313
g61
(g82
g63
NtRp4314
(dp4315
g66
(dp4316
sg75
g4310
sg68
(lp4317
g61
(g62
g63
NtRp4318
(dp4319
g66
(dp4320
g74
I3
ssg75
g4314
sg68
(lp4321
g4213
(S's\x05\x00\x00\x00Debug'
tRp4322
asbasbasbag61
(g77
g63
NtRp4323
(dp4324
g66
(dp4325
sg75
g4306
sg68
(lp4326
g61
(g82
g63
NtRp4327
(dp4328
g66
(dp4329
sg75
g4323
sg68
(lp4330
g61
(g62
g63
NtRp4331
(dp4332
g66
(dp4333
g74
I3
ssg75
g4327
sg68
(lp4334
g104
asbasbasbag61
(g77
g63
NtRp4335
(dp4336
g66
(dp4337
sg75
g4306
sg68
(lp4338
g61
(g82
g63
NtRp4339
(dp4340
g66
(dp4341
sg75
g4335
sg68
(lp4342
g61
(g62
g63
NtRp4343
(dp4344
g66
(dp4345
g74
I3
ssg75
g4339
sg68
(lp4346
S'/admin/debug/interact'
p4347
asbasbasbasbasbasbasbag61
(g77
g63
NtRp4348
(dp4349
g66
(dp4350
sg75
g4181
sg68
(lp4351
g61
(g82
g63
NtRp4352
(dp4353
g66
(dp4354
sg75
g4348
sg68
(lp4355
g61
(g62
g63
NtRp4356
(dp4357
g66
(dp4358
g74
I4
ssg75
g4352
sg68
(lp4359
g61
(g70
g63
NtRp4360
(dp4361
g66
(dp4362
g74
I3
ssg75
Nsg68
(lp4363
g61
(g77
g63
NtRp4364
(dp4365
g66
(dp4366
sg75
g4360
sg68
(lp4367
g61
(g82
g63
NtRp4368
(dp4369
g66
(dp4370
sg75
g4364
sg68
(lp4371
g61
(g62
g63
NtRp4372
(dp4373
g66
(dp4374
g74
I3
ssg75
g4368
sg68
(lp4375
g4213
(S's\x04\x00\x00\x00Help'
tRp4376
asbasbasbag61
(g77
g63
NtRp4377
(dp4378
g66
(dp4379
sg75
g4360
sg68
(lp4380
g61
(g82
g63
NtRp4381
(dp4382
g66
(dp4383
sg75
g4377
sg68
(lp4384
g61
(g62
g63
NtRp4385
(dp4386
g66
(dp4387
g74
I3
ssg75
g4381
sg68
(lp4388
g104
asbasbasbag61
(g77
g63
NtRp4389
(dp4390
g66
(dp4391
sg75
g4360
sg68
(lp4392
g61
(g82
g63
NtRp4393
(dp4394
g66
(dp4395
sg75
g4389
sg68
(lp4396
g61
(g62
g63
NtRp4397
(dp4398
g66
(dp4399
g74
I3
ssg75
g4393
sg68
(lp4400
S'/examples/default/index'
p4401
asbasbasbasbasbasbasbasbasbasbasbag61
(g77
g63
NtRp4402
(dp4403
g66
(dp4404
sg75
g3617
sg68
(lp4405
g61
(g82
g63
NtRp4406
(dp4407
g66
(dp4408
g86
g87
ssg75
g4402
sg68
(lp4409
S'meta'
p4410
asbag61
(g82
g63
NtRp4411
(dp4412
g66
(dp4413
g93
g94
ssg75
g4402
sg68
(lp4414
S':'
asbag61
(g82
g63
NtRp4415
(dp4416
g66
(dp4417
sg75
g4402
sg68
(lp4418
g61
(g62
g63
NtRp4419
(dp4420
g66
(dp4421
g74
I5
ssg75
g4415
sg68
(lp4422
g61
(g70
g63
NtRp4423
(dp4424
g66
(dp4425
g74
I4
ssg75
Nsg68
(lp4426
sbasbasbasbag61
(g77
g63
NtRp4427
(dp4428
g66
(dp4429
sg75
g3617
sg68
(lp4430
g61
(g82
g63
NtRp4431
(dp4432
g66
(dp4433
g86
g87
ssg75
g4427
sg68
(lp4434
S'models_to_run'
p4435
asbag61
(g82
g63
NtRp4436
(dp4437
g66
(dp4438
g93
g94
ssg75
g4427
sg68
(lp4439
S':'
asbag61
(g82
g63
NtRp4440
(dp4441
g66
(dp4442
sg75
g4427
sg68
(lp4443
g61
(g62
g63
NtRp4444
(dp4445
g66
(dp4446
g74
I5
ssg75
g4440
sg68
(lp4447
g61
(g70
g63
NtRp4448
(dp4449
g66
(dp4450
g74
I4
ssg75
Nsg68
(lp4451
g61
(g77
g63
NtRp4452
(dp4453
g66
(dp4454
sg75
g4448
sg68
(lp4455
g61
(g82
g63
NtRp4456
(dp4457
g66
(dp4458
sg75
g4452
sg68
(lp4459
g61
(g62
g63
NtRp4460
(dp4461
g66
(dp4462
g74
I4
ssg75
g4456
sg68
(lp4463
S'^\\w+\\.py$'
p4464
asbasbasbag61
(g77
g63
NtRp4465
(dp4466
g66
(dp4467
sg75
g4448
sg68
(lp4468
g61
(g82
g63
NtRp4469
(dp4470
g66
(dp4471
sg75
g4465
sg68
(lp4472
g61
(g62
g63
NtRp4473
(dp4474
g66
(dp4475
g74
I4
ssg75
g4469
sg68
(lp4476
S'^openshift/\\w+\\.py$'
p4477
asbasbasbag61
(g77
g63
NtRp4478
(dp4479
g66
(dp4480
sg75
g4448
sg68
(lp4481
g61
(g82
g63
NtRp4482
(dp4483
g66
(dp4484
sg75
g4478
sg68
(lp4485
g61
(g62
g63
NtRp4486
(dp4487
g66
(dp4488
g74
I4
ssg75
g4482
sg68
(lp4489
S'^openshift/deploy/\\w+\\.py$'
p4490
asbasbasbasbasbasbasbag61
(g77
g63
NtRp4491
(dp4492
g66
(dp4493
sg75
g3617
sg68
(lp4494
g61
(g82
g63
NtRp4495
(dp4496
g66
(dp4497
g86
g87
ssg75
g4491
sg68
(lp4498
S'postprocessing'
p4499
asbag61
(g82
g63
NtRp4500
(dp4501
g66
(dp4502
g93
g94
ssg75
g4491
sg68
(lp4503
S':'
asbag61
(g82
g63
NtRp4504
(dp4505
g66
(dp4506
sg75
g4491
sg68
(lp4507
g61
(g62
g63
NtRp4508
(dp4509
g66
(dp4510
g74
I5
ssg75
g4504
sg68
(lp4511
g61
(g70
g63
NtRp4512
(dp4513
g66
(dp4514
g74
I4
ssg75
Nsg68
(lp4515
sbasbasbasbag61
(g77
g63
NtRp4516
(dp4517
g66
(dp4518
sg75
g3617
sg68
(lp4519
g61
(g82
g63
NtRp4520
(dp4521
g66
(dp4522
g86
g87
ssg75
g4516
sg68
(lp4523
S'session_file'
p4524
asbag61
(g82
g63
NtRp4525
(dp4526
g66
(dp4527
g93
g94
ssg75
g4516
sg68
(lp4528
S':'
asbag61
(g82
g63
NtRp4529
(dp4530
g66
(dp4531
sg75
g4516
sg68
(lp4532
g61
(g62
g63
NtRp4533
(dp4534
g66
(dp4535
g74
I5
ssg75
g4529
sg68
(lp4536
S"<open file '/home/mayank/IIIT/sem 3/SSAD&Project/web2py/applications/admin/sessions/127.0.0.1-594402c1-c0c9-4fde-9994-1ceb12564fea', mode 'rb+' at 0x7f05d4336c90>"
p4537
asbasbasbag61
(g77
g63
NtRp4538
(dp4539
g66
(dp4540
sg75
g3617
sg68
(lp4541
g61
(g82
g63
NtRp4542
(dp4543
g66
(dp4544
g86
g87
ssg75
g4538
sg68
(lp4545
S'session_filename'
p4546
asbag61
(g82
g63
NtRp4547
(dp4548
g66
(dp4549
g93
g94
ssg75
g4538
sg68
(lp4550
S':'
asbag61
(g82
g63
NtRp4551
(dp4552
g66
(dp4553
sg75
g4538
sg68
(lp4554
g61
(g62
g63
NtRp4555
(dp4556
g66
(dp4557
g74
I5
ssg75
g4551
sg68
(lp4558
S'/home/mayank/IIIT/sem 3/SSAD&Project/web2py/applications/admin/sessions/127.0.0.1-594402c1-c0c9-4fde-9994-1ceb12564fea'
p4559
asbasbasbag61
(g77
g63
NtRp4560
(dp4561
g66
(dp4562
sg75
g3617
sg68
(lp4563
g61
(g82
g63
NtRp4564
(dp4565
g66
(dp4566
g86
g87
ssg75
g4560
sg68
(lp4567
S'session_id'
p4568
asbag61
(g82
g63
NtRp4569
(dp4570
g66
(dp4571
g93
g94
ssg75
g4560
sg68
(lp4572
S':'
asbag61
(g82
g63
NtRp4573
(dp4574
g66
(dp4575
sg75
g4560
sg68
(lp4576
g61
(g62
g63
NtRp4577
(dp4578
g66
(dp4579
g74
I5
ssg75
g4573
sg68
(lp4580
g479
asbasbasbag61
(g77
g63
NtRp4581
(dp4582
g66
(dp4583
sg75
g3617
sg68
(lp4584
g61
(g82
g63
NtRp4585
(dp4586
g66
(dp4587
g86
g87
ssg75
g4581
sg68
(lp4588
S'session_id_name'
p4589
asbag61
(g82
g63
NtRp4590
(dp4591
g66
(dp4592
g93
g94
ssg75
g4581
sg68
(lp4593
S':'
asbag61
(g82
g63
NtRp4594
(dp4595
g66
(dp4596
sg75
g4581
sg68
(lp4597
g61
(g62
g63
NtRp4598
(dp4599
g66
(dp4600
g74
I5
ssg75
g4594
sg68
(lp4601
g3674
asbasbasbag61
(g77
g63
NtRp4602
(dp4603
g66
(dp4604
sg75
g3617
sg68
(lp4605
g61
(g82
g63
NtRp4606
(dp4607
g66
(dp4608
g86
g87
ssg75
g4602
sg68
(lp4609
S'session_locked'
p4610
asbag61
(g82
g63
NtRp4611
(dp4612
g66
(dp4613
g93
g94
ssg75
g4602
sg68
(lp4614
S':'
asbag61
(g82
g63
NtRp4615
(dp4616
g66
(dp4617
sg75
g4602
sg68
(lp4618
g61
(g62
g63
NtRp4619
(dp4620
g66
(dp4621
g74
I5
ssg75
g4615
sg68
(lp4622
g1791
asbasbasbag61
(g77
g63
NtRp4623
(dp4624
g66
(dp4625
sg75
g3617
sg68
(lp4626
g61
(g82
g63
NtRp4627
(dp4628
g66
(dp4629
g86
g87
ssg75
g4623
sg68
(lp4630
S'session_new'
p4631
asbag61
(g82
g63
NtRp4632
(dp4633
g66
(dp4634
g93
g94
ssg75
g4623
sg68
(lp4635
S':'
asbag61
(g82
g63
NtRp4636
(dp4637
g66
(dp4638
sg75
g4623
sg68
(lp4639
g61
(g62
g63
NtRp4640
(dp4641
g66
(dp4642
g74
I5
ssg75
g4636
sg68
(lp4643
g104
asbasbasbag61
(g77
g63
NtRp4644
(dp4645
g66
(dp4646
sg75
g3617
sg68
(lp4647
g61
(g82
g63
NtRp4648
(dp4649
g66
(dp4650
g86
g87
ssg75
g4644
sg68
(lp4651
S'status'
p4652
asbag61
(g82
g63
NtRp4653
(dp4654
g66
(dp4655
g93
g94
ssg75
g4644
sg68
(lp4656
S':'
asbag61
(g82
g63
NtRp4657
(dp4658
g66
(dp4659
sg75
g4644
sg68
(lp4660
g61
(g62
g63
NtRp4661
(dp4662
g66
(dp4663
g74
I5
ssg75
g4657
sg68
(lp4664
S'200'
p4665
asbasbasbag61
(g77
g63
NtRp4666
(dp4667
g66
(dp4668
sg75
g3617
sg68
(lp4669
g61
(g82
g63
NtRp4670
(dp4671
g66
(dp4672
g86
g87
ssg75
g4666
sg68
(lp4673
S'subtitle'
p4674
asbag61
(g82
g63
NtRp4675
(dp4676
g66
(dp4677
g93
g94
ssg75
g4666
sg68
(lp4678
S':'
asbag61
(g82
g63
NtRp4679
(dp4680
g66
(dp4681
sg75
g4666
sg68
(lp4682
g61
(g62
g63
NtRp4683
(dp4684
g66
(dp4685
g74
I5
ssg75
g4679
sg68
(lp4686
S'admin'
p4687
asbasbasbag61
(g77
g63
NtRp4688
(dp4689
g66
(dp4690
sg75
g3617
sg68
(lp4691
g61
(g82
g63
NtRp4692
(dp4693
g66
(dp4694
g86
g87
ssg75
g4688
sg68
(lp4695
S'title'
p4696
asbag61
(g82
g63
NtRp4697
(dp4698
g66
(dp4699
g93
g94
ssg75
g4688
sg68
(lp4700
S':'
asbag61
(g82
g63
NtRp4701
(dp4702
g66
(dp4703
sg75
g4688
sg68
(lp4704
g61
(g62
g63
NtRp4705
(dp4706
g66
(dp4707
g74
I5
ssg75
g4701
sg68
(lp4708
S'deploy '
p4709
asbasbasbag61
(g77
g63
NtRp4710
(dp4711
g66
(dp4712
sg75
g3617
sg68
(lp4713
g61
(g82
g63
NtRp4714
(dp4715
g66
(dp4716
g86
g87
ssg75
g4710
sg68
(lp4717
S'view'
p4718
asbag61
(g82
g63
NtRp4719
(dp4720
g66
(dp4721
g93
g94
ssg75
g4710
sg68
(lp4722
S':'
asbag61
(g82
g63
NtRp4723
(dp4724
g66
(dp4725
sg75
g4710
sg68
(lp4726
g61
(g62
g63
NtRp4727
(dp4728
g66
(dp4729
g74
I5
ssg75
g4723
sg68
(lp4730
S'openshift/deploy.html'
p4731
asbasbasbasbasbsS'locals'
p4732
(dp4733
S'dummy'
p4734
S"''"
p4735
sS'self'
p4736
S'<git.Repo "None">'
p4737
sS'curpath'
p4738
S"'/'"
p4739
sS'epath'
p4740
S"'/tmp'"
p4741
sg403
S"'/tmp'"
p4742
sS'gitpath'
p4743
S"'/.git'"
p4744
sssS'traceback'
p4745
S'Traceback (most recent call last):\n  File "/home/mayank/IIIT/sem 3/SSAD&Project/web2py/gluon/restricted.py", line 209, in restricted\n    exec ccode in environment\n  File "/home/mayank/IIIT/sem 3/SSAD&Project/web2py/applications/admin/controllers/openshift.py", line 58, in <module>\n  File "/home/mayank/IIIT/sem 3/SSAD&Project/web2py/gluon/globals.py", line 185, in <lambda>\n    self._caller = lambda f: f()\n  File "/home/mayank/IIIT/sem 3/SSAD&Project/web2py/applications/admin/controllers/openshift.py", line 32, in deploy\n    repo = Repo(form.vars.osrepo)\n  File "/usr/lib/pymodules/python2.7/git/repo.py", line 63, in __init__\n    raise InvalidGitRepositoryError(epath)\nInvalidGitRepositoryError: /tmp\n'
p4746
s.