(dp1
S'output'
p2
S"<type 'exceptions.IOError'> [Errno 21] Is a directory: '/home/mayank/IIIT/sem 3/SSAD&Project/web2py/applications/taship1/views/default'"
p3
sS'layer'
p4
S'/home/mayank/IIIT/sem 3/SSAD&Project/web2py/applications/admin/controllers/default.py'
p5
sS'code'
p6
S'# coding: utf8\n\nEXPERIMENTAL_STUFF = True\n\nif EXPERIMENTAL_STUFF:\n    is_mobile = request.user_agent().is_mobile\n    if is_mobile:\n        response.view = response.view.replace(\'default/\',\'default.mobile/\')\n        response.menu = []\n\nimport re\nfrom gluon.admin import *\nfrom gluon.fileutils import abspath, read_file, write_file\nfrom gluon.utils import web2py_uuid\nfrom glob import glob\nimport shutil\nimport platform\ntry:                                                                                      \n    from git import *                                                                     \n    have_git = True\nexcept ImportError:                                                                       \n    have_git = False\n    GIT_MISSING = \'requires python-git module, but not installed or incompatible version\'\n\nfrom gluon.languages import (regex_language, read_possible_languages,\n                             lang_sampling,\n                             read_dict, write_dict, read_plural_dict,\n                             write_plural_dict, PLURAL_RULES)\n\n\nif DEMO_MODE and request.function in [\'change_password\',\'pack\',\'pack_plugin\',\'upgrade_web2py\',\'uninstall\',\'cleanup\',\'compile_app\',\'remove_compiled_app\',\'delete\',\'delete_plugin\',\'create_file\',\'upload_file\',\'update_languages\',\'reload_routes\',\'git_push\',\'git_pull\']:\n    session.flash = T(\'disabled in demo mode\')\n    redirect(URL(\'site\'))\n\n\nif not is_manager() and request.function in [\'change_password\',\'upgrade_web2py\']:\n    session.flash = T(\'disabled in multi user mode\')\n    redirect(URL(\'site\'))\n\nif FILTER_APPS and request.args(0) and not request.args(0) in FILTER_APPS:\n    session.flash = T(\'disabled in demo mode\')\n    redirect(URL(\'site\'))\n\n\nif not session.token: session.token = web2py_uuid()\n\ndef count_lines(data):\n    return len([line for line in data.split(\'\\n\') if line.strip() and not line.startswith(\'#\')])\n\ndef log_progress(app,mode=\'EDIT\',filename=None,progress=0):\n    progress_file = os.path.join(apath(app, r=request), \'progress.log\')\n    now = str(request.now)[:19]\n    if not os.path.exists(progress_file):\n        safe_open(progress_file,\'w\').write(\'[%s] START\\n\' % now)\n    if filename:\n        safe_open(progress_file,\'a\').write(\'[%s] %s %s: %s\\n\' % (now,mode,filename,progress))\n\ndef safe_open(a,b):\n    if DEMO_MODE and (\'w\' in b or \'a\' in b):\n        class tmp:\n            def write(self,data): pass\n        return tmp()\n    return open(a,b)\n\ndef safe_read(a, b=\'r\'):\n    safe_file = safe_open(a, b)\n    try:\n        return safe_file.read()\n    finally:\n        safe_file.close()\n\ndef safe_write(a, value, b=\'w\'):\n    safe_file = safe_open(a, b)\n    try:\n        safe_file.write(value)\n    finally:\n        safe_file.close()\n\ndef get_app(name=None):\n    app = name or request.args(0)\n    if app and (not MULTI_USER_MODE or is_manager() or \\\n                    db(db.app.name==app)(db.app.owner==auth.user.id).count()):\n        return app\n    session.flash = T(\'App does not exist or your are not authorized\')\n    redirect(URL(\'site\'))\n\ndef index():\n    """ Index handler """\n\n    send = request.vars.send\n    if DEMO_MODE:\n        session.authorized = True\n        session.last_time = t0\n    if not send:\n        send = URL(\'site\')\n    if session.authorized:\n        redirect(send)\n    elif request.vars.password:\n        if verify_password(request.vars.password):\n            session.authorized = True\n            login_record(True)\n\n            if CHECK_VERSION:\n                session.check_version = True\n            else:\n                session.check_version = False\n\n            session.last_time = t0\n            if isinstance(send, list):  # ## why does this happen?\n                send = str(send[0])\n\n            redirect(send)\n        else:\n            times_denied = login_record(False)\n            if times_denied >= allowed_number_of_attempts:\n                response.flash = \\\n                    T(\'admin disabled because too many invalid login attempts\')\n            elif times_denied == allowed_number_of_attempts - 1:\n                response.flash = \\\n                    T(\'You have one more login attempt before you are locked out\')\n            else:\n                response.flash = T(\'invalid password.\')\n    return dict(send=send)\n\n\ndef check_version():\n    """ Checks if web2py is up to date """\n\n    session.forget()\n    session._unlock(response)\n\n    new_version, version_number = check_new_version(request.env.web2py_version,\n                                    WEB2PY_VERSION_URL)\n\n    if new_version == -1:\n        return A(T(\'Unable to check for upgrades\'), _href=WEB2PY_URL)\n    elif new_version != True:\n        return A(T(\'web2py is up to date\'), _href=WEB2PY_URL)\n    elif platform.system().lower() in (\'windows\',\'win32\',\'win64\') and os.path.exists("web2py.exe"):\n        return SPAN(\'You should upgrade to version %s.%s.%s\' % version_number[:3])\n    else:\n        return sp_button(URL(\'upgrade_web2py\'), T(\'upgrade now\')) \\\n            + XML(\' <strong class="upgrade_version">%s.%s.%s</strong>\' \\\n                      % version_number[:3])\n\ndef logout():\n    """ Logout handler """\n    session.authorized = None\n    if MULTI_USER_MODE:\n        redirect(URL(\'user/logout\'))\n    redirect(URL(\'index\'))\n\n\ndef change_password():\n\n    if session.pam_user:\n        session.flash = T(\'PAM authenticated user, cannot change password here\')\n        redirect(URL(\'site\'))\n    form=SQLFORM.factory(Field(\'current_admin_password\',\'password\'),\n                         Field(\'new_admin_password\',\'password\',requires=IS_STRONG()),\n                         Field(\'new_admin_password_again\',\'password\'))\n    if form.accepts(request.vars):\n        if not verify_password(request.vars.current_admin_password):\n            form.errors.current_admin_password = T(\'invalid password\')\n        elif form.vars.new_admin_password != form.vars.new_admin_password_again:\n            form.errors.new_admin_password_again = T(\'no match\')\n        else:\n            path = abspath(\'parameters_%s.py\' % request.env.server_port)\n            safe_write(path, \'password="%s"\' % CRYPT()(request.vars.new_admin_password)[0])\n            session.flash = T(\'password changed\')\n            redirect(URL(\'site\'))\n    return dict(form=form)\n\n\ndef site():\n    """ Site handler """\n\n    myversion = request.env.web2py_version\n\n    # Shortcut to make the elif statements more legible\n    file_or_appurl = \'file\' in request.vars or \'appurl\' in request.vars\n\n    class IS_VALID_APPNAME(object):\n        def __call__(self,value):\n            if not re.compile(\'\\w+\').match(value):\n                return (value,T(\'Invalid application name\'))\n            if not request.vars.overwrite and \\\n                    os.path.exists(os.path.join(apath(r=request),value)):\n                return (value,T(\'Application exists already\'))\n            return (value,None)\n\n    is_appname = IS_VALID_APPNAME()\n    form_create = SQLFORM.factory(Field(\'name\',requires=is_appname),\n                                  table_name=\'appcreate\')\n    form_update = SQLFORM.factory(Field(\'name\',requires=is_appname),\n                                  Field(\'file\',\'upload\',uploadfield=False),\n                                  Field(\'url\'),\n                                  Field(\'overwrite\',\'boolean\'),\n                                  table_name=\'appupdate\')\n    form_create.process()\n    form_update.process()\n\n    if DEMO_MODE:\n        pass\n\n    elif form_create.accepted:\n        # create a new application\n        appname = cleanpath(form_create.vars.name)\n        created, error = app_create(appname, request,info=True)\n        if created:\n            if MULTI_USER_MODE:\n                db.app.insert(name=appname,owner=auth.user.id)\n            log_progress(appname)\n            session.flash = T(\'new application "%s" created\', appname)\n            redirect(URL(\'design\',args=appname))\n        else:\n            session.flash = \\\n                DIV(T(\'unable to create application "%s"\' % appname),\n                    PRE(error))                      \n        redirect(URL(r=request))\n\n    elif form_update.accepted:\n        if (form_update.vars.url or \'\').endswith(\'.git\'):\n            if not have_git:\n                session.flash = GIT_MISSING\n                redirect(URL(r=request))\n            target = os.path.join(apath(r=request),form_update.vars.name)\n            try:\n                new_repo = Repo.clone_from(form_update.vars.url,target)\n                session.flash = T(\'new application "%s" imported\',\n                                  form_update.vars.name)\n            except GitCommandError, err:\n                session.flash = T(\'Invalid git repository specified.\')\n            redirect(URL(r=request))\n\n        elif form_update.vars.url:\n            # fetch an application via URL or file upload\n            try:\n                f = urllib.urlopen(form_update.vars.url)\n                if f.code == 404:\n                    raise Exception("404 file not found")\n            except Exception, e:\n                session.flash = \\\n                    DIV(T(\'Unable to download app because:\'),PRE(str(e)))\n                redirect(URL(r=request))\n            fname = form_update.vars.url\n            \n        elif form_update.accepted and form_update.vars.file:\n            fname = request.vars.file.filename\n            f = request.vars.file.file\n            \n        else:\n            session.flash = \'No file uploaded and no URL specified\'\n            redirect(URL(r=request))\n\n        if f:\n            appname = cleanpath(form_update.vars.name)\n            installed = app_install(appname, f, \n                                    request, fname,\n                                    overwrite=form_update.vars.overwrite)\n        if f and installed:\n            msg = \'application %(appname)s installed with md5sum: %(digest)s\'\n            if MULTI_USER_MODE:\n                db.app.insert(name=appname,owner=auth.user.id)\n            log_progress(appname)\n            session.flash = T(msg, dict(appname=appname,\n                                        digest=md5_hash(installed)))\n        elif f and form_update.vars.overwrite:\n            msg = \'unable to install application "%(appname)s"\'\n            session.flash = T(msg, dict(appname=form_update.vars.name))\n        else:\n            msg = \'unable to install application "%(appname)s"\'\n            session.flash = T(msg, dict(appname=form_update.vars.name))\n        redirect(URL(r=request))\n\n    regex = re.compile(\'^\\w+$\')\n\n    if is_manager():\n        apps = [f for f in os.listdir(apath(r=request)) if regex.match(f)]\n    else:\n        apps = [f.name for f in db(db.app.owner==auth.user_id).select()]\n\n    if FILTER_APPS:\n        apps = [f for f in apps if f in FILTER_APPS]\n\n    apps = sorted(apps,lambda a,b:cmp(a.upper(),b.upper()))\n\n    return dict(app=None, apps=apps, myversion=myversion, \n                form_create=form_create, form_update=form_update)\n\n\ndef report_progress(app):\n    import datetime\n    progress_file = os.path.join(apath(app, r=request), \'progress.log\')\n    regex = re.compile(\'\\[(.*?)\\][^\\:]+\\:\\s+(\\-?\\d+)\')\n    if not os.path.exists(progress_file):\n        return []\n    matches = regex.findall(open(progress_file,\'r\').read())\n    events,counter = [],0\n    for m in matches:\n        if not m: continue\n        days = -(request.now - datetime.datetime.strptime(m[0],\'%Y-%m-%d %H:%M:%S\')).days\n        counter += int(m[1])\n        events.append([days,counter])\n    return events\n\n\ndef pack():\n    app = get_app()\n\n    try:\n        if len(request.args) == 1:\n            fname = \'web2py.app.%s.w2p\' % app\n            filename = app_pack(app, request, raise_ex=True)\n        else:\n            fname = \'web2py.app.%s.compiled.w2p\' % app\n            filename = app_pack_compiled(app, request, raise_ex=True)\n    except Exception, e:\n        filename = None\n\n    if filename:\n        response.headers[\'Content-Type\'] = \'application/w2p\'\n        disposition = \'attachment; filename=%s\' % fname\n        response.headers[\'Content-Disposition\'] = disposition\n        return safe_read(filename, \'rb\')\n    else:\n        session.flash = T(\'internal error: %s\' % e)\n        redirect(URL(\'site\'))\n\ndef pack_plugin():\n    app = get_app()\n    if len(request.args) == 2:\n        fname = \'web2py.plugin.%s.w2p\' % request.args[1]\n        filename = plugin_pack(app, request.args[1], request)\n    if filename:\n        response.headers[\'Content-Type\'] = \'application/w2p\'\n        disposition = \'attachment; filename=%s\' % fname\n        response.headers[\'Content-Disposition\'] = disposition\n        return safe_read(filename, \'rb\')\n    else:\n        session.flash = T(\'internal error\')\n        redirect(URL(\'plugin\',args=request.args))\n\ndef upgrade_web2py():\n    dialog = FORM.confirm(T(\'Upgrade\'),\n                         {T(\'Cancel\'):URL(\'site\')})    \n    if dialog.accepted:\n        (success, error) = upgrade(request)\n        if success:\n            session.flash = T(\'web2py upgraded; please restart it\')\n        else:\n            session.flash = T(\'unable to upgrade because "%s"\', error)\n        redirect(URL(\'site\'))\n    return dict(dialog=dialog)\n\ndef uninstall():\n    app = get_app()\n\n    dialog = FORM.confirm(T(\'Uninstall\'),\n                         {T(\'Cancel\'):URL(\'site\')})\n    \n    if dialog.accepted:\n        if MULTI_USER_MODE:\n            if is_manager() and db(db.app.name==app).delete():\n                pass\n            elif db(db.app.name==app)(db.app.owner==auth.user.id).delete():\n                pass\n            else:\n                session.flash = T(\'no permission to uninstall "%s"\', app)\n                redirect(URL(\'site\'))\n        if app_uninstall(app, request):\n            session.flash = T(\'application "%s" uninstalled\', app)\n        else:\n            session.flash = T(\'unable to uninstall "%s"\', app)\n        redirect(URL(\'site\'))\n    return dict(app=app, dialog=dialog)\n\n\ndef cleanup():\n    app = get_app()\n    clean = app_cleanup(app, request)\n    if not clean:\n        session.flash = T("some files could not be removed")\n    else:\n        session.flash = T(\'cache, errors and sessions cleaned\')\n\n    redirect(URL(\'site\'))\n\n\ndef compile_app():\n    app = get_app()\n    c = app_compile(app, request)\n    if not c:\n        session.flash = T(\'application compiled\')\n    else:\n        session.flash = DIV(T(\'Cannot compile: there are errors in your app:\'),\n                              CODE(c))\n    redirect(URL(\'site\'))\n\n\ndef remove_compiled_app():\n    """ Remove the compiled application """\n    app = get_app()\n    remove_compiled_application(apath(app, r=request))\n    session.flash = T(\'compiled application removed\')\n    redirect(URL(\'site\'))\n\ndef delete():\n    """ Object delete handler """\n    app = get_app()\n    filename = \'/\'.join(request.args)\n    sender = request.vars.sender\n\n    if isinstance(sender, list):  # ## fix a problem with Vista\n        sender = sender[0]\n\n    if \'nodelete\' in request.vars:\n        redirect(URL(sender, anchor=request.vars.id))\n    elif \'delete\' in request.vars:\n        try:\n            full_path = apath(filename, r=request)\n            lineno = count_lines(open(full_path,\'r\').read())\n            os.unlink(full_path)\n            log_progress(app,\'DELETE\',filename,progress=-lineno)\n            session.flash = T(\'file "%(filename)s" deleted\',\n                              dict(filename=filename))\n        except Exception:\n            session.flash = T(\'unable to delete file "%(filename)s"\',\n                              dict(filename=filename))\n        redirect(URL(sender, anchor=request.vars.id2))\n    return dict(filename=filename, sender=sender)\n\ndef delete():\n    """ Object delete handler """\n    app = get_app()\n    filename = \'/\'.join(request.args)\n    sender = request.vars.sender\n\n    if isinstance(sender, list):  # ## fix a problem with Vista\n        sender = sender[0]\n\n    dialog = FORM.confirm(T(\'Delete\'),\n                         {T(\'Cancel\'):URL(sender, anchor=request.vars.id)})\n\n    if dialog.accepted:\n        try:\n            full_path = apath(filename, r=request)\n            lineno = count_lines(open(full_path,\'r\').read())\n            os.unlink(full_path)\n            log_progress(app,\'DELETE\',filename,progress=-lineno)\n            session.flash = T(\'file "%(filename)s" deleted\',\n                              dict(filename=filename))\n        except Exception:\n            session.flash = T(\'unable to delete file "%(filename)s"\',\n                              dict(filename=filename))\n        redirect(URL(sender, anchor=request.vars.id2))\n    return dict(dialog=dialog,filename=filename)\n\ndef enable():\n    app = get_app()\n    filename = os.path.join(apath(app, r=request),\'DISABLED\')\n    if is_gae:\n        return SPAN(T(\'Not supported\'),_style=\'color:yellow\')\n    elif os.path.exists(filename):\n        os.unlink(filename)\n        return SPAN(T(\'Disable\'),_style=\'color:green\')\n    else:\n        safe_open(filename,\'wb\').write(time.ctime())\n        return SPAN(T(\'Enable\'),_style=\'color:red\')\n\ndef peek():\n    """ Visualize object code """\n    app = get_app(request.vars.app)\n    filename = \'/\'.join(request.args)\n    if request.vars.app:\n        path = abspath(filename)\n    else:\n        path = apath(filename, r=request)\n    try:\n        data = safe_read(path).replace(\'\\r\',\'\')\n    except IOError:\n        session.flash = T(\'file does not exist\')\n        redirect(URL(\'site\'))\n\n    extension = filename[filename.rfind(\'.\') + 1:].lower()\n\n    return dict(app=app,\n                filename=filename,\n                data=data,\n                extension=extension)\n\ndef test():\n    """ Execute controller tests """\n    app = get_app()\n    if len(request.args) > 1:\n        file = request.args[1]\n    else:\n        file = \'.*\\.py\'\n\n    controllers = listdir(apath(\'%s/controllers/\' % app, r=request), file + \'$\')\n\n    return dict(app=app, controllers=controllers)\n\ndef keepalive():\n    return \'\'\n\ndef search():\n    keywords=request.vars.keywords or \'\'\n    app = get_app()\n    def match(filename,keywords):\n        filename=os.path.join(apath(app, r=request),filename)\n        if keywords in read_file(filename,\'rb\'):\n            return True\n        return False\n    path = apath(request.args[0], r=request)\n    files1 = glob(os.path.join(path,\'*/*.py\'))\n    files2 = glob(os.path.join(path,\'*/*.html\'))\n    files3 = glob(os.path.join(path,\'*/*/*.html\'))\n    files=[x[len(path)+1:].replace(\'\\\\\',\'/\') for x in files1+files2+files3 if match(x,keywords)]\n    return response.json(dict(files=files, message=T.M(\'Searching: **%s** %%{file}\', len(files))))\n\ndef edit():\n    """ File edit handler """\n    # Load json only if it is ajax edited...\n    app = get_app(request.vars.app)\n    filename = \'/\'.join(request.args)\n    if request.vars.app:\n        path = abspath(filename)\n    else:\n        path = apath(filename, r=request)\n     # Try to discover the file type\n    if filename[-3:] == \'.py\':\n        filetype = \'python\'\n    elif filename[-5:] == \'.html\':\n        filetype = \'html\'\n    elif filename[-5:] == \'.load\':\n        filetype = \'html\'\n    elif filename[-4:] == \'.css\':\n        filetype = \'css\'\n    elif filename[-3:] == \'.js\':\n        filetype = \'js\'\n    else:\n        filetype = \'html\'\n\n    # ## check if file is not there\n    if (\'revert\' in request.vars) and os.path.exists(path + \'.bak\'):\n        try:\n            data = safe_read(path + \'.bak\')\n            data1 = safe_read(path)\n        except IOError:\n            session.flash = T(\'Invalid action\')\n            if \'from_ajax\' in request.vars:\n                 return response.json({\'error\': str(T(\'Invalid action\'))})\n            else:\n                redirect(URL(\'site\'))\n\n        safe_write(path, data)\n        file_hash = md5_hash(data)\n        saved_on = time.ctime(os.stat(path)[stat.ST_MTIME])\n        safe_write(path + \'.bak\', data1)\n        response.flash = T(\'file "%s" of %s restored\', (filename, saved_on))\n    else:\n        try:\n            data = safe_read(path)\n        except IOError:\n            session.flash = T(\'Invalid action\')\n            if \'from_ajax\' in request.vars:\n                return response.json({\'error\': str(T(\'Invalid action\'))})\n            else:\n                redirect(URL(\'site\'))\n\n        lineno_old = count_lines(data)\n        file_hash = md5_hash(data)\n        saved_on = time.ctime(os.stat(path)[stat.ST_MTIME])\n\n        if request.vars.file_hash and request.vars.file_hash != file_hash:\n            session.flash = T(\'file changed on disk\')\n            data = request.vars.data.replace(\'\\r\\n\', \'\\n\').strip() + \'\\n\'\n            safe_write(path + \'.1\', data)\n            if \'from_ajax\' in request.vars:\n                return response.json({\'error\': str(T(\'file changed on disk\')),\n                                      \'redirect\': URL(\'resolve\',\n                                                      args=request.args)})\n            else:\n                redirect(URL(\'resolve\', args=request.args))\n        elif request.vars.data:\n            safe_write(path + \'.bak\', data)\n            data = request.vars.data.replace(\'\\r\\n\', \'\\n\').strip() + \'\\n\'\n            safe_write(path, data)\n            lineno_new = count_lines(data)\n            log_progress(app,\'EDIT\',filename,progress=lineno_new-lineno_old)\n            file_hash = md5_hash(data)\n            saved_on = time.ctime(os.stat(path)[stat.ST_MTIME])\n            response.flash = T(\'file saved on %s\', saved_on)\n\n    data_or_revert = (request.vars.data or request.vars.revert)\n\n    # Check compile errors\n    highlight = None\n    if filetype == \'python\' and request.vars.data:\n        import _ast\n        try:\n            code = request.vars.data.rstrip().replace(\'\\r\\n\',\'\\n\')+\'\\n\'\n            compile(code, path, "exec", _ast.PyCF_ONLY_AST)\n        except Exception, e:\n            start = sum([len(line)+1 for l, line\n                            in enumerate(request.vars.data.split("\\n"))\n                            if l < e.lineno-1])\n            if e.text and e.offset:\n                offset = e.offset - (len(e.text) - len(e.text.splitlines()[-1]))\n            else:\n                offset = 0\n            highlight = {\'start\': start, \'end\': start + offset + 1, \'lineno\': e.lineno}\n            try:\n                ex_name = e.__class__.__name__\n            except:\n                ex_name = \'unknown exception!\'\n            response.flash = DIV(T(\'failed to compile file because:\'), BR(),\n                                 B(ex_name), \' \'+T(\'at line %s\', e.lineno),\n                                 offset and \' \'+T(\'at char %s\', offset) or \'\',\n                                 PRE(str(e)))\n\n    if data_or_revert and request.args[1] == \'modules\':\n        # Lets try to reload the modules\n        try:\n            mopath = \'.\'.join(request.args[2:])[:-3]\n            exec \'import applications.%s.modules.%s\' % (request.args[0], mopath)\n            reload(sys.modules[\'applications.%s.modules.%s\'\n                    % (request.args[0], mopath)])\n        except Exception, e:\n            response.flash = DIV(T(\'failed to reload module because:\'),PRE(str(e)))\n\n    edit_controller = None\n    editviewlinks = None\n    view_link = None\n    if filetype == \'html\' and len(request.args) >= 3:\n        cfilename = os.path.join(request.args[0], \'controllers\',\n                                 request.args[2] + \'.py\')\n        if os.path.exists(apath(cfilename, r=request)):\n            edit_controller = URL(\'edit\', args=[cfilename])\n            view = request.args[3].replace(\'.html\',\'\')\n            view_link = URL(request.args[0],request.args[2],view)\n    elif filetype == \'python\' and request.args[1] == \'controllers\':\n        ## it\'s a controller file.\n        ## Create links to all of the associated view files.\n        app = get_app()\n        viewname = os.path.splitext(request.args[2])[0]\n        viewpath = os.path.join(app,\'views\',viewname)\n        aviewpath = apath(viewpath, r=request)\n        viewlist = []\n        if os.path.exists(aviewpath):\n            if os.path.isdir(aviewpath):\n                viewlist = glob(os.path.join(aviewpath,\'*.html\'))\n        elif os.path.exists(aviewpath+\'.html\'):\n            viewlist.append(aviewpath+\'.html\')\n        if len(viewlist):\n            editviewlinks = []\n            for v in viewlist:\n                vf = os.path.split(v)[-1]\n                vargs = "/".join([viewpath.replace(os.sep,"/"),vf])\n                editviewlinks.append(A(vf.split(".")[0],\\\n                    _href=URL(\'edit\',args=[vargs])))\n\n    if len(request.args) > 2 and request.args[1] == \'controllers\':\n        controller = (request.args[2])[:-3]\n        functions = regex_expose.findall(data)\n    else:\n        (controller, functions) = (None, None)\n\n    if \'from_ajax\' in request.vars:\n        return response.json({\'file_hash\': file_hash, \'saved_on\': saved_on, \'functions\':functions, \'controller\': controller, \'application\': request.args[0], \'highlight\': highlight })\n    else:\n\n        editarea_preferences = {}\n        editarea_preferences[\'FONT_SIZE\'] = \'10\'\n        editarea_preferences[\'FULL_SCREEN\'] = \'false\'\n        editarea_preferences[\'ALLOW_TOGGLE\'] = \'true\'\n        editarea_preferences[\'REPLACE_TAB_BY_SPACES\'] = \'4\'\n        editarea_preferences[\'DISPLAY\'] = \'onload\'\n        for key in editarea_preferences:\n            if globals().has_key(key):\n                editarea_preferences[key]=globals()[key]\n        return dict(app=request.args[0],\n                    filename=filename,\n                    filetype=filetype,\n                    data=data,\n                    edit_controller=edit_controller,\n                    file_hash=file_hash,\n                    saved_on=saved_on,\n                    controller=controller,\n                    functions=functions,\n                    view_link=view_link,\n                    editarea_preferences=editarea_preferences,\n                    editviewlinks=editviewlinks)\n\ndef resolve():\n    """\n    """\n\n    filename = \'/\'.join(request.args)\n    # ## check if file is not there\n    path = apath(filename, r=request)\n    a = safe_read(path).split(\'\\n\')\n    try:\n        b = safe_read(path + \'.1\').split(\'\\n\')\n    except IOError:\n        session.flash = \'Other file, no longer there\'\n        redirect(URL(\'edit\', args=request.args))\n\n    d = difflib.ndiff(a, b)\n\n    def leading(line):\n        """  """\n\n        # TODO: we really need to comment this\n        z = \'\'\n        for (k, c) in enumerate(line):\n            if c == \' \':\n                z += \'&nbsp;\'\n            elif c == \' \\t\':\n                z += \'&nbsp;\'\n            elif k == 0 and c == \'?\':\n                pass\n            else:\n                break\n\n        return XML(z)\n\n    def getclass(item):\n        """ Determine item class """\n\n        if item[0] == \' \':\n            return \'normal\'\n        if item[0] == \'+\':\n            return \'plus\'\n        if item[0] == \'-\':\n            return \'minus\'\n\n    if request.vars:\n        c = \'\\n\'.join([item[2:].rstrip() for (i, item) in enumerate(d) if item[0] \\\n                           == \' \' or \'line%i\' % i in request.vars])\n        safe_write(path, c)\n        session.flash = \'files merged\'\n        redirect(URL(\'edit\', args=request.args))\n    else:\n        # Making the short circuit compatible with <= python2.4\n        gen_data = lambda index,item: not item[:1] in [\'+\',\'-\'] and "" \\\n                   or INPUT(_type=\'checkbox\',\n                            _name=\'line%i\' % index,\n                            value=item[0] == \'+\')\n\n        diff = TABLE(*[TR(TD(gen_data(i,item)),\n                          TD(item[0]),\n                          TD(leading(item[2:]),\n                          TT(item[2:].rstrip())), _class=getclass(item))\n                       for (i, item) in enumerate(d) if item[0] != \'?\'])\n\n    return dict(diff=diff, filename=filename)\n\n\ndef edit_language():\n    """ Edit language file """\n    app = get_app()\n    filename = \'/\'.join(request.args)\n    strings = read_dict(apath(filename, r=request))\n\n    if \'__corrupted__\' in strings:\n       form = SPAN(strings[\'__corrupted__\'],_class=\'error\')\n       return dict(filename=filename, form=form)\n\n    keys = sorted(strings.keys(),lambda x,y: cmp(unicode(x,\'utf-8\').lower(), unicode(y,\'utf-8\').lower()))\n    rows = []\n    rows.append(H2(T(\'Original/Translation\')))\n\n    for key in keys:\n        name = md5_hash(key)\n        s = strings[key]\n        (prefix, sep, key) = key.partition(\'\\x01\')\n        if sep:\n            prefix = SPAN(prefix+\': \', _class=\'tm_ftag\')\n            k = key\n        else:\n            (k, prefix) = (prefix, \'\')\n\n        _class=\'untranslated\' if k==s else \'translated\'\n\n        if len(key) <= 40:\n            elem = INPUT(_type=\'text\', _name=name, value=s,\n                         _size=70,_class=_class)\n        else:\n            elem = TEXTAREA(_name=name, value=s, _cols=70,\n                            _rows=5, _class=_class)\n\n        # Making the short circuit compatible with <= python2.4\n        k = (s != k) and k or B(k)\n\n        rows.append(P(prefix, k, BR(), elem, TAG.BUTTON(T(\'delete\'),\n                            _onclick=\'return delkey("%s")\' % name), _id=name))\n\n    rows.append(INPUT(_type=\'submit\', _value=T(\'update\')))\n    form = FORM(*rows)\n    if form.accepts(request.vars, keepvalues=True):\n        strs = dict()\n        for key in keys:\n            name = md5_hash(key)\n            if form.vars[name]==chr(127): continue\n            strs[key] = form.vars[name]\n        write_dict(apath(filename, r=request), strs)\n        session.flash = T(\'file saved on %(time)s\', dict(time=time.ctime()))\n        redirect(URL(r=request,args=request.args))\n    return dict(app=request.args[0], filename=filename, form=form)\n\ndef edit_plurals():\n    """ Edit plurals file """\n    #import ipdb; ipdb.set_trace()\n    app = get_app()\n    filename = \'/\'.join(request.args)\n    plurals = read_plural_dict(apath(filename, r=request)) # plural forms dictionary\n    nplurals = int(request.vars.nplurals)-1 # plural forms quantity\n    xnplurals = xrange(nplurals)\n\n    if \'__corrupted__\' in plurals:\n       # show error message and exit\n       form = SPAN(plurals[\'__corrupted__\'],_class=\'error\')\n       return dict(filename=filename, form=form)\n\n    keys = sorted(plurals.keys(),lambda x,y: cmp(unicode(x,\'utf-8\').lower(), unicode(y,\'utf-8\').lower()))\n    rows = []\n\n    row=[T("Singular Form")]\n    row.extend([T("Plural Form #%s", n+1) for n in xnplurals])\n    table=TABLE(THEAD(TR(row)))\n\n    for key in keys:\n        name = md5_hash(key)\n        forms = plurals[key]\n\n        if len(forms) < nplurals:\n            forms.extend(None for i in xrange(nplurals-len(forms)))\n\n        row = [B(key)]\n        row.extend([INPUT(_type=\'text\', _name=name+\'_\'+str(n), value=forms[n], _size=20) for n in xnplurals])\n        row.append(TD(TAG.BUTTON(T(\'delete\'), _onclick=\'return delkey("%s")\' % name)))\n        rows.append(TR(row, _id=name))\n    if rows:\n        table.append(TBODY(rows))\n    rows=[table, INPUT(_type=\'submit\', _value=T(\'update\'))]\n    form = FORM(*rows)\n    if form.accepts(request.vars, keepvalues=True):\n        new_plurals = dict()\n        for key in keys:\n            name = md5_hash(key)\n            if form.vars[name+\'_0\']==chr(127): continue\n            new_plurals[key] = [form.vars[name+\'_\'+str(n)] for n in xnplurals]\n        write_plural_dict(apath(filename, r=request), new_plurals)\n        session.flash = T(\'file saved on %(time)s\', dict(time=time.ctime()))\n        redirect(URL(r=request, args=request.args, vars=dict(nplurals=request.vars.nplurals)))\n    return dict(app=request.args[0], filename=filename, form=form)\n\n\ndef about():\n    """ Read about info """\n    app = get_app()\n    # ## check if file is not there\n    about = safe_read(apath(\'%s/ABOUT\' % app, r=request))\n    license = safe_read(apath(\'%s/LICENSE\' % app, r=request))\n    return dict(app=app, about=MARKMIN(about), license=MARKMIN(license),progress=report_progress(app))\n\n\ndef design():\n    """ Application design handler """\n    app = get_app()\n\n    if not response.flash and app == request.application:\n        msg = T(\'ATTENTION: you cannot edit the running application!\')\n        response.flash = msg\n\n    if request.vars and not request.vars.token==session.token:\n        redirect(URL(\'logout\'))\n\n    if request.vars.pluginfile!=None and not isinstance(request.vars.pluginfile,str):\n        filename=os.path.basename(request.vars.pluginfile.filename)\n        if plugin_install(app, request.vars.pluginfile.file,\n                          request, filename):\n            session.flash = T(\'new plugin installed\')\n            redirect(URL(\'design\',args=app))\n        else:\n            session.flash = \\\n                T(\'unable to create application "%s"\', request.vars.filename)\n        redirect(URL(r=request))\n    elif isinstance(request.vars.pluginfile,str):\n        session.flash = T(\'plugin not specified\')\n        redirect(URL(r=request))\n\n\n    # If we have only pyc files it means that\n    # we cannot design\n    if os.path.exists(apath(\'%s/compiled\' % app, r=request)):\n        session.flash = \\\n            T(\'application is compiled and cannot be designed\')\n        redirect(URL(\'site\'))\n\n    # Get all models\n    models = listdir(apath(\'%s/models/\' % app, r=request), \'.*\\.py$\')\n    models=[x.replace(\'\\\\\',\'/\') for x in models]\n    defines = {}\n    for m in models:\n        data = safe_read(apath(\'%s/models/%s\' % (app, m), r=request))\n        defines[m] = regex_tables.findall(data)\n        defines[m].sort()\n\n    # Get all controllers\n    controllers = sorted(listdir(apath(\'%s/controllers/\' % app, r=request), \'.*\\.py$\'))\n    controllers = [x.replace(\'\\\\\',\'/\') for x in controllers]\n    functions = {}\n    for c in controllers:\n        data = safe_read(apath(\'%s/controllers/%s\' % (app, c), r=request))\n        items = regex_expose.findall(data)\n        functions[c] = items\n\n    # Get all views\n    views = sorted(listdir(apath(\'%s/views/\' % app, r=request), \'[\\w/\\-]+(\\.\\w+)+$\'))\n    views = [x.replace(\'\\\\\',\'/\') for x in views if not x.endswith(\'.bak\')]\n    extend = {}\n    include = {}\n    for c in views:\n        data = safe_read(apath(\'%s/views/%s\' % (app, c), r=request))\n        items = regex_extend.findall(data)\n\n        if items:\n            extend[c] = items[0][1]\n\n        items = regex_include.findall(data)\n        include[c] = [i[1] for i in items]\n\n    # Get all modules\n    modules = listdir(apath(\'%s/modules/\' % app, r=request), \'.*\\.py$\')\n    modules = modules=[x.replace(\'\\\\\',\'/\') for x in modules]\n    modules.sort()\n\n    # Get all private files\n    privates = listdir(apath(\'%s/private/\' % app, r=request), \'[^\\.#].*\')\n    privates = [x.replace(\'\\\\\',\'/\') for x in privates]\n    privates.sort()\n\n    # Get all static files\n    statics = listdir(apath(\'%s/static/\' % app, r=request), \'[^\\.#].*\')\n    statics = [x.replace(\'\\\\\',\'/\') for x in statics]\n    statics.sort()\n\n    # Get all languages\n    all_languages=dict([(lang+\'.py\',info[0]) for lang,info\n                        in read_possible_languages(apath(app, r=request)).iteritems()\n                        if info[2]!=0]) # info[2] is langfile_mtime:\n                                        # get only existed files\n    languages = sorted(all_languages)\n\n    plural_rules = {}\n    all_plurals = PLURAL_RULES\n    for langfile,lang in all_languages.iteritems():\n        lang=lang.strip()\n        match_language = regex_language.match(lang)\n        if match_language:\n            match_language = tuple(part\n                                   for part in match_language.groups()\n                                   if part)\n            plang = lang_sampling(match_language, all_plurals.keys())\n            if plang:\n               plural=all_plurals[plang]\n               plural_rules[langfile]=(plural[0],plang,plural[4],plural[3])\n            else:\n               plural_rules[langfile]=(0,lang,\'plural_rules-%s.py\'%lang,\'\')\n\n    plurals = listdir(apath(\'%s/languages/\' % app, r=request),\n                      \'^plural-[\\w-]+\\.py$\')\n\n    #Get crontab\n    cronfolder = apath(\'%s/cron\' % app, r=request)\n    if not os.path.exists(cronfolder): os.mkdir(cronfolder)\n    crontab = apath(\'%s/cron/crontab\' % app, r=request)\n    if not os.path.exists(crontab):\n        safe_write(crontab, \'#crontab\')\n\n    plugins=[]\n    def filter_plugins(items,plugins):\n        plugins+=[item[7:].split(\'/\')[0].split(\'.\')[0] for item in items if item.startswith(\'plugin_\')]\n        plugins[:]=list(set(plugins))\n        plugins.sort()\n        return [item for item in items if not item.startswith(\'plugin_\')]\n\n    return dict(app=app,\n                models=filter_plugins(models,plugins),\n                defines=defines,\n                controllers=filter_plugins(controllers,plugins),\n                functions=functions,\n                views=filter_plugins(views,plugins),\n                modules=filter_plugins(modules,plugins),\n                extend=extend,\n                include=include,\n                privates=filter_plugins(privates,plugins),\n                statics=filter_plugins(statics,plugins),\n                languages=languages,\n                plurals=plurals,\n                plural_rules=plural_rules,\n                crontab=crontab,\n                plugins=plugins)\n\ndef delete_plugin():\n    """ Object delete handler """\n    app=request.args(0)\n    plugin = request.args(1)\n    plugin_name=\'plugin_\'+plugin\n\n    dialog = FORM.confirm(\n        T(\'Delete\'),\n        {T(\'Cancel\'):URL(\'design\', args=app)})\n\n    if dialog.accepted:\n        try:\n            for folder in [\'models\',\'views\',\'controllers\',\'static\',\'modules\', \'private\']:\n                path=os.path.join(apath(app,r=request),folder)\n                for item in os.listdir(path):\n                    if item.rsplit(\'.\',1)[0] == plugin_name:\n                        filename=os.path.join(path,item)\n                        if os.path.isdir(filename):\n                            shutil.rmtree(filename)\n                        else:\n                            os.unlink(filename)\n            session.flash = T(\'plugin "%(plugin)s" deleted\',\n                              dict(plugin=plugin))\n        except Exception:\n            session.flash = T(\'unable to delete file plugin "%(plugin)s"\',\n                              dict(plugin=plugin))\n        redirect(URL(\'design\', args=request.args(0), anchor=request.vars.id2))\n    return dict(dialog=dialog,plugin=plugin)\n\ndef plugin():\n    """ Application design handler """\n    app = get_app()\n    plugin = request.args(1)\n\n    if not response.flash and app == request.application:\n        msg = T(\'ATTENTION: you cannot edit the running application!\')\n        response.flash = msg\n\n    # If we have only pyc files it means that\n    # we cannot design\n    if os.path.exists(apath(\'%s/compiled\' % app, r=request)):\n        session.flash = \\\n            T(\'application is compiled and cannot be designed\')\n        redirect(URL(\'site\'))\n\n    # Get all models\n    models = listdir(apath(\'%s/models/\' % app, r=request), \'.*\\.py$\')\n    models=[x.replace(\'\\\\\',\'/\') for x in models]\n    defines = {}\n    for m in models:\n        data = safe_read(apath(\'%s/models/%s\' % (app, m), r=request))\n        defines[m] = regex_tables.findall(data)\n        defines[m].sort()\n\n    # Get all controllers\n    controllers = sorted(listdir(apath(\'%s/controllers/\' % app, r=request), \'.*\\.py$\'))\n    controllers = [x.replace(\'\\\\\',\'/\') for x in controllers]\n    functions = {}\n    for c in controllers:\n        data = safe_read(apath(\'%s/controllers/%s\' % (app, c), r=request))\n        items = regex_expose.findall(data)\n        functions[c] = items\n\n    # Get all views\n    views = sorted(listdir(apath(\'%s/views/\' % app, r=request), \'[\\w/\\-]+\\.\\w+$\'))\n    views = [x.replace(\'\\\\\',\'/\') for x in views]\n    extend = {}\n    include = {}\n    for c in views:\n        data = safe_read(apath(\'%s/views/%s\' % (app, c), r=request))\n        items = regex_extend.findall(data)\n        if items:\n            extend[c] = items[0][1]\n\n        items = regex_include.findall(data)\n        include[c] = [i[1] for i in items]\n\n    # Get all modules\n    modules = listdir(apath(\'%s/modules/\' % app, r=request), \'.*\\.py$\')\n    modules = modules=[x.replace(\'\\\\\',\'/\') for x in modules]\n    modules.sort()\n\n    # Get all private files\n    privates = listdir(apath(\'%s/private/\' % app, r=request), \'[^\\.#].*\')\n    privates = [x.replace(\'\\\\\',\'/\') for x in privates]\n    privates.sort()\n\n    # Get all static files\n    statics = listdir(apath(\'%s/static/\' % app, r=request), \'[^\\.#].*\')\n    statics = [x.replace(\'\\\\\',\'/\') for x in statics]\n    statics.sort()\n\n    # Get all languages\n    languages = sorted([lang+\'.py\' for lang, info in\n                    T.get_possible_languages_info().iteritems()\n                    if info[2]!=0]) # info[2] is langfile_mtime:\n                                    # get only existed files\n\n    #Get crontab\n    crontab = apath(\'%s/cron/crontab\' % app, r=request)\n    if not os.path.exists(crontab):\n        safe_write(crontab, \'#crontab\')\n\n    def filter_plugins(items):\n        regex=re.compile(\'^plugin_\'+plugin+\'(/.*|\\..*)?$\')\n        return [item for item in items if item and regex.match(item)]\n\n    return dict(app=app,\n                models=filter_plugins(models),\n                defines=defines,\n                controllers=filter_plugins(controllers),\n                functions=functions,\n                views=filter_plugins(views),\n                modules=filter_plugins(modules),\n                extend=extend,\n                include=include,\n                privates=filter_plugins(privates),\n                statics=filter_plugins(statics),\n                languages=languages,\n                crontab=crontab)\n\n\ndef create_file():\n    """ Create files handler """\n    if request.vars and not request.vars.token==session.token:\n        redirect(URL(\'logout\'))\n    try:\n        anchor=\'#\'+request.vars.id if request.vars.id else \'\'\n        if request.vars.app:\n            app = get_app(request.vars.app)\n            path = abspath(request.vars.location)\n        else:\n            app = get_app(name=request.vars.location.split(\'/\')[0])\n            path = apath(request.vars.location, r=request)\n        filename = re.sub(\'[^\\w./-]+\', \'_\', request.vars.filename)\n        if path[-7:] == \'/rules/\':\n            # Handle plural rules files\n            if len(filename) == 0:\n                raise SyntaxError\n            if not filename[-3:] == \'.py\':\n                filename += \'.py\'\n            lang = re.match(\'^plural_rules-(.*)\\.py$\',filename).group(1)\n            langinfo = read_possible_languages(apath(app, r=request))[lang]\n            text = dedent("""\n                   #!/usr/bin/env python\n                   # -*- coding: utf8 -*-\n                   # Plural-Forms for %(lang)s (%(langname)s)\n\n                   nplurals=2  # for example, English language has 2 forms:\n                               # 1 singular and 1 plural\n\n                   # Determine plural_id for number *n* as sequence of positive\n                   # integers: 0,1,...\n                   # NOTE! For singular form ALWAYS return plural_id = 0\n                   get_plural_id = lambda n: int(n != 1)\n\n                   # Construct and return plural form of *word* using\n                   # *plural_id* (which ALWAYS>0). This function will be executed\n                   # for words (or phrases) not found in plural_dict dictionary.\n                   # By default this function simply returns word in singular:\n                   construct_plural_form = lambda word, plural_id: word\n                   """)[1:] % dict(lang=langinfo[0], langname=langinfo[1])\n\n        elif path[-11:] == \'/languages/\':\n            # Handle language files\n            if len(filename) == 0:\n                raise SyntaxError\n            if not filename[-3:] == \'.py\':\n                filename += \'.py\'\n            path=os.path.join(apath(app, r=request),\'languages\',filename)\n            if not os.path.exists(path):\n                safe_write(path, \'\')\n            # create language xx[-yy].py file:\n            findT(apath(app, r=request), filename[:-3])\n            session.flash = T(\'language file "%(filename)s" created/updated\',\n                               dict(filename=filename))\n            redirect(request.vars.sender+anchor)\n\n        elif path[-8:] == \'/models/\':\n            # Handle python models\n            if not filename[-3:] == \'.py\':\n                filename += \'.py\'\n\n            if len(filename) == 3:\n                raise SyntaxError\n\n            text = \'# coding: utf8\\n\'\n\n        elif path[-13:] == \'/controllers/\':\n            # Handle python controllers\n            if not filename[-3:] == \'.py\':\n                filename += \'.py\'\n\n            if len(filename) == 3:\n                raise SyntaxError\n\n            text = \'# coding: utf8\\n# %s\\ndef index(): return dict(message="hello from %s")\'\n            text = text % (T(\'try something like\'), filename)\n\n        elif path[-7:] == \'/views/\':\n            if request.vars.plugin and not filename.startswith(\'plugin_%s/\' % request.vars.plugin):\n                filename = \'plugin_%s/%s\' % (request.vars.plugin, filename)\n            # Handle template (html) views\n            if filename.find(\'.\')<0:\n                filename += \'.html\'\n            extension = filename.split(\'.\')[-1].lower()\n\n            if len(filename) == 5:\n                raise SyntaxError\n\n            msg = T(\'This is the %(filename)s template\', dict(filename=filename))\n            if extension == \'html\':\n                text = dedent("""\n                   {{extend \'layout.html\'}}\n                   <h1>%s</h1>\n                   {{=BEAUTIFY(response._vars)}}""" % msg)[1:]\n            else:\n                generic = os.path.join(path,\'generic.\'+extension)\n                if os.path.exists(generic):\n                    text = read_file(generic)\n                else:\n                    text = \'\'\n\n        elif path[-9:] == \'/modules/\':\n            if request.vars.plugin and not filename.startswith(\'plugin_%s/\' % request.vars.plugin):\n                filename = \'plugin_%s/%s\' % (request.vars.plugin, filename)\n            # Handle python module files\n            if not filename[-3:] == \'.py\':\n                filename += \'.py\'\n\n            if len(filename) == 3:\n                raise SyntaxError\n\n            text = dedent("""\n                   #!/usr/bin/env python\n                   # coding: utf8\n                   from gluon import *\\n""")[1:]\n\n        elif (path[-8:] == \'/static/\') or (path[-9:] == \'/private/\'):\n            if request.vars.plugin and not filename.startswith(\'plugin_%s/\' % request.vars.plugin):\n                filename = \'plugin_%s/%s\' % (request.vars.plugin, filename)\n            text = \'\'\n            \n        else:\n            redirect(request.vars.sender+anchor)\n\n        full_filename = os.path.join(path, filename)\n        dirpath = os.path.dirname(full_filename)\n\n        if not os.path.exists(dirpath):\n            os.makedirs(dirpath)\n\n        if os.path.exists(full_filename):\n            raise SyntaxError\n\n        safe_write(full_filename, text)\n        log_progress(app,\'CREATE\',filename)\n        session.flash = T(\'file "%(filename)s" created\',\n                          dict(filename=full_filename[len(path):]))\n        vars={}\n        if request.vars.id: vars[\'id\']=request.vars.id\n        if request.vars.app: vars[\'app\']=request.vars.app\n        redirect(URL(\'edit\',\n                 args=[os.path.join(request.vars.location, filename)], vars=vars))\n    except Exception, e:\n        if not isinstance(e,HTTP):\n            session.flash = T(\'cannot create file\')\n\n    redirect(request.vars.sender+anchor)\n\n\ndef upload_file():\n    """ File uploading handler """\n    if request.vars and not request.vars.token==session.token:\n        redirect(URL(\'logout\'))\n    try:\n        filename = None\n        app = get_app(name=request.vars.location.split(\'/\')[0])\n        path = apath(request.vars.location, r=request)\n\n        if request.vars.filename:\n            filename = re.sub(\'[^\\w\\./]+\', \'_\', request.vars.filename)\n        else:\n            filename = os.path.split(request.vars.file.filename)[-1]\n\n        if path[-8:] == \'/models/\' and not filename[-3:] == \'.py\':\n            filename += \'.py\'\n\n        if path[-9:] == \'/modules/\' and not filename[-3:] == \'.py\':\n            filename += \'.py\'\n\n        if path[-13:] == \'/controllers/\' and not filename[-3:] == \'.py\':\n            filename += \'.py\'\n\n        if path[-7:] == \'/views/\' and not filename[-5:] == \'.html\':\n            filename += \'.html\'\n\n        if path[-11:] == \'/languages/\' and not filename[-3:] == \'.py\':\n            filename += \'.py\'\n\n        filename = os.path.join(path, filename)\n        dirpath = os.path.dirname(filename)\n\n        if not os.path.exists(dirpath):\n            os.makedirs(dirpath)\n\n        data = request.vars.file.file.read()\n        lineno = count_lines(data)\n        safe_write(filename, data, \'wb\')\n        log_progress(app,\'UPLOAD\',filename,lineno)\n        session.flash = T(\'file "%(filename)s" uploaded\',\n                          dict(filename=filename[len(path):]))\n    except Exception:\n        if filename:\n            d = dict(filename = filename[len(path):])\n        else:\n            d = dict(filename = \'unkown\')\n        session.flash = T(\'cannot upload file "%(filename)s"\', d)\n\n    redirect(request.vars.sender)\n\n\ndef errors():\n    """ Error handler """\n    import operator\n    import os\n    import pickle\n    import hashlib\n\n    app = get_app()\n\n    method = request.args(1) or \'new\'\n    db_ready = {}\n    db_ready[\'status\'] = get_ticket_storage(app)\n    db_ready[\'errmessage\'] = T("No ticket_storage.txt found under /private folder")\n    db_ready[\'errlink\'] = "http://web2py.com/books/default/chapter/29/13#Collecting-tickets"\n\n    if method == \'new\':\n        errors_path = apath(\'%s/errors\' % app, r=request)\n\n        delete_hashes = []\n        for item in request.vars:\n            if item[:7] == \'delete_\':\n                delete_hashes.append(item[7:])\n\n        hash2error = dict()\n\n        for fn in listdir(errors_path, \'^[a-fA-F0-9.\\-]+$\'):\n            fullpath = os.path.join(errors_path, fn)\n            if not os.path.isfile(fullpath): continue\n            try:\n                fullpath_file = open(fullpath, \'r\')\n                try:\n                    error = pickle.load(fullpath_file)\n                finally:\n                    fullpath_file.close()\n            except IOError:\n                continue\n            except EOFError:\n                continue\n\n            hash = hashlib.md5(error[\'traceback\']).hexdigest()\n\n            if hash in delete_hashes:\n                os.unlink(fullpath)\n            else:\n                try:\n                    hash2error[hash][\'count\'] += 1\n                except KeyError:\n                    error_lines = error[\'traceback\'].split("\\n")\n                    last_line = error_lines[-2]\n                    error_causer = os.path.split(error[\'layer\'])[1]\n                    hash2error[hash] = dict(count=1, pickel=error,\n                                            causer=error_causer,\n                                            last_line=last_line,\n                                            hash=hash,ticket=fn)\n\n        decorated = [(x[\'count\'], x) for x in hash2error.values()]\n        decorated.sort(key=operator.itemgetter(0), reverse=True)\n\n        return dict(errors = [x[1] for x in decorated], app=app, method=method, db_ready=db_ready)\n\n\n    elif method == \'dbnew\':\n        errors_path = apath(\'%s/errors\' % app, r=request)\n        tk_db, tk_table = get_ticket_storage(app)\n\n        delete_hashes = []\n        for item in request.vars:\n            if item[:7] == \'delete_\':\n                delete_hashes.append(item[7:])\n\n        hash2error = dict()\n\n        for fn in tk_db(tk_table.id>0).select():\n            try:\n                error = pickle.loads(fn.ticket_data)\n            except AttributeError:\n                tk_db(tk_table.id == fn.id).delete()\n                tk_db.commit()\n\n            hash = hashlib.md5(error[\'traceback\']).hexdigest()\n\n            if hash in delete_hashes:\n                tk_db(tk_table.id == fn.id).delete()\n                tk_db.commit()\n            else:\n                try:\n                    hash2error[\'hash\'][\'count\'] += 1\n                except KeyError:\n                    error_lines = error[\'traceback\'].split("\\n")\n                    last_line = error_lines[-2]\n                    error_causer = os.path.split(error[\'layer\'])[1]\n                    hash2error[hash] = dict(count=1, pickel=error,\n                                            causer=error_causer,\n                                            last_line=last_line,\n                                            hash=hash,ticket=fn.ticket_id)\n\n        decorated = [(x[\'count\'], x) for x in hash2error.values()]\n\n        decorated.sort(key=operator.itemgetter(0), reverse=True)\n\n        return dict(errors = [x[1] for x in decorated], app=app, method=method)\n\n    elif method == \'dbold\':\n        tk_db, tk_table = get_ticket_storage(app)\n        for item in request.vars:\n            if item[:7] == \'delete_\':\n                tk_db(tk_table.ticket_id == item[7:]).delete()\n                tk_db.commit()\n        tickets_ = tk_db(tk_table.id>0).select(tk_table.ticket_id, tk_table.created_datetime, orderby=~tk_table.created_datetime)\n        tickets = [row.ticket_id for row in tickets_]\n        times = dict([(row.ticket_id, row.created_datetime) for row in tickets_])\n\n        return dict(app=app, tickets=tickets, method=method, times=times)\n\n    else:\n        for item in request.vars:\n            if item[:7] == \'delete_\':\n                os.unlink(apath(\'%s/errors/%s\' % (app, item[7:]), r=request))\n        func = lambda p: os.stat(apath(\'%s/errors/%s\' % \\\n                                           (app, p), r=request)).st_mtime\n        tickets = sorted(listdir(apath(\'%s/errors/\' % app, r=request), \'^\\w.*\'),\n                         key=func,\n                         reverse=True)\n\n        return dict(app=app, tickets=tickets, method=method, db_ready=db_ready)\n\ndef get_ticket_storage(app):\n    private_folder = apath(\'%s/private\' % app, r=request)\n    ticket_file = os.path.join(private_folder, \'ticket_storage.txt\')\n    if os.path.exists(ticket_file):\n        db_string = open(ticket_file).read()\n        db_string = db_string.strip().replace(\'\\r\',\'\').replace(\'\\n\',\'\')\n    else:\n        return False\n    tickets_table = \'web2py_ticket\'\n    tablename = tickets_table + \'_\' + app\n    db_path = apath(\'%s/databases\' % app, r=request)\n    ticketsdb = DAL(db_string, folder=db_path, auto_import=True)\n    if not ticketsdb.get(tablename):\n        table = ticketsdb.define_table(\n                tablename,\n                Field(\'ticket_id\', length=100),\n                Field(\'ticket_data\', \'text\'),\n                Field(\'created_datetime\', \'datetime\'),\n                )\n    return ticketsdb , ticketsdb.get(tablename)\n\ndef make_link(path):\n    """ Create a link from a path """\n    tryFile = path.replace(\'\\\\\', \'/\')\n\n    if os.path.isabs(tryFile) and os.path.isfile(tryFile):\n        (folder, filename) = os.path.split(tryFile)\n        (base, ext) = os.path.splitext(filename)\n        app = get_app()\n\n        editable = {\'controllers\': \'.py\', \'models\': \'.py\', \'views\': \'.html\'}\n        for key in editable.keys():\n            check_extension = folder.endswith("%s/%s" % (app,key))\n            if ext.lower() == editable[key] and check_extension:\n                return A(\'"\' + tryFile + \'"\',\n                         _href=URL(r=request,\n                         f=\'edit/%s/%s/%s\' % (app, key, filename))).xml()\n    return \'\'\n\n\ndef make_links(traceback):\n    """ Make links using the given traceback """\n\n    lwords = traceback.split(\'"\')\n\n    # Making the short circuit compatible with <= python2.4\n    result = (len(lwords) != 0) and lwords[0] or \'\'\n\n    i = 1\n\n    while i < len(lwords):\n        link = make_link(lwords[i])\n\n        if link == \'\':\n            result += \'"\' + lwords[i]\n        else:\n            result += link\n\n            if i + 1 < len(lwords):\n                result += lwords[i + 1]\n                i = i + 1\n\n        i = i + 1\n\n    return result\n\n\nclass TRACEBACK(object):\n    """ Generate the traceback """\n\n    def __init__(self, text):\n        """ TRACEBACK constructor """\n\n        self.s = make_links(CODE(text).xml())\n\n    def xml(self):\n        """ Returns the xml """\n\n        return self.s\n\n\ndef ticket():\n    """ Ticket handler """\n\n    if len(request.args) != 2:\n        session.flash = T(\'invalid ticket\')\n        redirect(URL(\'site\'))\n\n    app = get_app()\n    myversion = request.env.web2py_version\n    ticket = request.args[1]\n    e = RestrictedError()\n    e.load(request, app, ticket)\n\n    return dict(app=app,\n                ticket=ticket,\n                output=e.output,\n                traceback=(e.traceback and TRACEBACK(e.traceback)),\n                snapshot=e.snapshot,\n                code=e.code,\n                layer=e.layer,\n                myversion=myversion)\n\ndef ticketdb():\n    """ Ticket handler """\n\n    if len(request.args) != 2:\n        session.flash = T(\'invalid ticket\')\n        redirect(URL(\'site\'))\n\n    app = get_app()\n    myversion = request.env.web2py_version\n    ticket = request.args[1]\n    e = RestrictedError()\n    request.tickets_db = get_ticket_storage(app)[0]\n    e.load(request, app, ticket)\n    response.view = \'default/ticket.html\'\n    return dict(app=app,\n                ticket=ticket,\n                output=e.output,\n                traceback=(e.traceback and TRACEBACK(e.traceback)),\n                snapshot=e.snapshot,\n                code=e.code,\n                layer=e.layer,\n                myversion=myversion)\n\ndef error():\n    """ Generate a ticket (for testing) """\n    raise RuntimeError(\'admin ticket generator at your service\')\n\ndef update_languages():\n    """ Update available languages """\n\n    app = get_app()\n    update_all_languages(apath(app, r=request))\n    session.flash = T(\'Language files (static strings) updated\')\n    redirect(URL(\'design\',args=app,anchor=\'languages\'))\n\n\ndef twitter():\n    session.forget()\n    session._unlock(response)\n    import gluon.tools\n    import gluon.contrib.simplejson as sj\n    try:\n        if TWITTER_HASH:\n            page = urllib.urlopen("http://search.twitter.com/search.json?q=%%40%s" % TWITTER_HASH).read()\n            data = sj.loads(page, encoding="utf-8")[\'results\']\n            d = dict()\n            for e in data:\n                d[e["id"]] = e\n            r = reversed(sorted(d))\n            return dict(tweets = [d[k] for k in r])\n        else:\n            return \'disabled\'\n    except Exception, e:\n        return DIV(T(\'Unable to download because:\'),BR(),str(e))\n\n\ndef user():\n    if MULTI_USER_MODE:\n        if not db(db.auth_user).count():\n            auth.settings.registration_requires_approval = False\n        return dict(form=auth())\n    else:\n        return dict(form=T("Disabled"))\n\ndef reload_routes():\n    """ Reload routes.py """\n    import gluon.rewrite\n    gluon.rewrite.load()\n    redirect(URL(\'site\'))\n\ndef manage_students():\n    if not (MULTI_USER_MODE and is_manager()):\n        session.flash = T(\'Not Authorized\')\n        redirect(URL(\'site\'))\n    db.auth_user.registration_key.writable = True\n    grid = SQLFORM.grid(db.auth_user)\n    return locals()\n\ndef bulk_register():\n    if not (MULTI_USER_MODE and is_manager()):\n        session.flash = T(\'Not Authorized\')\n        redirect(URL(\'site\'))\n    form = SQLFORM.factory(Field(\'emails\',\'text\'))\n    if form.process().accepted:\n        emails = [x.strip() for x in form.vars.emails.split(\'\\n\') if x.strip()]\n        n = 0\n        for email in emails:\n            if not db.auth_user(email=email):\n                n += db.auth_user.insert(email = email) and 1 or 0\n        session.flash = T(\'%s students registered\',n)\n        redirect(URL(\'site\'))\n    return locals()\n\n### Begin experimental stuff need fixes:\n# 1) should run in its own process - cannot os.chdir\n# 2) should not prompt user at console\n# 3) should give option to force commit and not reuqire manual merge\n\ndef git_pull():\n    """ Git Pull handler """\n    app = get_app()\n    if not have_git:\n        session.flash = GIT_MISSING\n        redirect(URL(\'site\'))\n    dialog = FORM.confirm(T(\'Pull\'),\n                         {T(\'Cancel\'):URL(\'site\')})    \n    if dialog.accepted:\n        try:\n            repo = Repo(os.path.join(apath(r=request),app))\n            origin = repo.remotes.origin\n            origin.fetch()\n            origin.pull()\n            session.flash = T("Application updated via git pull")\n            redirect(URL(\'site\'))\n        except CheckoutError, message:\n            logging.error(message)\n            session.flash = T("Pull failed, certain files could not be checked out. Check logs for details.")\n            redirect(URL(\'site\'))\n        except UnmergedEntriesError:\n            session.flash = T("Pull is not possible because you have unmerged files. Fix them up in the work tree, and then try again.")\n            redirect(URL(\'site\'))\n        except AssertionError:\n            session.flash = T("Pull is not possible because you have unmerged files. Fix them up in the work tree, and then try again.")\n            redirect(URL(\'site\'))\n        except GitCommandError, status:\n            logging.error(str(status))\n            session.flash = T("Pull failed, git exited abnormally. See logs for details.")\n            redirect(URL(\'site\'))\n        except Exception,e:\n            logging.error("Unexpected error:", sys.exc_info()[0])\n            session.flash = T("Pull failed, git exited abnormally. See logs for details.")\n            redirect(URL(\'site\'))\n    elif \'cancel\' in request.vars:\n        redirect(URL(\'site\'))\n    return dict(app=app,dialog=dialog)\n\n\ndef git_push():\n    """ Git Push handler """\n    app = get_app()\n    if not have_git:\n        session.flash = GIT_MISSING\n        redirect(URL(\'site\'))\n    form = SQLFORM.factory(Field(\'changelog\',requires=IS_NOT_EMPTY()))\n    form.element(\'input[type=submit]\')[\'_value\']=T(\'Push\')\n    form.add_button(T(\'Cancel\'),URL(\'site\'))\n    form.process()\n    if form.accepted:\n        try:\n            repo = Repo(os.path.join(apath(r=request),app))\n            index = repo.index\n            index.add([apath(r=request)+app+\'/*\'])\n            new_commit = index.commit(form.vars.changelog)\n            origin = repo.remotes.origin\n            origin.push()\n            session.flash = T("Git repo updated with latest application changes.")\n            redirect(URL(\'site\'))\n        except UnmergedEntriesError:\n            session.flash = T("Push failed, there are unmerged entries in the cache. Resolve merge issues manually and try again.")\n            redirect(URL(\'site\'))\n        except Exception, e:\n            logging.error("Unexpected error:", sys.exc_info()[0])\n            session.flash = T("Push failed, git exited abnormally. See logs for details.")\n            redirect(URL(\'site\'))\n    return dict(app=app,form=form)\n\n\nresponse._vars=response._caller(resolve)\n'
p7
sS'snapshot'
p8
(dp9
S'exception'
p10
(dp11
S'__getslice__'
p12
S"<method-wrapper '__getslice__' of exceptions.IOError object>"
p13
sS'__str__'
p14
S"<method-wrapper '__str__' of exceptions.IOError object>"
p15
sS'__reduce__'
p16
S'<built-in method __reduce__ of exceptions.IOError object>'
p17
sS'__dict__'
p18
S'{}'
p19
sS'__sizeof__'
p20
S'<built-in method __sizeof__ of exceptions.IOError object>'
p21
sS'__init__'
p22
S"<method-wrapper '__init__' of exceptions.IOError object>"
p23
sS'__setattr__'
p24
S"<method-wrapper '__setattr__' of exceptions.IOError object>"
p25
sS'__reduce_ex__'
p26
S'<built-in method __reduce_ex__ of exceptions.IOError object>'
p27
sS'__new__'
p28
S'<built-in method __new__ of type object>'
p29
sS'errno'
p30
S'21'
p31
sS'__format__'
p32
S'<built-in method __format__ of exceptions.IOError object>'
p33
sS'__class__'
p34
S"<type 'exceptions.IOError'>"
p35
sS'filename'
p36
S"'/home/mayank/IIIT/sem 3/SSAD&Project/web2py/applications/taship1/views/default'"
p37
sS'__doc__'
p38
S"'I/O operation failed.'"
p39
sS'__getitem__'
p40
S"<method-wrapper '__getitem__' of exceptions.IOError object>"
p41
sS'__setstate__'
p42
S'<built-in method __setstate__ of exceptions.IOError object>'
p43
sS'__getattribute__'
p44
S"<method-wrapper '__getattribute__' of exceptions.IOError object>"
p45
sS'args'
p46
S"(21, 'Is a directory')"
p47
sS'__subclasshook__'
p48
S'<built-in method __subclasshook__ of type object>'
p49
sS'__unicode__'
p50
S'<built-in method __unicode__ of exceptions.IOError object>'
p51
sS'strerror'
p52
S"'Is a directory'"
p53
sS'__delattr__'
p54
S"<method-wrapper '__delattr__' of exceptions.IOError object>"
p55
sS'__repr__'
p56
S"<method-wrapper '__repr__' of exceptions.IOError object>"
p57
sS'__hash__'
p58
S"<method-wrapper '__hash__' of exceptions.IOError object>"
p59
ssS'evalue'
p60
S"[Errno 21] Is a directory: '/home/mayank/IIIT/sem 3/SSAD&Project/web2py/applications/taship1/views/default'"
p61
sS'request'
p62
ccopy_reg
_reconstructor
p63
(cgluon.html
BEAUTIFY
p64
c__builtin__
object
p65
NtRp66
(dp67
S'attributes'
p68
(dp69
sS'components'
p70
(lp71
g63
(cgluon.html
TABLE
p72
g65
NtRp73
(dp74
g68
(dp75
S'level'
p76
I5
ssS'parent'
p77
Nsg70
(lp78
g63
(cgluon.html
TR
p79
g65
NtRp80
(dp81
g68
(dp82
sg77
g73
sg70
(lp83
g63
(cgluon.html
TD
p84
g65
NtRp85
(dp86
g68
(dp87
S'_style'
p88
S'font-weight:bold;vertical-align:top'
p89
ssg77
g80
sg70
(lp90
S'ajax'
p91
asbag63
(g84
g65
NtRp92
(dp93
g68
(dp94
S'_valign'
p95
S'top'
p96
ssg77
g80
sg70
(lp97
S':'
asbag63
(g84
g65
NtRp98
(dp99
g68
(dp100
sg77
g80
sg70
(lp101
g63
(g64
g65
NtRp102
(dp103
g68
(dp104
g76
I5
ssg77
g98
sg70
(lp105
S'False'
p106
asbasbasbag63
(g79
g65
NtRp107
(dp108
g68
(dp109
sg77
g73
sg70
(lp110
g63
(g84
g65
NtRp111
(dp112
g68
(dp113
g88
g89
ssg77
g107
sg70
(lp114
S'application'
p115
asbag63
(g84
g65
NtRp116
(dp117
g68
(dp118
g95
g96
ssg77
g107
sg70
(lp119
S':'
asbag63
(g84
g65
NtRp120
(dp121
g68
(dp122
sg77
g107
sg70
(lp123
g63
(g64
g65
NtRp124
(dp125
g68
(dp126
g76
I5
ssg77
g120
sg70
(lp127
S'admin'
p128
asbasbasbag63
(g79
g65
NtRp129
(dp130
g68
(dp131
sg77
g73
sg70
(lp132
g63
(g84
g65
NtRp133
(dp134
g68
(dp135
g88
g89
ssg77
g129
sg70
(lp136
g46
asbag63
(g84
g65
NtRp137
(dp138
g68
(dp139
g95
g96
ssg77
g129
sg70
(lp140
S':'
asbag63
(g84
g65
NtRp141
(dp142
g68
(dp143
sg77
g129
sg70
(lp144
g63
(g64
g65
NtRp145
(dp146
g68
(dp147
g76
I5
ssg77
g141
sg70
(lp148
g63
(g72
g65
NtRp149
(dp150
g68
(dp151
g76
I4
ssg77
Nsg70
(lp152
g63
(g79
g65
NtRp153
(dp154
g68
(dp155
sg77
g149
sg70
(lp156
g63
(g84
g65
NtRp157
(dp158
g68
(dp159
sg77
g153
sg70
(lp160
g63
(g64
g65
NtRp161
(dp162
g68
(dp163
g76
I4
ssg77
g157
sg70
(lp164
S'taship1'
p165
asbasbasbag63
(g79
g65
NtRp166
(dp167
g68
(dp168
sg77
g149
sg70
(lp169
g63
(g84
g65
NtRp170
(dp171
g68
(dp172
sg77
g166
sg70
(lp173
g63
(g64
g65
NtRp174
(dp175
g68
(dp176
g76
I4
ssg77
g170
sg70
(lp177
S'views'
p178
asbasbasbag63
(g79
g65
NtRp179
(dp180
g68
(dp181
sg77
g149
sg70
(lp182
g63
(g84
g65
NtRp183
(dp184
g68
(dp185
sg77
g179
sg70
(lp186
g63
(g64
g65
NtRp187
(dp188
g68
(dp189
g76
I4
ssg77
g183
sg70
(lp190
S'default'
p191
asbasbasbasbasbasbasbag63
(g79
g65
NtRp192
(dp193
g68
(dp194
sg77
g73
sg70
(lp195
g63
(g84
g65
NtRp196
(dp197
g68
(dp198
g88
g89
ssg77
g192
sg70
(lp199
S'body'
p200
asbag63
(g84
g65
NtRp201
(dp202
g68
(dp203
g95
g96
ssg77
g192
sg70
(lp204
S':'
asbag63
(g84
g65
NtRp205
(dp206
g68
(dp207
sg77
g192
sg70
(lp208
g63
(g64
g65
NtRp209
(dp210
g68
(dp211
g76
I5
ssg77
g205
sg70
(lp212
S'<cStringIO.StringO object at 0x7f5c9026e2d0>'
p213
asbasbasbag63
(g79
g65
NtRp214
(dp215
g68
(dp216
sg77
g73
sg70
(lp217
g63
(g84
g65
NtRp218
(dp219
g68
(dp220
g88
g89
ssg77
g214
sg70
(lp221
S'cid'
p222
asbag63
(g84
g65
NtRp223
(dp224
g68
(dp225
g95
g96
ssg77
g214
sg70
(lp226
S':'
asbag63
(g84
g65
NtRp227
(dp228
g68
(dp229
sg77
g214
sg70
(lp230
g63
(g64
g65
NtRp231
(dp232
g68
(dp233
g76
I5
ssg77
g227
sg70
(lp234
S'None'
p235
asbasbasbag63
(g79
g65
NtRp236
(dp237
g68
(dp238
sg77
g73
sg70
(lp239
g63
(g84
g65
NtRp240
(dp241
g68
(dp242
g88
g89
ssg77
g236
sg70
(lp243
S'client'
p244
asbag63
(g84
g65
NtRp245
(dp246
g68
(dp247
g95
g96
ssg77
g236
sg70
(lp248
S':'
asbag63
(g84
g65
NtRp249
(dp250
g68
(dp251
sg77
g236
sg70
(lp252
g63
(g64
g65
NtRp253
(dp254
g68
(dp255
g76
I5
ssg77
g249
sg70
(lp256
S'127.0.0.1'
p257
asbasbasbag63
(g79
g65
NtRp258
(dp259
g68
(dp260
sg77
g73
sg70
(lp261
g63
(g84
g65
NtRp262
(dp263
g68
(dp264
g88
g89
ssg77
g258
sg70
(lp265
S'controller'
p266
asbag63
(g84
g65
NtRp267
(dp268
g68
(dp269
g95
g96
ssg77
g258
sg70
(lp270
S':'
asbag63
(g84
g65
NtRp271
(dp272
g68
(dp273
sg77
g258
sg70
(lp274
g63
(g64
g65
NtRp275
(dp276
g68
(dp277
g76
I5
ssg77
g271
sg70
(lp278
S'default'
p279
asbasbasbag63
(g79
g65
NtRp280
(dp281
g68
(dp282
sg77
g73
sg70
(lp283
g63
(g84
g65
NtRp284
(dp285
g68
(dp286
g88
g89
ssg77
g280
sg70
(lp287
S'cookies'
p288
asbag63
(g84
g65
NtRp289
(dp290
g68
(dp291
g95
g96
ssg77
g280
sg70
(lp292
S':'
asbag63
(g84
g65
NtRp293
(dp294
g68
(dp295
sg77
g280
sg70
(lp296
g63
(g64
g65
NtRp297
(dp298
g68
(dp299
g76
I5
ssg77
g293
sg70
(lp300
g63
(g72
g65
NtRp301
(dp302
g68
(dp303
g76
I4
ssg77
Nsg70
(lp304
g63
(g79
g65
NtRp305
(dp306
g68
(dp307
sg77
g301
sg70
(lp308
g63
(g84
g65
NtRp309
(dp310
g68
(dp311
g88
g89
ssg77
g305
sg70
(lp312
S'session_id_admin'
p313
asbag63
(g84
g65
NtRp314
(dp315
g68
(dp316
g95
g96
ssg77
g305
sg70
(lp317
S':'
asbag63
(g84
g65
NtRp318
(dp319
g68
(dp320
sg77
g305
sg70
(lp321
g63
(g64
g65
NtRp322
(dp323
g68
(dp324
g76
I4
ssg77
g318
sg70
(lp325
S'127.0.0.1-5dcf2937-67e2-4b75-8344-2e4702696999'
p326
ag63
(g72
g65
NtRp327
(dp328
g68
(dp329
g76
I3
ssg77
Nsg70
(lp330
g63
(g79
g65
NtRp331
(dp332
g68
(dp333
sg77
g327
sg70
(lp334
g63
(g84
g65
NtRp335
(dp336
g68
(dp337
g88
g89
ssg77
g331
sg70
(lp338
S'comment'
p339
asbag63
(g84
g65
NtRp340
(dp341
g68
(dp342
g95
g96
ssg77
g331
sg70
(lp343
S':'
asbag63
(g84
g65
NtRp344
(dp345
g68
(dp346
sg77
g331
sg70
(lp347
g63
(g64
g65
NtRp348
(dp349
g68
(dp350
g76
I3
ssg77
g344
sg70
(lp351
S''
asbasbasbag63
(g79
g65
NtRp352
(dp353
g68
(dp354
sg77
g327
sg70
(lp355
g63
(g84
g65
NtRp356
(dp357
g68
(dp358
g88
g89
ssg77
g352
sg70
(lp359
S'domain'
p360
asbag63
(g84
g65
NtRp361
(dp362
g68
(dp363
g95
g96
ssg77
g352
sg70
(lp364
S':'
asbag63
(g84
g65
NtRp365
(dp366
g68
(dp367
sg77
g352
sg70
(lp368
g63
(g64
g65
NtRp369
(dp370
g68
(dp371
g76
I3
ssg77
g365
sg70
(lp372
S''
asbasbasbag63
(g79
g65
NtRp373
(dp374
g68
(dp375
sg77
g327
sg70
(lp376
g63
(g84
g65
NtRp377
(dp378
g68
(dp379
g88
g89
ssg77
g373
sg70
(lp380
S'expires'
p381
asbag63
(g84
g65
NtRp382
(dp383
g68
(dp384
g95
g96
ssg77
g373
sg70
(lp385
S':'
asbag63
(g84
g65
NtRp386
(dp387
g68
(dp388
sg77
g373
sg70
(lp389
g63
(g64
g65
NtRp390
(dp391
g68
(dp392
g76
I3
ssg77
g386
sg70
(lp393
S''
asbasbasbag63
(g79
g65
NtRp394
(dp395
g68
(dp396
sg77
g327
sg70
(lp397
g63
(g84
g65
NtRp398
(dp399
g68
(dp400
g88
g89
ssg77
g394
sg70
(lp401
S'httponly'
p402
asbag63
(g84
g65
NtRp403
(dp404
g68
(dp405
g95
g96
ssg77
g394
sg70
(lp406
S':'
asbag63
(g84
g65
NtRp407
(dp408
g68
(dp409
sg77
g394
sg70
(lp410
g63
(g64
g65
NtRp411
(dp412
g68
(dp413
g76
I3
ssg77
g407
sg70
(lp414
S''
asbasbasbag63
(g79
g65
NtRp415
(dp416
g68
(dp417
sg77
g327
sg70
(lp418
g63
(g84
g65
NtRp419
(dp420
g68
(dp421
g88
g89
ssg77
g415
sg70
(lp422
S'max-age'
p423
asbag63
(g84
g65
NtRp424
(dp425
g68
(dp426
g95
g96
ssg77
g415
sg70
(lp427
S':'
asbag63
(g84
g65
NtRp428
(dp429
g68
(dp430
sg77
g415
sg70
(lp431
g63
(g64
g65
NtRp432
(dp433
g68
(dp434
g76
I3
ssg77
g428
sg70
(lp435
S''
asbasbasbag63
(g79
g65
NtRp436
(dp437
g68
(dp438
sg77
g327
sg70
(lp439
g63
(g84
g65
NtRp440
(dp441
g68
(dp442
g88
g89
ssg77
g436
sg70
(lp443
S'path'
p444
asbag63
(g84
g65
NtRp445
(dp446
g68
(dp447
g95
g96
ssg77
g436
sg70
(lp448
S':'
asbag63
(g84
g65
NtRp449
(dp450
g68
(dp451
sg77
g436
sg70
(lp452
g63
(g64
g65
NtRp453
(dp454
g68
(dp455
g76
I3
ssg77
g449
sg70
(lp456
S''
asbasbasbag63
(g79
g65
NtRp457
(dp458
g68
(dp459
sg77
g327
sg70
(lp460
g63
(g84
g65
NtRp461
(dp462
g68
(dp463
g88
g89
ssg77
g457
sg70
(lp464
S'secure'
p465
asbag63
(g84
g65
NtRp466
(dp467
g68
(dp468
g95
g96
ssg77
g457
sg70
(lp469
S':'
asbag63
(g84
g65
NtRp470
(dp471
g68
(dp472
sg77
g457
sg70
(lp473
g63
(g64
g65
NtRp474
(dp475
g68
(dp476
g76
I3
ssg77
g470
sg70
(lp477
S''
asbasbasbag63
(g79
g65
NtRp478
(dp479
g68
(dp480
sg77
g327
sg70
(lp481
g63
(g84
g65
NtRp482
(dp483
g68
(dp484
g88
g89
ssg77
g478
sg70
(lp485
S'version'
p486
asbag63
(g84
g65
NtRp487
(dp488
g68
(dp489
g95
g96
ssg77
g478
sg70
(lp490
S':'
asbag63
(g84
g65
NtRp491
(dp492
g68
(dp493
sg77
g478
sg70
(lp494
g63
(g64
g65
NtRp495
(dp496
g68
(dp497
g76
I3
ssg77
g491
sg70
(lp498
S''
asbasbasbasbasbasbasbag63
(g79
g65
NtRp499
(dp500
g68
(dp501
sg77
g301
sg70
(lp502
g63
(g84
g65
NtRp503
(dp504
g68
(dp505
g88
g89
ssg77
g499
sg70
(lp506
S'session_id_project'
p507
asbag63
(g84
g65
NtRp508
(dp509
g68
(dp510
g95
g96
ssg77
g499
sg70
(lp511
S':'
asbag63
(g84
g65
NtRp512
(dp513
g68
(dp514
sg77
g499
sg70
(lp515
g63
(g64
g65
NtRp516
(dp517
g68
(dp518
g76
I4
ssg77
g512
sg70
(lp519
S'127.0.0.1-465253d6-f72b-4103-9ac6-ab562270bdef'
p520
ag63
(g72
g65
NtRp521
(dp522
g68
(dp523
g76
I3
ssg77
Nsg70
(lp524
g63
(g79
g65
NtRp525
(dp526
g68
(dp527
sg77
g521
sg70
(lp528
g63
(g84
g65
NtRp529
(dp530
g68
(dp531
g88
g89
ssg77
g525
sg70
(lp532
g339
asbag63
(g84
g65
NtRp533
(dp534
g68
(dp535
g95
g96
ssg77
g525
sg70
(lp536
S':'
asbag63
(g84
g65
NtRp537
(dp538
g68
(dp539
sg77
g525
sg70
(lp540
g63
(g64
g65
NtRp541
(dp542
g68
(dp543
g76
I3
ssg77
g537
sg70
(lp544
S''
asbasbasbag63
(g79
g65
NtRp545
(dp546
g68
(dp547
sg77
g521
sg70
(lp548
g63
(g84
g65
NtRp549
(dp550
g68
(dp551
g88
g89
ssg77
g545
sg70
(lp552
g360
asbag63
(g84
g65
NtRp553
(dp554
g68
(dp555
g95
g96
ssg77
g545
sg70
(lp556
S':'
asbag63
(g84
g65
NtRp557
(dp558
g68
(dp559
sg77
g545
sg70
(lp560
g63
(g64
g65
NtRp561
(dp562
g68
(dp563
g76
I3
ssg77
g557
sg70
(lp564
S''
asbasbasbag63
(g79
g65
NtRp565
(dp566
g68
(dp567
sg77
g521
sg70
(lp568
g63
(g84
g65
NtRp569
(dp570
g68
(dp571
g88
g89
ssg77
g565
sg70
(lp572
g381
asbag63
(g84
g65
NtRp573
(dp574
g68
(dp575
g95
g96
ssg77
g565
sg70
(lp576
S':'
asbag63
(g84
g65
NtRp577
(dp578
g68
(dp579
sg77
g565
sg70
(lp580
g63
(g64
g65
NtRp581
(dp582
g68
(dp583
g76
I3
ssg77
g577
sg70
(lp584
S''
asbasbasbag63
(g79
g65
NtRp585
(dp586
g68
(dp587
sg77
g521
sg70
(lp588
g63
(g84
g65
NtRp589
(dp590
g68
(dp591
g88
g89
ssg77
g585
sg70
(lp592
g402
asbag63
(g84
g65
NtRp593
(dp594
g68
(dp595
g95
g96
ssg77
g585
sg70
(lp596
S':'
asbag63
(g84
g65
NtRp597
(dp598
g68
(dp599
sg77
g585
sg70
(lp600
g63
(g64
g65
NtRp601
(dp602
g68
(dp603
g76
I3
ssg77
g597
sg70
(lp604
S''
asbasbasbag63
(g79
g65
NtRp605
(dp606
g68
(dp607
sg77
g521
sg70
(lp608
g63
(g84
g65
NtRp609
(dp610
g68
(dp611
g88
g89
ssg77
g605
sg70
(lp612
g423
asbag63
(g84
g65
NtRp613
(dp614
g68
(dp615
g95
g96
ssg77
g605
sg70
(lp616
S':'
asbag63
(g84
g65
NtRp617
(dp618
g68
(dp619
sg77
g605
sg70
(lp620
g63
(g64
g65
NtRp621
(dp622
g68
(dp623
g76
I3
ssg77
g617
sg70
(lp624
S''
asbasbasbag63
(g79
g65
NtRp625
(dp626
g68
(dp627
sg77
g521
sg70
(lp628
g63
(g84
g65
NtRp629
(dp630
g68
(dp631
g88
g89
ssg77
g625
sg70
(lp632
g444
asbag63
(g84
g65
NtRp633
(dp634
g68
(dp635
g95
g96
ssg77
g625
sg70
(lp636
S':'
asbag63
(g84
g65
NtRp637
(dp638
g68
(dp639
sg77
g625
sg70
(lp640
g63
(g64
g65
NtRp641
(dp642
g68
(dp643
g76
I3
ssg77
g637
sg70
(lp644
S''
asbasbasbag63
(g79
g65
NtRp645
(dp646
g68
(dp647
sg77
g521
sg70
(lp648
g63
(g84
g65
NtRp649
(dp650
g68
(dp651
g88
g89
ssg77
g645
sg70
(lp652
g465
asbag63
(g84
g65
NtRp653
(dp654
g68
(dp655
g95
g96
ssg77
g645
sg70
(lp656
S':'
asbag63
(g84
g65
NtRp657
(dp658
g68
(dp659
sg77
g645
sg70
(lp660
g63
(g64
g65
NtRp661
(dp662
g68
(dp663
g76
I3
ssg77
g657
sg70
(lp664
S''
asbasbasbag63
(g79
g65
NtRp665
(dp666
g68
(dp667
sg77
g521
sg70
(lp668
g63
(g84
g65
NtRp669
(dp670
g68
(dp671
g88
g89
ssg77
g665
sg70
(lp672
g486
asbag63
(g84
g65
NtRp673
(dp674
g68
(dp675
g95
g96
ssg77
g665
sg70
(lp676
S':'
asbag63
(g84
g65
NtRp677
(dp678
g68
(dp679
sg77
g665
sg70
(lp680
g63
(g64
g65
NtRp681
(dp682
g68
(dp683
g76
I3
ssg77
g677
sg70
(lp684
S''
asbasbasbasbasbasbasbag63
(g79
g65
NtRp685
(dp686
g68
(dp687
sg77
g301
sg70
(lp688
g63
(g84
g65
NtRp689
(dp690
g68
(dp691
g88
g89
ssg77
g685
sg70
(lp692
S'session_id_tashi'
p693
asbag63
(g84
g65
NtRp694
(dp695
g68
(dp696
g95
g96
ssg77
g685
sg70
(lp697
S':'
asbag63
(g84
g65
NtRp698
(dp699
g68
(dp700
sg77
g685
sg70
(lp701
g63
(g64
g65
NtRp702
(dp703
g68
(dp704
g76
I4
ssg77
g698
sg70
(lp705
S'127.0.0.1-8380671b-683e-496c-953c-7ba6ca3db8fd'
p706
ag63
(g72
g65
NtRp707
(dp708
g68
(dp709
g76
I3
ssg77
Nsg70
(lp710
g63
(g79
g65
NtRp711
(dp712
g68
(dp713
sg77
g707
sg70
(lp714
g63
(g84
g65
NtRp715
(dp716
g68
(dp717
g88
g89
ssg77
g711
sg70
(lp718
g339
asbag63
(g84
g65
NtRp719
(dp720
g68
(dp721
g95
g96
ssg77
g711
sg70
(lp722
S':'
asbag63
(g84
g65
NtRp723
(dp724
g68
(dp725
sg77
g711
sg70
(lp726
g63
(g64
g65
NtRp727
(dp728
g68
(dp729
g76
I3
ssg77
g723
sg70
(lp730
S''
asbasbasbag63
(g79
g65
NtRp731
(dp732
g68
(dp733
sg77
g707
sg70
(lp734
g63
(g84
g65
NtRp735
(dp736
g68
(dp737
g88
g89
ssg77
g731
sg70
(lp738
g360
asbag63
(g84
g65
NtRp739
(dp740
g68
(dp741
g95
g96
ssg77
g731
sg70
(lp742
S':'
asbag63
(g84
g65
NtRp743
(dp744
g68
(dp745
sg77
g731
sg70
(lp746
g63
(g64
g65
NtRp747
(dp748
g68
(dp749
g76
I3
ssg77
g743
sg70
(lp750
S''
asbasbasbag63
(g79
g65
NtRp751
(dp752
g68
(dp753
sg77
g707
sg70
(lp754
g63
(g84
g65
NtRp755
(dp756
g68
(dp757
g88
g89
ssg77
g751
sg70
(lp758
g381
asbag63
(g84
g65
NtRp759
(dp760
g68
(dp761
g95
g96
ssg77
g751
sg70
(lp762
S':'
asbag63
(g84
g65
NtRp763
(dp764
g68
(dp765
sg77
g751
sg70
(lp766
g63
(g64
g65
NtRp767
(dp768
g68
(dp769
g76
I3
ssg77
g763
sg70
(lp770
S''
asbasbasbag63
(g79
g65
NtRp771
(dp772
g68
(dp773
sg77
g707
sg70
(lp774
g63
(g84
g65
NtRp775
(dp776
g68
(dp777
g88
g89
ssg77
g771
sg70
(lp778
g402
asbag63
(g84
g65
NtRp779
(dp780
g68
(dp781
g95
g96
ssg77
g771
sg70
(lp782
S':'
asbag63
(g84
g65
NtRp783
(dp784
g68
(dp785
sg77
g771
sg70
(lp786
g63
(g64
g65
NtRp787
(dp788
g68
(dp789
g76
I3
ssg77
g783
sg70
(lp790
S''
asbasbasbag63
(g79
g65
NtRp791
(dp792
g68
(dp793
sg77
g707
sg70
(lp794
g63
(g84
g65
NtRp795
(dp796
g68
(dp797
g88
g89
ssg77
g791
sg70
(lp798
g423
asbag63
(g84
g65
NtRp799
(dp800
g68
(dp801
g95
g96
ssg77
g791
sg70
(lp802
S':'
asbag63
(g84
g65
NtRp803
(dp804
g68
(dp805
sg77
g791
sg70
(lp806
g63
(g64
g65
NtRp807
(dp808
g68
(dp809
g76
I3
ssg77
g803
sg70
(lp810
S''
asbasbasbag63
(g79
g65
NtRp811
(dp812
g68
(dp813
sg77
g707
sg70
(lp814
g63
(g84
g65
NtRp815
(dp816
g68
(dp817
g88
g89
ssg77
g811
sg70
(lp818
g444
asbag63
(g84
g65
NtRp819
(dp820
g68
(dp821
g95
g96
ssg77
g811
sg70
(lp822
S':'
asbag63
(g84
g65
NtRp823
(dp824
g68
(dp825
sg77
g811
sg70
(lp826
g63
(g64
g65
NtRp827
(dp828
g68
(dp829
g76
I3
ssg77
g823
sg70
(lp830
S''
asbasbasbag63
(g79
g65
NtRp831
(dp832
g68
(dp833
sg77
g707
sg70
(lp834
g63
(g84
g65
NtRp835
(dp836
g68
(dp837
g88
g89
ssg77
g831
sg70
(lp838
g465
asbag63
(g84
g65
NtRp839
(dp840
g68
(dp841
g95
g96
ssg77
g831
sg70
(lp842
S':'
asbag63
(g84
g65
NtRp843
(dp844
g68
(dp845
sg77
g831
sg70
(lp846
g63
(g64
g65
NtRp847
(dp848
g68
(dp849
g76
I3
ssg77
g843
sg70
(lp850
S''
asbasbasbag63
(g79
g65
NtRp851
(dp852
g68
(dp853
sg77
g707
sg70
(lp854
g63
(g84
g65
NtRp855
(dp856
g68
(dp857
g88
g89
ssg77
g851
sg70
(lp858
g486
asbag63
(g84
g65
NtRp859
(dp860
g68
(dp861
g95
g96
ssg77
g851
sg70
(lp862
S':'
asbag63
(g84
g65
NtRp863
(dp864
g68
(dp865
sg77
g851
sg70
(lp866
g63
(g64
g65
NtRp867
(dp868
g68
(dp869
g76
I3
ssg77
g863
sg70
(lp870
S''
asbasbasbasbasbasbasbag63
(g79
g65
NtRp871
(dp872
g68
(dp873
sg77
g301
sg70
(lp874
g63
(g84
g65
NtRp875
(dp876
g68
(dp877
g88
g89
ssg77
g871
sg70
(lp878
S'session_id_taship1'
p879
asbag63
(g84
g65
NtRp880
(dp881
g68
(dp882
g95
g96
ssg77
g871
sg70
(lp883
S':'
asbag63
(g84
g65
NtRp884
(dp885
g68
(dp886
sg77
g871
sg70
(lp887
g63
(g64
g65
NtRp888
(dp889
g68
(dp890
g76
I4
ssg77
g884
sg70
(lp891
S'127.0.0.1-ba46bc10-544c-4be6-9e27-483a0d6032f3'
p892
ag63
(g72
g65
NtRp893
(dp894
g68
(dp895
g76
I3
ssg77
Nsg70
(lp896
g63
(g79
g65
NtRp897
(dp898
g68
(dp899
sg77
g893
sg70
(lp900
g63
(g84
g65
NtRp901
(dp902
g68
(dp903
g88
g89
ssg77
g897
sg70
(lp904
g339
asbag63
(g84
g65
NtRp905
(dp906
g68
(dp907
g95
g96
ssg77
g897
sg70
(lp908
S':'
asbag63
(g84
g65
NtRp909
(dp910
g68
(dp911
sg77
g897
sg70
(lp912
g63
(g64
g65
NtRp913
(dp914
g68
(dp915
g76
I3
ssg77
g909
sg70
(lp916
S''
asbasbasbag63
(g79
g65
NtRp917
(dp918
g68
(dp919
sg77
g893
sg70
(lp920
g63
(g84
g65
NtRp921
(dp922
g68
(dp923
g88
g89
ssg77
g917
sg70
(lp924
g360
asbag63
(g84
g65
NtRp925
(dp926
g68
(dp927
g95
g96
ssg77
g917
sg70
(lp928
S':'
asbag63
(g84
g65
NtRp929
(dp930
g68
(dp931
sg77
g917
sg70
(lp932
g63
(g64
g65
NtRp933
(dp934
g68
(dp935
g76
I3
ssg77
g929
sg70
(lp936
S''
asbasbasbag63
(g79
g65
NtRp937
(dp938
g68
(dp939
sg77
g893
sg70
(lp940
g63
(g84
g65
NtRp941
(dp942
g68
(dp943
g88
g89
ssg77
g937
sg70
(lp944
g381
asbag63
(g84
g65
NtRp945
(dp946
g68
(dp947
g95
g96
ssg77
g937
sg70
(lp948
S':'
asbag63
(g84
g65
NtRp949
(dp950
g68
(dp951
sg77
g937
sg70
(lp952
g63
(g64
g65
NtRp953
(dp954
g68
(dp955
g76
I3
ssg77
g949
sg70
(lp956
S''
asbasbasbag63
(g79
g65
NtRp957
(dp958
g68
(dp959
sg77
g893
sg70
(lp960
g63
(g84
g65
NtRp961
(dp962
g68
(dp963
g88
g89
ssg77
g957
sg70
(lp964
g402
asbag63
(g84
g65
NtRp965
(dp966
g68
(dp967
g95
g96
ssg77
g957
sg70
(lp968
S':'
asbag63
(g84
g65
NtRp969
(dp970
g68
(dp971
sg77
g957
sg70
(lp972
g63
(g64
g65
NtRp973
(dp974
g68
(dp975
g76
I3
ssg77
g969
sg70
(lp976
S''
asbasbasbag63
(g79
g65
NtRp977
(dp978
g68
(dp979
sg77
g893
sg70
(lp980
g63
(g84
g65
NtRp981
(dp982
g68
(dp983
g88
g89
ssg77
g977
sg70
(lp984
g423
asbag63
(g84
g65
NtRp985
(dp986
g68
(dp987
g95
g96
ssg77
g977
sg70
(lp988
S':'
asbag63
(g84
g65
NtRp989
(dp990
g68
(dp991
sg77
g977
sg70
(lp992
g63
(g64
g65
NtRp993
(dp994
g68
(dp995
g76
I3
ssg77
g989
sg70
(lp996
S''
asbasbasbag63
(g79
g65
NtRp997
(dp998
g68
(dp999
sg77
g893
sg70
(lp1000
g63
(g84
g65
NtRp1001
(dp1002
g68
(dp1003
g88
g89
ssg77
g997
sg70
(lp1004
g444
asbag63
(g84
g65
NtRp1005
(dp1006
g68
(dp1007
g95
g96
ssg77
g997
sg70
(lp1008
S':'
asbag63
(g84
g65
NtRp1009
(dp1010
g68
(dp1011
sg77
g997
sg70
(lp1012
g63
(g64
g65
NtRp1013
(dp1014
g68
(dp1015
g76
I3
ssg77
g1009
sg70
(lp1016
S''
asbasbasbag63
(g79
g65
NtRp1017
(dp1018
g68
(dp1019
sg77
g893
sg70
(lp1020
g63
(g84
g65
NtRp1021
(dp1022
g68
(dp1023
g88
g89
ssg77
g1017
sg70
(lp1024
g465
asbag63
(g84
g65
NtRp1025
(dp1026
g68
(dp1027
g95
g96
ssg77
g1017
sg70
(lp1028
S':'
asbag63
(g84
g65
NtRp1029
(dp1030
g68
(dp1031
sg77
g1017
sg70
(lp1032
g63
(g64
g65
NtRp1033
(dp1034
g68
(dp1035
g76
I3
ssg77
g1029
sg70
(lp1036
S''
asbasbasbag63
(g79
g65
NtRp1037
(dp1038
g68
(dp1039
sg77
g893
sg70
(lp1040
g63
(g84
g65
NtRp1041
(dp1042
g68
(dp1043
g88
g89
ssg77
g1037
sg70
(lp1044
g486
asbag63
(g84
g65
NtRp1045
(dp1046
g68
(dp1047
g95
g96
ssg77
g1037
sg70
(lp1048
S':'
asbag63
(g84
g65
NtRp1049
(dp1050
g68
(dp1051
sg77
g1037
sg70
(lp1052
g63
(g64
g65
NtRp1053
(dp1054
g68
(dp1055
g76
I3
ssg77
g1049
sg70
(lp1056
S''
asbasbasbasbasbasbasbag63
(g79
g65
NtRp1057
(dp1058
g68
(dp1059
sg77
g301
sg70
(lp1060
g63
(g84
g65
NtRp1061
(dp1062
g68
(dp1063
g88
g89
ssg77
g1057
sg70
(lp1064
S'session_id_welcome'
p1065
asbag63
(g84
g65
NtRp1066
(dp1067
g68
(dp1068
g95
g96
ssg77
g1057
sg70
(lp1069
S':'
asbag63
(g84
g65
NtRp1070
(dp1071
g68
(dp1072
sg77
g1057
sg70
(lp1073
g63
(g64
g65
NtRp1074
(dp1075
g68
(dp1076
g76
I4
ssg77
g1070
sg70
(lp1077
S'127.0.0.1-3bfc019e-6879-4570-8ec3-d47a909e5c58'
p1078
ag63
(g72
g65
NtRp1079
(dp1080
g68
(dp1081
g76
I3
ssg77
Nsg70
(lp1082
g63
(g79
g65
NtRp1083
(dp1084
g68
(dp1085
sg77
g1079
sg70
(lp1086
g63
(g84
g65
NtRp1087
(dp1088
g68
(dp1089
g88
g89
ssg77
g1083
sg70
(lp1090
g339
asbag63
(g84
g65
NtRp1091
(dp1092
g68
(dp1093
g95
g96
ssg77
g1083
sg70
(lp1094
S':'
asbag63
(g84
g65
NtRp1095
(dp1096
g68
(dp1097
sg77
g1083
sg70
(lp1098
g63
(g64
g65
NtRp1099
(dp1100
g68
(dp1101
g76
I3
ssg77
g1095
sg70
(lp1102
S''
asbasbasbag63
(g79
g65
NtRp1103
(dp1104
g68
(dp1105
sg77
g1079
sg70
(lp1106
g63
(g84
g65
NtRp1107
(dp1108
g68
(dp1109
g88
g89
ssg77
g1103
sg70
(lp1110
g360
asbag63
(g84
g65
NtRp1111
(dp1112
g68
(dp1113
g95
g96
ssg77
g1103
sg70
(lp1114
S':'
asbag63
(g84
g65
NtRp1115
(dp1116
g68
(dp1117
sg77
g1103
sg70
(lp1118
g63
(g64
g65
NtRp1119
(dp1120
g68
(dp1121
g76
I3
ssg77
g1115
sg70
(lp1122
S''
asbasbasbag63
(g79
g65
NtRp1123
(dp1124
g68
(dp1125
sg77
g1079
sg70
(lp1126
g63
(g84
g65
NtRp1127
(dp1128
g68
(dp1129
g88
g89
ssg77
g1123
sg70
(lp1130
g381
asbag63
(g84
g65
NtRp1131
(dp1132
g68
(dp1133
g95
g96
ssg77
g1123
sg70
(lp1134
S':'
asbag63
(g84
g65
NtRp1135
(dp1136
g68
(dp1137
sg77
g1123
sg70
(lp1138
g63
(g64
g65
NtRp1139
(dp1140
g68
(dp1141
g76
I3
ssg77
g1135
sg70
(lp1142
S''
asbasbasbag63
(g79
g65
NtRp1143
(dp1144
g68
(dp1145
sg77
g1079
sg70
(lp1146
g63
(g84
g65
NtRp1147
(dp1148
g68
(dp1149
g88
g89
ssg77
g1143
sg70
(lp1150
g402
asbag63
(g84
g65
NtRp1151
(dp1152
g68
(dp1153
g95
g96
ssg77
g1143
sg70
(lp1154
S':'
asbag63
(g84
g65
NtRp1155
(dp1156
g68
(dp1157
sg77
g1143
sg70
(lp1158
g63
(g64
g65
NtRp1159
(dp1160
g68
(dp1161
g76
I3
ssg77
g1155
sg70
(lp1162
S''
asbasbasbag63
(g79
g65
NtRp1163
(dp1164
g68
(dp1165
sg77
g1079
sg70
(lp1166
g63
(g84
g65
NtRp1167
(dp1168
g68
(dp1169
g88
g89
ssg77
g1163
sg70
(lp1170
g423
asbag63
(g84
g65
NtRp1171
(dp1172
g68
(dp1173
g95
g96
ssg77
g1163
sg70
(lp1174
S':'
asbag63
(g84
g65
NtRp1175
(dp1176
g68
(dp1177
sg77
g1163
sg70
(lp1178
g63
(g64
g65
NtRp1179
(dp1180
g68
(dp1181
g76
I3
ssg77
g1175
sg70
(lp1182
S''
asbasbasbag63
(g79
g65
NtRp1183
(dp1184
g68
(dp1185
sg77
g1079
sg70
(lp1186
g63
(g84
g65
NtRp1187
(dp1188
g68
(dp1189
g88
g89
ssg77
g1183
sg70
(lp1190
g444
asbag63
(g84
g65
NtRp1191
(dp1192
g68
(dp1193
g95
g96
ssg77
g1183
sg70
(lp1194
S':'
asbag63
(g84
g65
NtRp1195
(dp1196
g68
(dp1197
sg77
g1183
sg70
(lp1198
g63
(g64
g65
NtRp1199
(dp1200
g68
(dp1201
g76
I3
ssg77
g1195
sg70
(lp1202
S''
asbasbasbag63
(g79
g65
NtRp1203
(dp1204
g68
(dp1205
sg77
g1079
sg70
(lp1206
g63
(g84
g65
NtRp1207
(dp1208
g68
(dp1209
g88
g89
ssg77
g1203
sg70
(lp1210
g465
asbag63
(g84
g65
NtRp1211
(dp1212
g68
(dp1213
g95
g96
ssg77
g1203
sg70
(lp1214
S':'
asbag63
(g84
g65
NtRp1215
(dp1216
g68
(dp1217
sg77
g1203
sg70
(lp1218
g63
(g64
g65
NtRp1219
(dp1220
g68
(dp1221
g76
I3
ssg77
g1215
sg70
(lp1222
S''
asbasbasbag63
(g79
g65
NtRp1223
(dp1224
g68
(dp1225
sg77
g1079
sg70
(lp1226
g63
(g84
g65
NtRp1227
(dp1228
g68
(dp1229
g88
g89
ssg77
g1223
sg70
(lp1230
g486
asbag63
(g84
g65
NtRp1231
(dp1232
g68
(dp1233
g95
g96
ssg77
g1223
sg70
(lp1234
S':'
asbag63
(g84
g65
NtRp1235
(dp1236
g68
(dp1237
sg77
g1223
sg70
(lp1238
g63
(g64
g65
NtRp1239
(dp1240
g68
(dp1241
g76
I3
ssg77
g1235
sg70
(lp1242
S''
asbasbasbasbasbasbasbasbasbasbasbag63
(g79
g65
NtRp1243
(dp1244
g68
(dp1245
sg77
g73
sg70
(lp1246
g63
(g84
g65
NtRp1247
(dp1248
g68
(dp1249
g88
g89
ssg77
g1243
sg70
(lp1250
S'env'
p1251
asbag63
(g84
g65
NtRp1252
(dp1253
g68
(dp1254
g95
g96
ssg77
g1243
sg70
(lp1255
S':'
asbag63
(g84
g65
NtRp1256
(dp1257
g68
(dp1258
sg77
g1243
sg70
(lp1259
g63
(g64
g65
NtRp1260
(dp1261
g68
(dp1262
g76
I5
ssg77
g1256
sg70
(lp1263
g63
(g72
g65
NtRp1264
(dp1265
g68
(dp1266
g76
I4
ssg77
Nsg70
(lp1267
g63
(g79
g65
NtRp1268
(dp1269
g68
(dp1270
sg77
g1264
sg70
(lp1271
g63
(g84
g65
NtRp1272
(dp1273
g68
(dp1274
g88
g89
ssg77
g1268
sg70
(lp1275
S'app_folders'
p1276
asbag63
(g84
g65
NtRp1277
(dp1278
g68
(dp1279
g95
g96
ssg77
g1268
sg70
(lp1280
S':'
asbag63
(g84
g65
NtRp1281
(dp1282
g68
(dp1283
sg77
g1268
sg70
(lp1284
g63
(g64
g65
NtRp1285
(dp1286
g68
(dp1287
g76
I4
ssg77
g1281
sg70
(lp1288
S"set(['/home/mayank/IIIT/sem 3/SSAD&Project/web2py/applications/taship1/', '/home/mayank/IIIT/sem 3/SSAD&Project/web2py/applications/admin/', '/home/mayank/IIIT/sem 3/SSAD&Project/web2py/applications/welcome/'])"
p1289
asbasbasbag63
(g79
g65
NtRp1290
(dp1291
g68
(dp1292
sg77
g1264
sg70
(lp1293
g63
(g84
g65
NtRp1294
(dp1295
g68
(dp1296
g88
g89
ssg77
g1290
sg70
(lp1297
S'applications_parent'
p1298
asbag63
(g84
g65
NtRp1299
(dp1300
g68
(dp1301
g95
g96
ssg77
g1290
sg70
(lp1302
S':'
asbag63
(g84
g65
NtRp1303
(dp1304
g68
(dp1305
sg77
g1290
sg70
(lp1306
g63
(g64
g65
NtRp1307
(dp1308
g68
(dp1309
g76
I4
ssg77
g1303
sg70
(lp1310
S'/home/mayank/IIIT/sem 3/SSAD&Project/web2py'
p1311
asbasbasbag63
(g79
g65
NtRp1312
(dp1313
g68
(dp1314
sg77
g1264
sg70
(lp1315
g63
(g84
g65
NtRp1316
(dp1317
g68
(dp1318
g88
g89
ssg77
g1312
sg70
(lp1319
S'cmd_args'
p1320
asbag63
(g84
g65
NtRp1321
(dp1322
g68
(dp1323
g95
g96
ssg77
g1312
sg70
(lp1324
S':'
asbag63
(g84
g65
NtRp1325
(dp1326
g68
(dp1327
sg77
g1312
sg70
(lp1328
g63
(g64
g65
NtRp1329
(dp1330
g68
(dp1331
g76
I4
ssg77
g1325
sg70
(lp1332
g63
(g72
g65
NtRp1333
(dp1334
g68
(dp1335
g76
I3
ssg77
Nsg70
(lp1336
sbasbasbasbag63
(g79
g65
NtRp1337
(dp1338
g68
(dp1339
sg77
g1264
sg70
(lp1340
g63
(g84
g65
NtRp1341
(dp1342
g68
(dp1343
g88
g89
ssg77
g1337
sg70
(lp1344
S'cmd_options'
p1345
asbag63
(g84
g65
NtRp1346
(dp1347
g68
(dp1348
g95
g96
ssg77
g1337
sg70
(lp1349
S':'
asbag63
(g84
g65
NtRp1350
(dp1351
g68
(dp1352
sg77
g1337
sg70
(lp1353
g63
(g64
g65
NtRp1354
(dp1355
g68
(dp1356
g76
I4
ssg77
g1350
sg70
(lp1357
S"<Values at 0x202e320: {'verbose': False, 'ip': '127.0.0.1', 'with_scheduler': False, 'ips': ['127.0.1.1'], 'shutdown_timeout': 5, 'taskbar': False, 'port': 8000, 'maxthreads': None, 'softcron': False, 'server_name': 'mayank', 'bpython': False, 'nogui': False, 'nocron': False, 'extcron': False, 'run_system_tests': False, 'test': None, 'folder': '/home/mayank/IIIT/sem 3/SSAD&Project/web2py', 'config': '', 'import_models': False, 'winservice': '', 'shell': None, 'run': '', 'log_filename': 'httpserver.log', 'debuglevel': 30, 'args': [''], 'socket_timeout': 5, 'ssl_ca_certificate': None, 'scheduler': None, 'profiler_filename': None, 'ssl_private_key': '', 'scheduler_groups': None, 'password': '<ask>', 'request_queue_size': 5, 'ssl_certificate': '', 'cronjob': False, 'numthreads': None, 'quiet': False, 'interfaces': None, 'minthreads': None, 'timeout': 10, 'plain': False, 'nobanner': False, 'pid_filename': 'httpserver.pid'}>"
p1358
asbasbasbag63
(g79
g65
NtRp1359
(dp1360
g68
(dp1361
sg77
g1264
sg70
(lp1362
g63
(g84
g65
NtRp1363
(dp1364
g68
(dp1365
g88
g89
ssg77
g1359
sg70
(lp1366
S'db_sessions'
p1367
asbag63
(g84
g65
NtRp1368
(dp1369
g68
(dp1370
g95
g96
ssg77
g1359
sg70
(lp1371
S':'
asbag63
(g84
g65
NtRp1372
(dp1373
g68
(dp1374
sg77
g1359
sg70
(lp1375
g63
(g64
g65
NtRp1376
(dp1377
g68
(dp1378
g76
I4
ssg77
g1372
sg70
(lp1379
S'set([])'
p1380
asbasbasbag63
(g79
g65
NtRp1381
(dp1382
g68
(dp1383
sg77
g1264
sg70
(lp1384
g63
(g84
g65
NtRp1385
(dp1386
g68
(dp1387
g88
g89
ssg77
g1381
sg70
(lp1388
S'debugging'
p1389
asbag63
(g84
g65
NtRp1390
(dp1391
g68
(dp1392
g95
g96
ssg77
g1381
sg70
(lp1393
S':'
asbag63
(g84
g65
NtRp1394
(dp1395
g68
(dp1396
sg77
g1381
sg70
(lp1397
g63
(g64
g65
NtRp1398
(dp1399
g68
(dp1400
g76
I4
ssg77
g1394
sg70
(lp1401
g106
asbasbasbag63
(g79
g65
NtRp1402
(dp1403
g68
(dp1404
sg77
g1264
sg70
(lp1405
g63
(g84
g65
NtRp1406
(dp1407
g68
(dp1408
g88
g89
ssg77
g1402
sg70
(lp1409
S'gluon_parent'
p1410
asbag63
(g84
g65
NtRp1411
(dp1412
g68
(dp1413
g95
g96
ssg77
g1402
sg70
(lp1414
S':'
asbag63
(g84
g65
NtRp1415
(dp1416
g68
(dp1417
sg77
g1402
sg70
(lp1418
g63
(g64
g65
NtRp1419
(dp1420
g68
(dp1421
g76
I4
ssg77
g1415
sg70
(lp1422
S'/home/mayank/IIIT/sem 3/SSAD&Project/web2py'
p1423
asbasbasbag63
(g79
g65
NtRp1424
(dp1425
g68
(dp1426
sg77
g1264
sg70
(lp1427
g63
(g84
g65
NtRp1428
(dp1429
g68
(dp1430
g88
g89
ssg77
g1424
sg70
(lp1431
S'http_accept'
p1432
asbag63
(g84
g65
NtRp1433
(dp1434
g68
(dp1435
g95
g96
ssg77
g1424
sg70
(lp1436
S':'
asbag63
(g84
g65
NtRp1437
(dp1438
g68
(dp1439
sg77
g1424
sg70
(lp1440
g63
(g64
g65
NtRp1441
(dp1442
g68
(dp1443
g76
I4
ssg77
g1437
sg70
(lp1444
S'text/html,application/xhtml+xml,application/xml;q=0.9,*/*;q=0.8'
p1445
asbasbasbag63
(g79
g65
NtRp1446
(dp1447
g68
(dp1448
sg77
g1264
sg70
(lp1449
g63
(g84
g65
NtRp1450
(dp1451
g68
(dp1452
g88
g89
ssg77
g1446
sg70
(lp1453
S'http_accept_encoding'
p1454
asbag63
(g84
g65
NtRp1455
(dp1456
g68
(dp1457
g95
g96
ssg77
g1446
sg70
(lp1458
S':'
asbag63
(g84
g65
NtRp1459
(dp1460
g68
(dp1461
sg77
g1446
sg70
(lp1462
g63
(g64
g65
NtRp1463
(dp1464
g68
(dp1465
g76
I4
ssg77
g1459
sg70
(lp1466
S'gzip, deflate'
p1467
asbasbasbag63
(g79
g65
NtRp1468
(dp1469
g68
(dp1470
sg77
g1264
sg70
(lp1471
g63
(g84
g65
NtRp1472
(dp1473
g68
(dp1474
g88
g89
ssg77
g1468
sg70
(lp1475
S'http_accept_language'
p1476
asbag63
(g84
g65
NtRp1477
(dp1478
g68
(dp1479
g95
g96
ssg77
g1468
sg70
(lp1480
S':'
asbag63
(g84
g65
NtRp1481
(dp1482
g68
(dp1483
sg77
g1468
sg70
(lp1484
g63
(g64
g65
NtRp1485
(dp1486
g68
(dp1487
g76
I4
ssg77
g1481
sg70
(lp1488
S'en-US,en;q=0.5'
p1489
asbasbasbag63
(g79
g65
NtRp1490
(dp1491
g68
(dp1492
sg77
g1264
sg70
(lp1493
g63
(g84
g65
NtRp1494
(dp1495
g68
(dp1496
g88
g89
ssg77
g1490
sg70
(lp1497
S'http_connection'
p1498
asbag63
(g84
g65
NtRp1499
(dp1500
g68
(dp1501
g95
g96
ssg77
g1490
sg70
(lp1502
S':'
asbag63
(g84
g65
NtRp1503
(dp1504
g68
(dp1505
sg77
g1490
sg70
(lp1506
g63
(g64
g65
NtRp1507
(dp1508
g68
(dp1509
g76
I4
ssg77
g1503
sg70
(lp1510
S'keep-alive'
p1511
asbasbasbag63
(g79
g65
NtRp1512
(dp1513
g68
(dp1514
sg77
g1264
sg70
(lp1515
g63
(g84
g65
NtRp1516
(dp1517
g68
(dp1518
g88
g89
ssg77
g1512
sg70
(lp1519
S'http_cookie'
p1520
asbag63
(g84
g65
NtRp1521
(dp1522
g68
(dp1523
g95
g96
ssg77
g1512
sg70
(lp1524
S':'
asbag63
(g84
g65
NtRp1525
(dp1526
g68
(dp1527
sg77
g1512
sg70
(lp1528
g63
(g64
g65
NtRp1529
(dp1530
g68
(dp1531
g76
I4
ssg77
g1525
sg70
(lp1532
S'session_id_welcome=127.0.0.1-3bfc019e-6879-4570-8ec3-d47a909e5c58; session_id_admin=127.0.0.1-5dcf2937-67e2-4b75-8344-2e4702696999; session_id_taship1=127.0.0.1-ba46bc10-544c-4be6-9e27-483a0d6032f3; session_id_tashi=127.0.0.1-8380671b-683e-496c-953c-7ba6ca3db8fd; session_id_project=127.0.0.1-465253d6-f72b-4103-9ac6-ab562270bdef'
p1533
asbasbasbag63
(g79
g65
NtRp1534
(dp1535
g68
(dp1536
sg77
g1264
sg70
(lp1537
g63
(g84
g65
NtRp1538
(dp1539
g68
(dp1540
g88
g89
ssg77
g1534
sg70
(lp1541
S'http_host'
p1542
asbag63
(g84
g65
NtRp1543
(dp1544
g68
(dp1545
g95
g96
ssg77
g1534
sg70
(lp1546
S':'
asbag63
(g84
g65
NtRp1547
(dp1548
g68
(dp1549
sg77
g1534
sg70
(lp1550
g63
(g64
g65
NtRp1551
(dp1552
g68
(dp1553
g76
I4
ssg77
g1547
sg70
(lp1554
S'127.0.0.1:8000'
p1555
asbasbasbag63
(g79
g65
NtRp1556
(dp1557
g68
(dp1558
sg77
g1264
sg70
(lp1559
g63
(g84
g65
NtRp1560
(dp1561
g68
(dp1562
g88
g89
ssg77
g1556
sg70
(lp1563
S'http_user_agent'
p1564
asbag63
(g84
g65
NtRp1565
(dp1566
g68
(dp1567
g95
g96
ssg77
g1556
sg70
(lp1568
S':'
asbag63
(g84
g65
NtRp1569
(dp1570
g68
(dp1571
sg77
g1556
sg70
(lp1572
g63
(g64
g65
NtRp1573
(dp1574
g68
(dp1575
g76
I4
ssg77
g1569
sg70
(lp1576
S'Mozilla/5.0 (X11; Ubuntu; Linux x86_64; rv:16.0) Gecko/20100101 Firefox/16.0'
p1577
asbasbasbag63
(g79
g65
NtRp1578
(dp1579
g68
(dp1580
sg77
g1264
sg70
(lp1581
g63
(g84
g65
NtRp1582
(dp1583
g68
(dp1584
g88
g89
ssg77
g1578
sg70
(lp1585
S'is_jython'
p1586
asbag63
(g84
g65
NtRp1587
(dp1588
g68
(dp1589
g95
g96
ssg77
g1578
sg70
(lp1590
S':'
asbag63
(g84
g65
NtRp1591
(dp1592
g68
(dp1593
sg77
g1578
sg70
(lp1594
g63
(g64
g65
NtRp1595
(dp1596
g68
(dp1597
g76
I4
ssg77
g1591
sg70
(lp1598
g106
asbasbasbag63
(g79
g65
NtRp1599
(dp1600
g68
(dp1601
sg77
g1264
sg70
(lp1602
g63
(g84
g65
NtRp1603
(dp1604
g68
(dp1605
g88
g89
ssg77
g1599
sg70
(lp1606
S'is_pypy'
p1607
asbag63
(g84
g65
NtRp1608
(dp1609
g68
(dp1610
g95
g96
ssg77
g1599
sg70
(lp1611
S':'
asbag63
(g84
g65
NtRp1612
(dp1613
g68
(dp1614
sg77
g1599
sg70
(lp1615
g63
(g64
g65
NtRp1616
(dp1617
g68
(dp1618
g76
I4
ssg77
g1612
sg70
(lp1619
g106
asbasbasbag63
(g79
g65
NtRp1620
(dp1621
g68
(dp1622
sg77
g1264
sg70
(lp1623
g63
(g84
g65
NtRp1624
(dp1625
g68
(dp1626
g88
g89
ssg77
g1620
sg70
(lp1627
S'path_info'
p1628
asbag63
(g84
g65
NtRp1629
(dp1630
g68
(dp1631
g95
g96
ssg77
g1620
sg70
(lp1632
S':'
asbag63
(g84
g65
NtRp1633
(dp1634
g68
(dp1635
sg77
g1620
sg70
(lp1636
g63
(g64
g65
NtRp1637
(dp1638
g68
(dp1639
g76
I4
ssg77
g1633
sg70
(lp1640
S'/admin/default/resolve/taship1/views/default/'
p1641
asbasbasbag63
(g79
g65
NtRp1642
(dp1643
g68
(dp1644
sg77
g1264
sg70
(lp1645
g63
(g84
g65
NtRp1646
(dp1647
g68
(dp1648
g88
g89
ssg77
g1642
sg70
(lp1649
S'query_string'
p1650
asbag63
(g84
g65
NtRp1651
(dp1652
g68
(dp1653
g95
g96
ssg77
g1642
sg70
(lp1654
S':'
asbag63
(g84
g65
NtRp1655
(dp1656
g68
(dp1657
sg77
g1642
sg70
(lp1658
g63
(g64
g65
NtRp1659
(dp1660
g68
(dp1661
g76
I4
ssg77
g1655
sg70
(lp1662
S''
asbasbasbag63
(g79
g65
NtRp1663
(dp1664
g68
(dp1665
sg77
g1264
sg70
(lp1666
g63
(g84
g65
NtRp1667
(dp1668
g68
(dp1669
g88
g89
ssg77
g1663
sg70
(lp1670
S'remote_addr'
p1671
asbag63
(g84
g65
NtRp1672
(dp1673
g68
(dp1674
g95
g96
ssg77
g1663
sg70
(lp1675
S':'
asbag63
(g84
g65
NtRp1676
(dp1677
g68
(dp1678
sg77
g1663
sg70
(lp1679
g63
(g64
g65
NtRp1680
(dp1681
g68
(dp1682
g76
I4
ssg77
g1676
sg70
(lp1683
g257
asbasbasbag63
(g79
g65
NtRp1684
(dp1685
g68
(dp1686
sg77
g1264
sg70
(lp1687
g63
(g84
g65
NtRp1688
(dp1689
g68
(dp1690
g88
g89
ssg77
g1684
sg70
(lp1691
S'remote_port'
p1692
asbag63
(g84
g65
NtRp1693
(dp1694
g68
(dp1695
g95
g96
ssg77
g1684
sg70
(lp1696
S':'
asbag63
(g84
g65
NtRp1697
(dp1698
g68
(dp1699
sg77
g1684
sg70
(lp1700
g63
(g64
g65
NtRp1701
(dp1702
g68
(dp1703
g76
I4
ssg77
g1697
sg70
(lp1704
S'38844'
p1705
asbasbasbag63
(g79
g65
NtRp1706
(dp1707
g68
(dp1708
sg77
g1264
sg70
(lp1709
g63
(g84
g65
NtRp1710
(dp1711
g68
(dp1712
g88
g89
ssg77
g1706
sg70
(lp1713
S'request_method'
p1714
asbag63
(g84
g65
NtRp1715
(dp1716
g68
(dp1717
g95
g96
ssg77
g1706
sg70
(lp1718
S':'
asbag63
(g84
g65
NtRp1719
(dp1720
g68
(dp1721
sg77
g1706
sg70
(lp1722
g63
(g64
g65
NtRp1723
(dp1724
g68
(dp1725
g76
I4
ssg77
g1719
sg70
(lp1726
S'GET'
p1727
asbasbasbag63
(g79
g65
NtRp1728
(dp1729
g68
(dp1730
sg77
g1264
sg70
(lp1731
g63
(g84
g65
NtRp1732
(dp1733
g68
(dp1734
g88
g89
ssg77
g1728
sg70
(lp1735
S'request_uri'
p1736
asbag63
(g84
g65
NtRp1737
(dp1738
g68
(dp1739
g95
g96
ssg77
g1728
sg70
(lp1740
S':'
asbag63
(g84
g65
NtRp1741
(dp1742
g68
(dp1743
sg77
g1728
sg70
(lp1744
g63
(g64
g65
NtRp1745
(dp1746
g68
(dp1747
g76
I4
ssg77
g1741
sg70
(lp1748
g1641
asbasbasbag63
(g79
g65
NtRp1749
(dp1750
g68
(dp1751
sg77
g1264
sg70
(lp1752
g63
(g84
g65
NtRp1753
(dp1754
g68
(dp1755
g88
g89
ssg77
g1749
sg70
(lp1756
S'script_name'
p1757
asbag63
(g84
g65
NtRp1758
(dp1759
g68
(dp1760
g95
g96
ssg77
g1749
sg70
(lp1761
S':'
asbag63
(g84
g65
NtRp1762
(dp1763
g68
(dp1764
sg77
g1749
sg70
(lp1765
g63
(g64
g65
NtRp1766
(dp1767
g68
(dp1768
g76
I4
ssg77
g1762
sg70
(lp1769
S''
asbasbasbag63
(g79
g65
NtRp1770
(dp1771
g68
(dp1772
sg77
g1264
sg70
(lp1773
g63
(g84
g65
NtRp1774
(dp1775
g68
(dp1776
g88
g89
ssg77
g1770
sg70
(lp1777
S'server_name'
p1778
asbag63
(g84
g65
NtRp1779
(dp1780
g68
(dp1781
g95
g96
ssg77
g1770
sg70
(lp1782
S':'
asbag63
(g84
g65
NtRp1783
(dp1784
g68
(dp1785
sg77
g1770
sg70
(lp1786
g63
(g64
g65
NtRp1787
(dp1788
g68
(dp1789
g76
I4
ssg77
g1783
sg70
(lp1790
S'mayank'
p1791
asbasbasbag63
(g79
g65
NtRp1792
(dp1793
g68
(dp1794
sg77
g1264
sg70
(lp1795
g63
(g84
g65
NtRp1796
(dp1797
g68
(dp1798
g88
g89
ssg77
g1792
sg70
(lp1799
S'server_port'
p1800
asbag63
(g84
g65
NtRp1801
(dp1802
g68
(dp1803
g95
g96
ssg77
g1792
sg70
(lp1804
S':'
asbag63
(g84
g65
NtRp1805
(dp1806
g68
(dp1807
sg77
g1792
sg70
(lp1808
g63
(g64
g65
NtRp1809
(dp1810
g68
(dp1811
g76
I4
ssg77
g1805
sg70
(lp1812
S'8000'
p1813
asbasbasbag63
(g79
g65
NtRp1814
(dp1815
g68
(dp1816
sg77
g1264
sg70
(lp1817
g63
(g84
g65
NtRp1818
(dp1819
g68
(dp1820
g88
g89
ssg77
g1814
sg70
(lp1821
S'server_protocol'
p1822
asbag63
(g84
g65
NtRp1823
(dp1824
g68
(dp1825
g95
g96
ssg77
g1814
sg70
(lp1826
S':'
asbag63
(g84
g65
NtRp1827
(dp1828
g68
(dp1829
sg77
g1814
sg70
(lp1830
g63
(g64
g65
NtRp1831
(dp1832
g68
(dp1833
g76
I4
ssg77
g1827
sg70
(lp1834
S'HTTP/1.1'
p1835
asbasbasbag63
(g79
g65
NtRp1836
(dp1837
g68
(dp1838
sg77
g1264
sg70
(lp1839
g63
(g84
g65
NtRp1840
(dp1841
g68
(dp1842
g88
g89
ssg77
g1836
sg70
(lp1843
S'server_software'
p1844
asbag63
(g84
g65
NtRp1845
(dp1846
g68
(dp1847
g95
g96
ssg77
g1836
sg70
(lp1848
S':'
asbag63
(g84
g65
NtRp1849
(dp1850
g68
(dp1851
sg77
g1836
sg70
(lp1852
g63
(g64
g65
NtRp1853
(dp1854
g68
(dp1855
g76
I4
ssg77
g1849
sg70
(lp1856
S'Rocket 1.2.4'
p1857
asbasbasbag63
(g79
g65
NtRp1858
(dp1859
g68
(dp1860
sg77
g1264
sg70
(lp1861
g63
(g84
g65
NtRp1862
(dp1863
g68
(dp1864
g88
g89
ssg77
g1858
sg70
(lp1865
S'web2py_crontype'
p1866
asbag63
(g84
g65
NtRp1867
(dp1868
g68
(dp1869
g95
g96
ssg77
g1858
sg70
(lp1870
S':'
asbag63
(g84
g65
NtRp1871
(dp1872
g68
(dp1873
sg77
g1858
sg70
(lp1874
g63
(g64
g65
NtRp1875
(dp1876
g68
(dp1877
g76
I4
ssg77
g1871
sg70
(lp1878
S'hard'
p1879
asbasbasbag63
(g79
g65
NtRp1880
(dp1881
g68
(dp1882
sg77
g1264
sg70
(lp1883
g63
(g84
g65
NtRp1884
(dp1885
g68
(dp1886
g88
g89
ssg77
g1880
sg70
(lp1887
S'web2py_path'
p1888
asbag63
(g84
g65
NtRp1889
(dp1890
g68
(dp1891
g95
g96
ssg77
g1880
sg70
(lp1892
S':'
asbag63
(g84
g65
NtRp1893
(dp1894
g68
(dp1895
sg77
g1880
sg70
(lp1896
g63
(g64
g65
NtRp1897
(dp1898
g68
(dp1899
g76
I4
ssg77
g1893
sg70
(lp1900
g1311
asbasbasbag63
(g79
g65
NtRp1901
(dp1902
g68
(dp1903
sg77
g1264
sg70
(lp1904
g63
(g84
g65
NtRp1905
(dp1906
g68
(dp1907
g88
g89
ssg77
g1901
sg70
(lp1908
S'web2py_version'
p1909
asbag63
(g84
g65
NtRp1910
(dp1911
g68
(dp1912
g95
g96
ssg77
g1901
sg70
(lp1913
S':'
asbag63
(g84
g65
NtRp1914
(dp1915
g68
(dp1916
sg77
g1901
sg70
(lp1917
g63
(g64
g65
NtRp1918
(dp1919
g68
(dp1920
g76
I4
ssg77
g1914
sg70
(lp1921
g63
(g72
g65
NtRp1922
(dp1923
g68
(dp1924
g76
I3
ssg77
Nsg70
(lp1925
g63
(g79
g65
NtRp1926
(dp1927
g68
(dp1928
sg77
g1922
sg70
(lp1929
g63
(g84
g65
NtRp1930
(dp1931
g68
(dp1932
sg77
g1926
sg70
(lp1933
g63
(g64
g65
NtRp1934
(dp1935
g68
(dp1936
g76
I3
ssg77
g1930
sg70
(lp1937
S'2'
asbasbasbag63
(g79
g65
NtRp1938
(dp1939
g68
(dp1940
sg77
g1922
sg70
(lp1941
g63
(g84
g65
NtRp1942
(dp1943
g68
(dp1944
sg77
g1938
sg70
(lp1945
g63
(g64
g65
NtRp1946
(dp1947
g68
(dp1948
g76
I3
ssg77
g1942
sg70
(lp1949
S'0'
asbasbasbag63
(g79
g65
NtRp1950
(dp1951
g68
(dp1952
sg77
g1922
sg70
(lp1953
g63
(g84
g65
NtRp1954
(dp1955
g68
(dp1956
sg77
g1950
sg70
(lp1957
g63
(g64
g65
NtRp1958
(dp1959
g68
(dp1960
g76
I3
ssg77
g1954
sg70
(lp1961
S'8'
asbasbasbag63
(g79
g65
NtRp1962
(dp1963
g68
(dp1964
sg77
g1922
sg70
(lp1965
g63
(g84
g65
NtRp1966
(dp1967
g68
(dp1968
sg77
g1962
sg70
(lp1969
g63
(g64
g65
NtRp1970
(dp1971
g68
(dp1972
g76
I3
ssg77
g1966
sg70
(lp1973
S'datetime.datetime(2012, 9, 7, 3, 47, 51)'
p1974
asbasbasbag63
(g79
g65
NtRp1975
(dp1976
g68
(dp1977
sg77
g1922
sg70
(lp1978
g63
(g84
g65
NtRp1979
(dp1980
g68
(dp1981
sg77
g1975
sg70
(lp1982
g63
(g64
g65
NtRp1983
(dp1984
g68
(dp1985
g76
I3
ssg77
g1979
sg70
(lp1986
S'stable'
p1987
asbasbasbasbasbasbasbag63
(g79
g65
NtRp1988
(dp1989
g68
(dp1990
sg77
g1264
sg70
(lp1991
g63
(g84
g65
NtRp1992
(dp1993
g68
(dp1994
g88
g89
ssg77
g1988
sg70
(lp1995
S'wsgi_errors'
p1996
asbag63
(g84
g65
NtRp1997
(dp1998
g68
(dp1999
g95
g96
ssg77
g1988
sg70
(lp2000
S':'
asbag63
(g84
g65
NtRp2001
(dp2002
g68
(dp2003
sg77
g1988
sg70
(lp2004
g63
(g64
g65
NtRp2005
(dp2006
g68
(dp2007
g76
I4
ssg77
g2001
sg70
(lp2008
S"<open file '<stderr>', mode 'w' at 0x7f5cb5883270>"
p2009
asbasbasbag63
(g79
g65
NtRp2010
(dp2011
g68
(dp2012
sg77
g1264
sg70
(lp2013
g63
(g84
g65
NtRp2014
(dp2015
g68
(dp2016
g88
g89
ssg77
g2010
sg70
(lp2017
S'wsgi_file_wrapper'
p2018
asbag63
(g84
g65
NtRp2019
(dp2020
g68
(dp2021
g95
g96
ssg77
g2010
sg70
(lp2022
S':'
asbag63
(g84
g65
NtRp2023
(dp2024
g68
(dp2025
sg77
g2010
sg70
(lp2026
g63
(g64
g65
NtRp2027
(dp2028
g68
(dp2029
g76
I4
ssg77
g2023
sg70
(lp2030
S'<class wsgiref.util.FileWrapper at 0x1fbc120>'
p2031
asbasbasbag63
(g79
g65
NtRp2032
(dp2033
g68
(dp2034
sg77
g1264
sg70
(lp2035
g63
(g84
g65
NtRp2036
(dp2037
g68
(dp2038
g88
g89
ssg77
g2032
sg70
(lp2039
S'wsgi_input'
p2040
asbag63
(g84
g65
NtRp2041
(dp2042
g68
(dp2043
g95
g96
ssg77
g2032
sg70
(lp2044
S':'
asbag63
(g84
g65
NtRp2045
(dp2046
g68
(dp2047
sg77
g2032
sg70
(lp2048
g63
(g64
g65
NtRp2049
(dp2050
g68
(dp2051
g76
I4
ssg77
g2045
sg70
(lp2052
S'<socket._fileobject object at 0x7f5c6c36c950>'
p2053
asbasbasbag63
(g79
g65
NtRp2054
(dp2055
g68
(dp2056
sg77
g1264
sg70
(lp2057
g63
(g84
g65
NtRp2058
(dp2059
g68
(dp2060
g88
g89
ssg77
g2054
sg70
(lp2061
S'wsgi_multiprocess'
p2062
asbag63
(g84
g65
NtRp2063
(dp2064
g68
(dp2065
g95
g96
ssg77
g2054
sg70
(lp2066
S':'
asbag63
(g84
g65
NtRp2067
(dp2068
g68
(dp2069
sg77
g2054
sg70
(lp2070
g63
(g64
g65
NtRp2071
(dp2072
g68
(dp2073
g76
I4
ssg77
g2067
sg70
(lp2074
g106
asbasbasbag63
(g79
g65
NtRp2075
(dp2076
g68
(dp2077
sg77
g1264
sg70
(lp2078
g63
(g84
g65
NtRp2079
(dp2080
g68
(dp2081
g88
g89
ssg77
g2075
sg70
(lp2082
S'wsgi_multithread'
p2083
asbag63
(g84
g65
NtRp2084
(dp2085
g68
(dp2086
g95
g96
ssg77
g2075
sg70
(lp2087
S':'
asbag63
(g84
g65
NtRp2088
(dp2089
g68
(dp2090
sg77
g2075
sg70
(lp2091
g63
(g64
g65
NtRp2092
(dp2093
g68
(dp2094
g76
I4
ssg77
g2088
sg70
(lp2095
S'True'
p2096
asbasbasbag63
(g79
g65
NtRp2097
(dp2098
g68
(dp2099
sg77
g1264
sg70
(lp2100
g63
(g84
g65
NtRp2101
(dp2102
g68
(dp2103
g88
g89
ssg77
g2097
sg70
(lp2104
S'wsgi_run_once'
p2105
asbag63
(g84
g65
NtRp2106
(dp2107
g68
(dp2108
g95
g96
ssg77
g2097
sg70
(lp2109
S':'
asbag63
(g84
g65
NtRp2110
(dp2111
g68
(dp2112
sg77
g2097
sg70
(lp2113
g63
(g64
g65
NtRp2114
(dp2115
g68
(dp2116
g76
I4
ssg77
g2110
sg70
(lp2117
g106
asbasbasbag63
(g79
g65
NtRp2118
(dp2119
g68
(dp2120
sg77
g1264
sg70
(lp2121
g63
(g84
g65
NtRp2122
(dp2123
g68
(dp2124
g88
g89
ssg77
g2118
sg70
(lp2125
S'wsgi_url_scheme'
p2126
asbag63
(g84
g65
NtRp2127
(dp2128
g68
(dp2129
g95
g96
ssg77
g2118
sg70
(lp2130
S':'
asbag63
(g84
g65
NtRp2131
(dp2132
g68
(dp2133
sg77
g2118
sg70
(lp2134
g63
(g64
g65
NtRp2135
(dp2136
g68
(dp2137
g76
I4
ssg77
g2131
sg70
(lp2138
S'http'
p2139
asbasbasbag63
(g79
g65
NtRp2140
(dp2141
g68
(dp2142
sg77
g1264
sg70
(lp2143
g63
(g84
g65
NtRp2144
(dp2145
g68
(dp2146
g88
g89
ssg77
g2140
sg70
(lp2147
S'wsgi_version'
p2148
asbag63
(g84
g65
NtRp2149
(dp2150
g68
(dp2151
g95
g96
ssg77
g2140
sg70
(lp2152
S':'
asbag63
(g84
g65
NtRp2153
(dp2154
g68
(dp2155
sg77
g2140
sg70
(lp2156
g63
(g64
g65
NtRp2157
(dp2158
g68
(dp2159
g76
I4
ssg77
g2153
sg70
(lp2160
g63
(g72
g65
NtRp2161
(dp2162
g68
(dp2163
g76
I3
ssg77
Nsg70
(lp2164
g63
(g79
g65
NtRp2165
(dp2166
g68
(dp2167
sg77
g2161
sg70
(lp2168
g63
(g84
g65
NtRp2169
(dp2170
g68
(dp2171
sg77
g2165
sg70
(lp2172
g63
(g64
g65
NtRp2173
(dp2174
g68
(dp2175
g76
I3
ssg77
g2169
sg70
(lp2176
S'1'
asbasbasbag63
(g79
g65
NtRp2177
(dp2178
g68
(dp2179
sg77
g2161
sg70
(lp2180
g63
(g84
g65
NtRp2181
(dp2182
g68
(dp2183
sg77
g2177
sg70
(lp2184
g63
(g64
g65
NtRp2185
(dp2186
g68
(dp2187
g76
I3
ssg77
g2181
sg70
(lp2188
S'0'
asbasbasbasbasbasbasbasbasbasbasbag63
(g79
g65
NtRp2189
(dp2190
g68
(dp2191
sg77
g73
sg70
(lp2192
g63
(g84
g65
NtRp2193
(dp2194
g68
(dp2195
g88
g89
ssg77
g2189
sg70
(lp2196
S'extension'
p2197
asbag63
(g84
g65
NtRp2198
(dp2199
g68
(dp2200
g95
g96
ssg77
g2189
sg70
(lp2201
S':'
asbag63
(g84
g65
NtRp2202
(dp2203
g68
(dp2204
sg77
g2189
sg70
(lp2205
g63
(g64
g65
NtRp2206
(dp2207
g68
(dp2208
g76
I5
ssg77
g2202
sg70
(lp2209
S'html'
p2210
asbasbasbag63
(g79
g65
NtRp2211
(dp2212
g68
(dp2213
sg77
g73
sg70
(lp2214
g63
(g84
g65
NtRp2215
(dp2216
g68
(dp2217
g88
g89
ssg77
g2211
sg70
(lp2218
S'folder'
p2219
asbag63
(g84
g65
NtRp2220
(dp2221
g68
(dp2222
g95
g96
ssg77
g2211
sg70
(lp2223
S':'
asbag63
(g84
g65
NtRp2224
(dp2225
g68
(dp2226
sg77
g2211
sg70
(lp2227
g63
(g64
g65
NtRp2228
(dp2229
g68
(dp2230
g76
I5
ssg77
g2224
sg70
(lp2231
S'/home/mayank/IIIT/sem 3/SSAD&Project/web2py/applications/admin/'
p2232
asbasbasbag63
(g79
g65
NtRp2233
(dp2234
g68
(dp2235
sg77
g73
sg70
(lp2236
g63
(g84
g65
NtRp2237
(dp2238
g68
(dp2239
g88
g89
ssg77
g2233
sg70
(lp2240
S'function'
p2241
asbag63
(g84
g65
NtRp2242
(dp2243
g68
(dp2244
g95
g96
ssg77
g2233
sg70
(lp2245
S':'
asbag63
(g84
g65
NtRp2246
(dp2247
g68
(dp2248
sg77
g2233
sg70
(lp2249
g63
(g64
g65
NtRp2250
(dp2251
g68
(dp2252
g76
I5
ssg77
g2246
sg70
(lp2253
S'resolve'
p2254
asbasbasbag63
(g79
g65
NtRp2255
(dp2256
g68
(dp2257
sg77
g73
sg70
(lp2258
g63
(g84
g65
NtRp2259
(dp2260
g68
(dp2261
g88
g89
ssg77
g2255
sg70
(lp2262
S'get_vars'
p2263
asbag63
(g84
g65
NtRp2264
(dp2265
g68
(dp2266
g95
g96
ssg77
g2255
sg70
(lp2267
S':'
asbag63
(g84
g65
NtRp2268
(dp2269
g68
(dp2270
sg77
g2255
sg70
(lp2271
g63
(g64
g65
NtRp2272
(dp2273
g68
(dp2274
g76
I5
ssg77
g2268
sg70
(lp2275
g63
(g72
g65
NtRp2276
(dp2277
g68
(dp2278
g76
I4
ssg77
Nsg70
(lp2279
sbasbasbasbag63
(g79
g65
NtRp2280
(dp2281
g68
(dp2282
sg77
g73
sg70
(lp2283
g63
(g84
g65
NtRp2284
(dp2285
g68
(dp2286
g88
g89
ssg77
g2280
sg70
(lp2287
S'global_settings'
p2288
asbag63
(g84
g65
NtRp2289
(dp2290
g68
(dp2291
g95
g96
ssg77
g2280
sg70
(lp2292
S':'
asbag63
(g84
g65
NtRp2293
(dp2294
g68
(dp2295
sg77
g2280
sg70
(lp2296
g63
(g64
g65
NtRp2297
(dp2298
g68
(dp2299
g76
I5
ssg77
g2293
sg70
(lp2300
g63
(g72
g65
NtRp2301
(dp2302
g68
(dp2303
g76
I4
ssg77
Nsg70
(lp2304
g63
(g79
g65
NtRp2305
(dp2306
g68
(dp2307
sg77
g2301
sg70
(lp2308
g63
(g84
g65
NtRp2309
(dp2310
g68
(dp2311
g88
g89
ssg77
g2305
sg70
(lp2312
g1276
asbag63
(g84
g65
NtRp2313
(dp2314
g68
(dp2315
g95
g96
ssg77
g2305
sg70
(lp2316
S':'
asbag63
(g84
g65
NtRp2317
(dp2318
g68
(dp2319
sg77
g2305
sg70
(lp2320
g63
(g64
g65
NtRp2321
(dp2322
g68
(dp2323
g76
I4
ssg77
g2317
sg70
(lp2324
S"set(['/home/mayank/IIIT/sem 3/SSAD&Project/web2py/applications/taship1/', '/home/mayank/IIIT/sem 3/SSAD&Project/web2py/applications/admin/', '/home/mayank/IIIT/sem 3/SSAD&Project/web2py/applications/welcome/'])"
p2325
asbasbasbag63
(g79
g65
NtRp2326
(dp2327
g68
(dp2328
sg77
g2301
sg70
(lp2329
g63
(g84
g65
NtRp2330
(dp2331
g68
(dp2332
g88
g89
ssg77
g2326
sg70
(lp2333
g1298
asbag63
(g84
g65
NtRp2334
(dp2335
g68
(dp2336
g95
g96
ssg77
g2326
sg70
(lp2337
S':'
asbag63
(g84
g65
NtRp2338
(dp2339
g68
(dp2340
sg77
g2326
sg70
(lp2341
g63
(g64
g65
NtRp2342
(dp2343
g68
(dp2344
g76
I4
ssg77
g2338
sg70
(lp2345
g1311
asbasbasbag63
(g79
g65
NtRp2346
(dp2347
g68
(dp2348
sg77
g2301
sg70
(lp2349
g63
(g84
g65
NtRp2350
(dp2351
g68
(dp2352
g88
g89
ssg77
g2346
sg70
(lp2353
g1320
asbag63
(g84
g65
NtRp2354
(dp2355
g68
(dp2356
g95
g96
ssg77
g2346
sg70
(lp2357
S':'
asbag63
(g84
g65
NtRp2358
(dp2359
g68
(dp2360
sg77
g2346
sg70
(lp2361
g63
(g64
g65
NtRp2362
(dp2363
g68
(dp2364
g76
I4
ssg77
g2358
sg70
(lp2365
g63
(g72
g65
NtRp2366
(dp2367
g68
(dp2368
g76
I3
ssg77
Nsg70
(lp2369
sbasbasbasbag63
(g79
g65
NtRp2370
(dp2371
g68
(dp2372
sg77
g2301
sg70
(lp2373
g63
(g84
g65
NtRp2374
(dp2375
g68
(dp2376
g88
g89
ssg77
g2370
sg70
(lp2377
g1345
asbag63
(g84
g65
NtRp2378
(dp2379
g68
(dp2380
g95
g96
ssg77
g2370
sg70
(lp2381
S':'
asbag63
(g84
g65
NtRp2382
(dp2383
g68
(dp2384
sg77
g2370
sg70
(lp2385
g63
(g64
g65
NtRp2386
(dp2387
g68
(dp2388
g76
I4
ssg77
g2382
sg70
(lp2389
S"<Values at 0x202e320: {'verbose': False, 'ip': '127.0.0.1', 'with_scheduler': False, 'ips': ['127.0.1.1'], 'shutdown_timeout': 5, 'taskbar': False, 'port': 8000, 'maxthreads': None, 'softcron': False, 'server_name': 'mayank', 'bpython': False, 'nogui': False, 'nocron': False, 'extcron': False, 'run_system_tests': False, 'test': None, 'folder': '/home/mayank/IIIT/sem 3/SSAD&Project/web2py', 'config': '', 'import_models': False, 'winservice': '', 'shell': None, 'run': '', 'log_filename': 'httpserver.log', 'debuglevel': 30, 'args': [''], 'socket_timeout': 5, 'ssl_ca_certificate': None, 'scheduler': None, 'profiler_filename': None, 'ssl_private_key': '', 'scheduler_groups': None, 'password': '<ask>', 'request_queue_size': 5, 'ssl_certificate': '', 'cronjob': False, 'numthreads': None, 'quiet': False, 'interfaces': None, 'minthreads': None, 'timeout': 10, 'plain': False, 'nobanner': False, 'pid_filename': 'httpserver.pid'}>"
p2390
asbasbasbag63
(g79
g65
NtRp2391
(dp2392
g68
(dp2393
sg77
g2301
sg70
(lp2394
g63
(g84
g65
NtRp2395
(dp2396
g68
(dp2397
g88
g89
ssg77
g2391
sg70
(lp2398
g1367
asbag63
(g84
g65
NtRp2399
(dp2400
g68
(dp2401
g95
g96
ssg77
g2391
sg70
(lp2402
S':'
asbag63
(g84
g65
NtRp2403
(dp2404
g68
(dp2405
sg77
g2391
sg70
(lp2406
g63
(g64
g65
NtRp2407
(dp2408
g68
(dp2409
g76
I4
ssg77
g2403
sg70
(lp2410
S'set([])'
p2411
asbasbasbag63
(g79
g65
NtRp2412
(dp2413
g68
(dp2414
sg77
g2301
sg70
(lp2415
g63
(g84
g65
NtRp2416
(dp2417
g68
(dp2418
g88
g89
ssg77
g2412
sg70
(lp2419
g1389
asbag63
(g84
g65
NtRp2420
(dp2421
g68
(dp2422
g95
g96
ssg77
g2412
sg70
(lp2423
S':'
asbag63
(g84
g65
NtRp2424
(dp2425
g68
(dp2426
sg77
g2412
sg70
(lp2427
g63
(g64
g65
NtRp2428
(dp2429
g68
(dp2430
g76
I4
ssg77
g2424
sg70
(lp2431
g106
asbasbasbag63
(g79
g65
NtRp2432
(dp2433
g68
(dp2434
sg77
g2301
sg70
(lp2435
g63
(g84
g65
NtRp2436
(dp2437
g68
(dp2438
g88
g89
ssg77
g2432
sg70
(lp2439
g1410
asbag63
(g84
g65
NtRp2440
(dp2441
g68
(dp2442
g95
g96
ssg77
g2432
sg70
(lp2443
S':'
asbag63
(g84
g65
NtRp2444
(dp2445
g68
(dp2446
sg77
g2432
sg70
(lp2447
g63
(g64
g65
NtRp2448
(dp2449
g68
(dp2450
g76
I4
ssg77
g2444
sg70
(lp2451
g1423
asbasbasbag63
(g79
g65
NtRp2452
(dp2453
g68
(dp2454
sg77
g2301
sg70
(lp2455
g63
(g84
g65
NtRp2456
(dp2457
g68
(dp2458
g88
g89
ssg77
g2452
sg70
(lp2459
g1586
asbag63
(g84
g65
NtRp2460
(dp2461
g68
(dp2462
g95
g96
ssg77
g2452
sg70
(lp2463
S':'
asbag63
(g84
g65
NtRp2464
(dp2465
g68
(dp2466
sg77
g2452
sg70
(lp2467
g63
(g64
g65
NtRp2468
(dp2469
g68
(dp2470
g76
I4
ssg77
g2464
sg70
(lp2471
g106
asbasbasbag63
(g79
g65
NtRp2472
(dp2473
g68
(dp2474
sg77
g2301
sg70
(lp2475
g63
(g84
g65
NtRp2476
(dp2477
g68
(dp2478
g88
g89
ssg77
g2472
sg70
(lp2479
g1607
asbag63
(g84
g65
NtRp2480
(dp2481
g68
(dp2482
g95
g96
ssg77
g2472
sg70
(lp2483
S':'
asbag63
(g84
g65
NtRp2484
(dp2485
g68
(dp2486
sg77
g2472
sg70
(lp2487
g63
(g64
g65
NtRp2488
(dp2489
g68
(dp2490
g76
I4
ssg77
g2484
sg70
(lp2491
g106
asbasbasbag63
(g79
g65
NtRp2492
(dp2493
g68
(dp2494
sg77
g2301
sg70
(lp2495
g63
(g84
g65
NtRp2496
(dp2497
g68
(dp2498
g88
g89
ssg77
g2492
sg70
(lp2499
g1866
asbag63
(g84
g65
NtRp2500
(dp2501
g68
(dp2502
g95
g96
ssg77
g2492
sg70
(lp2503
S':'
asbag63
(g84
g65
NtRp2504
(dp2505
g68
(dp2506
sg77
g2492
sg70
(lp2507
g63
(g64
g65
NtRp2508
(dp2509
g68
(dp2510
g76
I4
ssg77
g2504
sg70
(lp2511
g1879
asbasbasbag63
(g79
g65
NtRp2512
(dp2513
g68
(dp2514
sg77
g2301
sg70
(lp2515
g63
(g84
g65
NtRp2516
(dp2517
g68
(dp2518
g88
g89
ssg77
g2512
sg70
(lp2519
g1909
asbag63
(g84
g65
NtRp2520
(dp2521
g68
(dp2522
g95
g96
ssg77
g2512
sg70
(lp2523
S':'
asbag63
(g84
g65
NtRp2524
(dp2525
g68
(dp2526
sg77
g2512
sg70
(lp2527
g63
(g64
g65
NtRp2528
(dp2529
g68
(dp2530
g76
I4
ssg77
g2524
sg70
(lp2531
g63
(g72
g65
NtRp2532
(dp2533
g68
(dp2534
g76
I3
ssg77
Nsg70
(lp2535
g63
(g79
g65
NtRp2536
(dp2537
g68
(dp2538
sg77
g2532
sg70
(lp2539
g63
(g84
g65
NtRp2540
(dp2541
g68
(dp2542
sg77
g2536
sg70
(lp2543
g63
(g64
g65
NtRp2544
(dp2545
g68
(dp2546
g76
I3
ssg77
g2540
sg70
(lp2547
S'2'
asbasbasbag63
(g79
g65
NtRp2548
(dp2549
g68
(dp2550
sg77
g2532
sg70
(lp2551
g63
(g84
g65
NtRp2552
(dp2553
g68
(dp2554
sg77
g2548
sg70
(lp2555
g63
(g64
g65
NtRp2556
(dp2557
g68
(dp2558
g76
I3
ssg77
g2552
sg70
(lp2559
S'0'
asbasbasbag63
(g79
g65
NtRp2560
(dp2561
g68
(dp2562
sg77
g2532
sg70
(lp2563
g63
(g84
g65
NtRp2564
(dp2565
g68
(dp2566
sg77
g2560
sg70
(lp2567
g63
(g64
g65
NtRp2568
(dp2569
g68
(dp2570
g76
I3
ssg77
g2564
sg70
(lp2571
S'8'
asbasbasbag63
(g79
g65
NtRp2572
(dp2573
g68
(dp2574
sg77
g2532
sg70
(lp2575
g63
(g84
g65
NtRp2576
(dp2577
g68
(dp2578
sg77
g2572
sg70
(lp2579
g63
(g64
g65
NtRp2580
(dp2581
g68
(dp2582
g76
I3
ssg77
g2576
sg70
(lp2583
S'datetime.datetime(2012, 9, 7, 3, 47, 51)'
p2584
asbasbasbag63
(g79
g65
NtRp2585
(dp2586
g68
(dp2587
sg77
g2532
sg70
(lp2588
g63
(g84
g65
NtRp2589
(dp2590
g68
(dp2591
sg77
g2585
sg70
(lp2592
g63
(g64
g65
NtRp2593
(dp2594
g68
(dp2595
g76
I3
ssg77
g2589
sg70
(lp2596
g1987
asbasbasbasbasbasbasbasbasbasbasbag63
(g79
g65
NtRp2597
(dp2598
g68
(dp2599
sg77
g73
sg70
(lp2600
g63
(g84
g65
NtRp2601
(dp2602
g68
(dp2603
g88
g89
ssg77
g2597
sg70
(lp2604
S'is_https'
p2605
asbag63
(g84
g65
NtRp2606
(dp2607
g68
(dp2608
g95
g96
ssg77
g2597
sg70
(lp2609
S':'
asbag63
(g84
g65
NtRp2610
(dp2611
g68
(dp2612
sg77
g2597
sg70
(lp2613
g63
(g64
g65
NtRp2614
(dp2615
g68
(dp2616
g76
I5
ssg77
g2610
sg70
(lp2617
g106
asbasbasbag63
(g79
g65
NtRp2618
(dp2619
g68
(dp2620
sg77
g73
sg70
(lp2621
g63
(g84
g65
NtRp2622
(dp2623
g68
(dp2624
g88
g89
ssg77
g2618
sg70
(lp2625
S'is_local'
p2626
asbag63
(g84
g65
NtRp2627
(dp2628
g68
(dp2629
g95
g96
ssg77
g2618
sg70
(lp2630
S':'
asbag63
(g84
g65
NtRp2631
(dp2632
g68
(dp2633
sg77
g2618
sg70
(lp2634
g63
(g64
g65
NtRp2635
(dp2636
g68
(dp2637
g76
I5
ssg77
g2631
sg70
(lp2638
g2096
asbasbasbag63
(g79
g65
NtRp2639
(dp2640
g68
(dp2641
sg77
g73
sg70
(lp2642
g63
(g84
g65
NtRp2643
(dp2644
g68
(dp2645
g88
g89
ssg77
g2639
sg70
(lp2646
S'is_restful'
p2647
asbag63
(g84
g65
NtRp2648
(dp2649
g68
(dp2650
g95
g96
ssg77
g2639
sg70
(lp2651
S':'
asbag63
(g84
g65
NtRp2652
(dp2653
g68
(dp2654
sg77
g2639
sg70
(lp2655
g63
(g64
g65
NtRp2656
(dp2657
g68
(dp2658
g76
I5
ssg77
g2652
sg70
(lp2659
g106
asbasbasbag63
(g79
g65
NtRp2660
(dp2661
g68
(dp2662
sg77
g73
sg70
(lp2663
g63
(g84
g65
NtRp2664
(dp2665
g68
(dp2666
g88
g89
ssg77
g2660
sg70
(lp2667
S'now'
p2668
asbag63
(g84
g65
NtRp2669
(dp2670
g68
(dp2671
g95
g96
ssg77
g2660
sg70
(lp2672
S':'
asbag63
(g84
g65
NtRp2673
(dp2674
g68
(dp2675
sg77
g2660
sg70
(lp2676
g63
(g64
g65
NtRp2677
(dp2678
g68
(dp2679
g76
I5
ssg77
g2673
sg70
(lp2680
S'datetime.datetime(2012, 10, 14, 9, 6, 40, 85249)'
p2681
asbasbasbag63
(g79
g65
NtRp2682
(dp2683
g68
(dp2684
sg77
g73
sg70
(lp2685
g63
(g84
g65
NtRp2686
(dp2687
g68
(dp2688
g88
g89
ssg77
g2682
sg70
(lp2689
S'post_vars'
p2690
asbag63
(g84
g65
NtRp2691
(dp2692
g68
(dp2693
g95
g96
ssg77
g2682
sg70
(lp2694
S':'
asbag63
(g84
g65
NtRp2695
(dp2696
g68
(dp2697
sg77
g2682
sg70
(lp2698
g63
(g64
g65
NtRp2699
(dp2700
g68
(dp2701
g76
I5
ssg77
g2695
sg70
(lp2702
g63
(g72
g65
NtRp2703
(dp2704
g68
(dp2705
g76
I4
ssg77
Nsg70
(lp2706
sbasbasbasbag63
(g79
g65
NtRp2707
(dp2708
g68
(dp2709
sg77
g73
sg70
(lp2710
g63
(g84
g65
NtRp2711
(dp2712
g68
(dp2713
g88
g89
ssg77
g2707
sg70
(lp2714
S'raw_args'
p2715
asbag63
(g84
g65
NtRp2716
(dp2717
g68
(dp2718
g95
g96
ssg77
g2707
sg70
(lp2719
S':'
asbag63
(g84
g65
NtRp2720
(dp2721
g68
(dp2722
sg77
g2707
sg70
(lp2723
g63
(g64
g65
NtRp2724
(dp2725
g68
(dp2726
g76
I5
ssg77
g2720
sg70
(lp2727
S'taship1/views/default/'
p2728
asbasbasbag63
(g79
g65
NtRp2729
(dp2730
g68
(dp2731
sg77
g73
sg70
(lp2732
g63
(g84
g65
NtRp2733
(dp2734
g68
(dp2735
g88
g89
ssg77
g2729
sg70
(lp2736
S'raw_extension'
p2737
asbag63
(g84
g65
NtRp2738
(dp2739
g68
(dp2740
g95
g96
ssg77
g2729
sg70
(lp2741
S':'
asbag63
(g84
g65
NtRp2742
(dp2743
g68
(dp2744
sg77
g2729
sg70
(lp2745
g63
(g64
g65
NtRp2746
(dp2747
g68
(dp2748
g76
I5
ssg77
g2742
sg70
(lp2749
S'None'
p2750
asbasbasbag63
(g79
g65
NtRp2751
(dp2752
g68
(dp2753
sg77
g73
sg70
(lp2754
g63
(g84
g65
NtRp2755
(dp2756
g68
(dp2757
g88
g89
ssg77
g2751
sg70
(lp2758
S'url'
p2759
asbag63
(g84
g65
NtRp2760
(dp2761
g68
(dp2762
g95
g96
ssg77
g2751
sg70
(lp2763
S':'
asbag63
(g84
g65
NtRp2764
(dp2765
g68
(dp2766
sg77
g2751
sg70
(lp2767
g63
(g64
g65
NtRp2768
(dp2769
g68
(dp2770
g76
I5
ssg77
g2764
sg70
(lp2771
g1641
asbasbasbag63
(g79
g65
NtRp2772
(dp2773
g68
(dp2774
sg77
g73
sg70
(lp2775
g63
(g84
g65
NtRp2776
(dp2777
g68
(dp2778
g88
g89
ssg77
g2772
sg70
(lp2779
S'utcnow'
p2780
asbag63
(g84
g65
NtRp2781
(dp2782
g68
(dp2783
g95
g96
ssg77
g2772
sg70
(lp2784
S':'
asbag63
(g84
g65
NtRp2785
(dp2786
g68
(dp2787
sg77
g2772
sg70
(lp2788
g63
(g64
g65
NtRp2789
(dp2790
g68
(dp2791
g76
I5
ssg77
g2785
sg70
(lp2792
S'datetime.datetime(2012, 10, 14, 3, 36, 40, 85275)'
p2793
asbasbasbag63
(g79
g65
NtRp2794
(dp2795
g68
(dp2796
sg77
g73
sg70
(lp2797
g63
(g84
g65
NtRp2798
(dp2799
g68
(dp2800
g88
g89
ssg77
g2794
sg70
(lp2801
S'uuid'
p2802
asbag63
(g84
g65
NtRp2803
(dp2804
g68
(dp2805
g95
g96
ssg77
g2794
sg70
(lp2806
S':'
asbag63
(g84
g65
NtRp2807
(dp2808
g68
(dp2809
sg77
g2794
sg70
(lp2810
g63
(g64
g65
NtRp2811
(dp2812
g68
(dp2813
g76
I5
ssg77
g2807
sg70
(lp2814
S'admin/127.0.0.1.2012-10-14.09-06-40.aabdc356-6c32-4ed6-a965-67a7a96b6e5c'
p2815
asbasbasbag63
(g79
g65
NtRp2816
(dp2817
g68
(dp2818
sg77
g73
sg70
(lp2819
g63
(g84
g65
NtRp2820
(dp2821
g68
(dp2822
g88
g89
ssg77
g2816
sg70
(lp2823
S'vars'
p2824
asbag63
(g84
g65
NtRp2825
(dp2826
g68
(dp2827
g95
g96
ssg77
g2816
sg70
(lp2828
S':'
asbag63
(g84
g65
NtRp2829
(dp2830
g68
(dp2831
sg77
g2816
sg70
(lp2832
g63
(g64
g65
NtRp2833
(dp2834
g68
(dp2835
g76
I5
ssg77
g2829
sg70
(lp2836
g63
(g72
g65
NtRp2837
(dp2838
g68
(dp2839
g76
I4
ssg77
Nsg70
(lp2840
sbasbasbasbag63
(g79
g65
NtRp2841
(dp2842
g68
(dp2843
sg77
g73
sg70
(lp2844
g63
(g84
g65
NtRp2845
(dp2846
g68
(dp2847
g88
g89
ssg77
g2841
sg70
(lp2848
S'wsgi'
p2849
asbag63
(g84
g65
NtRp2850
(dp2851
g68
(dp2852
g95
g96
ssg77
g2841
sg70
(lp2853
S':'
asbag63
(g84
g65
NtRp2854
(dp2855
g68
(dp2856
sg77
g2841
sg70
(lp2857
g63
(g64
g65
NtRp2858
(dp2859
g68
(dp2860
g76
I5
ssg77
g2854
sg70
(lp2861
g63
(g72
g65
NtRp2862
(dp2863
g68
(dp2864
g76
I4
ssg77
Nsg70
(lp2865
g63
(g79
g65
NtRp2866
(dp2867
g68
(dp2868
sg77
g2862
sg70
(lp2869
g63
(g84
g65
NtRp2870
(dp2871
g68
(dp2872
g88
g89
ssg77
g2866
sg70
(lp2873
S'environ'
p2874
asbag63
(g84
g65
NtRp2875
(dp2876
g68
(dp2877
g95
g96
ssg77
g2866
sg70
(lp2878
S':'
asbag63
(g84
g65
NtRp2879
(dp2880
g68
(dp2881
sg77
g2866
sg70
(lp2882
g63
(g64
g65
NtRp2883
(dp2884
g68
(dp2885
g76
I4
ssg77
g2879
sg70
(lp2886
g63
(g72
g65
NtRp2887
(dp2888
g68
(dp2889
g76
I3
ssg77
Nsg70
(lp2890
g63
(g79
g65
NtRp2891
(dp2892
g68
(dp2893
sg77
g2887
sg70
(lp2894
g63
(g84
g65
NtRp2895
(dp2896
g68
(dp2897
g88
g89
ssg77
g2891
sg70
(lp2898
S'HTTP_ACCEPT'
p2899
asbag63
(g84
g65
NtRp2900
(dp2901
g68
(dp2902
g95
g96
ssg77
g2891
sg70
(lp2903
S':'
asbag63
(g84
g65
NtRp2904
(dp2905
g68
(dp2906
sg77
g2891
sg70
(lp2907
g63
(g64
g65
NtRp2908
(dp2909
g68
(dp2910
g76
I3
ssg77
g2904
sg70
(lp2911
g1445
asbasbasbag63
(g79
g65
NtRp2912
(dp2913
g68
(dp2914
sg77
g2887
sg70
(lp2915
g63
(g84
g65
NtRp2916
(dp2917
g68
(dp2918
g88
g89
ssg77
g2912
sg70
(lp2919
S'HTTP_ACCEPT_ENCODING'
p2920
asbag63
(g84
g65
NtRp2921
(dp2922
g68
(dp2923
g95
g96
ssg77
g2912
sg70
(lp2924
S':'
asbag63
(g84
g65
NtRp2925
(dp2926
g68
(dp2927
sg77
g2912
sg70
(lp2928
g63
(g64
g65
NtRp2929
(dp2930
g68
(dp2931
g76
I3
ssg77
g2925
sg70
(lp2932
g1467
asbasbasbag63
(g79
g65
NtRp2933
(dp2934
g68
(dp2935
sg77
g2887
sg70
(lp2936
g63
(g84
g65
NtRp2937
(dp2938
g68
(dp2939
g88
g89
ssg77
g2933
sg70
(lp2940
S'HTTP_ACCEPT_LANGUAGE'
p2941
asbag63
(g84
g65
NtRp2942
(dp2943
g68
(dp2944
g95
g96
ssg77
g2933
sg70
(lp2945
S':'
asbag63
(g84
g65
NtRp2946
(dp2947
g68
(dp2948
sg77
g2933
sg70
(lp2949
g63
(g64
g65
NtRp2950
(dp2951
g68
(dp2952
g76
I3
ssg77
g2946
sg70
(lp2953
g1489
asbasbasbag63
(g79
g65
NtRp2954
(dp2955
g68
(dp2956
sg77
g2887
sg70
(lp2957
g63
(g84
g65
NtRp2958
(dp2959
g68
(dp2960
g88
g89
ssg77
g2954
sg70
(lp2961
S'HTTP_CONNECTION'
p2962
asbag63
(g84
g65
NtRp2963
(dp2964
g68
(dp2965
g95
g96
ssg77
g2954
sg70
(lp2966
S':'
asbag63
(g84
g65
NtRp2967
(dp2968
g68
(dp2969
sg77
g2954
sg70
(lp2970
g63
(g64
g65
NtRp2971
(dp2972
g68
(dp2973
g76
I3
ssg77
g2967
sg70
(lp2974
g1511
asbasbasbag63
(g79
g65
NtRp2975
(dp2976
g68
(dp2977
sg77
g2887
sg70
(lp2978
g63
(g84
g65
NtRp2979
(dp2980
g68
(dp2981
g88
g89
ssg77
g2975
sg70
(lp2982
S'HTTP_COOKIE'
p2983
asbag63
(g84
g65
NtRp2984
(dp2985
g68
(dp2986
g95
g96
ssg77
g2975
sg70
(lp2987
S':'
asbag63
(g84
g65
NtRp2988
(dp2989
g68
(dp2990
sg77
g2975
sg70
(lp2991
g63
(g64
g65
NtRp2992
(dp2993
g68
(dp2994
g76
I3
ssg77
g2988
sg70
(lp2995
g1533
asbasbasbag63
(g79
g65
NtRp2996
(dp2997
g68
(dp2998
sg77
g2887
sg70
(lp2999
g63
(g84
g65
NtRp3000
(dp3001
g68
(dp3002
g88
g89
ssg77
g2996
sg70
(lp3003
S'HTTP_HOST'
p3004
asbag63
(g84
g65
NtRp3005
(dp3006
g68
(dp3007
g95
g96
ssg77
g2996
sg70
(lp3008
S':'
asbag63
(g84
g65
NtRp3009
(dp3010
g68
(dp3011
sg77
g2996
sg70
(lp3012
g63
(g64
g65
NtRp3013
(dp3014
g68
(dp3015
g76
I3
ssg77
g3009
sg70
(lp3016
g1555
asbasbasbag63
(g79
g65
NtRp3017
(dp3018
g68
(dp3019
sg77
g2887
sg70
(lp3020
g63
(g84
g65
NtRp3021
(dp3022
g68
(dp3023
g88
g89
ssg77
g3017
sg70
(lp3024
S'HTTP_USER_AGENT'
p3025
asbag63
(g84
g65
NtRp3026
(dp3027
g68
(dp3028
g95
g96
ssg77
g3017
sg70
(lp3029
S':'
asbag63
(g84
g65
NtRp3030
(dp3031
g68
(dp3032
sg77
g3017
sg70
(lp3033
g63
(g64
g65
NtRp3034
(dp3035
g68
(dp3036
g76
I3
ssg77
g3030
sg70
(lp3037
g1577
asbasbasbag63
(g79
g65
NtRp3038
(dp3039
g68
(dp3040
sg77
g2887
sg70
(lp3041
g63
(g84
g65
NtRp3042
(dp3043
g68
(dp3044
g88
g89
ssg77
g3038
sg70
(lp3045
S'PATH_INFO'
p3046
asbag63
(g84
g65
NtRp3047
(dp3048
g68
(dp3049
g95
g96
ssg77
g3038
sg70
(lp3050
S':'
asbag63
(g84
g65
NtRp3051
(dp3052
g68
(dp3053
sg77
g3038
sg70
(lp3054
g63
(g64
g65
NtRp3055
(dp3056
g68
(dp3057
g76
I3
ssg77
g3051
sg70
(lp3058
g1641
asbasbasbag63
(g79
g65
NtRp3059
(dp3060
g68
(dp3061
sg77
g2887
sg70
(lp3062
g63
(g84
g65
NtRp3063
(dp3064
g68
(dp3065
g88
g89
ssg77
g3059
sg70
(lp3066
S'QUERY_STRING'
p3067
asbag63
(g84
g65
NtRp3068
(dp3069
g68
(dp3070
g95
g96
ssg77
g3059
sg70
(lp3071
S':'
asbag63
(g84
g65
NtRp3072
(dp3073
g68
(dp3074
sg77
g3059
sg70
(lp3075
g63
(g64
g65
NtRp3076
(dp3077
g68
(dp3078
g76
I3
ssg77
g3072
sg70
(lp3079
S''
asbasbasbag63
(g79
g65
NtRp3080
(dp3081
g68
(dp3082
sg77
g2887
sg70
(lp3083
g63
(g84
g65
NtRp3084
(dp3085
g68
(dp3086
g88
g89
ssg77
g3080
sg70
(lp3087
S'REMOTE_ADDR'
p3088
asbag63
(g84
g65
NtRp3089
(dp3090
g68
(dp3091
g95
g96
ssg77
g3080
sg70
(lp3092
S':'
asbag63
(g84
g65
NtRp3093
(dp3094
g68
(dp3095
sg77
g3080
sg70
(lp3096
g63
(g64
g65
NtRp3097
(dp3098
g68
(dp3099
g76
I3
ssg77
g3093
sg70
(lp3100
g257
asbasbasbag63
(g79
g65
NtRp3101
(dp3102
g68
(dp3103
sg77
g2887
sg70
(lp3104
g63
(g84
g65
NtRp3105
(dp3106
g68
(dp3107
g88
g89
ssg77
g3101
sg70
(lp3108
S'REMOTE_PORT'
p3109
asbag63
(g84
g65
NtRp3110
(dp3111
g68
(dp3112
g95
g96
ssg77
g3101
sg70
(lp3113
S':'
asbag63
(g84
g65
NtRp3114
(dp3115
g68
(dp3116
sg77
g3101
sg70
(lp3117
g63
(g64
g65
NtRp3118
(dp3119
g68
(dp3120
g76
I3
ssg77
g3114
sg70
(lp3121
g1705
asbasbasbag63
(g79
g65
NtRp3122
(dp3123
g68
(dp3124
sg77
g2887
sg70
(lp3125
g63
(g84
g65
NtRp3126
(dp3127
g68
(dp3128
g88
g89
ssg77
g3122
sg70
(lp3129
S'REQUEST_METHOD'
p3130
asbag63
(g84
g65
NtRp3131
(dp3132
g68
(dp3133
g95
g96
ssg77
g3122
sg70
(lp3134
S':'
asbag63
(g84
g65
NtRp3135
(dp3136
g68
(dp3137
sg77
g3122
sg70
(lp3138
g63
(g64
g65
NtRp3139
(dp3140
g68
(dp3141
g76
I3
ssg77
g3135
sg70
(lp3142
g1727
asbasbasbag63
(g79
g65
NtRp3143
(dp3144
g68
(dp3145
sg77
g2887
sg70
(lp3146
g63
(g84
g65
NtRp3147
(dp3148
g68
(dp3149
g88
g89
ssg77
g3143
sg70
(lp3150
S'REQUEST_URI'
p3151
asbag63
(g84
g65
NtRp3152
(dp3153
g68
(dp3154
g95
g96
ssg77
g3143
sg70
(lp3155
S':'
asbag63
(g84
g65
NtRp3156
(dp3157
g68
(dp3158
sg77
g3143
sg70
(lp3159
g63
(g64
g65
NtRp3160
(dp3161
g68
(dp3162
g76
I3
ssg77
g3156
sg70
(lp3163
g1641
asbasbasbag63
(g79
g65
NtRp3164
(dp3165
g68
(dp3166
sg77
g2887
sg70
(lp3167
g63
(g84
g65
NtRp3168
(dp3169
g68
(dp3170
g88
g89
ssg77
g3164
sg70
(lp3171
S'SCRIPT_NAME'
p3172
asbag63
(g84
g65
NtRp3173
(dp3174
g68
(dp3175
g95
g96
ssg77
g3164
sg70
(lp3176
S':'
asbag63
(g84
g65
NtRp3177
(dp3178
g68
(dp3179
sg77
g3164
sg70
(lp3180
g63
(g64
g65
NtRp3181
(dp3182
g68
(dp3183
g76
I3
ssg77
g3177
sg70
(lp3184
S''
asbasbasbag63
(g79
g65
NtRp3185
(dp3186
g68
(dp3187
sg77
g2887
sg70
(lp3188
g63
(g84
g65
NtRp3189
(dp3190
g68
(dp3191
g88
g89
ssg77
g3185
sg70
(lp3192
S'SERVER_NAME'
p3193
asbag63
(g84
g65
NtRp3194
(dp3195
g68
(dp3196
g95
g96
ssg77
g3185
sg70
(lp3197
S':'
asbag63
(g84
g65
NtRp3198
(dp3199
g68
(dp3200
sg77
g3185
sg70
(lp3201
g63
(g64
g65
NtRp3202
(dp3203
g68
(dp3204
g76
I3
ssg77
g3198
sg70
(lp3205
g1791
asbasbasbag63
(g79
g65
NtRp3206
(dp3207
g68
(dp3208
sg77
g2887
sg70
(lp3209
g63
(g84
g65
NtRp3210
(dp3211
g68
(dp3212
g88
g89
ssg77
g3206
sg70
(lp3213
S'SERVER_PORT'
p3214
asbag63
(g84
g65
NtRp3215
(dp3216
g68
(dp3217
g95
g96
ssg77
g3206
sg70
(lp3218
S':'
asbag63
(g84
g65
NtRp3219
(dp3220
g68
(dp3221
sg77
g3206
sg70
(lp3222
g63
(g64
g65
NtRp3223
(dp3224
g68
(dp3225
g76
I3
ssg77
g3219
sg70
(lp3226
g1813
asbasbasbag63
(g79
g65
NtRp3227
(dp3228
g68
(dp3229
sg77
g2887
sg70
(lp3230
g63
(g84
g65
NtRp3231
(dp3232
g68
(dp3233
g88
g89
ssg77
g3227
sg70
(lp3234
S'SERVER_PROTOCOL'
p3235
asbag63
(g84
g65
NtRp3236
(dp3237
g68
(dp3238
g95
g96
ssg77
g3227
sg70
(lp3239
S':'
asbag63
(g84
g65
NtRp3240
(dp3241
g68
(dp3242
sg77
g3227
sg70
(lp3243
g63
(g64
g65
NtRp3244
(dp3245
g68
(dp3246
g76
I3
ssg77
g3240
sg70
(lp3247
g1835
asbasbasbag63
(g79
g65
NtRp3248
(dp3249
g68
(dp3250
sg77
g2887
sg70
(lp3251
g63
(g84
g65
NtRp3252
(dp3253
g68
(dp3254
g88
g89
ssg77
g3248
sg70
(lp3255
S'SERVER_SOFTWARE'
p3256
asbag63
(g84
g65
NtRp3257
(dp3258
g68
(dp3259
g95
g96
ssg77
g3248
sg70
(lp3260
S':'
asbag63
(g84
g65
NtRp3261
(dp3262
g68
(dp3263
sg77
g3248
sg70
(lp3264
g63
(g64
g65
NtRp3265
(dp3266
g68
(dp3267
g76
I3
ssg77
g3261
sg70
(lp3268
g1857
asbasbasbag63
(g79
g65
NtRp3269
(dp3270
g68
(dp3271
sg77
g2887
sg70
(lp3272
g63
(g84
g65
NtRp3273
(dp3274
g68
(dp3275
g88
g89
ssg77
g3269
sg70
(lp3276
S'wsgi.errors'
p3277
asbag63
(g84
g65
NtRp3278
(dp3279
g68
(dp3280
g95
g96
ssg77
g3269
sg70
(lp3281
S':'
asbag63
(g84
g65
NtRp3282
(dp3283
g68
(dp3284
sg77
g3269
sg70
(lp3285
g63
(g64
g65
NtRp3286
(dp3287
g68
(dp3288
g76
I3
ssg77
g3282
sg70
(lp3289
S"<open file '<stderr>', mode 'w' at 0x7f5cb5883270>"
p3290
asbasbasbag63
(g79
g65
NtRp3291
(dp3292
g68
(dp3293
sg77
g2887
sg70
(lp3294
g63
(g84
g65
NtRp3295
(dp3296
g68
(dp3297
g88
g89
ssg77
g3291
sg70
(lp3298
S'wsgi.file_wrapper'
p3299
asbag63
(g84
g65
NtRp3300
(dp3301
g68
(dp3302
g95
g96
ssg77
g3291
sg70
(lp3303
S':'
asbag63
(g84
g65
NtRp3304
(dp3305
g68
(dp3306
sg77
g3291
sg70
(lp3307
g63
(g64
g65
NtRp3308
(dp3309
g68
(dp3310
g76
I3
ssg77
g3304
sg70
(lp3311
S'<class wsgiref.util.FileWrapper at 0x1fbc120>'
p3312
asbasbasbag63
(g79
g65
NtRp3313
(dp3314
g68
(dp3315
sg77
g2887
sg70
(lp3316
g63
(g84
g65
NtRp3317
(dp3318
g68
(dp3319
g88
g89
ssg77
g3313
sg70
(lp3320
S'wsgi.input'
p3321
asbag63
(g84
g65
NtRp3322
(dp3323
g68
(dp3324
g95
g96
ssg77
g3313
sg70
(lp3325
S':'
asbag63
(g84
g65
NtRp3326
(dp3327
g68
(dp3328
sg77
g3313
sg70
(lp3329
g63
(g64
g65
NtRp3330
(dp3331
g68
(dp3332
g76
I3
ssg77
g3326
sg70
(lp3333
S'<cStringIO.StringO object at 0x7f5c9026e2d0>'
p3334
asbasbasbag63
(g79
g65
NtRp3335
(dp3336
g68
(dp3337
sg77
g2887
sg70
(lp3338
g63
(g84
g65
NtRp3339
(dp3340
g68
(dp3341
g88
g89
ssg77
g3335
sg70
(lp3342
S'wsgi.multiprocess'
p3343
asbag63
(g84
g65
NtRp3344
(dp3345
g68
(dp3346
g95
g96
ssg77
g3335
sg70
(lp3347
S':'
asbag63
(g84
g65
NtRp3348
(dp3349
g68
(dp3350
sg77
g3335
sg70
(lp3351
g63
(g64
g65
NtRp3352
(dp3353
g68
(dp3354
g76
I3
ssg77
g3348
sg70
(lp3355
g106
asbasbasbag63
(g79
g65
NtRp3356
(dp3357
g68
(dp3358
sg77
g2887
sg70
(lp3359
g63
(g84
g65
NtRp3360
(dp3361
g68
(dp3362
g88
g89
ssg77
g3356
sg70
(lp3363
S'wsgi.multithread'
p3364
asbag63
(g84
g65
NtRp3365
(dp3366
g68
(dp3367
g95
g96
ssg77
g3356
sg70
(lp3368
S':'
asbag63
(g84
g65
NtRp3369
(dp3370
g68
(dp3371
sg77
g3356
sg70
(lp3372
g63
(g64
g65
NtRp3373
(dp3374
g68
(dp3375
g76
I3
ssg77
g3369
sg70
(lp3376
g2096
asbasbasbag63
(g79
g65
NtRp3377
(dp3378
g68
(dp3379
sg77
g2887
sg70
(lp3380
g63
(g84
g65
NtRp3381
(dp3382
g68
(dp3383
g88
g89
ssg77
g3377
sg70
(lp3384
S'wsgi.run_once'
p3385
asbag63
(g84
g65
NtRp3386
(dp3387
g68
(dp3388
g95
g96
ssg77
g3377
sg70
(lp3389
S':'
asbag63
(g84
g65
NtRp3390
(dp3391
g68
(dp3392
sg77
g3377
sg70
(lp3393
g63
(g64
g65
NtRp3394
(dp3395
g68
(dp3396
g76
I3
ssg77
g3390
sg70
(lp3397
g106
asbasbasbag63
(g79
g65
NtRp3398
(dp3399
g68
(dp3400
sg77
g2887
sg70
(lp3401
g63
(g84
g65
NtRp3402
(dp3403
g68
(dp3404
g88
g89
ssg77
g3398
sg70
(lp3405
S'wsgi.url_scheme'
p3406
asbag63
(g84
g65
NtRp3407
(dp3408
g68
(dp3409
g95
g96
ssg77
g3398
sg70
(lp3410
S':'
asbag63
(g84
g65
NtRp3411
(dp3412
g68
(dp3413
sg77
g3398
sg70
(lp3414
g63
(g64
g65
NtRp3415
(dp3416
g68
(dp3417
g76
I3
ssg77
g3411
sg70
(lp3418
g2139
asbasbasbag63
(g79
g65
NtRp3419
(dp3420
g68
(dp3421
sg77
g2887
sg70
(lp3422
g63
(g84
g65
NtRp3423
(dp3424
g68
(dp3425
g88
g89
ssg77
g3419
sg70
(lp3426
S'wsgi.version'
p3427
asbag63
(g84
g65
NtRp3428
(dp3429
g68
(dp3430
g95
g96
ssg77
g3419
sg70
(lp3431
S':'
asbag63
(g84
g65
NtRp3432
(dp3433
g68
(dp3434
sg77
g3419
sg70
(lp3435
g63
(g64
g65
NtRp3436
(dp3437
g68
(dp3438
g76
I3
ssg77
g3432
sg70
(lp3439
S'1'
asbasbasbasbasbasbasbasbasbasbasbasbasbsS'frames'
p3440
(lp3441
(dp3442
S'file'
p3443
S'/home/mayank/IIIT/sem 3/SSAD&Project/web2py/gluon/restricted.py'
p3444
sS'dump'
p3445
(dp3446
S'environment'
p3447
S"{'A': <class 'gluon.html.A'>, 'ALLOW_TOGGLE': 'true', 'A_button': <function A_button>, 'B': <class 'gluon.html.B'>, 'BEAUTIFY': <class 'gluon.html.BEAUTIFY'>, 'BODY': <class 'gluon.html.BODY'>, 'BR': <class 'gluon.html.BR'>, 'BUTTON': <class 'gluon.html.BUTTON'>, 'CAT': <class 'gluon.html.CAT'>, 'CENTER': <class 'gluon.html.CENTER'>, ...}"
p3448
sS'ccode'
p3449
S'<code object <module> at 0x7f5c8c21e9b0, file "/...plications/admin/controllers/default.py", line 3>'
p3450
ssS'lnum'
p3451
I209
sS'lines'
p3452
(dp3453
I204
S'    try:'
p3454
sI205
S'        if type(code) == types.CodeType:'
p3455
sI206
S'            ccode = code'
p3456
sI207
S'        else:'
p3457
sI208
S'            ccode = compile2(code,layer)'
p3458
sI209
S'        exec ccode in environment'
p3459
sI210
S'    except HTTP:'
p3460
sI211
S'        raise'
p3461
sI212
S'    except RestrictedError:'
p3462
sI213
S'        # do not encapsulate (obfuscate) the original RestrictedError'
p3463
ssS'call'
p3464
S"(code='# coding: utf8\\n\\nEXPERIMENTAL_STUFF = True\\n\\nif EX...form)\\n\\n\\nresponse._vars=response._caller(resolve)\\n', environment={'A': <class 'gluon.html.A'>, 'ALLOW_TOGGLE': 'true', 'A_button': <function A_button>, 'B': <class 'gluon.html.B'>, 'BEAUTIFY': <class 'gluon.html.BEAUTIFY'>, 'BODY': <class 'gluon.html.BODY'>, 'BR': <class 'gluon.html.BR'>, 'BUTTON': <class 'gluon.html.BUTTON'>, 'CAT': <class 'gluon.html.CAT'>, 'CENTER': <class 'gluon.html.CENTER'>, ...}, layer='/home/mayank/IIIT/sem 3/SSAD&Project/web2py/applications/admin/controllers/default.py')"
p3465
sS'func'
p3466
S'restricted'
p3467
sa(dp3468
g3443
S'/home/mayank/IIIT/sem 3/SSAD&Project/web2py/applications/admin/controllers/default.py'
p3469
sg3445
(dp3470
sg3451
I1726
sg3452
(dp3471
I1715
S"            redirect(URL('site'))"
p3472
sI1716
S'        except UnmergedEntriesError:'
p3473
sI1717
S'            session.flash = T("Push failed, there are unmerged entries in the cache. Resolve merge issues manually and try again.")'
p3474
sI1718
S"            redirect(URL('site'))"
p3475
sI1719
S'        except Exception, e:'
p3476
sI1720
S'            logging.error("Unexpected error:", sys.exc_info()[0])'
p3477
sI1721
S'            session.flash = T("Push failed, git exited abnormally. See logs for details.")'
p3478
sI1722
S"            redirect(URL('site'))"
p3479
sI1723
S'    return dict(app=app,form=form)'
p3480
sI1724
S''
ssg3464
S'()'
p3481
sg3466
S'<module>'
p3482
sa(dp3483
g3443
S'/home/mayank/IIIT/sem 3/SSAD&Project/web2py/gluon/globals.py'
p3484
sg3445
(dp3485
S'self'
p3486
S'undefined'
p3487
sS'f'
S'<function resolve>'
p3488
ssg3451
I185
sg3452
(dp3489
I180
S'        self.menu = []             # used by the default view layout'
p3490
sI181
S'        self.files = []            # used by web2py_ajax.html'
p3491
sI182
S'        self.generic_patterns = [] # patterns to allow generic views'
p3492
sI183
S"        self.delimiters = ('{{','}}')"
p3493
sI184
S'        self._vars = None'
p3494
sI185
S'        self._caller = lambda f: f()'
p3495
sI186
S'        self._view_environment = None'
p3496
sI187
S'        self._custom_commit = None'
p3497
sI188
S'        self._custom_rollback = None'
p3498
sI189
S''
ssg3464
S'(f=<function resolve>)'
p3499
sg3466
S'<lambda>'
p3500
sa(dp3501
g3443
S'/home/mayank/IIIT/sem 3/SSAD&Project/web2py/applications/admin/controllers/default.py'
p3502
sg3445
(dp3503
S'a'
g3487
sS'path'
p3504
S"'/home/mayank/IIIT/sem 3/SSAD&Project/web2py/applications/taship1/views/default'"
p3505
sS').split'
p3506
S'<built-in method split of str object>'
p3507
sS'global safe_read'
p3508
S'<function safe_read>'
p3509
ssg3451
I703
sg3452
(dp3510
I704
S'    try:'
p3511
sI705
S"        b = safe_read(path + '.1').split('\\n')"
p3512
sI706
S'    except IOError:'
p3513
sI707
S"        session.flash = 'Other file, no longer there'"
p3514
sI698
S'    """'
p3515
sI699
S''
sI700
S"    filename = '/'.join(request.args)"
p3516
sI701
S'    # ## check if file is not there'
p3517
sI702
S'    path = apath(filename, r=request)'
p3518
sI703
S"    a = safe_read(path).split('\\n')"
p3519
ssg3464
S'()'
p3520
sg3466
S'resolve'
p3521
sa(dp3522
g3443
S'/home/mayank/IIIT/sem 3/SSAD&Project/web2py/applications/admin/controllers/default.py'
p3523
sg3445
(dp3524
S'a'
S"'/home/mayank/IIIT/sem 3/SSAD&Project/web2py/applications/taship1/views/default'"
p3525
sS'safe_file'
p3526
g3487
sS'global safe_open'
p3527
S'<function safe_open>'
p3528
sS'b'
S"'r'"
p3529
ssg3451
I66
sg3452
(dp3530
I64
S''
sI65
S"def safe_read(a, b='r'):"
p3531
sI66
S'    safe_file = safe_open(a, b)'
p3532
sI67
S'    try:'
p3533
sI68
S'        return safe_file.read()'
p3534
sI69
S'    finally:'
p3535
sI70
S'        safe_file.close()'
p3536
sI61
S'            def write(self,data): pass'
p3537
sI62
S'        return tmp()'
p3538
sI63
S'    return open(a,b)'
p3539
ssg3464
S"(a='/home/mayank/IIIT/sem 3/SSAD&Project/web2py/applications/taship1/views/default', b='r')"
p3540
sg3466
S'safe_read'
p3541
sa(dp3542
g3443
S'/home/mayank/IIIT/sem 3/SSAD&Project/web2py/applications/admin/controllers/default.py'
p3543
sg3445
(dp3544
S'a'
S"'/home/mayank/IIIT/sem 3/SSAD&Project/web2py/applications/taship1/views/default'"
p3545
sS'builtinopen'
p3546
S'<built-in function open>'
p3547
sS'b'
S"'r'"
p3548
ssg3451
I63
sg3452
(dp3549
I64
S''
sI65
S"def safe_read(a, b='r'):"
p3550
sI66
S'    safe_file = safe_open(a, b)'
p3551
sI67
S'    try:'
p3552
sI58
S'def safe_open(a,b):'
p3553
sI59
S"    if DEMO_MODE and ('w' in b or 'a' in b):"
p3554
sI60
S'        class tmp:'
p3555
sI61
S'            def write(self,data): pass'
p3556
sI62
S'        return tmp()'
p3557
sI63
S'    return open(a,b)'
p3558
ssg3464
S"(a='/home/mayank/IIIT/sem 3/SSAD&Project/web2py/applications/taship1/views/default', b='r')"
p3559
sg3466
S'safe_open'
p3560
sasS'pyver'
p3561
S'Python 2.7.3: /usr/bin/python'
p3562
sS'session'
p3563
g63
(g64
g65
NtRp3564
(dp3565
g68
(dp3566
sg70
(lp3567
g63
(g72
g65
NtRp3568
(dp3569
g68
(dp3570
g76
I5
ssg77
Nsg70
(lp3571
g63
(g79
g65
NtRp3572
(dp3573
g68
(dp3574
sg77
g3568
sg70
(lp3575
g63
(g84
g65
NtRp3576
(dp3577
g68
(dp3578
g88
g89
ssg77
g3572
sg70
(lp3579
S'authorized'
p3580
asbag63
(g84
g65
NtRp3581
(dp3582
g68
(dp3583
g95
g96
ssg77
g3572
sg70
(lp3584
S':'
asbag63
(g84
g65
NtRp3585
(dp3586
g68
(dp3587
sg77
g3572
sg70
(lp3588
g63
(g64
g65
NtRp3589
(dp3590
g68
(dp3591
g76
I5
ssg77
g3585
sg70
(lp3592
g2096
asbasbasbag63
(g79
g65
NtRp3593
(dp3594
g68
(dp3595
sg77
g3568
sg70
(lp3596
g63
(g84
g65
NtRp3597
(dp3598
g68
(dp3599
g88
g89
ssg77
g3593
sg70
(lp3600
S'check_version'
p3601
asbag63
(g84
g65
NtRp3602
(dp3603
g68
(dp3604
g95
g96
ssg77
g3593
sg70
(lp3605
S':'
asbag63
(g84
g65
NtRp3606
(dp3607
g68
(dp3608
sg77
g3593
sg70
(lp3609
g63
(g64
g65
NtRp3610
(dp3611
g68
(dp3612
g76
I5
ssg77
g3606
sg70
(lp3613
g106
asbasbasbag63
(g79
g65
NtRp3614
(dp3615
g68
(dp3616
sg77
g3568
sg70
(lp3617
g63
(g84
g65
NtRp3618
(dp3619
g68
(dp3620
g88
g89
ssg77
g3614
sg70
(lp3621
S'flash'
p3622
asbag63
(g84
g65
NtRp3623
(dp3624
g68
(dp3625
g95
g96
ssg77
g3614
sg70
(lp3626
S':'
asbag63
(g84
g65
NtRp3627
(dp3628
g68
(dp3629
sg77
g3614
sg70
(lp3630
g63
(g64
g65
NtRp3631
(dp3632
g68
(dp3633
g76
I5
ssg77
g3627
sg70
(lp3634
S'None'
p3635
asbasbasbag63
(g79
g65
NtRp3636
(dp3637
g68
(dp3638
sg77
g3568
sg70
(lp3639
g63
(g84
g65
NtRp3640
(dp3641
g68
(dp3642
g88
g89
ssg77
g3636
sg70
(lp3643
S'last_time'
p3644
asbag63
(g84
g65
NtRp3645
(dp3646
g68
(dp3647
g95
g96
ssg77
g3636
sg70
(lp3648
S':'
asbag63
(g84
g65
NtRp3649
(dp3650
g68
(dp3651
sg77
g3636
sg70
(lp3652
g63
(g64
g65
NtRp3653
(dp3654
g68
(dp3655
g76
I5
ssg77
g3649
sg70
(lp3656
S'1350185800.091339'
p3657
asbasbasbag63
(g79
g65
NtRp3658
(dp3659
g68
(dp3660
sg77
g3568
sg70
(lp3661
g63
(g84
g65
NtRp3662
(dp3663
g68
(dp3664
g88
g89
ssg77
g3658
sg70
(lp3665
S'pam_user'
p3666
asbag63
(g84
g65
NtRp3667
(dp3668
g68
(dp3669
g95
g96
ssg77
g3658
sg70
(lp3670
S':'
asbag63
(g84
g65
NtRp3671
(dp3672
g68
(dp3673
sg77
g3658
sg70
(lp3674
g63
(g64
g65
NtRp3675
(dp3676
g68
(dp3677
g76
I5
ssg77
g3671
sg70
(lp3678
S'None'
p3679
asbasbasbag63
(g79
g65
NtRp3680
(dp3681
g68
(dp3682
sg77
g3568
sg70
(lp3683
g63
(g84
g65
NtRp3684
(dp3685
g68
(dp3686
g88
g89
ssg77
g3680
sg70
(lp3687
S'token'
p3688
asbag63
(g84
g65
NtRp3689
(dp3690
g68
(dp3691
g95
g96
ssg77
g3680
sg70
(lp3692
S':'
asbag63
(g84
g65
NtRp3693
(dp3694
g68
(dp3695
sg77
g3680
sg70
(lp3696
g63
(g64
g65
NtRp3697
(dp3698
g68
(dp3699
g76
I5
ssg77
g3693
sg70
(lp3700
S'd510846f-e036-43d8-8c63-b31e762f7d5a'
p3701
asbasbasbasbasbsS'etype'
p3702
S"<type 'exceptions.IOError'>"
p3703
sS'date'
p3704
S'Sun Oct 14 09:06:40 2012'
p3705
sS'response'
p3706
g63
(g64
g65
NtRp3707
(dp3708
g68
(dp3709
sg70
(lp3710
g63
(g72
g65
NtRp3711
(dp3712
g68
(dp3713
g76
I5
ssg77
Nsg70
(lp3714
g63
(g79
g65
NtRp3715
(dp3716
g68
(dp3717
sg77
g3711
sg70
(lp3718
g63
(g84
g65
NtRp3719
(dp3720
g68
(dp3721
g88
g89
ssg77
g3715
sg70
(lp3722
g200
asbag63
(g84
g65
NtRp3723
(dp3724
g68
(dp3725
g95
g96
ssg77
g3715
sg70
(lp3726
S':'
asbag63
(g84
g65
NtRp3727
(dp3728
g68
(dp3729
sg77
g3715
sg70
(lp3730
g63
(g64
g65
NtRp3731
(dp3732
g68
(dp3733
g76
I5
ssg77
g3727
sg70
(lp3734
S'<cStringIO.StringO object at 0x7f5c9026ece0>'
p3735
asbasbasbag63
(g79
g65
NtRp3736
(dp3737
g68
(dp3738
sg77
g3711
sg70
(lp3739
g63
(g84
g65
NtRp3740
(dp3741
g68
(dp3742
g88
g89
ssg77
g3736
sg70
(lp3743
g288
asbag63
(g84
g65
NtRp3744
(dp3745
g68
(dp3746
g95
g96
ssg77
g3736
sg70
(lp3747
S':'
asbag63
(g84
g65
NtRp3748
(dp3749
g68
(dp3750
sg77
g3736
sg70
(lp3751
g63
(g64
g65
NtRp3752
(dp3753
g68
(dp3754
g76
I5
ssg77
g3748
sg70
(lp3755
g63
(g72
g65
NtRp3756
(dp3757
g68
(dp3758
g76
I4
ssg77
Nsg70
(lp3759
g63
(g79
g65
NtRp3760
(dp3761
g68
(dp3762
sg77
g3756
sg70
(lp3763
g63
(g84
g65
NtRp3764
(dp3765
g68
(dp3766
g88
g89
ssg77
g3760
sg70
(lp3767
S'session_id_admin'
p3768
asbag63
(g84
g65
NtRp3769
(dp3770
g68
(dp3771
g95
g96
ssg77
g3760
sg70
(lp3772
S':'
asbag63
(g84
g65
NtRp3773
(dp3774
g68
(dp3775
sg77
g3760
sg70
(lp3776
g63
(g64
g65
NtRp3777
(dp3778
g68
(dp3779
g76
I4
ssg77
g3773
sg70
(lp3780
g326
ag63
(g72
g65
NtRp3781
(dp3782
g68
(dp3783
g76
I3
ssg77
Nsg70
(lp3784
g63
(g79
g65
NtRp3785
(dp3786
g68
(dp3787
sg77
g3781
sg70
(lp3788
g63
(g84
g65
NtRp3789
(dp3790
g68
(dp3791
g88
g89
ssg77
g3785
sg70
(lp3792
g339
asbag63
(g84
g65
NtRp3793
(dp3794
g68
(dp3795
g95
g96
ssg77
g3785
sg70
(lp3796
S':'
asbag63
(g84
g65
NtRp3797
(dp3798
g68
(dp3799
sg77
g3785
sg70
(lp3800
g63
(g64
g65
NtRp3801
(dp3802
g68
(dp3803
g76
I3
ssg77
g3797
sg70
(lp3804
S''
asbasbasbag63
(g79
g65
NtRp3805
(dp3806
g68
(dp3807
sg77
g3781
sg70
(lp3808
g63
(g84
g65
NtRp3809
(dp3810
g68
(dp3811
g88
g89
ssg77
g3805
sg70
(lp3812
g360
asbag63
(g84
g65
NtRp3813
(dp3814
g68
(dp3815
g95
g96
ssg77
g3805
sg70
(lp3816
S':'
asbag63
(g84
g65
NtRp3817
(dp3818
g68
(dp3819
sg77
g3805
sg70
(lp3820
g63
(g64
g65
NtRp3821
(dp3822
g68
(dp3823
g76
I3
ssg77
g3817
sg70
(lp3824
S''
asbasbasbag63
(g79
g65
NtRp3825
(dp3826
g68
(dp3827
sg77
g3781
sg70
(lp3828
g63
(g84
g65
NtRp3829
(dp3830
g68
(dp3831
g88
g89
ssg77
g3825
sg70
(lp3832
g381
asbag63
(g84
g65
NtRp3833
(dp3834
g68
(dp3835
g95
g96
ssg77
g3825
sg70
(lp3836
S':'
asbag63
(g84
g65
NtRp3837
(dp3838
g68
(dp3839
sg77
g3825
sg70
(lp3840
g63
(g64
g65
NtRp3841
(dp3842
g68
(dp3843
g76
I3
ssg77
g3837
sg70
(lp3844
S''
asbasbasbag63
(g79
g65
NtRp3845
(dp3846
g68
(dp3847
sg77
g3781
sg70
(lp3848
g63
(g84
g65
NtRp3849
(dp3850
g68
(dp3851
g88
g89
ssg77
g3845
sg70
(lp3852
g402
asbag63
(g84
g65
NtRp3853
(dp3854
g68
(dp3855
g95
g96
ssg77
g3845
sg70
(lp3856
S':'
asbag63
(g84
g65
NtRp3857
(dp3858
g68
(dp3859
sg77
g3845
sg70
(lp3860
g63
(g64
g65
NtRp3861
(dp3862
g68
(dp3863
g76
I3
ssg77
g3857
sg70
(lp3864
S''
asbasbasbag63
(g79
g65
NtRp3865
(dp3866
g68
(dp3867
sg77
g3781
sg70
(lp3868
g63
(g84
g65
NtRp3869
(dp3870
g68
(dp3871
g88
g89
ssg77
g3865
sg70
(lp3872
g423
asbag63
(g84
g65
NtRp3873
(dp3874
g68
(dp3875
g95
g96
ssg77
g3865
sg70
(lp3876
S':'
asbag63
(g84
g65
NtRp3877
(dp3878
g68
(dp3879
sg77
g3865
sg70
(lp3880
g63
(g64
g65
NtRp3881
(dp3882
g68
(dp3883
g76
I3
ssg77
g3877
sg70
(lp3884
S''
asbasbasbag63
(g79
g65
NtRp3885
(dp3886
g68
(dp3887
sg77
g3781
sg70
(lp3888
g63
(g84
g65
NtRp3889
(dp3890
g68
(dp3891
g88
g89
ssg77
g3885
sg70
(lp3892
g444
asbag63
(g84
g65
NtRp3893
(dp3894
g68
(dp3895
g95
g96
ssg77
g3885
sg70
(lp3896
S':'
asbag63
(g84
g65
NtRp3897
(dp3898
g68
(dp3899
sg77
g3885
sg70
(lp3900
g63
(g64
g65
NtRp3901
(dp3902
g68
(dp3903
g76
I3
ssg77
g3897
sg70
(lp3904
S'/'
asbasbasbag63
(g79
g65
NtRp3905
(dp3906
g68
(dp3907
sg77
g3781
sg70
(lp3908
g63
(g84
g65
NtRp3909
(dp3910
g68
(dp3911
g88
g89
ssg77
g3905
sg70
(lp3912
g465
asbag63
(g84
g65
NtRp3913
(dp3914
g68
(dp3915
g95
g96
ssg77
g3905
sg70
(lp3916
S':'
asbag63
(g84
g65
NtRp3917
(dp3918
g68
(dp3919
sg77
g3905
sg70
(lp3920
g63
(g64
g65
NtRp3921
(dp3922
g68
(dp3923
g76
I3
ssg77
g3917
sg70
(lp3924
S''
asbasbasbag63
(g79
g65
NtRp3925
(dp3926
g68
(dp3927
sg77
g3781
sg70
(lp3928
g63
(g84
g65
NtRp3929
(dp3930
g68
(dp3931
g88
g89
ssg77
g3925
sg70
(lp3932
g486
asbag63
(g84
g65
NtRp3933
(dp3934
g68
(dp3935
g95
g96
ssg77
g3925
sg70
(lp3936
S':'
asbag63
(g84
g65
NtRp3937
(dp3938
g68
(dp3939
sg77
g3925
sg70
(lp3940
g63
(g64
g65
NtRp3941
(dp3942
g68
(dp3943
g76
I3
ssg77
g3937
sg70
(lp3944
S''
asbasbasbasbasbasbasbasbasbasbasbag63
(g79
g65
NtRp3945
(dp3946
g68
(dp3947
sg77
g3711
sg70
(lp3948
g63
(g84
g65
NtRp3949
(dp3950
g68
(dp3951
g88
g89
ssg77
g3945
sg70
(lp3952
S'delimiters'
p3953
asbag63
(g84
g65
NtRp3954
(dp3955
g68
(dp3956
g95
g96
ssg77
g3945
sg70
(lp3957
S':'
asbag63
(g84
g65
NtRp3958
(dp3959
g68
(dp3960
sg77
g3945
sg70
(lp3961
g63
(g64
g65
NtRp3962
(dp3963
g68
(dp3964
g76
I5
ssg77
g3958
sg70
(lp3965
g63
(g72
g65
NtRp3966
(dp3967
g68
(dp3968
g76
I4
ssg77
Nsg70
(lp3969
g63
(g79
g65
NtRp3970
(dp3971
g68
(dp3972
sg77
g3966
sg70
(lp3973
g63
(g84
g65
NtRp3974
(dp3975
g68
(dp3976
sg77
g3970
sg70
(lp3977
g63
(g64
g65
NtRp3978
(dp3979
g68
(dp3980
g76
I4
ssg77
g3974
sg70
(lp3981
S'{{'
p3982
asbasbasbag63
(g79
g65
NtRp3983
(dp3984
g68
(dp3985
sg77
g3966
sg70
(lp3986
g63
(g84
g65
NtRp3987
(dp3988
g68
(dp3989
sg77
g3983
sg70
(lp3990
g63
(g64
g65
NtRp3991
(dp3992
g68
(dp3993
g76
I4
ssg77
g3987
sg70
(lp3994
S'}}'
p3995
asbasbasbasbasbasbasbag63
(g79
g65
NtRp3996
(dp3997
g68
(dp3998
sg77
g3711
sg70
(lp3999
g63
(g84
g65
NtRp4000
(dp4001
g68
(dp4002
g88
g89
ssg77
g3996
sg70
(lp4003
S'files'
p4004
asbag63
(g84
g65
NtRp4005
(dp4006
g68
(dp4007
g95
g96
ssg77
g3996
sg70
(lp4008
S':'
asbag63
(g84
g65
NtRp4009
(dp4010
g68
(dp4011
sg77
g3996
sg70
(lp4012
g63
(g64
g65
NtRp4013
(dp4014
g68
(dp4015
g76
I5
ssg77
g4009
sg70
(lp4016
g63
(g72
g65
NtRp4017
(dp4018
g68
(dp4019
g76
I4
ssg77
Nsg70
(lp4020
g63
(g79
g65
NtRp4021
(dp4022
g68
(dp4023
sg77
g4017
sg70
(lp4024
g63
(g84
g65
NtRp4025
(dp4026
g68
(dp4027
sg77
g4021
sg70
(lp4028
g63
(g64
g65
NtRp4029
(dp4030
g68
(dp4031
g76
I4
ssg77
g4025
sg70
(lp4032
S'/admin/static/plugin_multiselect/jquery.dimensions.js'
p4033
asbasbasbag63
(g79
g65
NtRp4034
(dp4035
g68
(dp4036
sg77
g4017
sg70
(lp4037
g63
(g84
g65
NtRp4038
(dp4039
g68
(dp4040
sg77
g4034
sg70
(lp4041
g63
(g64
g65
NtRp4042
(dp4043
g68
(dp4044
g76
I4
ssg77
g4038
sg70
(lp4045
S'/admin/static/plugin_multiselect/jquery.multiselect.js'
p4046
asbasbasbag63
(g79
g65
NtRp4047
(dp4048
g68
(dp4049
sg77
g4017
sg70
(lp4050
g63
(g84
g65
NtRp4051
(dp4052
g68
(dp4053
sg77
g4047
sg70
(lp4054
g63
(g64
g65
NtRp4055
(dp4056
g68
(dp4057
g76
I4
ssg77
g4051
sg70
(lp4058
S'/admin/static/plugin_multiselect/jquery.multiselect.css'
p4059
asbasbasbag63
(g79
g65
NtRp4060
(dp4061
g68
(dp4062
sg77
g4017
sg70
(lp4063
g63
(g84
g65
NtRp4064
(dp4065
g68
(dp4066
sg77
g4060
sg70
(lp4067
g63
(g64
g65
NtRp4068
(dp4069
g68
(dp4070
g76
I4
ssg77
g4064
sg70
(lp4071
S'/admin/static/plugin_multiselect/start.js'
p4072
asbasbasbasbasbasbasbag63
(g79
g65
NtRp4073
(dp4074
g68
(dp4075
sg77
g3711
sg70
(lp4076
g63
(g84
g65
NtRp4077
(dp4078
g68
(dp4079
g88
g89
ssg77
g4073
sg70
(lp4080
S'flash'
p4081
asbag63
(g84
g65
NtRp4082
(dp4083
g68
(dp4084
g95
g96
ssg77
g4073
sg70
(lp4085
S':'
asbag63
(g84
g65
NtRp4086
(dp4087
g68
(dp4088
sg77
g4073
sg70
(lp4089
g63
(g64
g65
NtRp4090
(dp4091
g68
(dp4092
g76
I5
ssg77
g4086
sg70
(lp4093
S''
asbasbasbag63
(g79
g65
NtRp4094
(dp4095
g68
(dp4096
sg77
g3711
sg70
(lp4097
g63
(g84
g65
NtRp4098
(dp4099
g68
(dp4100
g88
g89
ssg77
g4094
sg70
(lp4101
S'generic_patterns'
p4102
asbag63
(g84
g65
NtRp4103
(dp4104
g68
(dp4105
g95
g96
ssg77
g4094
sg70
(lp4106
S':'
asbag63
(g84
g65
NtRp4107
(dp4108
g68
(dp4109
sg77
g4094
sg70
(lp4110
g63
(g64
g65
NtRp4111
(dp4112
g68
(dp4113
g76
I5
ssg77
g4107
sg70
(lp4114
g63
(g72
g65
NtRp4115
(dp4116
g68
(dp4117
g76
I4
ssg77
Nsg70
(lp4118
sbasbasbasbag63
(g79
g65
NtRp4119
(dp4120
g68
(dp4121
sg77
g3711
sg70
(lp4122
g63
(g84
g65
NtRp4123
(dp4124
g68
(dp4125
g88
g89
ssg77
g4119
sg70
(lp4126
S'headers'
p4127
asbag63
(g84
g65
NtRp4128
(dp4129
g68
(dp4130
g95
g96
ssg77
g4119
sg70
(lp4131
S':'
asbag63
(g84
g65
NtRp4132
(dp4133
g68
(dp4134
sg77
g4119
sg70
(lp4135
g63
(g64
g65
NtRp4136
(dp4137
g68
(dp4138
g76
I5
ssg77
g4132
sg70
(lp4139
g63
(g72
g65
NtRp4140
(dp4141
g68
(dp4142
g76
I4
ssg77
Nsg70
(lp4143
g63
(g79
g65
NtRp4144
(dp4145
g68
(dp4146
sg77
g4140
sg70
(lp4147
g63
(g84
g65
NtRp4148
(dp4149
g68
(dp4150
g88
g89
ssg77
g4144
sg70
(lp4151
S'Cache-Control'
p4152
asbag63
(g84
g65
NtRp4153
(dp4154
g68
(dp4155
g95
g96
ssg77
g4144
sg70
(lp4156
S':'
asbag63
(g84
g65
NtRp4157
(dp4158
g68
(dp4159
sg77
g4144
sg70
(lp4160
g63
(g64
g65
NtRp4161
(dp4162
g68
(dp4163
g76
I4
ssg77
g4157
sg70
(lp4164
S'no-store, no-cache, must-revalidate, post-check=0, pre-check=0'
p4165
asbasbasbag63
(g79
g65
NtRp4166
(dp4167
g68
(dp4168
sg77
g4140
sg70
(lp4169
g63
(g84
g65
NtRp4170
(dp4171
g68
(dp4172
g88
g89
ssg77
g4166
sg70
(lp4173
S'Content-Type'
p4174
asbag63
(g84
g65
NtRp4175
(dp4176
g68
(dp4177
g95
g96
ssg77
g4166
sg70
(lp4178
S':'
asbag63
(g84
g65
NtRp4179
(dp4180
g68
(dp4181
sg77
g4166
sg70
(lp4182
g63
(g64
g65
NtRp4183
(dp4184
g68
(dp4185
g76
I4
ssg77
g4179
sg70
(lp4186
S'text/html; charset=utf-8'
p4187
asbasbasbag63
(g79
g65
NtRp4188
(dp4189
g68
(dp4190
sg77
g4140
sg70
(lp4191
g63
(g84
g65
NtRp4192
(dp4193
g68
(dp4194
g88
g89
ssg77
g4188
sg70
(lp4195
S'Expires'
p4196
asbag63
(g84
g65
NtRp4197
(dp4198
g68
(dp4199
g95
g96
ssg77
g4188
sg70
(lp4200
S':'
asbag63
(g84
g65
NtRp4201
(dp4202
g68
(dp4203
sg77
g4188
sg70
(lp4204
g63
(g64
g65
NtRp4205
(dp4206
g68
(dp4207
g76
I4
ssg77
g4201
sg70
(lp4208
S'Sun, 14 Oct 2012 03:36:40 GMT'
p4209
asbasbasbag63
(g79
g65
NtRp4210
(dp4211
g68
(dp4212
sg77
g4140
sg70
(lp4213
g63
(g84
g65
NtRp4214
(dp4215
g68
(dp4216
g88
g89
ssg77
g4210
sg70
(lp4217
S'Pragma'
p4218
asbag63
(g84
g65
NtRp4219
(dp4220
g68
(dp4221
g95
g96
ssg77
g4210
sg70
(lp4222
S':'
asbag63
(g84
g65
NtRp4223
(dp4224
g68
(dp4225
sg77
g4210
sg70
(lp4226
g63
(g64
g65
NtRp4227
(dp4228
g68
(dp4229
g76
I4
ssg77
g4223
sg70
(lp4230
S'no-cache'
p4231
asbasbasbag63
(g79
g65
NtRp4232
(dp4233
g68
(dp4234
sg77
g4140
sg70
(lp4235
g63
(g84
g65
NtRp4236
(dp4237
g68
(dp4238
g88
g89
ssg77
g4232
sg70
(lp4239
S'X-Powered-By'
p4240
asbag63
(g84
g65
NtRp4241
(dp4242
g68
(dp4243
g95
g96
ssg77
g4232
sg70
(lp4244
S':'
asbag63
(g84
g65
NtRp4245
(dp4246
g68
(dp4247
sg77
g4232
sg70
(lp4248
g63
(g64
g65
NtRp4249
(dp4250
g68
(dp4251
g76
I4
ssg77
g4245
sg70
(lp4252
S'web2py'
p4253
asbasbasbasbasbasbasbag63
(g79
g65
NtRp4254
(dp4255
g68
(dp4256
sg77
g3711
sg70
(lp4257
g63
(g84
g65
NtRp4258
(dp4259
g68
(dp4260
g88
g89
ssg77
g4254
sg70
(lp4261
S'menu'
p4262
asbag63
(g84
g65
NtRp4263
(dp4264
g68
(dp4265
g95
g96
ssg77
g4254
sg70
(lp4266
S':'
asbag63
(g84
g65
NtRp4267
(dp4268
g68
(dp4269
sg77
g4254
sg70
(lp4270
g63
(g64
g65
NtRp4271
(dp4272
g68
(dp4273
g76
I5
ssg77
g4267
sg70
(lp4274
g63
(g72
g65
NtRp4275
(dp4276
g68
(dp4277
g76
I4
ssg77
Nsg70
(lp4278
g63
(g79
g65
NtRp4279
(dp4280
g68
(dp4281
sg77
g4275
sg70
(lp4282
g63
(g84
g65
NtRp4283
(dp4284
g68
(dp4285
sg77
g4279
sg70
(lp4286
g63
(g64
g65
NtRp4287
(dp4288
g68
(dp4289
g76
I4
ssg77
g4283
sg70
(lp4290
g63
(g72
g65
NtRp4291
(dp4292
g68
(dp4293
g76
I3
ssg77
Nsg70
(lp4294
g63
(g79
g65
NtRp4295
(dp4296
g68
(dp4297
sg77
g4291
sg70
(lp4298
g63
(g84
g65
NtRp4299
(dp4300
g68
(dp4301
sg77
g4295
sg70
(lp4302
g63
(g64
g65
NtRp4303
(dp4304
g68
(dp4305
g76
I3
ssg77
g4299
sg70
(lp4306
cgluon.languages
lazyT_unpickle
p4307
(S's\x04\x00\x00\x00Site'
tRp4308
asbasbasbag63
(g79
g65
NtRp4309
(dp4310
g68
(dp4311
sg77
g4291
sg70
(lp4312
g63
(g84
g65
NtRp4313
(dp4314
g68
(dp4315
sg77
g4309
sg70
(lp4316
g63
(g64
g65
NtRp4317
(dp4318
g68
(dp4319
g76
I3
ssg77
g4313
sg70
(lp4320
g106
asbasbasbag63
(g79
g65
NtRp4321
(dp4322
g68
(dp4323
sg77
g4291
sg70
(lp4324
g63
(g84
g65
NtRp4325
(dp4326
g68
(dp4327
sg77
g4321
sg70
(lp4328
g63
(g64
g65
NtRp4329
(dp4330
g68
(dp4331
g76
I3
ssg77
g4325
sg70
(lp4332
S'/admin/default/site'
p4333
asbasbasbasbasbasbasbag63
(g79
g65
NtRp4334
(dp4335
g68
(dp4336
sg77
g4275
sg70
(lp4337
g63
(g84
g65
NtRp4338
(dp4339
g68
(dp4340
sg77
g4334
sg70
(lp4341
g63
(g64
g65
NtRp4342
(dp4343
g68
(dp4344
g76
I4
ssg77
g4338
sg70
(lp4345
g63
(g72
g65
NtRp4346
(dp4347
g68
(dp4348
g76
I3
ssg77
Nsg70
(lp4349
g63
(g79
g65
NtRp4350
(dp4351
g68
(dp4352
sg77
g4346
sg70
(lp4353
g63
(g84
g65
NtRp4354
(dp4355
g68
(dp4356
sg77
g4350
sg70
(lp4357
g63
(g64
g65
NtRp4358
(dp4359
g68
(dp4360
g76
I3
ssg77
g4354
sg70
(lp4361
g4307
(S's\x04\x00\x00\x00Edit'
tRp4362
asbasbasbag63
(g79
g65
NtRp4363
(dp4364
g68
(dp4365
sg77
g4346
sg70
(lp4366
g63
(g84
g65
NtRp4367
(dp4368
g68
(dp4369
sg77
g4363
sg70
(lp4370
g63
(g64
g65
NtRp4371
(dp4372
g68
(dp4373
g76
I3
ssg77
g4367
sg70
(lp4374
g106
asbasbasbag63
(g79
g65
NtRp4375
(dp4376
g68
(dp4377
sg77
g4346
sg70
(lp4378
g63
(g84
g65
NtRp4379
(dp4380
g68
(dp4381
sg77
g4375
sg70
(lp4382
g63
(g64
g65
NtRp4383
(dp4384
g68
(dp4385
g76
I3
ssg77
g4379
sg70
(lp4386
S'/admin/default/design/taship1'
p4387
asbasbasbasbasbasbasbag63
(g79
g65
NtRp4388
(dp4389
g68
(dp4390
sg77
g4275
sg70
(lp4391
g63
(g84
g65
NtRp4392
(dp4393
g68
(dp4394
sg77
g4388
sg70
(lp4395
g63
(g64
g65
NtRp4396
(dp4397
g68
(dp4398
g76
I4
ssg77
g4392
sg70
(lp4399
g63
(g72
g65
NtRp4400
(dp4401
g68
(dp4402
g76
I3
ssg77
Nsg70
(lp4403
g63
(g79
g65
NtRp4404
(dp4405
g68
(dp4406
sg77
g4400
sg70
(lp4407
g63
(g84
g65
NtRp4408
(dp4409
g68
(dp4410
sg77
g4404
sg70
(lp4411
g63
(g64
g65
NtRp4412
(dp4413
g68
(dp4414
g76
I3
ssg77
g4408
sg70
(lp4415
g4307
(S's\x05\x00\x00\x00About'
tRp4416
asbasbasbag63
(g79
g65
NtRp4417
(dp4418
g68
(dp4419
sg77
g4400
sg70
(lp4420
g63
(g84
g65
NtRp4421
(dp4422
g68
(dp4423
sg77
g4417
sg70
(lp4424
g63
(g64
g65
NtRp4425
(dp4426
g68
(dp4427
g76
I3
ssg77
g4421
sg70
(lp4428
g106
asbasbasbag63
(g79
g65
NtRp4429
(dp4430
g68
(dp4431
sg77
g4400
sg70
(lp4432
g63
(g84
g65
NtRp4433
(dp4434
g68
(dp4435
sg77
g4429
sg70
(lp4436
g63
(g64
g65
NtRp4437
(dp4438
g68
(dp4439
g76
I3
ssg77
g4433
sg70
(lp4440
S'/admin/default/about/taship1'
p4441
asbasbasbasbasbasbasbag63
(g79
g65
NtRp4442
(dp4443
g68
(dp4444
sg77
g4275
sg70
(lp4445
g63
(g84
g65
NtRp4446
(dp4447
g68
(dp4448
sg77
g4442
sg70
(lp4449
g63
(g64
g65
NtRp4450
(dp4451
g68
(dp4452
g76
I4
ssg77
g4446
sg70
(lp4453
g63
(g72
g65
NtRp4454
(dp4455
g68
(dp4456
g76
I3
ssg77
Nsg70
(lp4457
g63
(g79
g65
NtRp4458
(dp4459
g68
(dp4460
sg77
g4454
sg70
(lp4461
g63
(g84
g65
NtRp4462
(dp4463
g68
(dp4464
sg77
g4458
sg70
(lp4465
g63
(g64
g65
NtRp4466
(dp4467
g68
(dp4468
g76
I3
ssg77
g4462
sg70
(lp4469
g4307
(S's\x06\x00\x00\x00Errors'
tRp4470
asbasbasbag63
(g79
g65
NtRp4471
(dp4472
g68
(dp4473
sg77
g4454
sg70
(lp4474
g63
(g84
g65
NtRp4475
(dp4476
g68
(dp4477
sg77
g4471
sg70
(lp4478
g63
(g64
g65
NtRp4479
(dp4480
g68
(dp4481
g76
I3
ssg77
g4475
sg70
(lp4482
g106
asbasbasbag63
(g79
g65
NtRp4483
(dp4484
g68
(dp4485
sg77
g4454
sg70
(lp4486
g63
(g84
g65
NtRp4487
(dp4488
g68
(dp4489
sg77
g4483
sg70
(lp4490
g63
(g64
g65
NtRp4491
(dp4492
g68
(dp4493
g76
I3
ssg77
g4487
sg70
(lp4494
S'/admin/default/errors/taship1'
p4495
asbasbasbasbasbasbasbag63
(g79
g65
NtRp4496
(dp4497
g68
(dp4498
sg77
g4275
sg70
(lp4499
g63
(g84
g65
NtRp4500
(dp4501
g68
(dp4502
sg77
g4496
sg70
(lp4503
g63
(g64
g65
NtRp4504
(dp4505
g68
(dp4506
g76
I4
ssg77
g4500
sg70
(lp4507
g63
(g72
g65
NtRp4508
(dp4509
g68
(dp4510
g76
I3
ssg77
Nsg70
(lp4511
g63
(g79
g65
NtRp4512
(dp4513
g68
(dp4514
sg77
g4508
sg70
(lp4515
g63
(g84
g65
NtRp4516
(dp4517
g68
(dp4518
sg77
g4512
sg70
(lp4519
g63
(g64
g65
NtRp4520
(dp4521
g68
(dp4522
g76
I3
ssg77
g4516
sg70
(lp4523
g4307
(S's\n\x00\x00\x00Versioning'
tRp4524
asbasbasbag63
(g79
g65
NtRp4525
(dp4526
g68
(dp4527
sg77
g4508
sg70
(lp4528
g63
(g84
g65
NtRp4529
(dp4530
g68
(dp4531
sg77
g4525
sg70
(lp4532
g63
(g64
g65
NtRp4533
(dp4534
g68
(dp4535
g76
I3
ssg77
g4529
sg70
(lp4536
g106
asbasbasbag63
(g79
g65
NtRp4537
(dp4538
g68
(dp4539
sg77
g4508
sg70
(lp4540
g63
(g84
g65
NtRp4541
(dp4542
g68
(dp4543
sg77
g4537
sg70
(lp4544
g63
(g64
g65
NtRp4545
(dp4546
g68
(dp4547
g76
I3
ssg77
g4541
sg70
(lp4548
S'/admin/mercurial/commit/taship1'
p4549
asbasbasbasbasbasbasbag63
(g79
g65
NtRp4550
(dp4551
g68
(dp4552
sg77
g4275
sg70
(lp4553
g63
(g84
g65
NtRp4554
(dp4555
g68
(dp4556
sg77
g4550
sg70
(lp4557
g63
(g64
g65
NtRp4558
(dp4559
g68
(dp4560
g76
I4
ssg77
g4554
sg70
(lp4561
g63
(g72
g65
NtRp4562
(dp4563
g68
(dp4564
g76
I3
ssg77
Nsg70
(lp4565
g63
(g79
g65
NtRp4566
(dp4567
g68
(dp4568
sg77
g4562
sg70
(lp4569
g63
(g84
g65
NtRp4570
(dp4571
g68
(dp4572
sg77
g4566
sg70
(lp4573
g63
(g64
g65
NtRp4574
(dp4575
g68
(dp4576
g76
I3
ssg77
g4570
sg70
(lp4577
g4307
(S's\x06\x00\x00\x00Logout'
tRp4578
asbasbasbag63
(g79
g65
NtRp4579
(dp4580
g68
(dp4581
sg77
g4562
sg70
(lp4582
g63
(g84
g65
NtRp4583
(dp4584
g68
(dp4585
sg77
g4579
sg70
(lp4586
g63
(g64
g65
NtRp4587
(dp4588
g68
(dp4589
g76
I3
ssg77
g4583
sg70
(lp4590
g106
asbasbasbag63
(g79
g65
NtRp4591
(dp4592
g68
(dp4593
sg77
g4562
sg70
(lp4594
g63
(g84
g65
NtRp4595
(dp4596
g68
(dp4597
sg77
g4591
sg70
(lp4598
g63
(g64
g65
NtRp4599
(dp4600
g68
(dp4601
g76
I3
ssg77
g4595
sg70
(lp4602
S'/admin/default/logout'
p4603
asbasbasbasbasbasbasbag63
(g79
g65
NtRp4604
(dp4605
g68
(dp4606
sg77
g4275
sg70
(lp4607
g63
(g84
g65
NtRp4608
(dp4609
g68
(dp4610
sg77
g4604
sg70
(lp4611
g63
(g64
g65
NtRp4612
(dp4613
g68
(dp4614
g76
I4
ssg77
g4608
sg70
(lp4615
g63
(g72
g65
NtRp4616
(dp4617
g68
(dp4618
g76
I3
ssg77
Nsg70
(lp4619
g63
(g79
g65
NtRp4620
(dp4621
g68
(dp4622
sg77
g4616
sg70
(lp4623
g63
(g84
g65
NtRp4624
(dp4625
g68
(dp4626
sg77
g4620
sg70
(lp4627
g63
(g64
g65
NtRp4628
(dp4629
g68
(dp4630
g76
I3
ssg77
g4624
sg70
(lp4631
g4307
(S's\x05\x00\x00\x00Debug'
tRp4632
asbasbasbag63
(g79
g65
NtRp4633
(dp4634
g68
(dp4635
sg77
g4616
sg70
(lp4636
g63
(g84
g65
NtRp4637
(dp4638
g68
(dp4639
sg77
g4633
sg70
(lp4640
g63
(g64
g65
NtRp4641
(dp4642
g68
(dp4643
g76
I3
ssg77
g4637
sg70
(lp4644
g106
asbasbasbag63
(g79
g65
NtRp4645
(dp4646
g68
(dp4647
sg77
g4616
sg70
(lp4648
g63
(g84
g65
NtRp4649
(dp4650
g68
(dp4651
sg77
g4645
sg70
(lp4652
g63
(g64
g65
NtRp4653
(dp4654
g68
(dp4655
g76
I3
ssg77
g4649
sg70
(lp4656
S'/admin/debug/interact'
p4657
asbasbasbasbasbasbasbag63
(g79
g65
NtRp4658
(dp4659
g68
(dp4660
sg77
g4275
sg70
(lp4661
g63
(g84
g65
NtRp4662
(dp4663
g68
(dp4664
sg77
g4658
sg70
(lp4665
g63
(g64
g65
NtRp4666
(dp4667
g68
(dp4668
g76
I4
ssg77
g4662
sg70
(lp4669
g63
(g72
g65
NtRp4670
(dp4671
g68
(dp4672
g76
I3
ssg77
Nsg70
(lp4673
g63
(g79
g65
NtRp4674
(dp4675
g68
(dp4676
sg77
g4670
sg70
(lp4677
g63
(g84
g65
NtRp4678
(dp4679
g68
(dp4680
sg77
g4674
sg70
(lp4681
g63
(g64
g65
NtRp4682
(dp4683
g68
(dp4684
g76
I3
ssg77
g4678
sg70
(lp4685
g4307
(S's\x04\x00\x00\x00Help'
tRp4686
asbasbasbag63
(g79
g65
NtRp4687
(dp4688
g68
(dp4689
sg77
g4670
sg70
(lp4690
g63
(g84
g65
NtRp4691
(dp4692
g68
(dp4693
sg77
g4687
sg70
(lp4694
g63
(g64
g65
NtRp4695
(dp4696
g68
(dp4697
g76
I3
ssg77
g4691
sg70
(lp4698
g106
asbasbasbag63
(g79
g65
NtRp4699
(dp4700
g68
(dp4701
sg77
g4670
sg70
(lp4702
g63
(g84
g65
NtRp4703
(dp4704
g68
(dp4705
sg77
g4699
sg70
(lp4706
g63
(g64
g65
NtRp4707
(dp4708
g68
(dp4709
g76
I3
ssg77
g4703
sg70
(lp4710
S'/examples/default/index'
p4711
asbasbasbasbasbasbasbasbasbasbasbag63
(g79
g65
NtRp4712
(dp4713
g68
(dp4714
sg77
g3711
sg70
(lp4715
g63
(g84
g65
NtRp4716
(dp4717
g68
(dp4718
g88
g89
ssg77
g4712
sg70
(lp4719
S'meta'
p4720
asbag63
(g84
g65
NtRp4721
(dp4722
g68
(dp4723
g95
g96
ssg77
g4712
sg70
(lp4724
S':'
asbag63
(g84
g65
NtRp4725
(dp4726
g68
(dp4727
sg77
g4712
sg70
(lp4728
g63
(g64
g65
NtRp4729
(dp4730
g68
(dp4731
g76
I5
ssg77
g4725
sg70
(lp4732
g63
(g72
g65
NtRp4733
(dp4734
g68
(dp4735
g76
I4
ssg77
Nsg70
(lp4736
sbasbasbasbag63
(g79
g65
NtRp4737
(dp4738
g68
(dp4739
sg77
g3711
sg70
(lp4740
g63
(g84
g65
NtRp4741
(dp4742
g68
(dp4743
g88
g89
ssg77
g4737
sg70
(lp4744
S'models_to_run'
p4745
asbag63
(g84
g65
NtRp4746
(dp4747
g68
(dp4748
g95
g96
ssg77
g4737
sg70
(lp4749
S':'
asbag63
(g84
g65
NtRp4750
(dp4751
g68
(dp4752
sg77
g4737
sg70
(lp4753
g63
(g64
g65
NtRp4754
(dp4755
g68
(dp4756
g76
I5
ssg77
g4750
sg70
(lp4757
g63
(g72
g65
NtRp4758
(dp4759
g68
(dp4760
g76
I4
ssg77
Nsg70
(lp4761
g63
(g79
g65
NtRp4762
(dp4763
g68
(dp4764
sg77
g4758
sg70
(lp4765
g63
(g84
g65
NtRp4766
(dp4767
g68
(dp4768
sg77
g4762
sg70
(lp4769
g63
(g64
g65
NtRp4770
(dp4771
g68
(dp4772
g76
I4
ssg77
g4766
sg70
(lp4773
S'^\\w+\\.py$'
p4774
asbasbasbag63
(g79
g65
NtRp4775
(dp4776
g68
(dp4777
sg77
g4758
sg70
(lp4778
g63
(g84
g65
NtRp4779
(dp4780
g68
(dp4781
sg77
g4775
sg70
(lp4782
g63
(g64
g65
NtRp4783
(dp4784
g68
(dp4785
g76
I4
ssg77
g4779
sg70
(lp4786
S'^default/\\w+\\.py$'
p4787
asbasbasbag63
(g79
g65
NtRp4788
(dp4789
g68
(dp4790
sg77
g4758
sg70
(lp4791
g63
(g84
g65
NtRp4792
(dp4793
g68
(dp4794
sg77
g4788
sg70
(lp4795
g63
(g64
g65
NtRp4796
(dp4797
g68
(dp4798
g76
I4
ssg77
g4792
sg70
(lp4799
S'^default/resolve/\\w+\\.py$'
p4800
asbasbasbasbasbasbasbag63
(g79
g65
NtRp4801
(dp4802
g68
(dp4803
sg77
g3711
sg70
(lp4804
g63
(g84
g65
NtRp4805
(dp4806
g68
(dp4807
g88
g89
ssg77
g4801
sg70
(lp4808
S'postprocessing'
p4809
asbag63
(g84
g65
NtRp4810
(dp4811
g68
(dp4812
g95
g96
ssg77
g4801
sg70
(lp4813
S':'
asbag63
(g84
g65
NtRp4814
(dp4815
g68
(dp4816
sg77
g4801
sg70
(lp4817
g63
(g64
g65
NtRp4818
(dp4819
g68
(dp4820
g76
I5
ssg77
g4814
sg70
(lp4821
g63
(g72
g65
NtRp4822
(dp4823
g68
(dp4824
g76
I4
ssg77
Nsg70
(lp4825
sbasbasbasbag63
(g79
g65
NtRp4826
(dp4827
g68
(dp4828
sg77
g3711
sg70
(lp4829
g63
(g84
g65
NtRp4830
(dp4831
g68
(dp4832
g88
g89
ssg77
g4826
sg70
(lp4833
S'session_file'
p4834
asbag63
(g84
g65
NtRp4835
(dp4836
g68
(dp4837
g95
g96
ssg77
g4826
sg70
(lp4838
S':'
asbag63
(g84
g65
NtRp4839
(dp4840
g68
(dp4841
sg77
g4826
sg70
(lp4842
g63
(g64
g65
NtRp4843
(dp4844
g68
(dp4845
g76
I5
ssg77
g4839
sg70
(lp4846
S"<open file '/home/mayank/IIIT/sem 3/SSAD&Project/web2py/applications/admin/sessions/127.0.0.1-5dcf2937-67e2-4b75-8344-2e4702696999', mode 'rb+' at 0x7f5c841e0780>"
p4847
asbasbasbag63
(g79
g65
NtRp4848
(dp4849
g68
(dp4850
sg77
g3711
sg70
(lp4851
g63
(g84
g65
NtRp4852
(dp4853
g68
(dp4854
g88
g89
ssg77
g4848
sg70
(lp4855
S'session_filename'
p4856
asbag63
(g84
g65
NtRp4857
(dp4858
g68
(dp4859
g95
g96
ssg77
g4848
sg70
(lp4860
S':'
asbag63
(g84
g65
NtRp4861
(dp4862
g68
(dp4863
sg77
g4848
sg70
(lp4864
g63
(g64
g65
NtRp4865
(dp4866
g68
(dp4867
g76
I5
ssg77
g4861
sg70
(lp4868
S'/home/mayank/IIIT/sem 3/SSAD&Project/web2py/applications/admin/sessions/127.0.0.1-5dcf2937-67e2-4b75-8344-2e4702696999'
p4869
asbasbasbag63
(g79
g65
NtRp4870
(dp4871
g68
(dp4872
sg77
g3711
sg70
(lp4873
g63
(g84
g65
NtRp4874
(dp4875
g68
(dp4876
g88
g89
ssg77
g4870
sg70
(lp4877
S'session_id'
p4878
asbag63
(g84
g65
NtRp4879
(dp4880
g68
(dp4881
g95
g96
ssg77
g4870
sg70
(lp4882
S':'
asbag63
(g84
g65
NtRp4883
(dp4884
g68
(dp4885
sg77
g4870
sg70
(lp4886
g63
(g64
g65
NtRp4887
(dp4888
g68
(dp4889
g76
I5
ssg77
g4883
sg70
(lp4890
g326
asbasbasbag63
(g79
g65
NtRp4891
(dp4892
g68
(dp4893
sg77
g3711
sg70
(lp4894
g63
(g84
g65
NtRp4895
(dp4896
g68
(dp4897
g88
g89
ssg77
g4891
sg70
(lp4898
S'session_id_name'
p4899
asbag63
(g84
g65
NtRp4900
(dp4901
g68
(dp4902
g95
g96
ssg77
g4891
sg70
(lp4903
S':'
asbag63
(g84
g65
NtRp4904
(dp4905
g68
(dp4906
sg77
g4891
sg70
(lp4907
g63
(g64
g65
NtRp4908
(dp4909
g68
(dp4910
g76
I5
ssg77
g4904
sg70
(lp4911
g3768
asbasbasbag63
(g79
g65
NtRp4912
(dp4913
g68
(dp4914
sg77
g3711
sg70
(lp4915
g63
(g84
g65
NtRp4916
(dp4917
g68
(dp4918
g88
g89
ssg77
g4912
sg70
(lp4919
S'session_locked'
p4920
asbag63
(g84
g65
NtRp4921
(dp4922
g68
(dp4923
g95
g96
ssg77
g4912
sg70
(lp4924
S':'
asbag63
(g84
g65
NtRp4925
(dp4926
g68
(dp4927
sg77
g4912
sg70
(lp4928
g63
(g64
g65
NtRp4929
(dp4930
g68
(dp4931
g76
I5
ssg77
g4925
sg70
(lp4932
g2096
asbasbasbag63
(g79
g65
NtRp4933
(dp4934
g68
(dp4935
sg77
g3711
sg70
(lp4936
g63
(g84
g65
NtRp4937
(dp4938
g68
(dp4939
g88
g89
ssg77
g4933
sg70
(lp4940
S'session_new'
p4941
asbag63
(g84
g65
NtRp4942
(dp4943
g68
(dp4944
g95
g96
ssg77
g4933
sg70
(lp4945
S':'
asbag63
(g84
g65
NtRp4946
(dp4947
g68
(dp4948
sg77
g4933
sg70
(lp4949
g63
(g64
g65
NtRp4950
(dp4951
g68
(dp4952
g76
I5
ssg77
g4946
sg70
(lp4953
g106
asbasbasbag63
(g79
g65
NtRp4954
(dp4955
g68
(dp4956
sg77
g3711
sg70
(lp4957
g63
(g84
g65
NtRp4958
(dp4959
g68
(dp4960
g88
g89
ssg77
g4954
sg70
(lp4961
S'status'
p4962
asbag63
(g84
g65
NtRp4963
(dp4964
g68
(dp4965
g95
g96
ssg77
g4954
sg70
(lp4966
S':'
asbag63
(g84
g65
NtRp4967
(dp4968
g68
(dp4969
sg77
g4954
sg70
(lp4970
g63
(g64
g65
NtRp4971
(dp4972
g68
(dp4973
g76
I5
ssg77
g4967
sg70
(lp4974
S'200'
p4975
asbasbasbag63
(g79
g65
NtRp4976
(dp4977
g68
(dp4978
sg77
g3711
sg70
(lp4979
g63
(g84
g65
NtRp4980
(dp4981
g68
(dp4982
g88
g89
ssg77
g4976
sg70
(lp4983
S'subtitle'
p4984
asbag63
(g84
g65
NtRp4985
(dp4986
g68
(dp4987
g95
g96
ssg77
g4976
sg70
(lp4988
S':'
asbag63
(g84
g65
NtRp4989
(dp4990
g68
(dp4991
sg77
g4976
sg70
(lp4992
g63
(g64
g65
NtRp4993
(dp4994
g68
(dp4995
g76
I5
ssg77
g4989
sg70
(lp4996
S'admin'
p4997
asbasbasbag63
(g79
g65
NtRp4998
(dp4999
g68
(dp5000
sg77
g3711
sg70
(lp5001
g63
(g84
g65
NtRp5002
(dp5003
g68
(dp5004
g88
g89
ssg77
g4998
sg70
(lp5005
S'title'
p5006
asbag63
(g84
g65
NtRp5007
(dp5008
g68
(dp5009
g95
g96
ssg77
g4998
sg70
(lp5010
S':'
asbag63
(g84
g65
NtRp5011
(dp5012
g68
(dp5013
sg77
g4998
sg70
(lp5014
g63
(g64
g65
NtRp5015
(dp5016
g68
(dp5017
g76
I5
ssg77
g5011
sg70
(lp5018
S'resolve taship1/views/default'
p5019
asbasbasbag63
(g79
g65
NtRp5020
(dp5021
g68
(dp5022
sg77
g3711
sg70
(lp5023
g63
(g84
g65
NtRp5024
(dp5025
g68
(dp5026
g88
g89
ssg77
g5020
sg70
(lp5027
S'view'
p5028
asbag63
(g84
g65
NtRp5029
(dp5030
g68
(dp5031
g95
g96
ssg77
g5020
sg70
(lp5032
S':'
asbag63
(g84
g65
NtRp5033
(dp5034
g68
(dp5035
sg77
g5020
sg70
(lp5036
g63
(g64
g65
NtRp5037
(dp5038
g68
(dp5039
g76
I5
ssg77
g5033
sg70
(lp5040
S'default/resolve.html'
p5041
asbasbasbasbasbsS'locals'
p5042
(dp5043
S'a'
S"'/home/mayank/IIIT/sem 3/SSAD&Project/web2py/applications/taship1/views/default'"
p5044
sS'b'
S"'r'"
p5045
sssS'traceback'
p5046
S'Traceback (most recent call last):\n  File "/home/mayank/IIIT/sem 3/SSAD&Project/web2py/gluon/restricted.py", line 209, in restricted\n    exec ccode in environment\n  File "/home/mayank/IIIT/sem 3/SSAD&Project/web2py/applications/admin/controllers/default.py", line 1726, in <module>\n  File "/home/mayank/IIIT/sem 3/SSAD&Project/web2py/gluon/globals.py", line 185, in <lambda>\n    self._caller = lambda f: f()\n  File "/home/mayank/IIIT/sem 3/SSAD&Project/web2py/applications/admin/controllers/default.py", line 703, in resolve\n    a = safe_read(path).split(\'\\n\')\n  File "/home/mayank/IIIT/sem 3/SSAD&Project/web2py/applications/admin/controllers/default.py", line 66, in safe_read\n    safe_file = safe_open(a, b)\n  File "/home/mayank/IIIT/sem 3/SSAD&Project/web2py/applications/admin/controllers/default.py", line 63, in safe_open\n    return open(a,b)\nIOError: [Errno 21] Is a directory: \'/home/mayank/IIIT/sem 3/SSAD&Project/web2py/applications/taship1/views/default\'\n'
p5047
s.