(dp1
S'output'
p2
S"<type 'exceptions.IOError'> [Errno 21] Is a directory: '/home/mayank/IIIT/sem 3/SSAD&Project/web2py/applications/taship1/views/default/'"
p3
sS'layer'
p4
S'/home/mayank/IIIT/sem 3/SSAD&Project/web2py/applications/admin/controllers/default.py'
p5
sS'code'
p6
S'# coding: utf8\n\nEXPERIMENTAL_STUFF = True\n\nif EXPERIMENTAL_STUFF:\n    is_mobile = request.user_agent().is_mobile\n    if is_mobile:\n        response.view = response.view.replace(\'default/\',\'default.mobile/\')\n        response.menu = []\n\nimport re\nfrom gluon.admin import *\nfrom gluon.fileutils import abspath, read_file, write_file\nfrom gluon.utils import web2py_uuid\nfrom glob import glob\nimport shutil\nimport platform\ntry:                                                                                      \n    from git import *                                                                     \n    have_git = True\nexcept ImportError:                                                                       \n    have_git = False\n    GIT_MISSING = \'requires python-git module, but not installed or incompatible version\'\n\nfrom gluon.languages import (regex_language, read_possible_languages,\n                             lang_sampling,\n                             read_dict, write_dict, read_plural_dict,\n                             write_plural_dict, PLURAL_RULES)\n\n\nif DEMO_MODE and request.function in [\'change_password\',\'pack\',\'pack_plugin\',\'upgrade_web2py\',\'uninstall\',\'cleanup\',\'compile_app\',\'remove_compiled_app\',\'delete\',\'delete_plugin\',\'create_file\',\'upload_file\',\'update_languages\',\'reload_routes\',\'git_push\',\'git_pull\']:\n    session.flash = T(\'disabled in demo mode\')\n    redirect(URL(\'site\'))\n\n\nif not is_manager() and request.function in [\'change_password\',\'upgrade_web2py\']:\n    session.flash = T(\'disabled in multi user mode\')\n    redirect(URL(\'site\'))\n\nif FILTER_APPS and request.args(0) and not request.args(0) in FILTER_APPS:\n    session.flash = T(\'disabled in demo mode\')\n    redirect(URL(\'site\'))\n\n\nif not session.token: session.token = web2py_uuid()\n\ndef count_lines(data):\n    return len([line for line in data.split(\'\\n\') if line.strip() and not line.startswith(\'#\')])\n\ndef log_progress(app,mode=\'EDIT\',filename=None,progress=0):\n    progress_file = os.path.join(apath(app, r=request), \'progress.log\')\n    now = str(request.now)[:19]\n    if not os.path.exists(progress_file):\n        safe_open(progress_file,\'w\').write(\'[%s] START\\n\' % now)\n    if filename:\n        safe_open(progress_file,\'a\').write(\'[%s] %s %s: %s\\n\' % (now,mode,filename,progress))\n\ndef safe_open(a,b):\n    if DEMO_MODE and (\'w\' in b or \'a\' in b):\n        class tmp:\n            def write(self,data): pass\n        return tmp()\n    return open(a,b)\n\ndef safe_read(a, b=\'r\'):\n    safe_file = safe_open(a, b)\n    try:\n        return safe_file.read()\n    finally:\n        safe_file.close()\n\ndef safe_write(a, value, b=\'w\'):\n    safe_file = safe_open(a, b)\n    try:\n        safe_file.write(value)\n    finally:\n        safe_file.close()\n\ndef get_app(name=None):\n    app = name or request.args(0)\n    if app and (not MULTI_USER_MODE or is_manager() or \\\n                    db(db.app.name==app)(db.app.owner==auth.user.id).count()):\n        return app\n    session.flash = T(\'App does not exist or your are not authorized\')\n    redirect(URL(\'site\'))\n\ndef index():\n    """ Index handler """\n\n    send = request.vars.send\n    if DEMO_MODE:\n        session.authorized = True\n        session.last_time = t0\n    if not send:\n        send = URL(\'site\')\n    if session.authorized:\n        redirect(send)\n    elif request.vars.password:\n        if verify_password(request.vars.password):\n            session.authorized = True\n            login_record(True)\n\n            if CHECK_VERSION:\n                session.check_version = True\n            else:\n                session.check_version = False\n\n            session.last_time = t0\n            if isinstance(send, list):  # ## why does this happen?\n                send = str(send[0])\n\n            redirect(send)\n        else:\n            times_denied = login_record(False)\n            if times_denied >= allowed_number_of_attempts:\n                response.flash = \\\n                    T(\'admin disabled because too many invalid login attempts\')\n            elif times_denied == allowed_number_of_attempts - 1:\n                response.flash = \\\n                    T(\'You have one more login attempt before you are locked out\')\n            else:\n                response.flash = T(\'invalid password.\')\n    return dict(send=send)\n\n\ndef check_version():\n    """ Checks if web2py is up to date """\n\n    session.forget()\n    session._unlock(response)\n\n    new_version, version_number = check_new_version(request.env.web2py_version,\n                                    WEB2PY_VERSION_URL)\n\n    if new_version == -1:\n        return A(T(\'Unable to check for upgrades\'), _href=WEB2PY_URL)\n    elif new_version != True:\n        return A(T(\'web2py is up to date\'), _href=WEB2PY_URL)\n    elif platform.system().lower() in (\'windows\',\'win32\',\'win64\') and os.path.exists("web2py.exe"):\n        return SPAN(\'You should upgrade to version %s.%s.%s\' % version_number[:3])\n    else:\n        return sp_button(URL(\'upgrade_web2py\'), T(\'upgrade now\')) \\\n            + XML(\' <strong class="upgrade_version">%s.%s.%s</strong>\' \\\n                      % version_number[:3])\n\ndef logout():\n    """ Logout handler """\n    session.authorized = None\n    if MULTI_USER_MODE:\n        redirect(URL(\'user/logout\'))\n    redirect(URL(\'index\'))\n\n\ndef change_password():\n\n    if session.pam_user:\n        session.flash = T(\'PAM authenticated user, cannot change password here\')\n        redirect(URL(\'site\'))\n    form=SQLFORM.factory(Field(\'current_admin_password\',\'password\'),\n                         Field(\'new_admin_password\',\'password\',requires=IS_STRONG()),\n                         Field(\'new_admin_password_again\',\'password\'))\n    if form.accepts(request.vars):\n        if not verify_password(request.vars.current_admin_password):\n            form.errors.current_admin_password = T(\'invalid password\')\n        elif form.vars.new_admin_password != form.vars.new_admin_password_again:\n            form.errors.new_admin_password_again = T(\'no match\')\n        else:\n            path = abspath(\'parameters_%s.py\' % request.env.server_port)\n            safe_write(path, \'password="%s"\' % CRYPT()(request.vars.new_admin_password)[0])\n            session.flash = T(\'password changed\')\n            redirect(URL(\'site\'))\n    return dict(form=form)\n\n\ndef site():\n    """ Site handler """\n\n    myversion = request.env.web2py_version\n\n    # Shortcut to make the elif statements more legible\n    file_or_appurl = \'file\' in request.vars or \'appurl\' in request.vars\n\n    class IS_VALID_APPNAME(object):\n        def __call__(self,value):\n            if not re.compile(\'\\w+\').match(value):\n                return (value,T(\'Invalid application name\'))\n            if not request.vars.overwrite and \\\n                    os.path.exists(os.path.join(apath(r=request),value)):\n                return (value,T(\'Application exists already\'))\n            return (value,None)\n\n    is_appname = IS_VALID_APPNAME()\n    form_create = SQLFORM.factory(Field(\'name\',requires=is_appname),\n                                  table_name=\'appcreate\')\n    form_update = SQLFORM.factory(Field(\'name\',requires=is_appname),\n                                  Field(\'file\',\'upload\',uploadfield=False),\n                                  Field(\'url\'),\n                                  Field(\'overwrite\',\'boolean\'),\n                                  table_name=\'appupdate\')\n    form_create.process()\n    form_update.process()\n\n    if DEMO_MODE:\n        pass\n\n    elif form_create.accepted:\n        # create a new application\n        appname = cleanpath(form_create.vars.name)\n        created, error = app_create(appname, request,info=True)\n        if created:\n            if MULTI_USER_MODE:\n                db.app.insert(name=appname,owner=auth.user.id)\n            log_progress(appname)\n            session.flash = T(\'new application "%s" created\', appname)\n            redirect(URL(\'design\',args=appname))\n        else:\n            session.flash = \\\n                DIV(T(\'unable to create application "%s"\' % appname),\n                    PRE(error))                      \n        redirect(URL(r=request))\n\n    elif form_update.accepted:\n        if (form_update.vars.url or \'\').endswith(\'.git\'):\n            if not have_git:\n                session.flash = GIT_MISSING\n                redirect(URL(r=request))\n            target = os.path.join(apath(r=request),form_update.vars.name)\n            try:\n                new_repo = Repo.clone_from(form_update.vars.url,target)\n                session.flash = T(\'new application "%s" imported\',\n                                  form_update.vars.name)\n            except GitCommandError, err:\n                session.flash = T(\'Invalid git repository specified.\')\n            redirect(URL(r=request))\n\n        elif form_update.vars.url:\n            # fetch an application via URL or file upload\n            try:\n                f = urllib.urlopen(form_update.vars.url)\n                if f.code == 404:\n                    raise Exception("404 file not found")\n            except Exception, e:\n                session.flash = \\\n                    DIV(T(\'Unable to download app because:\'),PRE(str(e)))\n                redirect(URL(r=request))\n            fname = form_update.vars.url\n            \n        elif form_update.accepted and form_update.vars.file:\n            fname = request.vars.file.filename\n            f = request.vars.file.file\n            \n        else:\n            session.flash = \'No file uploaded and no URL specified\'\n            redirect(URL(r=request))\n\n        if f:\n            appname = cleanpath(form_update.vars.name)\n            installed = app_install(appname, f, \n                                    request, fname,\n                                    overwrite=form_update.vars.overwrite)\n        if f and installed:\n            msg = \'application %(appname)s installed with md5sum: %(digest)s\'\n            if MULTI_USER_MODE:\n                db.app.insert(name=appname,owner=auth.user.id)\n            log_progress(appname)\n            session.flash = T(msg, dict(appname=appname,\n                                        digest=md5_hash(installed)))\n        elif f and form_update.vars.overwrite:\n            msg = \'unable to install application "%(appname)s"\'\n            session.flash = T(msg, dict(appname=form_update.vars.name))\n        else:\n            msg = \'unable to install application "%(appname)s"\'\n            session.flash = T(msg, dict(appname=form_update.vars.name))\n        redirect(URL(r=request))\n\n    regex = re.compile(\'^\\w+$\')\n\n    if is_manager():\n        apps = [f for f in os.listdir(apath(r=request)) if regex.match(f)]\n    else:\n        apps = [f.name for f in db(db.app.owner==auth.user_id).select()]\n\n    if FILTER_APPS:\n        apps = [f for f in apps if f in FILTER_APPS]\n\n    apps = sorted(apps,lambda a,b:cmp(a.upper(),b.upper()))\n\n    return dict(app=None, apps=apps, myversion=myversion, \n                form_create=form_create, form_update=form_update)\n\n\ndef report_progress(app):\n    import datetime\n    progress_file = os.path.join(apath(app, r=request), \'progress.log\')\n    regex = re.compile(\'\\[(.*?)\\][^\\:]+\\:\\s+(\\-?\\d+)\')\n    if not os.path.exists(progress_file):\n        return []\n    matches = regex.findall(open(progress_file,\'r\').read())\n    events,counter = [],0\n    for m in matches:\n        if not m: continue\n        days = -(request.now - datetime.datetime.strptime(m[0],\'%Y-%m-%d %H:%M:%S\')).days\n        counter += int(m[1])\n        events.append([days,counter])\n    return events\n\n\ndef pack():\n    app = get_app()\n\n    try:\n        if len(request.args) == 1:\n            fname = \'web2py.app.%s.w2p\' % app\n            filename = app_pack(app, request, raise_ex=True)\n        else:\n            fname = \'web2py.app.%s.compiled.w2p\' % app\n            filename = app_pack_compiled(app, request, raise_ex=True)\n    except Exception, e:\n        filename = None\n\n    if filename:\n        response.headers[\'Content-Type\'] = \'application/w2p\'\n        disposition = \'attachment; filename=%s\' % fname\n        response.headers[\'Content-Disposition\'] = disposition\n        return safe_read(filename, \'rb\')\n    else:\n        session.flash = T(\'internal error: %s\' % e)\n        redirect(URL(\'site\'))\n\ndef pack_plugin():\n    app = get_app()\n    if len(request.args) == 2:\n        fname = \'web2py.plugin.%s.w2p\' % request.args[1]\n        filename = plugin_pack(app, request.args[1], request)\n    if filename:\n        response.headers[\'Content-Type\'] = \'application/w2p\'\n        disposition = \'attachment; filename=%s\' % fname\n        response.headers[\'Content-Disposition\'] = disposition\n        return safe_read(filename, \'rb\')\n    else:\n        session.flash = T(\'internal error\')\n        redirect(URL(\'plugin\',args=request.args))\n\ndef upgrade_web2py():\n    dialog = FORM.confirm(T(\'Upgrade\'),\n                         {T(\'Cancel\'):URL(\'site\')})    \n    if dialog.accepted:\n        (success, error) = upgrade(request)\n        if success:\n            session.flash = T(\'web2py upgraded; please restart it\')\n        else:\n            session.flash = T(\'unable to upgrade because "%s"\', error)\n        redirect(URL(\'site\'))\n    return dict(dialog=dialog)\n\ndef uninstall():\n    app = get_app()\n\n    dialog = FORM.confirm(T(\'Uninstall\'),\n                         {T(\'Cancel\'):URL(\'site\')})\n    \n    if dialog.accepted:\n        if MULTI_USER_MODE:\n            if is_manager() and db(db.app.name==app).delete():\n                pass\n            elif db(db.app.name==app)(db.app.owner==auth.user.id).delete():\n                pass\n            else:\n                session.flash = T(\'no permission to uninstall "%s"\', app)\n                redirect(URL(\'site\'))\n        if app_uninstall(app, request):\n            session.flash = T(\'application "%s" uninstalled\', app)\n        else:\n            session.flash = T(\'unable to uninstall "%s"\', app)\n        redirect(URL(\'site\'))\n    return dict(app=app, dialog=dialog)\n\n\ndef cleanup():\n    app = get_app()\n    clean = app_cleanup(app, request)\n    if not clean:\n        session.flash = T("some files could not be removed")\n    else:\n        session.flash = T(\'cache, errors and sessions cleaned\')\n\n    redirect(URL(\'site\'))\n\n\ndef compile_app():\n    app = get_app()\n    c = app_compile(app, request)\n    if not c:\n        session.flash = T(\'application compiled\')\n    else:\n        session.flash = DIV(T(\'Cannot compile: there are errors in your app:\'),\n                              CODE(c))\n    redirect(URL(\'site\'))\n\n\ndef remove_compiled_app():\n    """ Remove the compiled application """\n    app = get_app()\n    remove_compiled_application(apath(app, r=request))\n    session.flash = T(\'compiled application removed\')\n    redirect(URL(\'site\'))\n\ndef delete():\n    """ Object delete handler """\n    app = get_app()\n    filename = \'/\'.join(request.args)\n    sender = request.vars.sender\n\n    if isinstance(sender, list):  # ## fix a problem with Vista\n        sender = sender[0]\n\n    if \'nodelete\' in request.vars:\n        redirect(URL(sender, anchor=request.vars.id))\n    elif \'delete\' in request.vars:\n        try:\n            full_path = apath(filename, r=request)\n            lineno = count_lines(open(full_path,\'r\').read())\n            os.unlink(full_path)\n            log_progress(app,\'DELETE\',filename,progress=-lineno)\n            session.flash = T(\'file "%(filename)s" deleted\',\n                              dict(filename=filename))\n        except Exception:\n            session.flash = T(\'unable to delete file "%(filename)s"\',\n                              dict(filename=filename))\n        redirect(URL(sender, anchor=request.vars.id2))\n    return dict(filename=filename, sender=sender)\n\ndef delete():\n    """ Object delete handler """\n    app = get_app()\n    filename = \'/\'.join(request.args)\n    sender = request.vars.sender\n\n    if isinstance(sender, list):  # ## fix a problem with Vista\n        sender = sender[0]\n\n    dialog = FORM.confirm(T(\'Delete\'),\n                         {T(\'Cancel\'):URL(sender, anchor=request.vars.id)})\n\n    if dialog.accepted:\n        try:\n            full_path = apath(filename, r=request)\n            lineno = count_lines(open(full_path,\'r\').read())\n            os.unlink(full_path)\n            log_progress(app,\'DELETE\',filename,progress=-lineno)\n            session.flash = T(\'file "%(filename)s" deleted\',\n                              dict(filename=filename))\n        except Exception:\n            session.flash = T(\'unable to delete file "%(filename)s"\',\n                              dict(filename=filename))\n        redirect(URL(sender, anchor=request.vars.id2))\n    return dict(dialog=dialog,filename=filename)\n\ndef enable():\n    app = get_app()\n    filename = os.path.join(apath(app, r=request),\'DISABLED\')\n    if is_gae:\n        return SPAN(T(\'Not supported\'),_style=\'color:yellow\')\n    elif os.path.exists(filename):\n        os.unlink(filename)\n        return SPAN(T(\'Disable\'),_style=\'color:green\')\n    else:\n        safe_open(filename,\'wb\').write(time.ctime())\n        return SPAN(T(\'Enable\'),_style=\'color:red\')\n\ndef peek():\n    """ Visualize object code """\n    app = get_app(request.vars.app)\n    filename = \'/\'.join(request.args)\n    if request.vars.app:\n        path = abspath(filename)\n    else:\n        path = apath(filename, r=request)\n    try:\n        data = safe_read(path).replace(\'\\r\',\'\')\n    except IOError:\n        session.flash = T(\'file does not exist\')\n        redirect(URL(\'site\'))\n\n    extension = filename[filename.rfind(\'.\') + 1:].lower()\n\n    return dict(app=app,\n                filename=filename,\n                data=data,\n                extension=extension)\n\ndef test():\n    """ Execute controller tests """\n    app = get_app()\n    if len(request.args) > 1:\n        file = request.args[1]\n    else:\n        file = \'.*\\.py\'\n\n    controllers = listdir(apath(\'%s/controllers/\' % app, r=request), file + \'$\')\n\n    return dict(app=app, controllers=controllers)\n\ndef keepalive():\n    return \'\'\n\ndef search():\n    keywords=request.vars.keywords or \'\'\n    app = get_app()\n    def match(filename,keywords):\n        filename=os.path.join(apath(app, r=request),filename)\n        if keywords in read_file(filename,\'rb\'):\n            return True\n        return False\n    path = apath(request.args[0], r=request)\n    files1 = glob(os.path.join(path,\'*/*.py\'))\n    files2 = glob(os.path.join(path,\'*/*.html\'))\n    files3 = glob(os.path.join(path,\'*/*/*.html\'))\n    files=[x[len(path)+1:].replace(\'\\\\\',\'/\') for x in files1+files2+files3 if match(x,keywords)]\n    return response.json(dict(files=files, message=T.M(\'Searching: **%s** %%{file}\', len(files))))\n\ndef edit():\n    """ File edit handler """\n    # Load json only if it is ajax edited...\n    app = get_app(request.vars.app)\n    filename = \'/\'.join(request.args)\n    if request.vars.app:\n        path = abspath(filename)\n    else:\n        path = apath(filename, r=request)\n     # Try to discover the file type\n    if filename[-3:] == \'.py\':\n        filetype = \'python\'\n    elif filename[-5:] == \'.html\':\n        filetype = \'html\'\n    elif filename[-5:] == \'.load\':\n        filetype = \'html\'\n    elif filename[-4:] == \'.css\':\n        filetype = \'css\'\n    elif filename[-3:] == \'.js\':\n        filetype = \'js\'\n    else:\n        filetype = \'html\'\n\n    # ## check if file is not there\n    if (\'revert\' in request.vars) and os.path.exists(path + \'.bak\'):\n        try:\n            data = safe_read(path + \'.bak\')\n            data1 = safe_read(path)\n        except IOError:\n            session.flash = T(\'Invalid action\')\n            if \'from_ajax\' in request.vars:\n                 return response.json({\'error\': str(T(\'Invalid action\'))})\n            else:\n                redirect(URL(\'site\'))\n\n        safe_write(path, data)\n        file_hash = md5_hash(data)\n        saved_on = time.ctime(os.stat(path)[stat.ST_MTIME])\n        safe_write(path + \'.bak\', data1)\n        response.flash = T(\'file "%s" of %s restored\', (filename, saved_on))\n    else:\n        try:\n            data = safe_read(path)\n        except IOError:\n            session.flash = T(\'Invalid action\')\n            if \'from_ajax\' in request.vars:\n                return response.json({\'error\': str(T(\'Invalid action\'))})\n            else:\n                redirect(URL(\'site\'))\n\n        lineno_old = count_lines(data)\n        file_hash = md5_hash(data)\n        saved_on = time.ctime(os.stat(path)[stat.ST_MTIME])\n\n        if request.vars.file_hash and request.vars.file_hash != file_hash:\n            session.flash = T(\'file changed on disk\')\n            data = request.vars.data.replace(\'\\r\\n\', \'\\n\').strip() + \'\\n\'\n            safe_write(path + \'.1\', data)\n            if \'from_ajax\' in request.vars:\n                return response.json({\'error\': str(T(\'file changed on disk\')),\n                                      \'redirect\': URL(\'resolve\',\n                                                      args=request.args)})\n            else:\n                redirect(URL(\'resolve\', args=request.args))\n        elif request.vars.data:\n            safe_write(path + \'.bak\', data)\n            data = request.vars.data.replace(\'\\r\\n\', \'\\n\').strip() + \'\\n\'\n            safe_write(path, data)\n            lineno_new = count_lines(data)\n            log_progress(app,\'EDIT\',filename,progress=lineno_new-lineno_old)\n            file_hash = md5_hash(data)\n            saved_on = time.ctime(os.stat(path)[stat.ST_MTIME])\n            response.flash = T(\'file saved on %s\', saved_on)\n\n    data_or_revert = (request.vars.data or request.vars.revert)\n\n    # Check compile errors\n    highlight = None\n    if filetype == \'python\' and request.vars.data:\n        import _ast\n        try:\n            code = request.vars.data.rstrip().replace(\'\\r\\n\',\'\\n\')+\'\\n\'\n            compile(code, path, "exec", _ast.PyCF_ONLY_AST)\n        except Exception, e:\n            start = sum([len(line)+1 for l, line\n                            in enumerate(request.vars.data.split("\\n"))\n                            if l < e.lineno-1])\n            if e.text and e.offset:\n                offset = e.offset - (len(e.text) - len(e.text.splitlines()[-1]))\n            else:\n                offset = 0\n            highlight = {\'start\': start, \'end\': start + offset + 1, \'lineno\': e.lineno}\n            try:\n                ex_name = e.__class__.__name__\n            except:\n                ex_name = \'unknown exception!\'\n            response.flash = DIV(T(\'failed to compile file because:\'), BR(),\n                                 B(ex_name), \' \'+T(\'at line %s\', e.lineno),\n                                 offset and \' \'+T(\'at char %s\', offset) or \'\',\n                                 PRE(str(e)))\n\n    if data_or_revert and request.args[1] == \'modules\':\n        # Lets try to reload the modules\n        try:\n            mopath = \'.\'.join(request.args[2:])[:-3]\n            exec \'import applications.%s.modules.%s\' % (request.args[0], mopath)\n            reload(sys.modules[\'applications.%s.modules.%s\'\n                    % (request.args[0], mopath)])\n        except Exception, e:\n            response.flash = DIV(T(\'failed to reload module because:\'),PRE(str(e)))\n\n    edit_controller = None\n    editviewlinks = None\n    view_link = None\n    if filetype == \'html\' and len(request.args) >= 3:\n        cfilename = os.path.join(request.args[0], \'controllers\',\n                                 request.args[2] + \'.py\')\n        if os.path.exists(apath(cfilename, r=request)):\n            edit_controller = URL(\'edit\', args=[cfilename])\n            view = request.args[3].replace(\'.html\',\'\')\n            view_link = URL(request.args[0],request.args[2],view)\n    elif filetype == \'python\' and request.args[1] == \'controllers\':\n        ## it\'s a controller file.\n        ## Create links to all of the associated view files.\n        app = get_app()\n        viewname = os.path.splitext(request.args[2])[0]\n        viewpath = os.path.join(app,\'views\',viewname)\n        aviewpath = apath(viewpath, r=request)\n        viewlist = []\n        if os.path.exists(aviewpath):\n            if os.path.isdir(aviewpath):\n                viewlist = glob(os.path.join(aviewpath,\'*.html\'))\n        elif os.path.exists(aviewpath+\'.html\'):\n            viewlist.append(aviewpath+\'.html\')\n        if len(viewlist):\n            editviewlinks = []\n            for v in viewlist:\n                vf = os.path.split(v)[-1]\n                vargs = "/".join([viewpath.replace(os.sep,"/"),vf])\n                editviewlinks.append(A(vf.split(".")[0],\\\n                    _href=URL(\'edit\',args=[vargs])))\n\n    if len(request.args) > 2 and request.args[1] == \'controllers\':\n        controller = (request.args[2])[:-3]\n        functions = regex_expose.findall(data)\n    else:\n        (controller, functions) = (None, None)\n\n    if \'from_ajax\' in request.vars:\n        return response.json({\'file_hash\': file_hash, \'saved_on\': saved_on, \'functions\':functions, \'controller\': controller, \'application\': request.args[0], \'highlight\': highlight })\n    else:\n\n        editarea_preferences = {}\n        editarea_preferences[\'FONT_SIZE\'] = \'10\'\n        editarea_preferences[\'FULL_SCREEN\'] = \'false\'\n        editarea_preferences[\'ALLOW_TOGGLE\'] = \'true\'\n        editarea_preferences[\'REPLACE_TAB_BY_SPACES\'] = \'4\'\n        editarea_preferences[\'DISPLAY\'] = \'onload\'\n        for key in editarea_preferences:\n            if globals().has_key(key):\n                editarea_preferences[key]=globals()[key]\n        return dict(app=request.args[0],\n                    filename=filename,\n                    filetype=filetype,\n                    data=data,\n                    edit_controller=edit_controller,\n                    file_hash=file_hash,\n                    saved_on=saved_on,\n                    controller=controller,\n                    functions=functions,\n                    view_link=view_link,\n                    editarea_preferences=editarea_preferences,\n                    editviewlinks=editviewlinks)\n\ndef resolve():\n    """\n    """\n\n    filename = \'/\'.join(request.args)\n    # ## check if file is not there\n    path = apath(filename, r=request)\n    a = safe_read(path).split(\'\\n\')\n    try:\n        b = safe_read(path + \'.1\').split(\'\\n\')\n    except IOError:\n        session.flash = \'Other file, no longer there\'\n        redirect(URL(\'edit\', args=request.args))\n\n    d = difflib.ndiff(a, b)\n\n    def leading(line):\n        """  """\n\n        # TODO: we really need to comment this\n        z = \'\'\n        for (k, c) in enumerate(line):\n            if c == \' \':\n                z += \'&nbsp;\'\n            elif c == \' \\t\':\n                z += \'&nbsp;\'\n            elif k == 0 and c == \'?\':\n                pass\n            else:\n                break\n\n        return XML(z)\n\n    def getclass(item):\n        """ Determine item class """\n\n        if item[0] == \' \':\n            return \'normal\'\n        if item[0] == \'+\':\n            return \'plus\'\n        if item[0] == \'-\':\n            return \'minus\'\n\n    if request.vars:\n        c = \'\\n\'.join([item[2:].rstrip() for (i, item) in enumerate(d) if item[0] \\\n                           == \' \' or \'line%i\' % i in request.vars])\n        safe_write(path, c)\n        session.flash = \'files merged\'\n        redirect(URL(\'edit\', args=request.args))\n    else:\n        # Making the short circuit compatible with <= python2.4\n        gen_data = lambda index,item: not item[:1] in [\'+\',\'-\'] and "" \\\n                   or INPUT(_type=\'checkbox\',\n                            _name=\'line%i\' % index,\n                            value=item[0] == \'+\')\n\n        diff = TABLE(*[TR(TD(gen_data(i,item)),\n                          TD(item[0]),\n                          TD(leading(item[2:]),\n                          TT(item[2:].rstrip())), _class=getclass(item))\n                       for (i, item) in enumerate(d) if item[0] != \'?\'])\n\n    return dict(diff=diff, filename=filename)\n\n\ndef edit_language():\n    """ Edit language file """\n    app = get_app()\n    filename = \'/\'.join(request.args)\n    strings = read_dict(apath(filename, r=request))\n\n    if \'__corrupted__\' in strings:\n       form = SPAN(strings[\'__corrupted__\'],_class=\'error\')\n       return dict(filename=filename, form=form)\n\n    keys = sorted(strings.keys(),lambda x,y: cmp(unicode(x,\'utf-8\').lower(), unicode(y,\'utf-8\').lower()))\n    rows = []\n    rows.append(H2(T(\'Original/Translation\')))\n\n    for key in keys:\n        name = md5_hash(key)\n        s = strings[key]\n        (prefix, sep, key) = key.partition(\'\\x01\')\n        if sep:\n            prefix = SPAN(prefix+\': \', _class=\'tm_ftag\')\n            k = key\n        else:\n            (k, prefix) = (prefix, \'\')\n\n        _class=\'untranslated\' if k==s else \'translated\'\n\n        if len(key) <= 40:\n            elem = INPUT(_type=\'text\', _name=name, value=s,\n                         _size=70,_class=_class)\n        else:\n            elem = TEXTAREA(_name=name, value=s, _cols=70,\n                            _rows=5, _class=_class)\n\n        # Making the short circuit compatible with <= python2.4\n        k = (s != k) and k or B(k)\n\n        rows.append(P(prefix, k, BR(), elem, TAG.BUTTON(T(\'delete\'),\n                            _onclick=\'return delkey("%s")\' % name), _id=name))\n\n    rows.append(INPUT(_type=\'submit\', _value=T(\'update\')))\n    form = FORM(*rows)\n    if form.accepts(request.vars, keepvalues=True):\n        strs = dict()\n        for key in keys:\n            name = md5_hash(key)\n            if form.vars[name]==chr(127): continue\n            strs[key] = form.vars[name]\n        write_dict(apath(filename, r=request), strs)\n        session.flash = T(\'file saved on %(time)s\', dict(time=time.ctime()))\n        redirect(URL(r=request,args=request.args))\n    return dict(app=request.args[0], filename=filename, form=form)\n\ndef edit_plurals():\n    """ Edit plurals file """\n    #import ipdb; ipdb.set_trace()\n    app = get_app()\n    filename = \'/\'.join(request.args)\n    plurals = read_plural_dict(apath(filename, r=request)) # plural forms dictionary\n    nplurals = int(request.vars.nplurals)-1 # plural forms quantity\n    xnplurals = xrange(nplurals)\n\n    if \'__corrupted__\' in plurals:\n       # show error message and exit\n       form = SPAN(plurals[\'__corrupted__\'],_class=\'error\')\n       return dict(filename=filename, form=form)\n\n    keys = sorted(plurals.keys(),lambda x,y: cmp(unicode(x,\'utf-8\').lower(), unicode(y,\'utf-8\').lower()))\n    rows = []\n\n    row=[T("Singular Form")]\n    row.extend([T("Plural Form #%s", n+1) for n in xnplurals])\n    table=TABLE(THEAD(TR(row)))\n\n    for key in keys:\n        name = md5_hash(key)\n        forms = plurals[key]\n\n        if len(forms) < nplurals:\n            forms.extend(None for i in xrange(nplurals-len(forms)))\n\n        row = [B(key)]\n        row.extend([INPUT(_type=\'text\', _name=name+\'_\'+str(n), value=forms[n], _size=20) for n in xnplurals])\n        row.append(TD(TAG.BUTTON(T(\'delete\'), _onclick=\'return delkey("%s")\' % name)))\n        rows.append(TR(row, _id=name))\n    if rows:\n        table.append(TBODY(rows))\n    rows=[table, INPUT(_type=\'submit\', _value=T(\'update\'))]\n    form = FORM(*rows)\n    if form.accepts(request.vars, keepvalues=True):\n        new_plurals = dict()\n        for key in keys:\n            name = md5_hash(key)\n            if form.vars[name+\'_0\']==chr(127): continue\n            new_plurals[key] = [form.vars[name+\'_\'+str(n)] for n in xnplurals]\n        write_plural_dict(apath(filename, r=request), new_plurals)\n        session.flash = T(\'file saved on %(time)s\', dict(time=time.ctime()))\n        redirect(URL(r=request, args=request.args, vars=dict(nplurals=request.vars.nplurals)))\n    return dict(app=request.args[0], filename=filename, form=form)\n\n\ndef about():\n    """ Read about info """\n    app = get_app()\n    # ## check if file is not there\n    about = safe_read(apath(\'%s/ABOUT\' % app, r=request))\n    license = safe_read(apath(\'%s/LICENSE\' % app, r=request))\n    return dict(app=app, about=MARKMIN(about), license=MARKMIN(license),progress=report_progress(app))\n\n\ndef design():\n    """ Application design handler """\n    app = get_app()\n\n    if not response.flash and app == request.application:\n        msg = T(\'ATTENTION: you cannot edit the running application!\')\n        response.flash = msg\n\n    if request.vars and not request.vars.token==session.token:\n        redirect(URL(\'logout\'))\n\n    if request.vars.pluginfile!=None and not isinstance(request.vars.pluginfile,str):\n        filename=os.path.basename(request.vars.pluginfile.filename)\n        if plugin_install(app, request.vars.pluginfile.file,\n                          request, filename):\n            session.flash = T(\'new plugin installed\')\n            redirect(URL(\'design\',args=app))\n        else:\n            session.flash = \\\n                T(\'unable to create application "%s"\', request.vars.filename)\n        redirect(URL(r=request))\n    elif isinstance(request.vars.pluginfile,str):\n        session.flash = T(\'plugin not specified\')\n        redirect(URL(r=request))\n\n\n    # If we have only pyc files it means that\n    # we cannot design\n    if os.path.exists(apath(\'%s/compiled\' % app, r=request)):\n        session.flash = \\\n            T(\'application is compiled and cannot be designed\')\n        redirect(URL(\'site\'))\n\n    # Get all models\n    models = listdir(apath(\'%s/models/\' % app, r=request), \'.*\\.py$\')\n    models=[x.replace(\'\\\\\',\'/\') for x in models]\n    defines = {}\n    for m in models:\n        data = safe_read(apath(\'%s/models/%s\' % (app, m), r=request))\n        defines[m] = regex_tables.findall(data)\n        defines[m].sort()\n\n    # Get all controllers\n    controllers = sorted(listdir(apath(\'%s/controllers/\' % app, r=request), \'.*\\.py$\'))\n    controllers = [x.replace(\'\\\\\',\'/\') for x in controllers]\n    functions = {}\n    for c in controllers:\n        data = safe_read(apath(\'%s/controllers/%s\' % (app, c), r=request))\n        items = regex_expose.findall(data)\n        functions[c] = items\n\n    # Get all views\n    views = sorted(listdir(apath(\'%s/views/\' % app, r=request), \'[\\w/\\-]+(\\.\\w+)+$\'))\n    views = [x.replace(\'\\\\\',\'/\') for x in views if not x.endswith(\'.bak\')]\n    extend = {}\n    include = {}\n    for c in views:\n        data = safe_read(apath(\'%s/views/%s\' % (app, c), r=request))\n        items = regex_extend.findall(data)\n\n        if items:\n            extend[c] = items[0][1]\n\n        items = regex_include.findall(data)\n        include[c] = [i[1] for i in items]\n\n    # Get all modules\n    modules = listdir(apath(\'%s/modules/\' % app, r=request), \'.*\\.py$\')\n    modules = modules=[x.replace(\'\\\\\',\'/\') for x in modules]\n    modules.sort()\n\n    # Get all private files\n    privates = listdir(apath(\'%s/private/\' % app, r=request), \'[^\\.#].*\')\n    privates = [x.replace(\'\\\\\',\'/\') for x in privates]\n    privates.sort()\n\n    # Get all static files\n    statics = listdir(apath(\'%s/static/\' % app, r=request), \'[^\\.#].*\')\n    statics = [x.replace(\'\\\\\',\'/\') for x in statics]\n    statics.sort()\n\n    # Get all languages\n    all_languages=dict([(lang+\'.py\',info[0]) for lang,info\n                        in read_possible_languages(apath(app, r=request)).iteritems()\n                        if info[2]!=0]) # info[2] is langfile_mtime:\n                                        # get only existed files\n    languages = sorted(all_languages)\n\n    plural_rules = {}\n    all_plurals = PLURAL_RULES\n    for langfile,lang in all_languages.iteritems():\n        lang=lang.strip()\n        match_language = regex_language.match(lang)\n        if match_language:\n            match_language = tuple(part\n                                   for part in match_language.groups()\n                                   if part)\n            plang = lang_sampling(match_language, all_plurals.keys())\n            if plang:\n               plural=all_plurals[plang]\n               plural_rules[langfile]=(plural[0],plang,plural[4],plural[3])\n            else:\n               plural_rules[langfile]=(0,lang,\'plural_rules-%s.py\'%lang,\'\')\n\n    plurals = listdir(apath(\'%s/languages/\' % app, r=request),\n                      \'^plural-[\\w-]+\\.py$\')\n\n    #Get crontab\n    cronfolder = apath(\'%s/cron\' % app, r=request)\n    if not os.path.exists(cronfolder): os.mkdir(cronfolder)\n    crontab = apath(\'%s/cron/crontab\' % app, r=request)\n    if not os.path.exists(crontab):\n        safe_write(crontab, \'#crontab\')\n\n    plugins=[]\n    def filter_plugins(items,plugins):\n        plugins+=[item[7:].split(\'/\')[0].split(\'.\')[0] for item in items if item.startswith(\'plugin_\')]\n        plugins[:]=list(set(plugins))\n        plugins.sort()\n        return [item for item in items if not item.startswith(\'plugin_\')]\n\n    return dict(app=app,\n                models=filter_plugins(models,plugins),\n                defines=defines,\n                controllers=filter_plugins(controllers,plugins),\n                functions=functions,\n                views=filter_plugins(views,plugins),\n                modules=filter_plugins(modules,plugins),\n                extend=extend,\n                include=include,\n                privates=filter_plugins(privates,plugins),\n                statics=filter_plugins(statics,plugins),\n                languages=languages,\n                plurals=plurals,\n                plural_rules=plural_rules,\n                crontab=crontab,\n                plugins=plugins)\n\ndef delete_plugin():\n    """ Object delete handler """\n    app=request.args(0)\n    plugin = request.args(1)\n    plugin_name=\'plugin_\'+plugin\n\n    dialog = FORM.confirm(\n        T(\'Delete\'),\n        {T(\'Cancel\'):URL(\'design\', args=app)})\n\n    if dialog.accepted:\n        try:\n            for folder in [\'models\',\'views\',\'controllers\',\'static\',\'modules\', \'private\']:\n                path=os.path.join(apath(app,r=request),folder)\n                for item in os.listdir(path):\n                    if item.rsplit(\'.\',1)[0] == plugin_name:\n                        filename=os.path.join(path,item)\n                        if os.path.isdir(filename):\n                            shutil.rmtree(filename)\n                        else:\n                            os.unlink(filename)\n            session.flash = T(\'plugin "%(plugin)s" deleted\',\n                              dict(plugin=plugin))\n        except Exception:\n            session.flash = T(\'unable to delete file plugin "%(plugin)s"\',\n                              dict(plugin=plugin))\n        redirect(URL(\'design\', args=request.args(0), anchor=request.vars.id2))\n    return dict(dialog=dialog,plugin=plugin)\n\ndef plugin():\n    """ Application design handler """\n    app = get_app()\n    plugin = request.args(1)\n\n    if not response.flash and app == request.application:\n        msg = T(\'ATTENTION: you cannot edit the running application!\')\n        response.flash = msg\n\n    # If we have only pyc files it means that\n    # we cannot design\n    if os.path.exists(apath(\'%s/compiled\' % app, r=request)):\n        session.flash = \\\n            T(\'application is compiled and cannot be designed\')\n        redirect(URL(\'site\'))\n\n    # Get all models\n    models = listdir(apath(\'%s/models/\' % app, r=request), \'.*\\.py$\')\n    models=[x.replace(\'\\\\\',\'/\') for x in models]\n    defines = {}\n    for m in models:\n        data = safe_read(apath(\'%s/models/%s\' % (app, m), r=request))\n        defines[m] = regex_tables.findall(data)\n        defines[m].sort()\n\n    # Get all controllers\n    controllers = sorted(listdir(apath(\'%s/controllers/\' % app, r=request), \'.*\\.py$\'))\n    controllers = [x.replace(\'\\\\\',\'/\') for x in controllers]\n    functions = {}\n    for c in controllers:\n        data = safe_read(apath(\'%s/controllers/%s\' % (app, c), r=request))\n        items = regex_expose.findall(data)\n        functions[c] = items\n\n    # Get all views\n    views = sorted(listdir(apath(\'%s/views/\' % app, r=request), \'[\\w/\\-]+\\.\\w+$\'))\n    views = [x.replace(\'\\\\\',\'/\') for x in views]\n    extend = {}\n    include = {}\n    for c in views:\n        data = safe_read(apath(\'%s/views/%s\' % (app, c), r=request))\n        items = regex_extend.findall(data)\n        if items:\n            extend[c] = items[0][1]\n\n        items = regex_include.findall(data)\n        include[c] = [i[1] for i in items]\n\n    # Get all modules\n    modules = listdir(apath(\'%s/modules/\' % app, r=request), \'.*\\.py$\')\n    modules = modules=[x.replace(\'\\\\\',\'/\') for x in modules]\n    modules.sort()\n\n    # Get all private files\n    privates = listdir(apath(\'%s/private/\' % app, r=request), \'[^\\.#].*\')\n    privates = [x.replace(\'\\\\\',\'/\') for x in privates]\n    privates.sort()\n\n    # Get all static files\n    statics = listdir(apath(\'%s/static/\' % app, r=request), \'[^\\.#].*\')\n    statics = [x.replace(\'\\\\\',\'/\') for x in statics]\n    statics.sort()\n\n    # Get all languages\n    languages = sorted([lang+\'.py\' for lang, info in\n                    T.get_possible_languages_info().iteritems()\n                    if info[2]!=0]) # info[2] is langfile_mtime:\n                                    # get only existed files\n\n    #Get crontab\n    crontab = apath(\'%s/cron/crontab\' % app, r=request)\n    if not os.path.exists(crontab):\n        safe_write(crontab, \'#crontab\')\n\n    def filter_plugins(items):\n        regex=re.compile(\'^plugin_\'+plugin+\'(/.*|\\..*)?$\')\n        return [item for item in items if item and regex.match(item)]\n\n    return dict(app=app,\n                models=filter_plugins(models),\n                defines=defines,\n                controllers=filter_plugins(controllers),\n                functions=functions,\n                views=filter_plugins(views),\n                modules=filter_plugins(modules),\n                extend=extend,\n                include=include,\n                privates=filter_plugins(privates),\n                statics=filter_plugins(statics),\n                languages=languages,\n                crontab=crontab)\n\n\ndef create_file():\n    """ Create files handler """\n    if request.vars and not request.vars.token==session.token:\n        redirect(URL(\'logout\'))\n    try:\n        anchor=\'#\'+request.vars.id if request.vars.id else \'\'\n        if request.vars.app:\n            app = get_app(request.vars.app)\n            path = abspath(request.vars.location)\n        else:\n            app = get_app(name=request.vars.location.split(\'/\')[0])\n            path = apath(request.vars.location, r=request)\n        filename = re.sub(\'[^\\w./-]+\', \'_\', request.vars.filename)\n        if path[-7:] == \'/rules/\':\n            # Handle plural rules files\n            if len(filename) == 0:\n                raise SyntaxError\n            if not filename[-3:] == \'.py\':\n                filename += \'.py\'\n            lang = re.match(\'^plural_rules-(.*)\\.py$\',filename).group(1)\n            langinfo = read_possible_languages(apath(app, r=request))[lang]\n            text = dedent("""\n                   #!/usr/bin/env python\n                   # -*- coding: utf8 -*-\n                   # Plural-Forms for %(lang)s (%(langname)s)\n\n                   nplurals=2  # for example, English language has 2 forms:\n                               # 1 singular and 1 plural\n\n                   # Determine plural_id for number *n* as sequence of positive\n                   # integers: 0,1,...\n                   # NOTE! For singular form ALWAYS return plural_id = 0\n                   get_plural_id = lambda n: int(n != 1)\n\n                   # Construct and return plural form of *word* using\n                   # *plural_id* (which ALWAYS>0). This function will be executed\n                   # for words (or phrases) not found in plural_dict dictionary.\n                   # By default this function simply returns word in singular:\n                   construct_plural_form = lambda word, plural_id: word\n                   """)[1:] % dict(lang=langinfo[0], langname=langinfo[1])\n\n        elif path[-11:] == \'/languages/\':\n            # Handle language files\n            if len(filename) == 0:\n                raise SyntaxError\n            if not filename[-3:] == \'.py\':\n                filename += \'.py\'\n            path=os.path.join(apath(app, r=request),\'languages\',filename)\n            if not os.path.exists(path):\n                safe_write(path, \'\')\n            # create language xx[-yy].py file:\n            findT(apath(app, r=request), filename[:-3])\n            session.flash = T(\'language file "%(filename)s" created/updated\',\n                               dict(filename=filename))\n            redirect(request.vars.sender+anchor)\n\n        elif path[-8:] == \'/models/\':\n            # Handle python models\n            if not filename[-3:] == \'.py\':\n                filename += \'.py\'\n\n            if len(filename) == 3:\n                raise SyntaxError\n\n            text = \'# coding: utf8\\n\'\n\n        elif path[-13:] == \'/controllers/\':\n            # Handle python controllers\n            if not filename[-3:] == \'.py\':\n                filename += \'.py\'\n\n            if len(filename) == 3:\n                raise SyntaxError\n\n            text = \'# coding: utf8\\n# %s\\ndef index(): return dict(message="hello from %s")\'\n            text = text % (T(\'try something like\'), filename)\n\n        elif path[-7:] == \'/views/\':\n            if request.vars.plugin and not filename.startswith(\'plugin_%s/\' % request.vars.plugin):\n                filename = \'plugin_%s/%s\' % (request.vars.plugin, filename)\n            # Handle template (html) views\n            if filename.find(\'.\')<0:\n                filename += \'.html\'\n            extension = filename.split(\'.\')[-1].lower()\n\n            if len(filename) == 5:\n                raise SyntaxError\n\n            msg = T(\'This is the %(filename)s template\', dict(filename=filename))\n            if extension == \'html\':\n                text = dedent("""\n                   {{extend \'layout.html\'}}\n                   <h1>%s</h1>\n                   {{=BEAUTIFY(response._vars)}}""" % msg)[1:]\n            else:\n                generic = os.path.join(path,\'generic.\'+extension)\n                if os.path.exists(generic):\n                    text = read_file(generic)\n                else:\n                    text = \'\'\n\n        elif path[-9:] == \'/modules/\':\n            if request.vars.plugin and not filename.startswith(\'plugin_%s/\' % request.vars.plugin):\n                filename = \'plugin_%s/%s\' % (request.vars.plugin, filename)\n            # Handle python module files\n            if not filename[-3:] == \'.py\':\n                filename += \'.py\'\n\n            if len(filename) == 3:\n                raise SyntaxError\n\n            text = dedent("""\n                   #!/usr/bin/env python\n                   # coding: utf8\n                   from gluon import *\\n""")[1:]\n\n        elif (path[-8:] == \'/static/\') or (path[-9:] == \'/private/\'):\n            if request.vars.plugin and not filename.startswith(\'plugin_%s/\' % request.vars.plugin):\n                filename = \'plugin_%s/%s\' % (request.vars.plugin, filename)\n            text = \'\'\n            \n        else:\n            redirect(request.vars.sender+anchor)\n\n        full_filename = os.path.join(path, filename)\n        dirpath = os.path.dirname(full_filename)\n\n        if not os.path.exists(dirpath):\n            os.makedirs(dirpath)\n\n        if os.path.exists(full_filename):\n            raise SyntaxError\n\n        safe_write(full_filename, text)\n        log_progress(app,\'CREATE\',filename)\n        session.flash = T(\'file "%(filename)s" created\',\n                          dict(filename=full_filename[len(path):]))\n        vars={}\n        if request.vars.id: vars[\'id\']=request.vars.id\n        if request.vars.app: vars[\'app\']=request.vars.app\n        redirect(URL(\'edit\',\n                 args=[os.path.join(request.vars.location, filename)], vars=vars))\n    except Exception, e:\n        if not isinstance(e,HTTP):\n            session.flash = T(\'cannot create file\')\n\n    redirect(request.vars.sender+anchor)\n\n\ndef upload_file():\n    """ File uploading handler """\n    if request.vars and not request.vars.token==session.token:\n        redirect(URL(\'logout\'))\n    try:\n        filename = None\n        app = get_app(name=request.vars.location.split(\'/\')[0])\n        path = apath(request.vars.location, r=request)\n\n        if request.vars.filename:\n            filename = re.sub(\'[^\\w\\./]+\', \'_\', request.vars.filename)\n        else:\n            filename = os.path.split(request.vars.file.filename)[-1]\n\n        if path[-8:] == \'/models/\' and not filename[-3:] == \'.py\':\n            filename += \'.py\'\n\n        if path[-9:] == \'/modules/\' and not filename[-3:] == \'.py\':\n            filename += \'.py\'\n\n        if path[-13:] == \'/controllers/\' and not filename[-3:] == \'.py\':\n            filename += \'.py\'\n\n        if path[-7:] == \'/views/\' and not filename[-5:] == \'.html\':\n            filename += \'.html\'\n\n        if path[-11:] == \'/languages/\' and not filename[-3:] == \'.py\':\n            filename += \'.py\'\n\n        filename = os.path.join(path, filename)\n        dirpath = os.path.dirname(filename)\n\n        if not os.path.exists(dirpath):\n            os.makedirs(dirpath)\n\n        data = request.vars.file.file.read()\n        lineno = count_lines(data)\n        safe_write(filename, data, \'wb\')\n        log_progress(app,\'UPLOAD\',filename,lineno)\n        session.flash = T(\'file "%(filename)s" uploaded\',\n                          dict(filename=filename[len(path):]))\n    except Exception:\n        if filename:\n            d = dict(filename = filename[len(path):])\n        else:\n            d = dict(filename = \'unkown\')\n        session.flash = T(\'cannot upload file "%(filename)s"\', d)\n\n    redirect(request.vars.sender)\n\n\ndef errors():\n    """ Error handler """\n    import operator\n    import os\n    import pickle\n    import hashlib\n\n    app = get_app()\n\n    method = request.args(1) or \'new\'\n    db_ready = {}\n    db_ready[\'status\'] = get_ticket_storage(app)\n    db_ready[\'errmessage\'] = T("No ticket_storage.txt found under /private folder")\n    db_ready[\'errlink\'] = "http://web2py.com/books/default/chapter/29/13#Collecting-tickets"\n\n    if method == \'new\':\n        errors_path = apath(\'%s/errors\' % app, r=request)\n\n        delete_hashes = []\n        for item in request.vars:\n            if item[:7] == \'delete_\':\n                delete_hashes.append(item[7:])\n\n        hash2error = dict()\n\n        for fn in listdir(errors_path, \'^[a-fA-F0-9.\\-]+$\'):\n            fullpath = os.path.join(errors_path, fn)\n            if not os.path.isfile(fullpath): continue\n            try:\n                fullpath_file = open(fullpath, \'r\')\n                try:\n                    error = pickle.load(fullpath_file)\n                finally:\n                    fullpath_file.close()\n            except IOError:\n                continue\n            except EOFError:\n                continue\n\n            hash = hashlib.md5(error[\'traceback\']).hexdigest()\n\n            if hash in delete_hashes:\n                os.unlink(fullpath)\n            else:\n                try:\n                    hash2error[hash][\'count\'] += 1\n                except KeyError:\n                    error_lines = error[\'traceback\'].split("\\n")\n                    last_line = error_lines[-2]\n                    error_causer = os.path.split(error[\'layer\'])[1]\n                    hash2error[hash] = dict(count=1, pickel=error,\n                                            causer=error_causer,\n                                            last_line=last_line,\n                                            hash=hash,ticket=fn)\n\n        decorated = [(x[\'count\'], x) for x in hash2error.values()]\n        decorated.sort(key=operator.itemgetter(0), reverse=True)\n\n        return dict(errors = [x[1] for x in decorated], app=app, method=method, db_ready=db_ready)\n\n\n    elif method == \'dbnew\':\n        errors_path = apath(\'%s/errors\' % app, r=request)\n        tk_db, tk_table = get_ticket_storage(app)\n\n        delete_hashes = []\n        for item in request.vars:\n            if item[:7] == \'delete_\':\n                delete_hashes.append(item[7:])\n\n        hash2error = dict()\n\n        for fn in tk_db(tk_table.id>0).select():\n            try:\n                error = pickle.loads(fn.ticket_data)\n            except AttributeError:\n                tk_db(tk_table.id == fn.id).delete()\n                tk_db.commit()\n\n            hash = hashlib.md5(error[\'traceback\']).hexdigest()\n\n            if hash in delete_hashes:\n                tk_db(tk_table.id == fn.id).delete()\n                tk_db.commit()\n            else:\n                try:\n                    hash2error[\'hash\'][\'count\'] += 1\n                except KeyError:\n                    error_lines = error[\'traceback\'].split("\\n")\n                    last_line = error_lines[-2]\n                    error_causer = os.path.split(error[\'layer\'])[1]\n                    hash2error[hash] = dict(count=1, pickel=error,\n                                            causer=error_causer,\n                                            last_line=last_line,\n                                            hash=hash,ticket=fn.ticket_id)\n\n        decorated = [(x[\'count\'], x) for x in hash2error.values()]\n\n        decorated.sort(key=operator.itemgetter(0), reverse=True)\n\n        return dict(errors = [x[1] for x in decorated], app=app, method=method)\n\n    elif method == \'dbold\':\n        tk_db, tk_table = get_ticket_storage(app)\n        for item in request.vars:\n            if item[:7] == \'delete_\':\n                tk_db(tk_table.ticket_id == item[7:]).delete()\n                tk_db.commit()\n        tickets_ = tk_db(tk_table.id>0).select(tk_table.ticket_id, tk_table.created_datetime, orderby=~tk_table.created_datetime)\n        tickets = [row.ticket_id for row in tickets_]\n        times = dict([(row.ticket_id, row.created_datetime) for row in tickets_])\n\n        return dict(app=app, tickets=tickets, method=method, times=times)\n\n    else:\n        for item in request.vars:\n            if item[:7] == \'delete_\':\n                os.unlink(apath(\'%s/errors/%s\' % (app, item[7:]), r=request))\n        func = lambda p: os.stat(apath(\'%s/errors/%s\' % \\\n                                           (app, p), r=request)).st_mtime\n        tickets = sorted(listdir(apath(\'%s/errors/\' % app, r=request), \'^\\w.*\'),\n                         key=func,\n                         reverse=True)\n\n        return dict(app=app, tickets=tickets, method=method, db_ready=db_ready)\n\ndef get_ticket_storage(app):\n    private_folder = apath(\'%s/private\' % app, r=request)\n    ticket_file = os.path.join(private_folder, \'ticket_storage.txt\')\n    if os.path.exists(ticket_file):\n        db_string = open(ticket_file).read()\n        db_string = db_string.strip().replace(\'\\r\',\'\').replace(\'\\n\',\'\')\n    else:\n        return False\n    tickets_table = \'web2py_ticket\'\n    tablename = tickets_table + \'_\' + app\n    db_path = apath(\'%s/databases\' % app, r=request)\n    ticketsdb = DAL(db_string, folder=db_path, auto_import=True)\n    if not ticketsdb.get(tablename):\n        table = ticketsdb.define_table(\n                tablename,\n                Field(\'ticket_id\', length=100),\n                Field(\'ticket_data\', \'text\'),\n                Field(\'created_datetime\', \'datetime\'),\n                )\n    return ticketsdb , ticketsdb.get(tablename)\n\ndef make_link(path):\n    """ Create a link from a path """\n    tryFile = path.replace(\'\\\\\', \'/\')\n\n    if os.path.isabs(tryFile) and os.path.isfile(tryFile):\n        (folder, filename) = os.path.split(tryFile)\n        (base, ext) = os.path.splitext(filename)\n        app = get_app()\n\n        editable = {\'controllers\': \'.py\', \'models\': \'.py\', \'views\': \'.html\'}\n        for key in editable.keys():\n            check_extension = folder.endswith("%s/%s" % (app,key))\n            if ext.lower() == editable[key] and check_extension:\n                return A(\'"\' + tryFile + \'"\',\n                         _href=URL(r=request,\n                         f=\'edit/%s/%s/%s\' % (app, key, filename))).xml()\n    return \'\'\n\n\ndef make_links(traceback):\n    """ Make links using the given traceback """\n\n    lwords = traceback.split(\'"\')\n\n    # Making the short circuit compatible with <= python2.4\n    result = (len(lwords) != 0) and lwords[0] or \'\'\n\n    i = 1\n\n    while i < len(lwords):\n        link = make_link(lwords[i])\n\n        if link == \'\':\n            result += \'"\' + lwords[i]\n        else:\n            result += link\n\n            if i + 1 < len(lwords):\n                result += lwords[i + 1]\n                i = i + 1\n\n        i = i + 1\n\n    return result\n\n\nclass TRACEBACK(object):\n    """ Generate the traceback """\n\n    def __init__(self, text):\n        """ TRACEBACK constructor """\n\n        self.s = make_links(CODE(text).xml())\n\n    def xml(self):\n        """ Returns the xml """\n\n        return self.s\n\n\ndef ticket():\n    """ Ticket handler """\n\n    if len(request.args) != 2:\n        session.flash = T(\'invalid ticket\')\n        redirect(URL(\'site\'))\n\n    app = get_app()\n    myversion = request.env.web2py_version\n    ticket = request.args[1]\n    e = RestrictedError()\n    e.load(request, app, ticket)\n\n    return dict(app=app,\n                ticket=ticket,\n                output=e.output,\n                traceback=(e.traceback and TRACEBACK(e.traceback)),\n                snapshot=e.snapshot,\n                code=e.code,\n                layer=e.layer,\n                myversion=myversion)\n\ndef ticketdb():\n    """ Ticket handler """\n\n    if len(request.args) != 2:\n        session.flash = T(\'invalid ticket\')\n        redirect(URL(\'site\'))\n\n    app = get_app()\n    myversion = request.env.web2py_version\n    ticket = request.args[1]\n    e = RestrictedError()\n    request.tickets_db = get_ticket_storage(app)[0]\n    e.load(request, app, ticket)\n    response.view = \'default/ticket.html\'\n    return dict(app=app,\n                ticket=ticket,\n                output=e.output,\n                traceback=(e.traceback and TRACEBACK(e.traceback)),\n                snapshot=e.snapshot,\n                code=e.code,\n                layer=e.layer,\n                myversion=myversion)\n\ndef error():\n    """ Generate a ticket (for testing) """\n    raise RuntimeError(\'admin ticket generator at your service\')\n\ndef update_languages():\n    """ Update available languages """\n\n    app = get_app()\n    update_all_languages(apath(app, r=request))\n    session.flash = T(\'Language files (static strings) updated\')\n    redirect(URL(\'design\',args=app,anchor=\'languages\'))\n\n\ndef twitter():\n    session.forget()\n    session._unlock(response)\n    import gluon.tools\n    import gluon.contrib.simplejson as sj\n    try:\n        if TWITTER_HASH:\n            page = urllib.urlopen("http://search.twitter.com/search.json?q=%%40%s" % TWITTER_HASH).read()\n            data = sj.loads(page, encoding="utf-8")[\'results\']\n            d = dict()\n            for e in data:\n                d[e["id"]] = e\n            r = reversed(sorted(d))\n            return dict(tweets = [d[k] for k in r])\n        else:\n            return \'disabled\'\n    except Exception, e:\n        return DIV(T(\'Unable to download because:\'),BR(),str(e))\n\n\ndef user():\n    if MULTI_USER_MODE:\n        if not db(db.auth_user).count():\n            auth.settings.registration_requires_approval = False\n        return dict(form=auth())\n    else:\n        return dict(form=T("Disabled"))\n\ndef reload_routes():\n    """ Reload routes.py """\n    import gluon.rewrite\n    gluon.rewrite.load()\n    redirect(URL(\'site\'))\n\ndef manage_students():\n    if not (MULTI_USER_MODE and is_manager()):\n        session.flash = T(\'Not Authorized\')\n        redirect(URL(\'site\'))\n    db.auth_user.registration_key.writable = True\n    grid = SQLFORM.grid(db.auth_user)\n    return locals()\n\ndef bulk_register():\n    if not (MULTI_USER_MODE and is_manager()):\n        session.flash = T(\'Not Authorized\')\n        redirect(URL(\'site\'))\n    form = SQLFORM.factory(Field(\'emails\',\'text\'))\n    if form.process().accepted:\n        emails = [x.strip() for x in form.vars.emails.split(\'\\n\') if x.strip()]\n        n = 0\n        for email in emails:\n            if not db.auth_user(email=email):\n                n += db.auth_user.insert(email = email) and 1 or 0\n        session.flash = T(\'%s students registered\',n)\n        redirect(URL(\'site\'))\n    return locals()\n\n### Begin experimental stuff need fixes:\n# 1) should run in its own process - cannot os.chdir\n# 2) should not prompt user at console\n# 3) should give option to force commit and not reuqire manual merge\n\ndef git_pull():\n    """ Git Pull handler """\n    app = get_app()\n    if not have_git:\n        session.flash = GIT_MISSING\n        redirect(URL(\'site\'))\n    dialog = FORM.confirm(T(\'Pull\'),\n                         {T(\'Cancel\'):URL(\'site\')})    \n    if dialog.accepted:\n        try:\n            repo = Repo(os.path.join(apath(r=request),app))\n            origin = repo.remotes.origin\n            origin.fetch()\n            origin.pull()\n            session.flash = T("Application updated via git pull")\n            redirect(URL(\'site\'))\n        except CheckoutError, message:\n            logging.error(message)\n            session.flash = T("Pull failed, certain files could not be checked out. Check logs for details.")\n            redirect(URL(\'site\'))\n        except UnmergedEntriesError:\n            session.flash = T("Pull is not possible because you have unmerged files. Fix them up in the work tree, and then try again.")\n            redirect(URL(\'site\'))\n        except AssertionError:\n            session.flash = T("Pull is not possible because you have unmerged files. Fix them up in the work tree, and then try again.")\n            redirect(URL(\'site\'))\n        except GitCommandError, status:\n            logging.error(str(status))\n            session.flash = T("Pull failed, git exited abnormally. See logs for details.")\n            redirect(URL(\'site\'))\n        except Exception,e:\n            logging.error("Unexpected error:", sys.exc_info()[0])\n            session.flash = T("Pull failed, git exited abnormally. See logs for details.")\n            redirect(URL(\'site\'))\n    elif \'cancel\' in request.vars:\n        redirect(URL(\'site\'))\n    return dict(app=app,dialog=dialog)\n\n\ndef git_push():\n    """ Git Push handler """\n    app = get_app()\n    if not have_git:\n        session.flash = GIT_MISSING\n        redirect(URL(\'site\'))\n    form = SQLFORM.factory(Field(\'changelog\',requires=IS_NOT_EMPTY()))\n    form.element(\'input[type=submit]\')[\'_value\']=T(\'Push\')\n    form.add_button(T(\'Cancel\'),URL(\'site\'))\n    form.process()\n    if form.accepted:\n        try:\n            repo = Repo(os.path.join(apath(r=request),app))\n            index = repo.index\n            index.add([apath(r=request)+app+\'/*\'])\n            new_commit = index.commit(form.vars.changelog)\n            origin = repo.remotes.origin\n            origin.push()\n            session.flash = T("Git repo updated with latest application changes.")\n            redirect(URL(\'site\'))\n        except UnmergedEntriesError:\n            session.flash = T("Push failed, there are unmerged entries in the cache. Resolve merge issues manually and try again.")\n            redirect(URL(\'site\'))\n        except Exception, e:\n            logging.error("Unexpected error:", sys.exc_info()[0])\n            session.flash = T("Push failed, git exited abnormally. See logs for details.")\n            redirect(URL(\'site\'))\n    return dict(app=app,form=form)\n\n\nresponse._vars=response._caller(resolve)\n'
p7
sS'snapshot'
p8
(dp9
S'exception'
p10
(dp11
S'__getslice__'
p12
S"<method-wrapper '__getslice__' of exceptions.IOError object>"
p13
sS'__str__'
p14
S"<method-wrapper '__str__' of exceptions.IOError object>"
p15
sS'__reduce__'
p16
S'<built-in method __reduce__ of exceptions.IOError object>'
p17
sS'__dict__'
p18
S'{}'
p19
sS'__sizeof__'
p20
S'<built-in method __sizeof__ of exceptions.IOError object>'
p21
sS'__init__'
p22
S"<method-wrapper '__init__' of exceptions.IOError object>"
p23
sS'__setattr__'
p24
S"<method-wrapper '__setattr__' of exceptions.IOError object>"
p25
sS'__reduce_ex__'
p26
S'<built-in method __reduce_ex__ of exceptions.IOError object>'
p27
sS'__new__'
p28
S'<built-in method __new__ of type object>'
p29
sS'errno'
p30
S'21'
p31
sS'__format__'
p32
S'<built-in method __format__ of exceptions.IOError object>'
p33
sS'__class__'
p34
S"<type 'exceptions.IOError'>"
p35
sS'filename'
p36
S"'/home/mayank/IIIT/sem 3/SSAD&Project/web2py/applications/taship1/views/default/'"
p37
sS'__doc__'
p38
S"'I/O operation failed.'"
p39
sS'__getitem__'
p40
S"<method-wrapper '__getitem__' of exceptions.IOError object>"
p41
sS'__setstate__'
p42
S'<built-in method __setstate__ of exceptions.IOError object>'
p43
sS'__getattribute__'
p44
S"<method-wrapper '__getattribute__' of exceptions.IOError object>"
p45
sS'args'
p46
S"(21, 'Is a directory')"
p47
sS'__subclasshook__'
p48
S'<built-in method __subclasshook__ of type object>'
p49
sS'__unicode__'
p50
S'<built-in method __unicode__ of exceptions.IOError object>'
p51
sS'strerror'
p52
S"'Is a directory'"
p53
sS'__delattr__'
p54
S"<method-wrapper '__delattr__' of exceptions.IOError object>"
p55
sS'__repr__'
p56
S"<method-wrapper '__repr__' of exceptions.IOError object>"
p57
sS'__hash__'
p58
S"<method-wrapper '__hash__' of exceptions.IOError object>"
p59
ssS'evalue'
p60
S"[Errno 21] Is a directory: '/home/mayank/IIIT/sem 3/SSAD&Project/web2py/applications/taship1/views/default/'"
p61
sS'request'
p62
ccopy_reg
_reconstructor
p63
(cgluon.html
BEAUTIFY
p64
c__builtin__
object
p65
NtRp66
(dp67
S'attributes'
p68
(dp69
sS'components'
p70
(lp71
g63
(cgluon.html
TABLE
p72
g65
NtRp73
(dp74
g68
(dp75
S'level'
p76
I5
ssS'parent'
p77
Nsg70
(lp78
g63
(cgluon.html
TR
p79
g65
NtRp80
(dp81
g68
(dp82
sg77
g73
sg70
(lp83
g63
(cgluon.html
TD
p84
g65
NtRp85
(dp86
g68
(dp87
S'_style'
p88
S'font-weight:bold;vertical-align:top'
p89
ssg77
g80
sg70
(lp90
S'ajax'
p91
asbag63
(g84
g65
NtRp92
(dp93
g68
(dp94
S'_valign'
p95
S'top'
p96
ssg77
g80
sg70
(lp97
S':'
asbag63
(g84
g65
NtRp98
(dp99
g68
(dp100
sg77
g80
sg70
(lp101
g63
(g64
g65
NtRp102
(dp103
g68
(dp104
g76
I5
ssg77
g98
sg70
(lp105
S'False'
p106
asbasbasbag63
(g79
g65
NtRp107
(dp108
g68
(dp109
sg77
g73
sg70
(lp110
g63
(g84
g65
NtRp111
(dp112
g68
(dp113
g88
g89
ssg77
g107
sg70
(lp114
S'application'
p115
asbag63
(g84
g65
NtRp116
(dp117
g68
(dp118
g95
g96
ssg77
g107
sg70
(lp119
S':'
asbag63
(g84
g65
NtRp120
(dp121
g68
(dp122
sg77
g107
sg70
(lp123
g63
(g64
g65
NtRp124
(dp125
g68
(dp126
g76
I5
ssg77
g120
sg70
(lp127
S'admin'
p128
asbasbasbag63
(g79
g65
NtRp129
(dp130
g68
(dp131
sg77
g73
sg70
(lp132
g63
(g84
g65
NtRp133
(dp134
g68
(dp135
g88
g89
ssg77
g129
sg70
(lp136
g46
asbag63
(g84
g65
NtRp137
(dp138
g68
(dp139
g95
g96
ssg77
g129
sg70
(lp140
S':'
asbag63
(g84
g65
NtRp141
(dp142
g68
(dp143
sg77
g129
sg70
(lp144
g63
(g64
g65
NtRp145
(dp146
g68
(dp147
g76
I5
ssg77
g141
sg70
(lp148
g63
(g72
g65
NtRp149
(dp150
g68
(dp151
g76
I4
ssg77
Nsg70
(lp152
g63
(g79
g65
NtRp153
(dp154
g68
(dp155
sg77
g149
sg70
(lp156
g63
(g84
g65
NtRp157
(dp158
g68
(dp159
sg77
g153
sg70
(lp160
g63
(g64
g65
NtRp161
(dp162
g68
(dp163
g76
I4
ssg77
g157
sg70
(lp164
S'taship1'
p165
asbasbasbag63
(g79
g65
NtRp166
(dp167
g68
(dp168
sg77
g149
sg70
(lp169
g63
(g84
g65
NtRp170
(dp171
g68
(dp172
sg77
g166
sg70
(lp173
g63
(g64
g65
NtRp174
(dp175
g68
(dp176
g76
I4
ssg77
g170
sg70
(lp177
S'views'
p178
asbasbasbag63
(g79
g65
NtRp179
(dp180
g68
(dp181
sg77
g149
sg70
(lp182
g63
(g84
g65
NtRp183
(dp184
g68
(dp185
sg77
g179
sg70
(lp186
g63
(g64
g65
NtRp187
(dp188
g68
(dp189
g76
I4
ssg77
g183
sg70
(lp190
S'default'
p191
asbasbasbag63
(g79
g65
NtRp192
(dp193
g68
(dp194
sg77
g149
sg70
(lp195
g63
(g84
g65
NtRp196
(dp197
g68
(dp198
sg77
g192
sg70
(lp199
g63
(g64
g65
NtRp200
(dp201
g68
(dp202
g76
I4
ssg77
g196
sg70
(lp203
S''
asbasbasbasbasbasbasbag63
(g79
g65
NtRp204
(dp205
g68
(dp206
sg77
g73
sg70
(lp207
g63
(g84
g65
NtRp208
(dp209
g68
(dp210
g88
g89
ssg77
g204
sg70
(lp211
S'body'
p212
asbag63
(g84
g65
NtRp213
(dp214
g68
(dp215
g95
g96
ssg77
g204
sg70
(lp216
S':'
asbag63
(g84
g65
NtRp217
(dp218
g68
(dp219
sg77
g204
sg70
(lp220
g63
(g64
g65
NtRp221
(dp222
g68
(dp223
g76
I5
ssg77
g217
sg70
(lp224
S'<cStringIO.StringO object at 0x7f5c943280a0>'
p225
asbasbasbag63
(g79
g65
NtRp226
(dp227
g68
(dp228
sg77
g73
sg70
(lp229
g63
(g84
g65
NtRp230
(dp231
g68
(dp232
g88
g89
ssg77
g226
sg70
(lp233
S'cid'
p234
asbag63
(g84
g65
NtRp235
(dp236
g68
(dp237
g95
g96
ssg77
g226
sg70
(lp238
S':'
asbag63
(g84
g65
NtRp239
(dp240
g68
(dp241
sg77
g226
sg70
(lp242
g63
(g64
g65
NtRp243
(dp244
g68
(dp245
g76
I5
ssg77
g239
sg70
(lp246
S'None'
p247
asbasbasbag63
(g79
g65
NtRp248
(dp249
g68
(dp250
sg77
g73
sg70
(lp251
g63
(g84
g65
NtRp252
(dp253
g68
(dp254
g88
g89
ssg77
g248
sg70
(lp255
S'client'
p256
asbag63
(g84
g65
NtRp257
(dp258
g68
(dp259
g95
g96
ssg77
g248
sg70
(lp260
S':'
asbag63
(g84
g65
NtRp261
(dp262
g68
(dp263
sg77
g248
sg70
(lp264
g63
(g64
g65
NtRp265
(dp266
g68
(dp267
g76
I5
ssg77
g261
sg70
(lp268
S'127.0.0.1'
p269
asbasbasbag63
(g79
g65
NtRp270
(dp271
g68
(dp272
sg77
g73
sg70
(lp273
g63
(g84
g65
NtRp274
(dp275
g68
(dp276
g88
g89
ssg77
g270
sg70
(lp277
S'controller'
p278
asbag63
(g84
g65
NtRp279
(dp280
g68
(dp281
g95
g96
ssg77
g270
sg70
(lp282
S':'
asbag63
(g84
g65
NtRp283
(dp284
g68
(dp285
sg77
g270
sg70
(lp286
g63
(g64
g65
NtRp287
(dp288
g68
(dp289
g76
I5
ssg77
g283
sg70
(lp290
S'default'
p291
asbasbasbag63
(g79
g65
NtRp292
(dp293
g68
(dp294
sg77
g73
sg70
(lp295
g63
(g84
g65
NtRp296
(dp297
g68
(dp298
g88
g89
ssg77
g292
sg70
(lp299
S'cookies'
p300
asbag63
(g84
g65
NtRp301
(dp302
g68
(dp303
g95
g96
ssg77
g292
sg70
(lp304
S':'
asbag63
(g84
g65
NtRp305
(dp306
g68
(dp307
sg77
g292
sg70
(lp308
g63
(g64
g65
NtRp309
(dp310
g68
(dp311
g76
I5
ssg77
g305
sg70
(lp312
g63
(g72
g65
NtRp313
(dp314
g68
(dp315
g76
I4
ssg77
Nsg70
(lp316
g63
(g79
g65
NtRp317
(dp318
g68
(dp319
sg77
g313
sg70
(lp320
g63
(g84
g65
NtRp321
(dp322
g68
(dp323
g88
g89
ssg77
g317
sg70
(lp324
S'session_id_admin'
p325
asbag63
(g84
g65
NtRp326
(dp327
g68
(dp328
g95
g96
ssg77
g317
sg70
(lp329
S':'
asbag63
(g84
g65
NtRp330
(dp331
g68
(dp332
sg77
g317
sg70
(lp333
g63
(g64
g65
NtRp334
(dp335
g68
(dp336
g76
I4
ssg77
g330
sg70
(lp337
S'127.0.0.1-5dcf2937-67e2-4b75-8344-2e4702696999'
p338
ag63
(g72
g65
NtRp339
(dp340
g68
(dp341
g76
I3
ssg77
Nsg70
(lp342
g63
(g79
g65
NtRp343
(dp344
g68
(dp345
sg77
g339
sg70
(lp346
g63
(g84
g65
NtRp347
(dp348
g68
(dp349
g88
g89
ssg77
g343
sg70
(lp350
S'comment'
p351
asbag63
(g84
g65
NtRp352
(dp353
g68
(dp354
g95
g96
ssg77
g343
sg70
(lp355
S':'
asbag63
(g84
g65
NtRp356
(dp357
g68
(dp358
sg77
g343
sg70
(lp359
g63
(g64
g65
NtRp360
(dp361
g68
(dp362
g76
I3
ssg77
g356
sg70
(lp363
S''
asbasbasbag63
(g79
g65
NtRp364
(dp365
g68
(dp366
sg77
g339
sg70
(lp367
g63
(g84
g65
NtRp368
(dp369
g68
(dp370
g88
g89
ssg77
g364
sg70
(lp371
S'domain'
p372
asbag63
(g84
g65
NtRp373
(dp374
g68
(dp375
g95
g96
ssg77
g364
sg70
(lp376
S':'
asbag63
(g84
g65
NtRp377
(dp378
g68
(dp379
sg77
g364
sg70
(lp380
g63
(g64
g65
NtRp381
(dp382
g68
(dp383
g76
I3
ssg77
g377
sg70
(lp384
S''
asbasbasbag63
(g79
g65
NtRp385
(dp386
g68
(dp387
sg77
g339
sg70
(lp388
g63
(g84
g65
NtRp389
(dp390
g68
(dp391
g88
g89
ssg77
g385
sg70
(lp392
S'expires'
p393
asbag63
(g84
g65
NtRp394
(dp395
g68
(dp396
g95
g96
ssg77
g385
sg70
(lp397
S':'
asbag63
(g84
g65
NtRp398
(dp399
g68
(dp400
sg77
g385
sg70
(lp401
g63
(g64
g65
NtRp402
(dp403
g68
(dp404
g76
I3
ssg77
g398
sg70
(lp405
S''
asbasbasbag63
(g79
g65
NtRp406
(dp407
g68
(dp408
sg77
g339
sg70
(lp409
g63
(g84
g65
NtRp410
(dp411
g68
(dp412
g88
g89
ssg77
g406
sg70
(lp413
S'httponly'
p414
asbag63
(g84
g65
NtRp415
(dp416
g68
(dp417
g95
g96
ssg77
g406
sg70
(lp418
S':'
asbag63
(g84
g65
NtRp419
(dp420
g68
(dp421
sg77
g406
sg70
(lp422
g63
(g64
g65
NtRp423
(dp424
g68
(dp425
g76
I3
ssg77
g419
sg70
(lp426
S''
asbasbasbag63
(g79
g65
NtRp427
(dp428
g68
(dp429
sg77
g339
sg70
(lp430
g63
(g84
g65
NtRp431
(dp432
g68
(dp433
g88
g89
ssg77
g427
sg70
(lp434
S'max-age'
p435
asbag63
(g84
g65
NtRp436
(dp437
g68
(dp438
g95
g96
ssg77
g427
sg70
(lp439
S':'
asbag63
(g84
g65
NtRp440
(dp441
g68
(dp442
sg77
g427
sg70
(lp443
g63
(g64
g65
NtRp444
(dp445
g68
(dp446
g76
I3
ssg77
g440
sg70
(lp447
S''
asbasbasbag63
(g79
g65
NtRp448
(dp449
g68
(dp450
sg77
g339
sg70
(lp451
g63
(g84
g65
NtRp452
(dp453
g68
(dp454
g88
g89
ssg77
g448
sg70
(lp455
S'path'
p456
asbag63
(g84
g65
NtRp457
(dp458
g68
(dp459
g95
g96
ssg77
g448
sg70
(lp460
S':'
asbag63
(g84
g65
NtRp461
(dp462
g68
(dp463
sg77
g448
sg70
(lp464
g63
(g64
g65
NtRp465
(dp466
g68
(dp467
g76
I3
ssg77
g461
sg70
(lp468
S''
asbasbasbag63
(g79
g65
NtRp469
(dp470
g68
(dp471
sg77
g339
sg70
(lp472
g63
(g84
g65
NtRp473
(dp474
g68
(dp475
g88
g89
ssg77
g469
sg70
(lp476
S'secure'
p477
asbag63
(g84
g65
NtRp478
(dp479
g68
(dp480
g95
g96
ssg77
g469
sg70
(lp481
S':'
asbag63
(g84
g65
NtRp482
(dp483
g68
(dp484
sg77
g469
sg70
(lp485
g63
(g64
g65
NtRp486
(dp487
g68
(dp488
g76
I3
ssg77
g482
sg70
(lp489
S''
asbasbasbag63
(g79
g65
NtRp490
(dp491
g68
(dp492
sg77
g339
sg70
(lp493
g63
(g84
g65
NtRp494
(dp495
g68
(dp496
g88
g89
ssg77
g490
sg70
(lp497
S'version'
p498
asbag63
(g84
g65
NtRp499
(dp500
g68
(dp501
g95
g96
ssg77
g490
sg70
(lp502
S':'
asbag63
(g84
g65
NtRp503
(dp504
g68
(dp505
sg77
g490
sg70
(lp506
g63
(g64
g65
NtRp507
(dp508
g68
(dp509
g76
I3
ssg77
g503
sg70
(lp510
S''
asbasbasbasbasbasbasbag63
(g79
g65
NtRp511
(dp512
g68
(dp513
sg77
g313
sg70
(lp514
g63
(g84
g65
NtRp515
(dp516
g68
(dp517
g88
g89
ssg77
g511
sg70
(lp518
S'session_id_project'
p519
asbag63
(g84
g65
NtRp520
(dp521
g68
(dp522
g95
g96
ssg77
g511
sg70
(lp523
S':'
asbag63
(g84
g65
NtRp524
(dp525
g68
(dp526
sg77
g511
sg70
(lp527
g63
(g64
g65
NtRp528
(dp529
g68
(dp530
g76
I4
ssg77
g524
sg70
(lp531
S'127.0.0.1-465253d6-f72b-4103-9ac6-ab562270bdef'
p532
ag63
(g72
g65
NtRp533
(dp534
g68
(dp535
g76
I3
ssg77
Nsg70
(lp536
g63
(g79
g65
NtRp537
(dp538
g68
(dp539
sg77
g533
sg70
(lp540
g63
(g84
g65
NtRp541
(dp542
g68
(dp543
g88
g89
ssg77
g537
sg70
(lp544
g351
asbag63
(g84
g65
NtRp545
(dp546
g68
(dp547
g95
g96
ssg77
g537
sg70
(lp548
S':'
asbag63
(g84
g65
NtRp549
(dp550
g68
(dp551
sg77
g537
sg70
(lp552
g63
(g64
g65
NtRp553
(dp554
g68
(dp555
g76
I3
ssg77
g549
sg70
(lp556
S''
asbasbasbag63
(g79
g65
NtRp557
(dp558
g68
(dp559
sg77
g533
sg70
(lp560
g63
(g84
g65
NtRp561
(dp562
g68
(dp563
g88
g89
ssg77
g557
sg70
(lp564
g372
asbag63
(g84
g65
NtRp565
(dp566
g68
(dp567
g95
g96
ssg77
g557
sg70
(lp568
S':'
asbag63
(g84
g65
NtRp569
(dp570
g68
(dp571
sg77
g557
sg70
(lp572
g63
(g64
g65
NtRp573
(dp574
g68
(dp575
g76
I3
ssg77
g569
sg70
(lp576
S''
asbasbasbag63
(g79
g65
NtRp577
(dp578
g68
(dp579
sg77
g533
sg70
(lp580
g63
(g84
g65
NtRp581
(dp582
g68
(dp583
g88
g89
ssg77
g577
sg70
(lp584
g393
asbag63
(g84
g65
NtRp585
(dp586
g68
(dp587
g95
g96
ssg77
g577
sg70
(lp588
S':'
asbag63
(g84
g65
NtRp589
(dp590
g68
(dp591
sg77
g577
sg70
(lp592
g63
(g64
g65
NtRp593
(dp594
g68
(dp595
g76
I3
ssg77
g589
sg70
(lp596
S''
asbasbasbag63
(g79
g65
NtRp597
(dp598
g68
(dp599
sg77
g533
sg70
(lp600
g63
(g84
g65
NtRp601
(dp602
g68
(dp603
g88
g89
ssg77
g597
sg70
(lp604
g414
asbag63
(g84
g65
NtRp605
(dp606
g68
(dp607
g95
g96
ssg77
g597
sg70
(lp608
S':'
asbag63
(g84
g65
NtRp609
(dp610
g68
(dp611
sg77
g597
sg70
(lp612
g63
(g64
g65
NtRp613
(dp614
g68
(dp615
g76
I3
ssg77
g609
sg70
(lp616
S''
asbasbasbag63
(g79
g65
NtRp617
(dp618
g68
(dp619
sg77
g533
sg70
(lp620
g63
(g84
g65
NtRp621
(dp622
g68
(dp623
g88
g89
ssg77
g617
sg70
(lp624
g435
asbag63
(g84
g65
NtRp625
(dp626
g68
(dp627
g95
g96
ssg77
g617
sg70
(lp628
S':'
asbag63
(g84
g65
NtRp629
(dp630
g68
(dp631
sg77
g617
sg70
(lp632
g63
(g64
g65
NtRp633
(dp634
g68
(dp635
g76
I3
ssg77
g629
sg70
(lp636
S''
asbasbasbag63
(g79
g65
NtRp637
(dp638
g68
(dp639
sg77
g533
sg70
(lp640
g63
(g84
g65
NtRp641
(dp642
g68
(dp643
g88
g89
ssg77
g637
sg70
(lp644
g456
asbag63
(g84
g65
NtRp645
(dp646
g68
(dp647
g95
g96
ssg77
g637
sg70
(lp648
S':'
asbag63
(g84
g65
NtRp649
(dp650
g68
(dp651
sg77
g637
sg70
(lp652
g63
(g64
g65
NtRp653
(dp654
g68
(dp655
g76
I3
ssg77
g649
sg70
(lp656
S''
asbasbasbag63
(g79
g65
NtRp657
(dp658
g68
(dp659
sg77
g533
sg70
(lp660
g63
(g84
g65
NtRp661
(dp662
g68
(dp663
g88
g89
ssg77
g657
sg70
(lp664
g477
asbag63
(g84
g65
NtRp665
(dp666
g68
(dp667
g95
g96
ssg77
g657
sg70
(lp668
S':'
asbag63
(g84
g65
NtRp669
(dp670
g68
(dp671
sg77
g657
sg70
(lp672
g63
(g64
g65
NtRp673
(dp674
g68
(dp675
g76
I3
ssg77
g669
sg70
(lp676
S''
asbasbasbag63
(g79
g65
NtRp677
(dp678
g68
(dp679
sg77
g533
sg70
(lp680
g63
(g84
g65
NtRp681
(dp682
g68
(dp683
g88
g89
ssg77
g677
sg70
(lp684
g498
asbag63
(g84
g65
NtRp685
(dp686
g68
(dp687
g95
g96
ssg77
g677
sg70
(lp688
S':'
asbag63
(g84
g65
NtRp689
(dp690
g68
(dp691
sg77
g677
sg70
(lp692
g63
(g64
g65
NtRp693
(dp694
g68
(dp695
g76
I3
ssg77
g689
sg70
(lp696
S''
asbasbasbasbasbasbasbag63
(g79
g65
NtRp697
(dp698
g68
(dp699
sg77
g313
sg70
(lp700
g63
(g84
g65
NtRp701
(dp702
g68
(dp703
g88
g89
ssg77
g697
sg70
(lp704
S'session_id_tashi'
p705
asbag63
(g84
g65
NtRp706
(dp707
g68
(dp708
g95
g96
ssg77
g697
sg70
(lp709
S':'
asbag63
(g84
g65
NtRp710
(dp711
g68
(dp712
sg77
g697
sg70
(lp713
g63
(g64
g65
NtRp714
(dp715
g68
(dp716
g76
I4
ssg77
g710
sg70
(lp717
S'127.0.0.1-8380671b-683e-496c-953c-7ba6ca3db8fd'
p718
ag63
(g72
g65
NtRp719
(dp720
g68
(dp721
g76
I3
ssg77
Nsg70
(lp722
g63
(g79
g65
NtRp723
(dp724
g68
(dp725
sg77
g719
sg70
(lp726
g63
(g84
g65
NtRp727
(dp728
g68
(dp729
g88
g89
ssg77
g723
sg70
(lp730
g351
asbag63
(g84
g65
NtRp731
(dp732
g68
(dp733
g95
g96
ssg77
g723
sg70
(lp734
S':'
asbag63
(g84
g65
NtRp735
(dp736
g68
(dp737
sg77
g723
sg70
(lp738
g63
(g64
g65
NtRp739
(dp740
g68
(dp741
g76
I3
ssg77
g735
sg70
(lp742
S''
asbasbasbag63
(g79
g65
NtRp743
(dp744
g68
(dp745
sg77
g719
sg70
(lp746
g63
(g84
g65
NtRp747
(dp748
g68
(dp749
g88
g89
ssg77
g743
sg70
(lp750
g372
asbag63
(g84
g65
NtRp751
(dp752
g68
(dp753
g95
g96
ssg77
g743
sg70
(lp754
S':'
asbag63
(g84
g65
NtRp755
(dp756
g68
(dp757
sg77
g743
sg70
(lp758
g63
(g64
g65
NtRp759
(dp760
g68
(dp761
g76
I3
ssg77
g755
sg70
(lp762
S''
asbasbasbag63
(g79
g65
NtRp763
(dp764
g68
(dp765
sg77
g719
sg70
(lp766
g63
(g84
g65
NtRp767
(dp768
g68
(dp769
g88
g89
ssg77
g763
sg70
(lp770
g393
asbag63
(g84
g65
NtRp771
(dp772
g68
(dp773
g95
g96
ssg77
g763
sg70
(lp774
S':'
asbag63
(g84
g65
NtRp775
(dp776
g68
(dp777
sg77
g763
sg70
(lp778
g63
(g64
g65
NtRp779
(dp780
g68
(dp781
g76
I3
ssg77
g775
sg70
(lp782
S''
asbasbasbag63
(g79
g65
NtRp783
(dp784
g68
(dp785
sg77
g719
sg70
(lp786
g63
(g84
g65
NtRp787
(dp788
g68
(dp789
g88
g89
ssg77
g783
sg70
(lp790
g414
asbag63
(g84
g65
NtRp791
(dp792
g68
(dp793
g95
g96
ssg77
g783
sg70
(lp794
S':'
asbag63
(g84
g65
NtRp795
(dp796
g68
(dp797
sg77
g783
sg70
(lp798
g63
(g64
g65
NtRp799
(dp800
g68
(dp801
g76
I3
ssg77
g795
sg70
(lp802
S''
asbasbasbag63
(g79
g65
NtRp803
(dp804
g68
(dp805
sg77
g719
sg70
(lp806
g63
(g84
g65
NtRp807
(dp808
g68
(dp809
g88
g89
ssg77
g803
sg70
(lp810
g435
asbag63
(g84
g65
NtRp811
(dp812
g68
(dp813
g95
g96
ssg77
g803
sg70
(lp814
S':'
asbag63
(g84
g65
NtRp815
(dp816
g68
(dp817
sg77
g803
sg70
(lp818
g63
(g64
g65
NtRp819
(dp820
g68
(dp821
g76
I3
ssg77
g815
sg70
(lp822
S''
asbasbasbag63
(g79
g65
NtRp823
(dp824
g68
(dp825
sg77
g719
sg70
(lp826
g63
(g84
g65
NtRp827
(dp828
g68
(dp829
g88
g89
ssg77
g823
sg70
(lp830
g456
asbag63
(g84
g65
NtRp831
(dp832
g68
(dp833
g95
g96
ssg77
g823
sg70
(lp834
S':'
asbag63
(g84
g65
NtRp835
(dp836
g68
(dp837
sg77
g823
sg70
(lp838
g63
(g64
g65
NtRp839
(dp840
g68
(dp841
g76
I3
ssg77
g835
sg70
(lp842
S''
asbasbasbag63
(g79
g65
NtRp843
(dp844
g68
(dp845
sg77
g719
sg70
(lp846
g63
(g84
g65
NtRp847
(dp848
g68
(dp849
g88
g89
ssg77
g843
sg70
(lp850
g477
asbag63
(g84
g65
NtRp851
(dp852
g68
(dp853
g95
g96
ssg77
g843
sg70
(lp854
S':'
asbag63
(g84
g65
NtRp855
(dp856
g68
(dp857
sg77
g843
sg70
(lp858
g63
(g64
g65
NtRp859
(dp860
g68
(dp861
g76
I3
ssg77
g855
sg70
(lp862
S''
asbasbasbag63
(g79
g65
NtRp863
(dp864
g68
(dp865
sg77
g719
sg70
(lp866
g63
(g84
g65
NtRp867
(dp868
g68
(dp869
g88
g89
ssg77
g863
sg70
(lp870
g498
asbag63
(g84
g65
NtRp871
(dp872
g68
(dp873
g95
g96
ssg77
g863
sg70
(lp874
S':'
asbag63
(g84
g65
NtRp875
(dp876
g68
(dp877
sg77
g863
sg70
(lp878
g63
(g64
g65
NtRp879
(dp880
g68
(dp881
g76
I3
ssg77
g875
sg70
(lp882
S''
asbasbasbasbasbasbasbag63
(g79
g65
NtRp883
(dp884
g68
(dp885
sg77
g313
sg70
(lp886
g63
(g84
g65
NtRp887
(dp888
g68
(dp889
g88
g89
ssg77
g883
sg70
(lp890
S'session_id_taship1'
p891
asbag63
(g84
g65
NtRp892
(dp893
g68
(dp894
g95
g96
ssg77
g883
sg70
(lp895
S':'
asbag63
(g84
g65
NtRp896
(dp897
g68
(dp898
sg77
g883
sg70
(lp899
g63
(g64
g65
NtRp900
(dp901
g68
(dp902
g76
I4
ssg77
g896
sg70
(lp903
S'127.0.0.1-ba46bc10-544c-4be6-9e27-483a0d6032f3'
p904
ag63
(g72
g65
NtRp905
(dp906
g68
(dp907
g76
I3
ssg77
Nsg70
(lp908
g63
(g79
g65
NtRp909
(dp910
g68
(dp911
sg77
g905
sg70
(lp912
g63
(g84
g65
NtRp913
(dp914
g68
(dp915
g88
g89
ssg77
g909
sg70
(lp916
g351
asbag63
(g84
g65
NtRp917
(dp918
g68
(dp919
g95
g96
ssg77
g909
sg70
(lp920
S':'
asbag63
(g84
g65
NtRp921
(dp922
g68
(dp923
sg77
g909
sg70
(lp924
g63
(g64
g65
NtRp925
(dp926
g68
(dp927
g76
I3
ssg77
g921
sg70
(lp928
S''
asbasbasbag63
(g79
g65
NtRp929
(dp930
g68
(dp931
sg77
g905
sg70
(lp932
g63
(g84
g65
NtRp933
(dp934
g68
(dp935
g88
g89
ssg77
g929
sg70
(lp936
g372
asbag63
(g84
g65
NtRp937
(dp938
g68
(dp939
g95
g96
ssg77
g929
sg70
(lp940
S':'
asbag63
(g84
g65
NtRp941
(dp942
g68
(dp943
sg77
g929
sg70
(lp944
g63
(g64
g65
NtRp945
(dp946
g68
(dp947
g76
I3
ssg77
g941
sg70
(lp948
S''
asbasbasbag63
(g79
g65
NtRp949
(dp950
g68
(dp951
sg77
g905
sg70
(lp952
g63
(g84
g65
NtRp953
(dp954
g68
(dp955
g88
g89
ssg77
g949
sg70
(lp956
g393
asbag63
(g84
g65
NtRp957
(dp958
g68
(dp959
g95
g96
ssg77
g949
sg70
(lp960
S':'
asbag63
(g84
g65
NtRp961
(dp962
g68
(dp963
sg77
g949
sg70
(lp964
g63
(g64
g65
NtRp965
(dp966
g68
(dp967
g76
I3
ssg77
g961
sg70
(lp968
S''
asbasbasbag63
(g79
g65
NtRp969
(dp970
g68
(dp971
sg77
g905
sg70
(lp972
g63
(g84
g65
NtRp973
(dp974
g68
(dp975
g88
g89
ssg77
g969
sg70
(lp976
g414
asbag63
(g84
g65
NtRp977
(dp978
g68
(dp979
g95
g96
ssg77
g969
sg70
(lp980
S':'
asbag63
(g84
g65
NtRp981
(dp982
g68
(dp983
sg77
g969
sg70
(lp984
g63
(g64
g65
NtRp985
(dp986
g68
(dp987
g76
I3
ssg77
g981
sg70
(lp988
S''
asbasbasbag63
(g79
g65
NtRp989
(dp990
g68
(dp991
sg77
g905
sg70
(lp992
g63
(g84
g65
NtRp993
(dp994
g68
(dp995
g88
g89
ssg77
g989
sg70
(lp996
g435
asbag63
(g84
g65
NtRp997
(dp998
g68
(dp999
g95
g96
ssg77
g989
sg70
(lp1000
S':'
asbag63
(g84
g65
NtRp1001
(dp1002
g68
(dp1003
sg77
g989
sg70
(lp1004
g63
(g64
g65
NtRp1005
(dp1006
g68
(dp1007
g76
I3
ssg77
g1001
sg70
(lp1008
S''
asbasbasbag63
(g79
g65
NtRp1009
(dp1010
g68
(dp1011
sg77
g905
sg70
(lp1012
g63
(g84
g65
NtRp1013
(dp1014
g68
(dp1015
g88
g89
ssg77
g1009
sg70
(lp1016
g456
asbag63
(g84
g65
NtRp1017
(dp1018
g68
(dp1019
g95
g96
ssg77
g1009
sg70
(lp1020
S':'
asbag63
(g84
g65
NtRp1021
(dp1022
g68
(dp1023
sg77
g1009
sg70
(lp1024
g63
(g64
g65
NtRp1025
(dp1026
g68
(dp1027
g76
I3
ssg77
g1021
sg70
(lp1028
S''
asbasbasbag63
(g79
g65
NtRp1029
(dp1030
g68
(dp1031
sg77
g905
sg70
(lp1032
g63
(g84
g65
NtRp1033
(dp1034
g68
(dp1035
g88
g89
ssg77
g1029
sg70
(lp1036
g477
asbag63
(g84
g65
NtRp1037
(dp1038
g68
(dp1039
g95
g96
ssg77
g1029
sg70
(lp1040
S':'
asbag63
(g84
g65
NtRp1041
(dp1042
g68
(dp1043
sg77
g1029
sg70
(lp1044
g63
(g64
g65
NtRp1045
(dp1046
g68
(dp1047
g76
I3
ssg77
g1041
sg70
(lp1048
S''
asbasbasbag63
(g79
g65
NtRp1049
(dp1050
g68
(dp1051
sg77
g905
sg70
(lp1052
g63
(g84
g65
NtRp1053
(dp1054
g68
(dp1055
g88
g89
ssg77
g1049
sg70
(lp1056
g498
asbag63
(g84
g65
NtRp1057
(dp1058
g68
(dp1059
g95
g96
ssg77
g1049
sg70
(lp1060
S':'
asbag63
(g84
g65
NtRp1061
(dp1062
g68
(dp1063
sg77
g1049
sg70
(lp1064
g63
(g64
g65
NtRp1065
(dp1066
g68
(dp1067
g76
I3
ssg77
g1061
sg70
(lp1068
S''
asbasbasbasbasbasbasbag63
(g79
g65
NtRp1069
(dp1070
g68
(dp1071
sg77
g313
sg70
(lp1072
g63
(g84
g65
NtRp1073
(dp1074
g68
(dp1075
g88
g89
ssg77
g1069
sg70
(lp1076
S'session_id_welcome'
p1077
asbag63
(g84
g65
NtRp1078
(dp1079
g68
(dp1080
g95
g96
ssg77
g1069
sg70
(lp1081
S':'
asbag63
(g84
g65
NtRp1082
(dp1083
g68
(dp1084
sg77
g1069
sg70
(lp1085
g63
(g64
g65
NtRp1086
(dp1087
g68
(dp1088
g76
I4
ssg77
g1082
sg70
(lp1089
S'127.0.0.1-3bfc019e-6879-4570-8ec3-d47a909e5c58'
p1090
ag63
(g72
g65
NtRp1091
(dp1092
g68
(dp1093
g76
I3
ssg77
Nsg70
(lp1094
g63
(g79
g65
NtRp1095
(dp1096
g68
(dp1097
sg77
g1091
sg70
(lp1098
g63
(g84
g65
NtRp1099
(dp1100
g68
(dp1101
g88
g89
ssg77
g1095
sg70
(lp1102
g351
asbag63
(g84
g65
NtRp1103
(dp1104
g68
(dp1105
g95
g96
ssg77
g1095
sg70
(lp1106
S':'
asbag63
(g84
g65
NtRp1107
(dp1108
g68
(dp1109
sg77
g1095
sg70
(lp1110
g63
(g64
g65
NtRp1111
(dp1112
g68
(dp1113
g76
I3
ssg77
g1107
sg70
(lp1114
S''
asbasbasbag63
(g79
g65
NtRp1115
(dp1116
g68
(dp1117
sg77
g1091
sg70
(lp1118
g63
(g84
g65
NtRp1119
(dp1120
g68
(dp1121
g88
g89
ssg77
g1115
sg70
(lp1122
g372
asbag63
(g84
g65
NtRp1123
(dp1124
g68
(dp1125
g95
g96
ssg77
g1115
sg70
(lp1126
S':'
asbag63
(g84
g65
NtRp1127
(dp1128
g68
(dp1129
sg77
g1115
sg70
(lp1130
g63
(g64
g65
NtRp1131
(dp1132
g68
(dp1133
g76
I3
ssg77
g1127
sg70
(lp1134
S''
asbasbasbag63
(g79
g65
NtRp1135
(dp1136
g68
(dp1137
sg77
g1091
sg70
(lp1138
g63
(g84
g65
NtRp1139
(dp1140
g68
(dp1141
g88
g89
ssg77
g1135
sg70
(lp1142
g393
asbag63
(g84
g65
NtRp1143
(dp1144
g68
(dp1145
g95
g96
ssg77
g1135
sg70
(lp1146
S':'
asbag63
(g84
g65
NtRp1147
(dp1148
g68
(dp1149
sg77
g1135
sg70
(lp1150
g63
(g64
g65
NtRp1151
(dp1152
g68
(dp1153
g76
I3
ssg77
g1147
sg70
(lp1154
S''
asbasbasbag63
(g79
g65
NtRp1155
(dp1156
g68
(dp1157
sg77
g1091
sg70
(lp1158
g63
(g84
g65
NtRp1159
(dp1160
g68
(dp1161
g88
g89
ssg77
g1155
sg70
(lp1162
g414
asbag63
(g84
g65
NtRp1163
(dp1164
g68
(dp1165
g95
g96
ssg77
g1155
sg70
(lp1166
S':'
asbag63
(g84
g65
NtRp1167
(dp1168
g68
(dp1169
sg77
g1155
sg70
(lp1170
g63
(g64
g65
NtRp1171
(dp1172
g68
(dp1173
g76
I3
ssg77
g1167
sg70
(lp1174
S''
asbasbasbag63
(g79
g65
NtRp1175
(dp1176
g68
(dp1177
sg77
g1091
sg70
(lp1178
g63
(g84
g65
NtRp1179
(dp1180
g68
(dp1181
g88
g89
ssg77
g1175
sg70
(lp1182
g435
asbag63
(g84
g65
NtRp1183
(dp1184
g68
(dp1185
g95
g96
ssg77
g1175
sg70
(lp1186
S':'
asbag63
(g84
g65
NtRp1187
(dp1188
g68
(dp1189
sg77
g1175
sg70
(lp1190
g63
(g64
g65
NtRp1191
(dp1192
g68
(dp1193
g76
I3
ssg77
g1187
sg70
(lp1194
S''
asbasbasbag63
(g79
g65
NtRp1195
(dp1196
g68
(dp1197
sg77
g1091
sg70
(lp1198
g63
(g84
g65
NtRp1199
(dp1200
g68
(dp1201
g88
g89
ssg77
g1195
sg70
(lp1202
g456
asbag63
(g84
g65
NtRp1203
(dp1204
g68
(dp1205
g95
g96
ssg77
g1195
sg70
(lp1206
S':'
asbag63
(g84
g65
NtRp1207
(dp1208
g68
(dp1209
sg77
g1195
sg70
(lp1210
g63
(g64
g65
NtRp1211
(dp1212
g68
(dp1213
g76
I3
ssg77
g1207
sg70
(lp1214
S''
asbasbasbag63
(g79
g65
NtRp1215
(dp1216
g68
(dp1217
sg77
g1091
sg70
(lp1218
g63
(g84
g65
NtRp1219
(dp1220
g68
(dp1221
g88
g89
ssg77
g1215
sg70
(lp1222
g477
asbag63
(g84
g65
NtRp1223
(dp1224
g68
(dp1225
g95
g96
ssg77
g1215
sg70
(lp1226
S':'
asbag63
(g84
g65
NtRp1227
(dp1228
g68
(dp1229
sg77
g1215
sg70
(lp1230
g63
(g64
g65
NtRp1231
(dp1232
g68
(dp1233
g76
I3
ssg77
g1227
sg70
(lp1234
S''
asbasbasbag63
(g79
g65
NtRp1235
(dp1236
g68
(dp1237
sg77
g1091
sg70
(lp1238
g63
(g84
g65
NtRp1239
(dp1240
g68
(dp1241
g88
g89
ssg77
g1235
sg70
(lp1242
g498
asbag63
(g84
g65
NtRp1243
(dp1244
g68
(dp1245
g95
g96
ssg77
g1235
sg70
(lp1246
S':'
asbag63
(g84
g65
NtRp1247
(dp1248
g68
(dp1249
sg77
g1235
sg70
(lp1250
g63
(g64
g65
NtRp1251
(dp1252
g68
(dp1253
g76
I3
ssg77
g1247
sg70
(lp1254
S''
asbasbasbasbasbasbasbasbasbasbasbag63
(g79
g65
NtRp1255
(dp1256
g68
(dp1257
sg77
g73
sg70
(lp1258
g63
(g84
g65
NtRp1259
(dp1260
g68
(dp1261
g88
g89
ssg77
g1255
sg70
(lp1262
S'env'
p1263
asbag63
(g84
g65
NtRp1264
(dp1265
g68
(dp1266
g95
g96
ssg77
g1255
sg70
(lp1267
S':'
asbag63
(g84
g65
NtRp1268
(dp1269
g68
(dp1270
sg77
g1255
sg70
(lp1271
g63
(g64
g65
NtRp1272
(dp1273
g68
(dp1274
g76
I5
ssg77
g1268
sg70
(lp1275
g63
(g72
g65
NtRp1276
(dp1277
g68
(dp1278
g76
I4
ssg77
Nsg70
(lp1279
g63
(g79
g65
NtRp1280
(dp1281
g68
(dp1282
sg77
g1276
sg70
(lp1283
g63
(g84
g65
NtRp1284
(dp1285
g68
(dp1286
g88
g89
ssg77
g1280
sg70
(lp1287
S'app_folders'
p1288
asbag63
(g84
g65
NtRp1289
(dp1290
g68
(dp1291
g95
g96
ssg77
g1280
sg70
(lp1292
S':'
asbag63
(g84
g65
NtRp1293
(dp1294
g68
(dp1295
sg77
g1280
sg70
(lp1296
g63
(g64
g65
NtRp1297
(dp1298
g68
(dp1299
g76
I4
ssg77
g1293
sg70
(lp1300
S"set(['/home/mayank/IIIT/sem 3/SSAD&Project/web2py/applications/taship1/', '/home/mayank/IIIT/sem 3/SSAD&Project/web2py/applications/admin/', '/home/mayank/IIIT/sem 3/SSAD&Project/web2py/applications/welcome/'])"
p1301
asbasbasbag63
(g79
g65
NtRp1302
(dp1303
g68
(dp1304
sg77
g1276
sg70
(lp1305
g63
(g84
g65
NtRp1306
(dp1307
g68
(dp1308
g88
g89
ssg77
g1302
sg70
(lp1309
S'applications_parent'
p1310
asbag63
(g84
g65
NtRp1311
(dp1312
g68
(dp1313
g95
g96
ssg77
g1302
sg70
(lp1314
S':'
asbag63
(g84
g65
NtRp1315
(dp1316
g68
(dp1317
sg77
g1302
sg70
(lp1318
g63
(g64
g65
NtRp1319
(dp1320
g68
(dp1321
g76
I4
ssg77
g1315
sg70
(lp1322
S'/home/mayank/IIIT/sem 3/SSAD&Project/web2py'
p1323
asbasbasbag63
(g79
g65
NtRp1324
(dp1325
g68
(dp1326
sg77
g1276
sg70
(lp1327
g63
(g84
g65
NtRp1328
(dp1329
g68
(dp1330
g88
g89
ssg77
g1324
sg70
(lp1331
S'cmd_args'
p1332
asbag63
(g84
g65
NtRp1333
(dp1334
g68
(dp1335
g95
g96
ssg77
g1324
sg70
(lp1336
S':'
asbag63
(g84
g65
NtRp1337
(dp1338
g68
(dp1339
sg77
g1324
sg70
(lp1340
g63
(g64
g65
NtRp1341
(dp1342
g68
(dp1343
g76
I4
ssg77
g1337
sg70
(lp1344
g63
(g72
g65
NtRp1345
(dp1346
g68
(dp1347
g76
I3
ssg77
Nsg70
(lp1348
sbasbasbasbag63
(g79
g65
NtRp1349
(dp1350
g68
(dp1351
sg77
g1276
sg70
(lp1352
g63
(g84
g65
NtRp1353
(dp1354
g68
(dp1355
g88
g89
ssg77
g1349
sg70
(lp1356
S'cmd_options'
p1357
asbag63
(g84
g65
NtRp1358
(dp1359
g68
(dp1360
g95
g96
ssg77
g1349
sg70
(lp1361
S':'
asbag63
(g84
g65
NtRp1362
(dp1363
g68
(dp1364
sg77
g1349
sg70
(lp1365
g63
(g64
g65
NtRp1366
(dp1367
g68
(dp1368
g76
I4
ssg77
g1362
sg70
(lp1369
S"<Values at 0x202e320: {'verbose': False, 'ip': '127.0.0.1', 'with_scheduler': False, 'ips': ['127.0.1.1'], 'shutdown_timeout': 5, 'taskbar': False, 'port': 8000, 'maxthreads': None, 'softcron': False, 'server_name': 'mayank', 'bpython': False, 'nogui': False, 'nocron': False, 'extcron': False, 'run_system_tests': False, 'test': None, 'folder': '/home/mayank/IIIT/sem 3/SSAD&Project/web2py', 'config': '', 'import_models': False, 'winservice': '', 'shell': None, 'run': '', 'log_filename': 'httpserver.log', 'debuglevel': 30, 'args': [''], 'socket_timeout': 5, 'ssl_ca_certificate': None, 'scheduler': None, 'profiler_filename': None, 'ssl_private_key': '', 'scheduler_groups': None, 'password': '<ask>', 'request_queue_size': 5, 'ssl_certificate': '', 'cronjob': False, 'numthreads': None, 'quiet': False, 'interfaces': None, 'minthreads': None, 'timeout': 10, 'plain': False, 'nobanner': False, 'pid_filename': 'httpserver.pid'}>"
p1370
asbasbasbag63
(g79
g65
NtRp1371
(dp1372
g68
(dp1373
sg77
g1276
sg70
(lp1374
g63
(g84
g65
NtRp1375
(dp1376
g68
(dp1377
g88
g89
ssg77
g1371
sg70
(lp1378
S'db_sessions'
p1379
asbag63
(g84
g65
NtRp1380
(dp1381
g68
(dp1382
g95
g96
ssg77
g1371
sg70
(lp1383
S':'
asbag63
(g84
g65
NtRp1384
(dp1385
g68
(dp1386
sg77
g1371
sg70
(lp1387
g63
(g64
g65
NtRp1388
(dp1389
g68
(dp1390
g76
I4
ssg77
g1384
sg70
(lp1391
S'set([])'
p1392
asbasbasbag63
(g79
g65
NtRp1393
(dp1394
g68
(dp1395
sg77
g1276
sg70
(lp1396
g63
(g84
g65
NtRp1397
(dp1398
g68
(dp1399
g88
g89
ssg77
g1393
sg70
(lp1400
S'debugging'
p1401
asbag63
(g84
g65
NtRp1402
(dp1403
g68
(dp1404
g95
g96
ssg77
g1393
sg70
(lp1405
S':'
asbag63
(g84
g65
NtRp1406
(dp1407
g68
(dp1408
sg77
g1393
sg70
(lp1409
g63
(g64
g65
NtRp1410
(dp1411
g68
(dp1412
g76
I4
ssg77
g1406
sg70
(lp1413
g106
asbasbasbag63
(g79
g65
NtRp1414
(dp1415
g68
(dp1416
sg77
g1276
sg70
(lp1417
g63
(g84
g65
NtRp1418
(dp1419
g68
(dp1420
g88
g89
ssg77
g1414
sg70
(lp1421
S'gluon_parent'
p1422
asbag63
(g84
g65
NtRp1423
(dp1424
g68
(dp1425
g95
g96
ssg77
g1414
sg70
(lp1426
S':'
asbag63
(g84
g65
NtRp1427
(dp1428
g68
(dp1429
sg77
g1414
sg70
(lp1430
g63
(g64
g65
NtRp1431
(dp1432
g68
(dp1433
g76
I4
ssg77
g1427
sg70
(lp1434
S'/home/mayank/IIIT/sem 3/SSAD&Project/web2py'
p1435
asbasbasbag63
(g79
g65
NtRp1436
(dp1437
g68
(dp1438
sg77
g1276
sg70
(lp1439
g63
(g84
g65
NtRp1440
(dp1441
g68
(dp1442
g88
g89
ssg77
g1436
sg70
(lp1443
S'http_accept'
p1444
asbag63
(g84
g65
NtRp1445
(dp1446
g68
(dp1447
g95
g96
ssg77
g1436
sg70
(lp1448
S':'
asbag63
(g84
g65
NtRp1449
(dp1450
g68
(dp1451
sg77
g1436
sg70
(lp1452
g63
(g64
g65
NtRp1453
(dp1454
g68
(dp1455
g76
I4
ssg77
g1449
sg70
(lp1456
S'text/html,application/xhtml+xml,application/xml;q=0.9,*/*;q=0.8'
p1457
asbasbasbag63
(g79
g65
NtRp1458
(dp1459
g68
(dp1460
sg77
g1276
sg70
(lp1461
g63
(g84
g65
NtRp1462
(dp1463
g68
(dp1464
g88
g89
ssg77
g1458
sg70
(lp1465
S'http_accept_encoding'
p1466
asbag63
(g84
g65
NtRp1467
(dp1468
g68
(dp1469
g95
g96
ssg77
g1458
sg70
(lp1470
S':'
asbag63
(g84
g65
NtRp1471
(dp1472
g68
(dp1473
sg77
g1458
sg70
(lp1474
g63
(g64
g65
NtRp1475
(dp1476
g68
(dp1477
g76
I4
ssg77
g1471
sg70
(lp1478
S'gzip, deflate'
p1479
asbasbasbag63
(g79
g65
NtRp1480
(dp1481
g68
(dp1482
sg77
g1276
sg70
(lp1483
g63
(g84
g65
NtRp1484
(dp1485
g68
(dp1486
g88
g89
ssg77
g1480
sg70
(lp1487
S'http_accept_language'
p1488
asbag63
(g84
g65
NtRp1489
(dp1490
g68
(dp1491
g95
g96
ssg77
g1480
sg70
(lp1492
S':'
asbag63
(g84
g65
NtRp1493
(dp1494
g68
(dp1495
sg77
g1480
sg70
(lp1496
g63
(g64
g65
NtRp1497
(dp1498
g68
(dp1499
g76
I4
ssg77
g1493
sg70
(lp1500
S'en-US,en;q=0.5'
p1501
asbasbasbag63
(g79
g65
NtRp1502
(dp1503
g68
(dp1504
sg77
g1276
sg70
(lp1505
g63
(g84
g65
NtRp1506
(dp1507
g68
(dp1508
g88
g89
ssg77
g1502
sg70
(lp1509
S'http_connection'
p1510
asbag63
(g84
g65
NtRp1511
(dp1512
g68
(dp1513
g95
g96
ssg77
g1502
sg70
(lp1514
S':'
asbag63
(g84
g65
NtRp1515
(dp1516
g68
(dp1517
sg77
g1502
sg70
(lp1518
g63
(g64
g65
NtRp1519
(dp1520
g68
(dp1521
g76
I4
ssg77
g1515
sg70
(lp1522
S'keep-alive'
p1523
asbasbasbag63
(g79
g65
NtRp1524
(dp1525
g68
(dp1526
sg77
g1276
sg70
(lp1527
g63
(g84
g65
NtRp1528
(dp1529
g68
(dp1530
g88
g89
ssg77
g1524
sg70
(lp1531
S'http_cookie'
p1532
asbag63
(g84
g65
NtRp1533
(dp1534
g68
(dp1535
g95
g96
ssg77
g1524
sg70
(lp1536
S':'
asbag63
(g84
g65
NtRp1537
(dp1538
g68
(dp1539
sg77
g1524
sg70
(lp1540
g63
(g64
g65
NtRp1541
(dp1542
g68
(dp1543
g76
I4
ssg77
g1537
sg70
(lp1544
S'session_id_welcome=127.0.0.1-3bfc019e-6879-4570-8ec3-d47a909e5c58; session_id_admin=127.0.0.1-5dcf2937-67e2-4b75-8344-2e4702696999; session_id_taship1=127.0.0.1-ba46bc10-544c-4be6-9e27-483a0d6032f3; session_id_tashi=127.0.0.1-8380671b-683e-496c-953c-7ba6ca3db8fd; session_id_project=127.0.0.1-465253d6-f72b-4103-9ac6-ab562270bdef'
p1545
asbasbasbag63
(g79
g65
NtRp1546
(dp1547
g68
(dp1548
sg77
g1276
sg70
(lp1549
g63
(g84
g65
NtRp1550
(dp1551
g68
(dp1552
g88
g89
ssg77
g1546
sg70
(lp1553
S'http_host'
p1554
asbag63
(g84
g65
NtRp1555
(dp1556
g68
(dp1557
g95
g96
ssg77
g1546
sg70
(lp1558
S':'
asbag63
(g84
g65
NtRp1559
(dp1560
g68
(dp1561
sg77
g1546
sg70
(lp1562
g63
(g64
g65
NtRp1563
(dp1564
g68
(dp1565
g76
I4
ssg77
g1559
sg70
(lp1566
S'127.0.0.1:8000'
p1567
asbasbasbag63
(g79
g65
NtRp1568
(dp1569
g68
(dp1570
sg77
g1276
sg70
(lp1571
g63
(g84
g65
NtRp1572
(dp1573
g68
(dp1574
g88
g89
ssg77
g1568
sg70
(lp1575
S'http_user_agent'
p1576
asbag63
(g84
g65
NtRp1577
(dp1578
g68
(dp1579
g95
g96
ssg77
g1568
sg70
(lp1580
S':'
asbag63
(g84
g65
NtRp1581
(dp1582
g68
(dp1583
sg77
g1568
sg70
(lp1584
g63
(g64
g65
NtRp1585
(dp1586
g68
(dp1587
g76
I4
ssg77
g1581
sg70
(lp1588
S'Mozilla/5.0 (X11; Ubuntu; Linux x86_64; rv:16.0) Gecko/20100101 Firefox/16.0'
p1589
asbasbasbag63
(g79
g65
NtRp1590
(dp1591
g68
(dp1592
sg77
g1276
sg70
(lp1593
g63
(g84
g65
NtRp1594
(dp1595
g68
(dp1596
g88
g89
ssg77
g1590
sg70
(lp1597
S'is_jython'
p1598
asbag63
(g84
g65
NtRp1599
(dp1600
g68
(dp1601
g95
g96
ssg77
g1590
sg70
(lp1602
S':'
asbag63
(g84
g65
NtRp1603
(dp1604
g68
(dp1605
sg77
g1590
sg70
(lp1606
g63
(g64
g65
NtRp1607
(dp1608
g68
(dp1609
g76
I4
ssg77
g1603
sg70
(lp1610
g106
asbasbasbag63
(g79
g65
NtRp1611
(dp1612
g68
(dp1613
sg77
g1276
sg70
(lp1614
g63
(g84
g65
NtRp1615
(dp1616
g68
(dp1617
g88
g89
ssg77
g1611
sg70
(lp1618
S'is_pypy'
p1619
asbag63
(g84
g65
NtRp1620
(dp1621
g68
(dp1622
g95
g96
ssg77
g1611
sg70
(lp1623
S':'
asbag63
(g84
g65
NtRp1624
(dp1625
g68
(dp1626
sg77
g1611
sg70
(lp1627
g63
(g64
g65
NtRp1628
(dp1629
g68
(dp1630
g76
I4
ssg77
g1624
sg70
(lp1631
g106
asbasbasbag63
(g79
g65
NtRp1632
(dp1633
g68
(dp1634
sg77
g1276
sg70
(lp1635
g63
(g84
g65
NtRp1636
(dp1637
g68
(dp1638
g88
g89
ssg77
g1632
sg70
(lp1639
S'path_info'
p1640
asbag63
(g84
g65
NtRp1641
(dp1642
g68
(dp1643
g95
g96
ssg77
g1632
sg70
(lp1644
S':'
asbag63
(g84
g65
NtRp1645
(dp1646
g68
(dp1647
sg77
g1632
sg70
(lp1648
g63
(g64
g65
NtRp1649
(dp1650
g68
(dp1651
g76
I4
ssg77
g1645
sg70
(lp1652
S'/admin/default/resolve/taship1/views/default/\\'
p1653
asbasbasbag63
(g79
g65
NtRp1654
(dp1655
g68
(dp1656
sg77
g1276
sg70
(lp1657
g63
(g84
g65
NtRp1658
(dp1659
g68
(dp1660
g88
g89
ssg77
g1654
sg70
(lp1661
S'query_string'
p1662
asbag63
(g84
g65
NtRp1663
(dp1664
g68
(dp1665
g95
g96
ssg77
g1654
sg70
(lp1666
S':'
asbag63
(g84
g65
NtRp1667
(dp1668
g68
(dp1669
sg77
g1654
sg70
(lp1670
g63
(g64
g65
NtRp1671
(dp1672
g68
(dp1673
g76
I4
ssg77
g1667
sg70
(lp1674
S''
asbasbasbag63
(g79
g65
NtRp1675
(dp1676
g68
(dp1677
sg77
g1276
sg70
(lp1678
g63
(g84
g65
NtRp1679
(dp1680
g68
(dp1681
g88
g89
ssg77
g1675
sg70
(lp1682
S'remote_addr'
p1683
asbag63
(g84
g65
NtRp1684
(dp1685
g68
(dp1686
g95
g96
ssg77
g1675
sg70
(lp1687
S':'
asbag63
(g84
g65
NtRp1688
(dp1689
g68
(dp1690
sg77
g1675
sg70
(lp1691
g63
(g64
g65
NtRp1692
(dp1693
g68
(dp1694
g76
I4
ssg77
g1688
sg70
(lp1695
g269
asbasbasbag63
(g79
g65
NtRp1696
(dp1697
g68
(dp1698
sg77
g1276
sg70
(lp1699
g63
(g84
g65
NtRp1700
(dp1701
g68
(dp1702
g88
g89
ssg77
g1696
sg70
(lp1703
S'remote_port'
p1704
asbag63
(g84
g65
NtRp1705
(dp1706
g68
(dp1707
g95
g96
ssg77
g1696
sg70
(lp1708
S':'
asbag63
(g84
g65
NtRp1709
(dp1710
g68
(dp1711
sg77
g1696
sg70
(lp1712
g63
(g64
g65
NtRp1713
(dp1714
g68
(dp1715
g76
I4
ssg77
g1709
sg70
(lp1716
S'38844'
p1717
asbasbasbag63
(g79
g65
NtRp1718
(dp1719
g68
(dp1720
sg77
g1276
sg70
(lp1721
g63
(g84
g65
NtRp1722
(dp1723
g68
(dp1724
g88
g89
ssg77
g1718
sg70
(lp1725
S'request_method'
p1726
asbag63
(g84
g65
NtRp1727
(dp1728
g68
(dp1729
g95
g96
ssg77
g1718
sg70
(lp1730
S':'
asbag63
(g84
g65
NtRp1731
(dp1732
g68
(dp1733
sg77
g1718
sg70
(lp1734
g63
(g64
g65
NtRp1735
(dp1736
g68
(dp1737
g76
I4
ssg77
g1731
sg70
(lp1738
S'GET'
p1739
asbasbasbag63
(g79
g65
NtRp1740
(dp1741
g68
(dp1742
sg77
g1276
sg70
(lp1743
g63
(g84
g65
NtRp1744
(dp1745
g68
(dp1746
g88
g89
ssg77
g1740
sg70
(lp1747
S'request_uri'
p1748
asbag63
(g84
g65
NtRp1749
(dp1750
g68
(dp1751
g95
g96
ssg77
g1740
sg70
(lp1752
S':'
asbag63
(g84
g65
NtRp1753
(dp1754
g68
(dp1755
sg77
g1740
sg70
(lp1756
g63
(g64
g65
NtRp1757
(dp1758
g68
(dp1759
g76
I4
ssg77
g1753
sg70
(lp1760
g1653
asbasbasbag63
(g79
g65
NtRp1761
(dp1762
g68
(dp1763
sg77
g1276
sg70
(lp1764
g63
(g84
g65
NtRp1765
(dp1766
g68
(dp1767
g88
g89
ssg77
g1761
sg70
(lp1768
S'script_name'
p1769
asbag63
(g84
g65
NtRp1770
(dp1771
g68
(dp1772
g95
g96
ssg77
g1761
sg70
(lp1773
S':'
asbag63
(g84
g65
NtRp1774
(dp1775
g68
(dp1776
sg77
g1761
sg70
(lp1777
g63
(g64
g65
NtRp1778
(dp1779
g68
(dp1780
g76
I4
ssg77
g1774
sg70
(lp1781
S''
asbasbasbag63
(g79
g65
NtRp1782
(dp1783
g68
(dp1784
sg77
g1276
sg70
(lp1785
g63
(g84
g65
NtRp1786
(dp1787
g68
(dp1788
g88
g89
ssg77
g1782
sg70
(lp1789
S'server_name'
p1790
asbag63
(g84
g65
NtRp1791
(dp1792
g68
(dp1793
g95
g96
ssg77
g1782
sg70
(lp1794
S':'
asbag63
(g84
g65
NtRp1795
(dp1796
g68
(dp1797
sg77
g1782
sg70
(lp1798
g63
(g64
g65
NtRp1799
(dp1800
g68
(dp1801
g76
I4
ssg77
g1795
sg70
(lp1802
S'mayank'
p1803
asbasbasbag63
(g79
g65
NtRp1804
(dp1805
g68
(dp1806
sg77
g1276
sg70
(lp1807
g63
(g84
g65
NtRp1808
(dp1809
g68
(dp1810
g88
g89
ssg77
g1804
sg70
(lp1811
S'server_port'
p1812
asbag63
(g84
g65
NtRp1813
(dp1814
g68
(dp1815
g95
g96
ssg77
g1804
sg70
(lp1816
S':'
asbag63
(g84
g65
NtRp1817
(dp1818
g68
(dp1819
sg77
g1804
sg70
(lp1820
g63
(g64
g65
NtRp1821
(dp1822
g68
(dp1823
g76
I4
ssg77
g1817
sg70
(lp1824
S'8000'
p1825
asbasbasbag63
(g79
g65
NtRp1826
(dp1827
g68
(dp1828
sg77
g1276
sg70
(lp1829
g63
(g84
g65
NtRp1830
(dp1831
g68
(dp1832
g88
g89
ssg77
g1826
sg70
(lp1833
S'server_protocol'
p1834
asbag63
(g84
g65
NtRp1835
(dp1836
g68
(dp1837
g95
g96
ssg77
g1826
sg70
(lp1838
S':'
asbag63
(g84
g65
NtRp1839
(dp1840
g68
(dp1841
sg77
g1826
sg70
(lp1842
g63
(g64
g65
NtRp1843
(dp1844
g68
(dp1845
g76
I4
ssg77
g1839
sg70
(lp1846
S'HTTP/1.1'
p1847
asbasbasbag63
(g79
g65
NtRp1848
(dp1849
g68
(dp1850
sg77
g1276
sg70
(lp1851
g63
(g84
g65
NtRp1852
(dp1853
g68
(dp1854
g88
g89
ssg77
g1848
sg70
(lp1855
S'server_software'
p1856
asbag63
(g84
g65
NtRp1857
(dp1858
g68
(dp1859
g95
g96
ssg77
g1848
sg70
(lp1860
S':'
asbag63
(g84
g65
NtRp1861
(dp1862
g68
(dp1863
sg77
g1848
sg70
(lp1864
g63
(g64
g65
NtRp1865
(dp1866
g68
(dp1867
g76
I4
ssg77
g1861
sg70
(lp1868
S'Rocket 1.2.4'
p1869
asbasbasbag63
(g79
g65
NtRp1870
(dp1871
g68
(dp1872
sg77
g1276
sg70
(lp1873
g63
(g84
g65
NtRp1874
(dp1875
g68
(dp1876
g88
g89
ssg77
g1870
sg70
(lp1877
S'web2py_crontype'
p1878
asbag63
(g84
g65
NtRp1879
(dp1880
g68
(dp1881
g95
g96
ssg77
g1870
sg70
(lp1882
S':'
asbag63
(g84
g65
NtRp1883
(dp1884
g68
(dp1885
sg77
g1870
sg70
(lp1886
g63
(g64
g65
NtRp1887
(dp1888
g68
(dp1889
g76
I4
ssg77
g1883
sg70
(lp1890
S'hard'
p1891
asbasbasbag63
(g79
g65
NtRp1892
(dp1893
g68
(dp1894
sg77
g1276
sg70
(lp1895
g63
(g84
g65
NtRp1896
(dp1897
g68
(dp1898
g88
g89
ssg77
g1892
sg70
(lp1899
S'web2py_path'
p1900
asbag63
(g84
g65
NtRp1901
(dp1902
g68
(dp1903
g95
g96
ssg77
g1892
sg70
(lp1904
S':'
asbag63
(g84
g65
NtRp1905
(dp1906
g68
(dp1907
sg77
g1892
sg70
(lp1908
g63
(g64
g65
NtRp1909
(dp1910
g68
(dp1911
g76
I4
ssg77
g1905
sg70
(lp1912
g1323
asbasbasbag63
(g79
g65
NtRp1913
(dp1914
g68
(dp1915
sg77
g1276
sg70
(lp1916
g63
(g84
g65
NtRp1917
(dp1918
g68
(dp1919
g88
g89
ssg77
g1913
sg70
(lp1920
S'web2py_version'
p1921
asbag63
(g84
g65
NtRp1922
(dp1923
g68
(dp1924
g95
g96
ssg77
g1913
sg70
(lp1925
S':'
asbag63
(g84
g65
NtRp1926
(dp1927
g68
(dp1928
sg77
g1913
sg70
(lp1929
g63
(g64
g65
NtRp1930
(dp1931
g68
(dp1932
g76
I4
ssg77
g1926
sg70
(lp1933
g63
(g72
g65
NtRp1934
(dp1935
g68
(dp1936
g76
I3
ssg77
Nsg70
(lp1937
g63
(g79
g65
NtRp1938
(dp1939
g68
(dp1940
sg77
g1934
sg70
(lp1941
g63
(g84
g65
NtRp1942
(dp1943
g68
(dp1944
sg77
g1938
sg70
(lp1945
g63
(g64
g65
NtRp1946
(dp1947
g68
(dp1948
g76
I3
ssg77
g1942
sg70
(lp1949
S'2'
asbasbasbag63
(g79
g65
NtRp1950
(dp1951
g68
(dp1952
sg77
g1934
sg70
(lp1953
g63
(g84
g65
NtRp1954
(dp1955
g68
(dp1956
sg77
g1950
sg70
(lp1957
g63
(g64
g65
NtRp1958
(dp1959
g68
(dp1960
g76
I3
ssg77
g1954
sg70
(lp1961
S'0'
asbasbasbag63
(g79
g65
NtRp1962
(dp1963
g68
(dp1964
sg77
g1934
sg70
(lp1965
g63
(g84
g65
NtRp1966
(dp1967
g68
(dp1968
sg77
g1962
sg70
(lp1969
g63
(g64
g65
NtRp1970
(dp1971
g68
(dp1972
g76
I3
ssg77
g1966
sg70
(lp1973
S'8'
asbasbasbag63
(g79
g65
NtRp1974
(dp1975
g68
(dp1976
sg77
g1934
sg70
(lp1977
g63
(g84
g65
NtRp1978
(dp1979
g68
(dp1980
sg77
g1974
sg70
(lp1981
g63
(g64
g65
NtRp1982
(dp1983
g68
(dp1984
g76
I3
ssg77
g1978
sg70
(lp1985
S'datetime.datetime(2012, 9, 7, 3, 47, 51)'
p1986
asbasbasbag63
(g79
g65
NtRp1987
(dp1988
g68
(dp1989
sg77
g1934
sg70
(lp1990
g63
(g84
g65
NtRp1991
(dp1992
g68
(dp1993
sg77
g1987
sg70
(lp1994
g63
(g64
g65
NtRp1995
(dp1996
g68
(dp1997
g76
I3
ssg77
g1991
sg70
(lp1998
S'stable'
p1999
asbasbasbasbasbasbasbag63
(g79
g65
NtRp2000
(dp2001
g68
(dp2002
sg77
g1276
sg70
(lp2003
g63
(g84
g65
NtRp2004
(dp2005
g68
(dp2006
g88
g89
ssg77
g2000
sg70
(lp2007
S'wsgi_errors'
p2008
asbag63
(g84
g65
NtRp2009
(dp2010
g68
(dp2011
g95
g96
ssg77
g2000
sg70
(lp2012
S':'
asbag63
(g84
g65
NtRp2013
(dp2014
g68
(dp2015
sg77
g2000
sg70
(lp2016
g63
(g64
g65
NtRp2017
(dp2018
g68
(dp2019
g76
I4
ssg77
g2013
sg70
(lp2020
S"<open file '<stderr>', mode 'w' at 0x7f5cb5883270>"
p2021
asbasbasbag63
(g79
g65
NtRp2022
(dp2023
g68
(dp2024
sg77
g1276
sg70
(lp2025
g63
(g84
g65
NtRp2026
(dp2027
g68
(dp2028
g88
g89
ssg77
g2022
sg70
(lp2029
S'wsgi_file_wrapper'
p2030
asbag63
(g84
g65
NtRp2031
(dp2032
g68
(dp2033
g95
g96
ssg77
g2022
sg70
(lp2034
S':'
asbag63
(g84
g65
NtRp2035
(dp2036
g68
(dp2037
sg77
g2022
sg70
(lp2038
g63
(g64
g65
NtRp2039
(dp2040
g68
(dp2041
g76
I4
ssg77
g2035
sg70
(lp2042
S'<class wsgiref.util.FileWrapper at 0x1fbc120>'
p2043
asbasbasbag63
(g79
g65
NtRp2044
(dp2045
g68
(dp2046
sg77
g1276
sg70
(lp2047
g63
(g84
g65
NtRp2048
(dp2049
g68
(dp2050
g88
g89
ssg77
g2044
sg70
(lp2051
S'wsgi_input'
p2052
asbag63
(g84
g65
NtRp2053
(dp2054
g68
(dp2055
g95
g96
ssg77
g2044
sg70
(lp2056
S':'
asbag63
(g84
g65
NtRp2057
(dp2058
g68
(dp2059
sg77
g2044
sg70
(lp2060
g63
(g64
g65
NtRp2061
(dp2062
g68
(dp2063
g76
I4
ssg77
g2057
sg70
(lp2064
S'<socket._fileobject object at 0x7f5c7452e550>'
p2065
asbasbasbag63
(g79
g65
NtRp2066
(dp2067
g68
(dp2068
sg77
g1276
sg70
(lp2069
g63
(g84
g65
NtRp2070
(dp2071
g68
(dp2072
g88
g89
ssg77
g2066
sg70
(lp2073
S'wsgi_multiprocess'
p2074
asbag63
(g84
g65
NtRp2075
(dp2076
g68
(dp2077
g95
g96
ssg77
g2066
sg70
(lp2078
S':'
asbag63
(g84
g65
NtRp2079
(dp2080
g68
(dp2081
sg77
g2066
sg70
(lp2082
g63
(g64
g65
NtRp2083
(dp2084
g68
(dp2085
g76
I4
ssg77
g2079
sg70
(lp2086
g106
asbasbasbag63
(g79
g65
NtRp2087
(dp2088
g68
(dp2089
sg77
g1276
sg70
(lp2090
g63
(g84
g65
NtRp2091
(dp2092
g68
(dp2093
g88
g89
ssg77
g2087
sg70
(lp2094
S'wsgi_multithread'
p2095
asbag63
(g84
g65
NtRp2096
(dp2097
g68
(dp2098
g95
g96
ssg77
g2087
sg70
(lp2099
S':'
asbag63
(g84
g65
NtRp2100
(dp2101
g68
(dp2102
sg77
g2087
sg70
(lp2103
g63
(g64
g65
NtRp2104
(dp2105
g68
(dp2106
g76
I4
ssg77
g2100
sg70
(lp2107
S'True'
p2108
asbasbasbag63
(g79
g65
NtRp2109
(dp2110
g68
(dp2111
sg77
g1276
sg70
(lp2112
g63
(g84
g65
NtRp2113
(dp2114
g68
(dp2115
g88
g89
ssg77
g2109
sg70
(lp2116
S'wsgi_run_once'
p2117
asbag63
(g84
g65
NtRp2118
(dp2119
g68
(dp2120
g95
g96
ssg77
g2109
sg70
(lp2121
S':'
asbag63
(g84
g65
NtRp2122
(dp2123
g68
(dp2124
sg77
g2109
sg70
(lp2125
g63
(g64
g65
NtRp2126
(dp2127
g68
(dp2128
g76
I4
ssg77
g2122
sg70
(lp2129
g106
asbasbasbag63
(g79
g65
NtRp2130
(dp2131
g68
(dp2132
sg77
g1276
sg70
(lp2133
g63
(g84
g65
NtRp2134
(dp2135
g68
(dp2136
g88
g89
ssg77
g2130
sg70
(lp2137
S'wsgi_url_scheme'
p2138
asbag63
(g84
g65
NtRp2139
(dp2140
g68
(dp2141
g95
g96
ssg77
g2130
sg70
(lp2142
S':'
asbag63
(g84
g65
NtRp2143
(dp2144
g68
(dp2145
sg77
g2130
sg70
(lp2146
g63
(g64
g65
NtRp2147
(dp2148
g68
(dp2149
g76
I4
ssg77
g2143
sg70
(lp2150
S'http'
p2151
asbasbasbag63
(g79
g65
NtRp2152
(dp2153
g68
(dp2154
sg77
g1276
sg70
(lp2155
g63
(g84
g65
NtRp2156
(dp2157
g68
(dp2158
g88
g89
ssg77
g2152
sg70
(lp2159
S'wsgi_version'
p2160
asbag63
(g84
g65
NtRp2161
(dp2162
g68
(dp2163
g95
g96
ssg77
g2152
sg70
(lp2164
S':'
asbag63
(g84
g65
NtRp2165
(dp2166
g68
(dp2167
sg77
g2152
sg70
(lp2168
g63
(g64
g65
NtRp2169
(dp2170
g68
(dp2171
g76
I4
ssg77
g2165
sg70
(lp2172
g63
(g72
g65
NtRp2173
(dp2174
g68
(dp2175
g76
I3
ssg77
Nsg70
(lp2176
g63
(g79
g65
NtRp2177
(dp2178
g68
(dp2179
sg77
g2173
sg70
(lp2180
g63
(g84
g65
NtRp2181
(dp2182
g68
(dp2183
sg77
g2177
sg70
(lp2184
g63
(g64
g65
NtRp2185
(dp2186
g68
(dp2187
g76
I3
ssg77
g2181
sg70
(lp2188
S'1'
asbasbasbag63
(g79
g65
NtRp2189
(dp2190
g68
(dp2191
sg77
g2173
sg70
(lp2192
g63
(g84
g65
NtRp2193
(dp2194
g68
(dp2195
sg77
g2189
sg70
(lp2196
g63
(g64
g65
NtRp2197
(dp2198
g68
(dp2199
g76
I3
ssg77
g2193
sg70
(lp2200
S'0'
asbasbasbasbasbasbasbasbasbasbasbag63
(g79
g65
NtRp2201
(dp2202
g68
(dp2203
sg77
g73
sg70
(lp2204
g63
(g84
g65
NtRp2205
(dp2206
g68
(dp2207
g88
g89
ssg77
g2201
sg70
(lp2208
S'extension'
p2209
asbag63
(g84
g65
NtRp2210
(dp2211
g68
(dp2212
g95
g96
ssg77
g2201
sg70
(lp2213
S':'
asbag63
(g84
g65
NtRp2214
(dp2215
g68
(dp2216
sg77
g2201
sg70
(lp2217
g63
(g64
g65
NtRp2218
(dp2219
g68
(dp2220
g76
I5
ssg77
g2214
sg70
(lp2221
S'html'
p2222
asbasbasbag63
(g79
g65
NtRp2223
(dp2224
g68
(dp2225
sg77
g73
sg70
(lp2226
g63
(g84
g65
NtRp2227
(dp2228
g68
(dp2229
g88
g89
ssg77
g2223
sg70
(lp2230
S'folder'
p2231
asbag63
(g84
g65
NtRp2232
(dp2233
g68
(dp2234
g95
g96
ssg77
g2223
sg70
(lp2235
S':'
asbag63
(g84
g65
NtRp2236
(dp2237
g68
(dp2238
sg77
g2223
sg70
(lp2239
g63
(g64
g65
NtRp2240
(dp2241
g68
(dp2242
g76
I5
ssg77
g2236
sg70
(lp2243
S'/home/mayank/IIIT/sem 3/SSAD&Project/web2py/applications/admin/'
p2244
asbasbasbag63
(g79
g65
NtRp2245
(dp2246
g68
(dp2247
sg77
g73
sg70
(lp2248
g63
(g84
g65
NtRp2249
(dp2250
g68
(dp2251
g88
g89
ssg77
g2245
sg70
(lp2252
S'function'
p2253
asbag63
(g84
g65
NtRp2254
(dp2255
g68
(dp2256
g95
g96
ssg77
g2245
sg70
(lp2257
S':'
asbag63
(g84
g65
NtRp2258
(dp2259
g68
(dp2260
sg77
g2245
sg70
(lp2261
g63
(g64
g65
NtRp2262
(dp2263
g68
(dp2264
g76
I5
ssg77
g2258
sg70
(lp2265
S'resolve'
p2266
asbasbasbag63
(g79
g65
NtRp2267
(dp2268
g68
(dp2269
sg77
g73
sg70
(lp2270
g63
(g84
g65
NtRp2271
(dp2272
g68
(dp2273
g88
g89
ssg77
g2267
sg70
(lp2274
S'get_vars'
p2275
asbag63
(g84
g65
NtRp2276
(dp2277
g68
(dp2278
g95
g96
ssg77
g2267
sg70
(lp2279
S':'
asbag63
(g84
g65
NtRp2280
(dp2281
g68
(dp2282
sg77
g2267
sg70
(lp2283
g63
(g64
g65
NtRp2284
(dp2285
g68
(dp2286
g76
I5
ssg77
g2280
sg70
(lp2287
g63
(g72
g65
NtRp2288
(dp2289
g68
(dp2290
g76
I4
ssg77
Nsg70
(lp2291
sbasbasbasbag63
(g79
g65
NtRp2292
(dp2293
g68
(dp2294
sg77
g73
sg70
(lp2295
g63
(g84
g65
NtRp2296
(dp2297
g68
(dp2298
g88
g89
ssg77
g2292
sg70
(lp2299
S'global_settings'
p2300
asbag63
(g84
g65
NtRp2301
(dp2302
g68
(dp2303
g95
g96
ssg77
g2292
sg70
(lp2304
S':'
asbag63
(g84
g65
NtRp2305
(dp2306
g68
(dp2307
sg77
g2292
sg70
(lp2308
g63
(g64
g65
NtRp2309
(dp2310
g68
(dp2311
g76
I5
ssg77
g2305
sg70
(lp2312
g63
(g72
g65
NtRp2313
(dp2314
g68
(dp2315
g76
I4
ssg77
Nsg70
(lp2316
g63
(g79
g65
NtRp2317
(dp2318
g68
(dp2319
sg77
g2313
sg70
(lp2320
g63
(g84
g65
NtRp2321
(dp2322
g68
(dp2323
g88
g89
ssg77
g2317
sg70
(lp2324
g1288
asbag63
(g84
g65
NtRp2325
(dp2326
g68
(dp2327
g95
g96
ssg77
g2317
sg70
(lp2328
S':'
asbag63
(g84
g65
NtRp2329
(dp2330
g68
(dp2331
sg77
g2317
sg70
(lp2332
g63
(g64
g65
NtRp2333
(dp2334
g68
(dp2335
g76
I4
ssg77
g2329
sg70
(lp2336
S"set(['/home/mayank/IIIT/sem 3/SSAD&Project/web2py/applications/taship1/', '/home/mayank/IIIT/sem 3/SSAD&Project/web2py/applications/admin/', '/home/mayank/IIIT/sem 3/SSAD&Project/web2py/applications/welcome/'])"
p2337
asbasbasbag63
(g79
g65
NtRp2338
(dp2339
g68
(dp2340
sg77
g2313
sg70
(lp2341
g63
(g84
g65
NtRp2342
(dp2343
g68
(dp2344
g88
g89
ssg77
g2338
sg70
(lp2345
g1310
asbag63
(g84
g65
NtRp2346
(dp2347
g68
(dp2348
g95
g96
ssg77
g2338
sg70
(lp2349
S':'
asbag63
(g84
g65
NtRp2350
(dp2351
g68
(dp2352
sg77
g2338
sg70
(lp2353
g63
(g64
g65
NtRp2354
(dp2355
g68
(dp2356
g76
I4
ssg77
g2350
sg70
(lp2357
g1323
asbasbasbag63
(g79
g65
NtRp2358
(dp2359
g68
(dp2360
sg77
g2313
sg70
(lp2361
g63
(g84
g65
NtRp2362
(dp2363
g68
(dp2364
g88
g89
ssg77
g2358
sg70
(lp2365
g1332
asbag63
(g84
g65
NtRp2366
(dp2367
g68
(dp2368
g95
g96
ssg77
g2358
sg70
(lp2369
S':'
asbag63
(g84
g65
NtRp2370
(dp2371
g68
(dp2372
sg77
g2358
sg70
(lp2373
g63
(g64
g65
NtRp2374
(dp2375
g68
(dp2376
g76
I4
ssg77
g2370
sg70
(lp2377
g63
(g72
g65
NtRp2378
(dp2379
g68
(dp2380
g76
I3
ssg77
Nsg70
(lp2381
sbasbasbasbag63
(g79
g65
NtRp2382
(dp2383
g68
(dp2384
sg77
g2313
sg70
(lp2385
g63
(g84
g65
NtRp2386
(dp2387
g68
(dp2388
g88
g89
ssg77
g2382
sg70
(lp2389
g1357
asbag63
(g84
g65
NtRp2390
(dp2391
g68
(dp2392
g95
g96
ssg77
g2382
sg70
(lp2393
S':'
asbag63
(g84
g65
NtRp2394
(dp2395
g68
(dp2396
sg77
g2382
sg70
(lp2397
g63
(g64
g65
NtRp2398
(dp2399
g68
(dp2400
g76
I4
ssg77
g2394
sg70
(lp2401
S"<Values at 0x202e320: {'verbose': False, 'ip': '127.0.0.1', 'with_scheduler': False, 'ips': ['127.0.1.1'], 'shutdown_timeout': 5, 'taskbar': False, 'port': 8000, 'maxthreads': None, 'softcron': False, 'server_name': 'mayank', 'bpython': False, 'nogui': False, 'nocron': False, 'extcron': False, 'run_system_tests': False, 'test': None, 'folder': '/home/mayank/IIIT/sem 3/SSAD&Project/web2py', 'config': '', 'import_models': False, 'winservice': '', 'shell': None, 'run': '', 'log_filename': 'httpserver.log', 'debuglevel': 30, 'args': [''], 'socket_timeout': 5, 'ssl_ca_certificate': None, 'scheduler': None, 'profiler_filename': None, 'ssl_private_key': '', 'scheduler_groups': None, 'password': '<ask>', 'request_queue_size': 5, 'ssl_certificate': '', 'cronjob': False, 'numthreads': None, 'quiet': False, 'interfaces': None, 'minthreads': None, 'timeout': 10, 'plain': False, 'nobanner': False, 'pid_filename': 'httpserver.pid'}>"
p2402
asbasbasbag63
(g79
g65
NtRp2403
(dp2404
g68
(dp2405
sg77
g2313
sg70
(lp2406
g63
(g84
g65
NtRp2407
(dp2408
g68
(dp2409
g88
g89
ssg77
g2403
sg70
(lp2410
g1379
asbag63
(g84
g65
NtRp2411
(dp2412
g68
(dp2413
g95
g96
ssg77
g2403
sg70
(lp2414
S':'
asbag63
(g84
g65
NtRp2415
(dp2416
g68
(dp2417
sg77
g2403
sg70
(lp2418
g63
(g64
g65
NtRp2419
(dp2420
g68
(dp2421
g76
I4
ssg77
g2415
sg70
(lp2422
S'set([])'
p2423
asbasbasbag63
(g79
g65
NtRp2424
(dp2425
g68
(dp2426
sg77
g2313
sg70
(lp2427
g63
(g84
g65
NtRp2428
(dp2429
g68
(dp2430
g88
g89
ssg77
g2424
sg70
(lp2431
g1401
asbag63
(g84
g65
NtRp2432
(dp2433
g68
(dp2434
g95
g96
ssg77
g2424
sg70
(lp2435
S':'
asbag63
(g84
g65
NtRp2436
(dp2437
g68
(dp2438
sg77
g2424
sg70
(lp2439
g63
(g64
g65
NtRp2440
(dp2441
g68
(dp2442
g76
I4
ssg77
g2436
sg70
(lp2443
g106
asbasbasbag63
(g79
g65
NtRp2444
(dp2445
g68
(dp2446
sg77
g2313
sg70
(lp2447
g63
(g84
g65
NtRp2448
(dp2449
g68
(dp2450
g88
g89
ssg77
g2444
sg70
(lp2451
g1422
asbag63
(g84
g65
NtRp2452
(dp2453
g68
(dp2454
g95
g96
ssg77
g2444
sg70
(lp2455
S':'
asbag63
(g84
g65
NtRp2456
(dp2457
g68
(dp2458
sg77
g2444
sg70
(lp2459
g63
(g64
g65
NtRp2460
(dp2461
g68
(dp2462
g76
I4
ssg77
g2456
sg70
(lp2463
g1435
asbasbasbag63
(g79
g65
NtRp2464
(dp2465
g68
(dp2466
sg77
g2313
sg70
(lp2467
g63
(g84
g65
NtRp2468
(dp2469
g68
(dp2470
g88
g89
ssg77
g2464
sg70
(lp2471
g1598
asbag63
(g84
g65
NtRp2472
(dp2473
g68
(dp2474
g95
g96
ssg77
g2464
sg70
(lp2475
S':'
asbag63
(g84
g65
NtRp2476
(dp2477
g68
(dp2478
sg77
g2464
sg70
(lp2479
g63
(g64
g65
NtRp2480
(dp2481
g68
(dp2482
g76
I4
ssg77
g2476
sg70
(lp2483
g106
asbasbasbag63
(g79
g65
NtRp2484
(dp2485
g68
(dp2486
sg77
g2313
sg70
(lp2487
g63
(g84
g65
NtRp2488
(dp2489
g68
(dp2490
g88
g89
ssg77
g2484
sg70
(lp2491
g1619
asbag63
(g84
g65
NtRp2492
(dp2493
g68
(dp2494
g95
g96
ssg77
g2484
sg70
(lp2495
S':'
asbag63
(g84
g65
NtRp2496
(dp2497
g68
(dp2498
sg77
g2484
sg70
(lp2499
g63
(g64
g65
NtRp2500
(dp2501
g68
(dp2502
g76
I4
ssg77
g2496
sg70
(lp2503
g106
asbasbasbag63
(g79
g65
NtRp2504
(dp2505
g68
(dp2506
sg77
g2313
sg70
(lp2507
g63
(g84
g65
NtRp2508
(dp2509
g68
(dp2510
g88
g89
ssg77
g2504
sg70
(lp2511
g1878
asbag63
(g84
g65
NtRp2512
(dp2513
g68
(dp2514
g95
g96
ssg77
g2504
sg70
(lp2515
S':'
asbag63
(g84
g65
NtRp2516
(dp2517
g68
(dp2518
sg77
g2504
sg70
(lp2519
g63
(g64
g65
NtRp2520
(dp2521
g68
(dp2522
g76
I4
ssg77
g2516
sg70
(lp2523
g1891
asbasbasbag63
(g79
g65
NtRp2524
(dp2525
g68
(dp2526
sg77
g2313
sg70
(lp2527
g63
(g84
g65
NtRp2528
(dp2529
g68
(dp2530
g88
g89
ssg77
g2524
sg70
(lp2531
g1921
asbag63
(g84
g65
NtRp2532
(dp2533
g68
(dp2534
g95
g96
ssg77
g2524
sg70
(lp2535
S':'
asbag63
(g84
g65
NtRp2536
(dp2537
g68
(dp2538
sg77
g2524
sg70
(lp2539
g63
(g64
g65
NtRp2540
(dp2541
g68
(dp2542
g76
I4
ssg77
g2536
sg70
(lp2543
g63
(g72
g65
NtRp2544
(dp2545
g68
(dp2546
g76
I3
ssg77
Nsg70
(lp2547
g63
(g79
g65
NtRp2548
(dp2549
g68
(dp2550
sg77
g2544
sg70
(lp2551
g63
(g84
g65
NtRp2552
(dp2553
g68
(dp2554
sg77
g2548
sg70
(lp2555
g63
(g64
g65
NtRp2556
(dp2557
g68
(dp2558
g76
I3
ssg77
g2552
sg70
(lp2559
S'2'
asbasbasbag63
(g79
g65
NtRp2560
(dp2561
g68
(dp2562
sg77
g2544
sg70
(lp2563
g63
(g84
g65
NtRp2564
(dp2565
g68
(dp2566
sg77
g2560
sg70
(lp2567
g63
(g64
g65
NtRp2568
(dp2569
g68
(dp2570
g76
I3
ssg77
g2564
sg70
(lp2571
S'0'
asbasbasbag63
(g79
g65
NtRp2572
(dp2573
g68
(dp2574
sg77
g2544
sg70
(lp2575
g63
(g84
g65
NtRp2576
(dp2577
g68
(dp2578
sg77
g2572
sg70
(lp2579
g63
(g64
g65
NtRp2580
(dp2581
g68
(dp2582
g76
I3
ssg77
g2576
sg70
(lp2583
S'8'
asbasbasbag63
(g79
g65
NtRp2584
(dp2585
g68
(dp2586
sg77
g2544
sg70
(lp2587
g63
(g84
g65
NtRp2588
(dp2589
g68
(dp2590
sg77
g2584
sg70
(lp2591
g63
(g64
g65
NtRp2592
(dp2593
g68
(dp2594
g76
I3
ssg77
g2588
sg70
(lp2595
S'datetime.datetime(2012, 9, 7, 3, 47, 51)'
p2596
asbasbasbag63
(g79
g65
NtRp2597
(dp2598
g68
(dp2599
sg77
g2544
sg70
(lp2600
g63
(g84
g65
NtRp2601
(dp2602
g68
(dp2603
sg77
g2597
sg70
(lp2604
g63
(g64
g65
NtRp2605
(dp2606
g68
(dp2607
g76
I3
ssg77
g2601
sg70
(lp2608
g1999
asbasbasbasbasbasbasbasbasbasbasbag63
(g79
g65
NtRp2609
(dp2610
g68
(dp2611
sg77
g73
sg70
(lp2612
g63
(g84
g65
NtRp2613
(dp2614
g68
(dp2615
g88
g89
ssg77
g2609
sg70
(lp2616
S'is_https'
p2617
asbag63
(g84
g65
NtRp2618
(dp2619
g68
(dp2620
g95
g96
ssg77
g2609
sg70
(lp2621
S':'
asbag63
(g84
g65
NtRp2622
(dp2623
g68
(dp2624
sg77
g2609
sg70
(lp2625
g63
(g64
g65
NtRp2626
(dp2627
g68
(dp2628
g76
I5
ssg77
g2622
sg70
(lp2629
g106
asbasbasbag63
(g79
g65
NtRp2630
(dp2631
g68
(dp2632
sg77
g73
sg70
(lp2633
g63
(g84
g65
NtRp2634
(dp2635
g68
(dp2636
g88
g89
ssg77
g2630
sg70
(lp2637
S'is_local'
p2638
asbag63
(g84
g65
NtRp2639
(dp2640
g68
(dp2641
g95
g96
ssg77
g2630
sg70
(lp2642
S':'
asbag63
(g84
g65
NtRp2643
(dp2644
g68
(dp2645
sg77
g2630
sg70
(lp2646
g63
(g64
g65
NtRp2647
(dp2648
g68
(dp2649
g76
I5
ssg77
g2643
sg70
(lp2650
g2108
asbasbasbag63
(g79
g65
NtRp2651
(dp2652
g68
(dp2653
sg77
g73
sg70
(lp2654
g63
(g84
g65
NtRp2655
(dp2656
g68
(dp2657
g88
g89
ssg77
g2651
sg70
(lp2658
S'is_restful'
p2659
asbag63
(g84
g65
NtRp2660
(dp2661
g68
(dp2662
g95
g96
ssg77
g2651
sg70
(lp2663
S':'
asbag63
(g84
g65
NtRp2664
(dp2665
g68
(dp2666
sg77
g2651
sg70
(lp2667
g63
(g64
g65
NtRp2668
(dp2669
g68
(dp2670
g76
I5
ssg77
g2664
sg70
(lp2671
g106
asbasbasbag63
(g79
g65
NtRp2672
(dp2673
g68
(dp2674
sg77
g73
sg70
(lp2675
g63
(g84
g65
NtRp2676
(dp2677
g68
(dp2678
g88
g89
ssg77
g2672
sg70
(lp2679
S'now'
p2680
asbag63
(g84
g65
NtRp2681
(dp2682
g68
(dp2683
g95
g96
ssg77
g2672
sg70
(lp2684
S':'
asbag63
(g84
g65
NtRp2685
(dp2686
g68
(dp2687
sg77
g2672
sg70
(lp2688
g63
(g64
g65
NtRp2689
(dp2690
g68
(dp2691
g76
I5
ssg77
g2685
sg70
(lp2692
S'datetime.datetime(2012, 10, 14, 9, 6, 35, 974244)'
p2693
asbasbasbag63
(g79
g65
NtRp2694
(dp2695
g68
(dp2696
sg77
g73
sg70
(lp2697
g63
(g84
g65
NtRp2698
(dp2699
g68
(dp2700
g88
g89
ssg77
g2694
sg70
(lp2701
S'post_vars'
p2702
asbag63
(g84
g65
NtRp2703
(dp2704
g68
(dp2705
g95
g96
ssg77
g2694
sg70
(lp2706
S':'
asbag63
(g84
g65
NtRp2707
(dp2708
g68
(dp2709
sg77
g2694
sg70
(lp2710
g63
(g64
g65
NtRp2711
(dp2712
g68
(dp2713
g76
I5
ssg77
g2707
sg70
(lp2714
g63
(g72
g65
NtRp2715
(dp2716
g68
(dp2717
g76
I4
ssg77
Nsg70
(lp2718
sbasbasbasbag63
(g79
g65
NtRp2719
(dp2720
g68
(dp2721
sg77
g73
sg70
(lp2722
g63
(g84
g65
NtRp2723
(dp2724
g68
(dp2725
g88
g89
ssg77
g2719
sg70
(lp2726
S'raw_args'
p2727
asbag63
(g84
g65
NtRp2728
(dp2729
g68
(dp2730
g95
g96
ssg77
g2719
sg70
(lp2731
S':'
asbag63
(g84
g65
NtRp2732
(dp2733
g68
(dp2734
sg77
g2719
sg70
(lp2735
g63
(g64
g65
NtRp2736
(dp2737
g68
(dp2738
g76
I5
ssg77
g2732
sg70
(lp2739
S'taship1/views/default//'
p2740
asbasbasbag63
(g79
g65
NtRp2741
(dp2742
g68
(dp2743
sg77
g73
sg70
(lp2744
g63
(g84
g65
NtRp2745
(dp2746
g68
(dp2747
g88
g89
ssg77
g2741
sg70
(lp2748
S'raw_extension'
p2749
asbag63
(g84
g65
NtRp2750
(dp2751
g68
(dp2752
g95
g96
ssg77
g2741
sg70
(lp2753
S':'
asbag63
(g84
g65
NtRp2754
(dp2755
g68
(dp2756
sg77
g2741
sg70
(lp2757
g63
(g64
g65
NtRp2758
(dp2759
g68
(dp2760
g76
I5
ssg77
g2754
sg70
(lp2761
S'None'
p2762
asbasbasbag63
(g79
g65
NtRp2763
(dp2764
g68
(dp2765
sg77
g73
sg70
(lp2766
g63
(g84
g65
NtRp2767
(dp2768
g68
(dp2769
g88
g89
ssg77
g2763
sg70
(lp2770
S'url'
p2771
asbag63
(g84
g65
NtRp2772
(dp2773
g68
(dp2774
g95
g96
ssg77
g2763
sg70
(lp2775
S':'
asbag63
(g84
g65
NtRp2776
(dp2777
g68
(dp2778
sg77
g2763
sg70
(lp2779
g63
(g64
g65
NtRp2780
(dp2781
g68
(dp2782
g76
I5
ssg77
g2776
sg70
(lp2783
g1653
asbasbasbag63
(g79
g65
NtRp2784
(dp2785
g68
(dp2786
sg77
g73
sg70
(lp2787
g63
(g84
g65
NtRp2788
(dp2789
g68
(dp2790
g88
g89
ssg77
g2784
sg70
(lp2791
S'utcnow'
p2792
asbag63
(g84
g65
NtRp2793
(dp2794
g68
(dp2795
g95
g96
ssg77
g2784
sg70
(lp2796
S':'
asbag63
(g84
g65
NtRp2797
(dp2798
g68
(dp2799
sg77
g2784
sg70
(lp2800
g63
(g64
g65
NtRp2801
(dp2802
g68
(dp2803
g76
I5
ssg77
g2797
sg70
(lp2804
S'datetime.datetime(2012, 10, 14, 3, 36, 35, 974284)'
p2805
asbasbasbag63
(g79
g65
NtRp2806
(dp2807
g68
(dp2808
sg77
g73
sg70
(lp2809
g63
(g84
g65
NtRp2810
(dp2811
g68
(dp2812
g88
g89
ssg77
g2806
sg70
(lp2813
S'uuid'
p2814
asbag63
(g84
g65
NtRp2815
(dp2816
g68
(dp2817
g95
g96
ssg77
g2806
sg70
(lp2818
S':'
asbag63
(g84
g65
NtRp2819
(dp2820
g68
(dp2821
sg77
g2806
sg70
(lp2822
g63
(g64
g65
NtRp2823
(dp2824
g68
(dp2825
g76
I5
ssg77
g2819
sg70
(lp2826
S'admin/127.0.0.1.2012-10-14.09-06-35.77af5af9-5153-4064-a81a-2a09753ec11b'
p2827
asbasbasbag63
(g79
g65
NtRp2828
(dp2829
g68
(dp2830
sg77
g73
sg70
(lp2831
g63
(g84
g65
NtRp2832
(dp2833
g68
(dp2834
g88
g89
ssg77
g2828
sg70
(lp2835
S'vars'
p2836
asbag63
(g84
g65
NtRp2837
(dp2838
g68
(dp2839
g95
g96
ssg77
g2828
sg70
(lp2840
S':'
asbag63
(g84
g65
NtRp2841
(dp2842
g68
(dp2843
sg77
g2828
sg70
(lp2844
g63
(g64
g65
NtRp2845
(dp2846
g68
(dp2847
g76
I5
ssg77
g2841
sg70
(lp2848
g63
(g72
g65
NtRp2849
(dp2850
g68
(dp2851
g76
I4
ssg77
Nsg70
(lp2852
sbasbasbasbag63
(g79
g65
NtRp2853
(dp2854
g68
(dp2855
sg77
g73
sg70
(lp2856
g63
(g84
g65
NtRp2857
(dp2858
g68
(dp2859
g88
g89
ssg77
g2853
sg70
(lp2860
S'wsgi'
p2861
asbag63
(g84
g65
NtRp2862
(dp2863
g68
(dp2864
g95
g96
ssg77
g2853
sg70
(lp2865
S':'
asbag63
(g84
g65
NtRp2866
(dp2867
g68
(dp2868
sg77
g2853
sg70
(lp2869
g63
(g64
g65
NtRp2870
(dp2871
g68
(dp2872
g76
I5
ssg77
g2866
sg70
(lp2873
g63
(g72
g65
NtRp2874
(dp2875
g68
(dp2876
g76
I4
ssg77
Nsg70
(lp2877
g63
(g79
g65
NtRp2878
(dp2879
g68
(dp2880
sg77
g2874
sg70
(lp2881
g63
(g84
g65
NtRp2882
(dp2883
g68
(dp2884
g88
g89
ssg77
g2878
sg70
(lp2885
S'environ'
p2886
asbag63
(g84
g65
NtRp2887
(dp2888
g68
(dp2889
g95
g96
ssg77
g2878
sg70
(lp2890
S':'
asbag63
(g84
g65
NtRp2891
(dp2892
g68
(dp2893
sg77
g2878
sg70
(lp2894
g63
(g64
g65
NtRp2895
(dp2896
g68
(dp2897
g76
I4
ssg77
g2891
sg70
(lp2898
g63
(g72
g65
NtRp2899
(dp2900
g68
(dp2901
g76
I3
ssg77
Nsg70
(lp2902
g63
(g79
g65
NtRp2903
(dp2904
g68
(dp2905
sg77
g2899
sg70
(lp2906
g63
(g84
g65
NtRp2907
(dp2908
g68
(dp2909
g88
g89
ssg77
g2903
sg70
(lp2910
S'HTTP_ACCEPT'
p2911
asbag63
(g84
g65
NtRp2912
(dp2913
g68
(dp2914
g95
g96
ssg77
g2903
sg70
(lp2915
S':'
asbag63
(g84
g65
NtRp2916
(dp2917
g68
(dp2918
sg77
g2903
sg70
(lp2919
g63
(g64
g65
NtRp2920
(dp2921
g68
(dp2922
g76
I3
ssg77
g2916
sg70
(lp2923
g1457
asbasbasbag63
(g79
g65
NtRp2924
(dp2925
g68
(dp2926
sg77
g2899
sg70
(lp2927
g63
(g84
g65
NtRp2928
(dp2929
g68
(dp2930
g88
g89
ssg77
g2924
sg70
(lp2931
S'HTTP_ACCEPT_ENCODING'
p2932
asbag63
(g84
g65
NtRp2933
(dp2934
g68
(dp2935
g95
g96
ssg77
g2924
sg70
(lp2936
S':'
asbag63
(g84
g65
NtRp2937
(dp2938
g68
(dp2939
sg77
g2924
sg70
(lp2940
g63
(g64
g65
NtRp2941
(dp2942
g68
(dp2943
g76
I3
ssg77
g2937
sg70
(lp2944
g1479
asbasbasbag63
(g79
g65
NtRp2945
(dp2946
g68
(dp2947
sg77
g2899
sg70
(lp2948
g63
(g84
g65
NtRp2949
(dp2950
g68
(dp2951
g88
g89
ssg77
g2945
sg70
(lp2952
S'HTTP_ACCEPT_LANGUAGE'
p2953
asbag63
(g84
g65
NtRp2954
(dp2955
g68
(dp2956
g95
g96
ssg77
g2945
sg70
(lp2957
S':'
asbag63
(g84
g65
NtRp2958
(dp2959
g68
(dp2960
sg77
g2945
sg70
(lp2961
g63
(g64
g65
NtRp2962
(dp2963
g68
(dp2964
g76
I3
ssg77
g2958
sg70
(lp2965
g1501
asbasbasbag63
(g79
g65
NtRp2966
(dp2967
g68
(dp2968
sg77
g2899
sg70
(lp2969
g63
(g84
g65
NtRp2970
(dp2971
g68
(dp2972
g88
g89
ssg77
g2966
sg70
(lp2973
S'HTTP_CONNECTION'
p2974
asbag63
(g84
g65
NtRp2975
(dp2976
g68
(dp2977
g95
g96
ssg77
g2966
sg70
(lp2978
S':'
asbag63
(g84
g65
NtRp2979
(dp2980
g68
(dp2981
sg77
g2966
sg70
(lp2982
g63
(g64
g65
NtRp2983
(dp2984
g68
(dp2985
g76
I3
ssg77
g2979
sg70
(lp2986
g1523
asbasbasbag63
(g79
g65
NtRp2987
(dp2988
g68
(dp2989
sg77
g2899
sg70
(lp2990
g63
(g84
g65
NtRp2991
(dp2992
g68
(dp2993
g88
g89
ssg77
g2987
sg70
(lp2994
S'HTTP_COOKIE'
p2995
asbag63
(g84
g65
NtRp2996
(dp2997
g68
(dp2998
g95
g96
ssg77
g2987
sg70
(lp2999
S':'
asbag63
(g84
g65
NtRp3000
(dp3001
g68
(dp3002
sg77
g2987
sg70
(lp3003
g63
(g64
g65
NtRp3004
(dp3005
g68
(dp3006
g76
I3
ssg77
g3000
sg70
(lp3007
g1545
asbasbasbag63
(g79
g65
NtRp3008
(dp3009
g68
(dp3010
sg77
g2899
sg70
(lp3011
g63
(g84
g65
NtRp3012
(dp3013
g68
(dp3014
g88
g89
ssg77
g3008
sg70
(lp3015
S'HTTP_HOST'
p3016
asbag63
(g84
g65
NtRp3017
(dp3018
g68
(dp3019
g95
g96
ssg77
g3008
sg70
(lp3020
S':'
asbag63
(g84
g65
NtRp3021
(dp3022
g68
(dp3023
sg77
g3008
sg70
(lp3024
g63
(g64
g65
NtRp3025
(dp3026
g68
(dp3027
g76
I3
ssg77
g3021
sg70
(lp3028
g1567
asbasbasbag63
(g79
g65
NtRp3029
(dp3030
g68
(dp3031
sg77
g2899
sg70
(lp3032
g63
(g84
g65
NtRp3033
(dp3034
g68
(dp3035
g88
g89
ssg77
g3029
sg70
(lp3036
S'HTTP_USER_AGENT'
p3037
asbag63
(g84
g65
NtRp3038
(dp3039
g68
(dp3040
g95
g96
ssg77
g3029
sg70
(lp3041
S':'
asbag63
(g84
g65
NtRp3042
(dp3043
g68
(dp3044
sg77
g3029
sg70
(lp3045
g63
(g64
g65
NtRp3046
(dp3047
g68
(dp3048
g76
I3
ssg77
g3042
sg70
(lp3049
g1589
asbasbasbag63
(g79
g65
NtRp3050
(dp3051
g68
(dp3052
sg77
g2899
sg70
(lp3053
g63
(g84
g65
NtRp3054
(dp3055
g68
(dp3056
g88
g89
ssg77
g3050
sg70
(lp3057
S'PATH_INFO'
p3058
asbag63
(g84
g65
NtRp3059
(dp3060
g68
(dp3061
g95
g96
ssg77
g3050
sg70
(lp3062
S':'
asbag63
(g84
g65
NtRp3063
(dp3064
g68
(dp3065
sg77
g3050
sg70
(lp3066
g63
(g64
g65
NtRp3067
(dp3068
g68
(dp3069
g76
I3
ssg77
g3063
sg70
(lp3070
g1653
asbasbasbag63
(g79
g65
NtRp3071
(dp3072
g68
(dp3073
sg77
g2899
sg70
(lp3074
g63
(g84
g65
NtRp3075
(dp3076
g68
(dp3077
g88
g89
ssg77
g3071
sg70
(lp3078
S'QUERY_STRING'
p3079
asbag63
(g84
g65
NtRp3080
(dp3081
g68
(dp3082
g95
g96
ssg77
g3071
sg70
(lp3083
S':'
asbag63
(g84
g65
NtRp3084
(dp3085
g68
(dp3086
sg77
g3071
sg70
(lp3087
g63
(g64
g65
NtRp3088
(dp3089
g68
(dp3090
g76
I3
ssg77
g3084
sg70
(lp3091
S''
asbasbasbag63
(g79
g65
NtRp3092
(dp3093
g68
(dp3094
sg77
g2899
sg70
(lp3095
g63
(g84
g65
NtRp3096
(dp3097
g68
(dp3098
g88
g89
ssg77
g3092
sg70
(lp3099
S'REMOTE_ADDR'
p3100
asbag63
(g84
g65
NtRp3101
(dp3102
g68
(dp3103
g95
g96
ssg77
g3092
sg70
(lp3104
S':'
asbag63
(g84
g65
NtRp3105
(dp3106
g68
(dp3107
sg77
g3092
sg70
(lp3108
g63
(g64
g65
NtRp3109
(dp3110
g68
(dp3111
g76
I3
ssg77
g3105
sg70
(lp3112
g269
asbasbasbag63
(g79
g65
NtRp3113
(dp3114
g68
(dp3115
sg77
g2899
sg70
(lp3116
g63
(g84
g65
NtRp3117
(dp3118
g68
(dp3119
g88
g89
ssg77
g3113
sg70
(lp3120
S'REMOTE_PORT'
p3121
asbag63
(g84
g65
NtRp3122
(dp3123
g68
(dp3124
g95
g96
ssg77
g3113
sg70
(lp3125
S':'
asbag63
(g84
g65
NtRp3126
(dp3127
g68
(dp3128
sg77
g3113
sg70
(lp3129
g63
(g64
g65
NtRp3130
(dp3131
g68
(dp3132
g76
I3
ssg77
g3126
sg70
(lp3133
g1717
asbasbasbag63
(g79
g65
NtRp3134
(dp3135
g68
(dp3136
sg77
g2899
sg70
(lp3137
g63
(g84
g65
NtRp3138
(dp3139
g68
(dp3140
g88
g89
ssg77
g3134
sg70
(lp3141
S'REQUEST_METHOD'
p3142
asbag63
(g84
g65
NtRp3143
(dp3144
g68
(dp3145
g95
g96
ssg77
g3134
sg70
(lp3146
S':'
asbag63
(g84
g65
NtRp3147
(dp3148
g68
(dp3149
sg77
g3134
sg70
(lp3150
g63
(g64
g65
NtRp3151
(dp3152
g68
(dp3153
g76
I3
ssg77
g3147
sg70
(lp3154
g1739
asbasbasbag63
(g79
g65
NtRp3155
(dp3156
g68
(dp3157
sg77
g2899
sg70
(lp3158
g63
(g84
g65
NtRp3159
(dp3160
g68
(dp3161
g88
g89
ssg77
g3155
sg70
(lp3162
S'REQUEST_URI'
p3163
asbag63
(g84
g65
NtRp3164
(dp3165
g68
(dp3166
g95
g96
ssg77
g3155
sg70
(lp3167
S':'
asbag63
(g84
g65
NtRp3168
(dp3169
g68
(dp3170
sg77
g3155
sg70
(lp3171
g63
(g64
g65
NtRp3172
(dp3173
g68
(dp3174
g76
I3
ssg77
g3168
sg70
(lp3175
g1653
asbasbasbag63
(g79
g65
NtRp3176
(dp3177
g68
(dp3178
sg77
g2899
sg70
(lp3179
g63
(g84
g65
NtRp3180
(dp3181
g68
(dp3182
g88
g89
ssg77
g3176
sg70
(lp3183
S'SCRIPT_NAME'
p3184
asbag63
(g84
g65
NtRp3185
(dp3186
g68
(dp3187
g95
g96
ssg77
g3176
sg70
(lp3188
S':'
asbag63
(g84
g65
NtRp3189
(dp3190
g68
(dp3191
sg77
g3176
sg70
(lp3192
g63
(g64
g65
NtRp3193
(dp3194
g68
(dp3195
g76
I3
ssg77
g3189
sg70
(lp3196
S''
asbasbasbag63
(g79
g65
NtRp3197
(dp3198
g68
(dp3199
sg77
g2899
sg70
(lp3200
g63
(g84
g65
NtRp3201
(dp3202
g68
(dp3203
g88
g89
ssg77
g3197
sg70
(lp3204
S'SERVER_NAME'
p3205
asbag63
(g84
g65
NtRp3206
(dp3207
g68
(dp3208
g95
g96
ssg77
g3197
sg70
(lp3209
S':'
asbag63
(g84
g65
NtRp3210
(dp3211
g68
(dp3212
sg77
g3197
sg70
(lp3213
g63
(g64
g65
NtRp3214
(dp3215
g68
(dp3216
g76
I3
ssg77
g3210
sg70
(lp3217
g1803
asbasbasbag63
(g79
g65
NtRp3218
(dp3219
g68
(dp3220
sg77
g2899
sg70
(lp3221
g63
(g84
g65
NtRp3222
(dp3223
g68
(dp3224
g88
g89
ssg77
g3218
sg70
(lp3225
S'SERVER_PORT'
p3226
asbag63
(g84
g65
NtRp3227
(dp3228
g68
(dp3229
g95
g96
ssg77
g3218
sg70
(lp3230
S':'
asbag63
(g84
g65
NtRp3231
(dp3232
g68
(dp3233
sg77
g3218
sg70
(lp3234
g63
(g64
g65
NtRp3235
(dp3236
g68
(dp3237
g76
I3
ssg77
g3231
sg70
(lp3238
g1825
asbasbasbag63
(g79
g65
NtRp3239
(dp3240
g68
(dp3241
sg77
g2899
sg70
(lp3242
g63
(g84
g65
NtRp3243
(dp3244
g68
(dp3245
g88
g89
ssg77
g3239
sg70
(lp3246
S'SERVER_PROTOCOL'
p3247
asbag63
(g84
g65
NtRp3248
(dp3249
g68
(dp3250
g95
g96
ssg77
g3239
sg70
(lp3251
S':'
asbag63
(g84
g65
NtRp3252
(dp3253
g68
(dp3254
sg77
g3239
sg70
(lp3255
g63
(g64
g65
NtRp3256
(dp3257
g68
(dp3258
g76
I3
ssg77
g3252
sg70
(lp3259
g1847
asbasbasbag63
(g79
g65
NtRp3260
(dp3261
g68
(dp3262
sg77
g2899
sg70
(lp3263
g63
(g84
g65
NtRp3264
(dp3265
g68
(dp3266
g88
g89
ssg77
g3260
sg70
(lp3267
S'SERVER_SOFTWARE'
p3268
asbag63
(g84
g65
NtRp3269
(dp3270
g68
(dp3271
g95
g96
ssg77
g3260
sg70
(lp3272
S':'
asbag63
(g84
g65
NtRp3273
(dp3274
g68
(dp3275
sg77
g3260
sg70
(lp3276
g63
(g64
g65
NtRp3277
(dp3278
g68
(dp3279
g76
I3
ssg77
g3273
sg70
(lp3280
g1869
asbasbasbag63
(g79
g65
NtRp3281
(dp3282
g68
(dp3283
sg77
g2899
sg70
(lp3284
g63
(g84
g65
NtRp3285
(dp3286
g68
(dp3287
g88
g89
ssg77
g3281
sg70
(lp3288
S'wsgi.errors'
p3289
asbag63
(g84
g65
NtRp3290
(dp3291
g68
(dp3292
g95
g96
ssg77
g3281
sg70
(lp3293
S':'
asbag63
(g84
g65
NtRp3294
(dp3295
g68
(dp3296
sg77
g3281
sg70
(lp3297
g63
(g64
g65
NtRp3298
(dp3299
g68
(dp3300
g76
I3
ssg77
g3294
sg70
(lp3301
S"<open file '<stderr>', mode 'w' at 0x7f5cb5883270>"
p3302
asbasbasbag63
(g79
g65
NtRp3303
(dp3304
g68
(dp3305
sg77
g2899
sg70
(lp3306
g63
(g84
g65
NtRp3307
(dp3308
g68
(dp3309
g88
g89
ssg77
g3303
sg70
(lp3310
S'wsgi.file_wrapper'
p3311
asbag63
(g84
g65
NtRp3312
(dp3313
g68
(dp3314
g95
g96
ssg77
g3303
sg70
(lp3315
S':'
asbag63
(g84
g65
NtRp3316
(dp3317
g68
(dp3318
sg77
g3303
sg70
(lp3319
g63
(g64
g65
NtRp3320
(dp3321
g68
(dp3322
g76
I3
ssg77
g3316
sg70
(lp3323
S'<class wsgiref.util.FileWrapper at 0x1fbc120>'
p3324
asbasbasbag63
(g79
g65
NtRp3325
(dp3326
g68
(dp3327
sg77
g2899
sg70
(lp3328
g63
(g84
g65
NtRp3329
(dp3330
g68
(dp3331
g88
g89
ssg77
g3325
sg70
(lp3332
S'wsgi.input'
p3333
asbag63
(g84
g65
NtRp3334
(dp3335
g68
(dp3336
g95
g96
ssg77
g3325
sg70
(lp3337
S':'
asbag63
(g84
g65
NtRp3338
(dp3339
g68
(dp3340
sg77
g3325
sg70
(lp3341
g63
(g64
g65
NtRp3342
(dp3343
g68
(dp3344
g76
I3
ssg77
g3338
sg70
(lp3345
S'<cStringIO.StringO object at 0x7f5c943280a0>'
p3346
asbasbasbag63
(g79
g65
NtRp3347
(dp3348
g68
(dp3349
sg77
g2899
sg70
(lp3350
g63
(g84
g65
NtRp3351
(dp3352
g68
(dp3353
g88
g89
ssg77
g3347
sg70
(lp3354
S'wsgi.multiprocess'
p3355
asbag63
(g84
g65
NtRp3356
(dp3357
g68
(dp3358
g95
g96
ssg77
g3347
sg70
(lp3359
S':'
asbag63
(g84
g65
NtRp3360
(dp3361
g68
(dp3362
sg77
g3347
sg70
(lp3363
g63
(g64
g65
NtRp3364
(dp3365
g68
(dp3366
g76
I3
ssg77
g3360
sg70
(lp3367
g106
asbasbasbag63
(g79
g65
NtRp3368
(dp3369
g68
(dp3370
sg77
g2899
sg70
(lp3371
g63
(g84
g65
NtRp3372
(dp3373
g68
(dp3374
g88
g89
ssg77
g3368
sg70
(lp3375
S'wsgi.multithread'
p3376
asbag63
(g84
g65
NtRp3377
(dp3378
g68
(dp3379
g95
g96
ssg77
g3368
sg70
(lp3380
S':'
asbag63
(g84
g65
NtRp3381
(dp3382
g68
(dp3383
sg77
g3368
sg70
(lp3384
g63
(g64
g65
NtRp3385
(dp3386
g68
(dp3387
g76
I3
ssg77
g3381
sg70
(lp3388
g2108
asbasbasbag63
(g79
g65
NtRp3389
(dp3390
g68
(dp3391
sg77
g2899
sg70
(lp3392
g63
(g84
g65
NtRp3393
(dp3394
g68
(dp3395
g88
g89
ssg77
g3389
sg70
(lp3396
S'wsgi.run_once'
p3397
asbag63
(g84
g65
NtRp3398
(dp3399
g68
(dp3400
g95
g96
ssg77
g3389
sg70
(lp3401
S':'
asbag63
(g84
g65
NtRp3402
(dp3403
g68
(dp3404
sg77
g3389
sg70
(lp3405
g63
(g64
g65
NtRp3406
(dp3407
g68
(dp3408
g76
I3
ssg77
g3402
sg70
(lp3409
g106
asbasbasbag63
(g79
g65
NtRp3410
(dp3411
g68
(dp3412
sg77
g2899
sg70
(lp3413
g63
(g84
g65
NtRp3414
(dp3415
g68
(dp3416
g88
g89
ssg77
g3410
sg70
(lp3417
S'wsgi.url_scheme'
p3418
asbag63
(g84
g65
NtRp3419
(dp3420
g68
(dp3421
g95
g96
ssg77
g3410
sg70
(lp3422
S':'
asbag63
(g84
g65
NtRp3423
(dp3424
g68
(dp3425
sg77
g3410
sg70
(lp3426
g63
(g64
g65
NtRp3427
(dp3428
g68
(dp3429
g76
I3
ssg77
g3423
sg70
(lp3430
g2151
asbasbasbag63
(g79
g65
NtRp3431
(dp3432
g68
(dp3433
sg77
g2899
sg70
(lp3434
g63
(g84
g65
NtRp3435
(dp3436
g68
(dp3437
g88
g89
ssg77
g3431
sg70
(lp3438
S'wsgi.version'
p3439
asbag63
(g84
g65
NtRp3440
(dp3441
g68
(dp3442
g95
g96
ssg77
g3431
sg70
(lp3443
S':'
asbag63
(g84
g65
NtRp3444
(dp3445
g68
(dp3446
sg77
g3431
sg70
(lp3447
g63
(g64
g65
NtRp3448
(dp3449
g68
(dp3450
g76
I3
ssg77
g3444
sg70
(lp3451
S'1'
asbasbasbasbasbasbasbasbasbasbasbasbasbsS'frames'
p3452
(lp3453
(dp3454
S'file'
p3455
S'/home/mayank/IIIT/sem 3/SSAD&Project/web2py/gluon/restricted.py'
p3456
sS'dump'
p3457
(dp3458
S'environment'
p3459
S"{'A': <class 'gluon.html.A'>, 'ALLOW_TOGGLE': 'true', 'A_button': <function A_button>, 'B': <class 'gluon.html.B'>, 'BEAUTIFY': <class 'gluon.html.BEAUTIFY'>, 'BODY': <class 'gluon.html.BODY'>, 'BR': <class 'gluon.html.BR'>, 'BUTTON': <class 'gluon.html.BUTTON'>, 'CAT': <class 'gluon.html.CAT'>, 'CENTER': <class 'gluon.html.CENTER'>, ...}"
p3460
sS'ccode'
p3461
S'<code object <module> at 0x7f5c8c2c7bb0, file "/...plications/admin/controllers/default.py", line 3>'
p3462
ssS'lnum'
p3463
I209
sS'lines'
p3464
(dp3465
I204
S'    try:'
p3466
sI205
S'        if type(code) == types.CodeType:'
p3467
sI206
S'            ccode = code'
p3468
sI207
S'        else:'
p3469
sI208
S'            ccode = compile2(code,layer)'
p3470
sI209
S'        exec ccode in environment'
p3471
sI210
S'    except HTTP:'
p3472
sI211
S'        raise'
p3473
sI212
S'    except RestrictedError:'
p3474
sI213
S'        # do not encapsulate (obfuscate) the original RestrictedError'
p3475
ssS'call'
p3476
S"(code='# coding: utf8\\n\\nEXPERIMENTAL_STUFF = True\\n\\nif EX...form)\\n\\n\\nresponse._vars=response._caller(resolve)\\n', environment={'A': <class 'gluon.html.A'>, 'ALLOW_TOGGLE': 'true', 'A_button': <function A_button>, 'B': <class 'gluon.html.B'>, 'BEAUTIFY': <class 'gluon.html.BEAUTIFY'>, 'BODY': <class 'gluon.html.BODY'>, 'BR': <class 'gluon.html.BR'>, 'BUTTON': <class 'gluon.html.BUTTON'>, 'CAT': <class 'gluon.html.CAT'>, 'CENTER': <class 'gluon.html.CENTER'>, ...}, layer='/home/mayank/IIIT/sem 3/SSAD&Project/web2py/applications/admin/controllers/default.py')"
p3477
sS'func'
p3478
S'restricted'
p3479
sa(dp3480
g3455
S'/home/mayank/IIIT/sem 3/SSAD&Project/web2py/applications/admin/controllers/default.py'
p3481
sg3457
(dp3482
sg3463
I1726
sg3464
(dp3483
I1715
S"            redirect(URL('site'))"
p3484
sI1716
S'        except UnmergedEntriesError:'
p3485
sI1717
S'            session.flash = T("Push failed, there are unmerged entries in the cache. Resolve merge issues manually and try again.")'
p3486
sI1718
S"            redirect(URL('site'))"
p3487
sI1719
S'        except Exception, e:'
p3488
sI1720
S'            logging.error("Unexpected error:", sys.exc_info()[0])'
p3489
sI1721
S'            session.flash = T("Push failed, git exited abnormally. See logs for details.")'
p3490
sI1722
S"            redirect(URL('site'))"
p3491
sI1723
S'    return dict(app=app,form=form)'
p3492
sI1724
S''
ssg3476
S'()'
p3493
sg3478
S'<module>'
p3494
sa(dp3495
g3455
S'/home/mayank/IIIT/sem 3/SSAD&Project/web2py/gluon/globals.py'
p3496
sg3457
(dp3497
S'self'
p3498
S'undefined'
p3499
sS'f'
S'<function resolve>'
p3500
ssg3463
I185
sg3464
(dp3501
I180
S'        self.menu = []             # used by the default view layout'
p3502
sI181
S'        self.files = []            # used by web2py_ajax.html'
p3503
sI182
S'        self.generic_patterns = [] # patterns to allow generic views'
p3504
sI183
S"        self.delimiters = ('{{','}}')"
p3505
sI184
S'        self._vars = None'
p3506
sI185
S'        self._caller = lambda f: f()'
p3507
sI186
S'        self._view_environment = None'
p3508
sI187
S'        self._custom_commit = None'
p3509
sI188
S'        self._custom_rollback = None'
p3510
sI189
S''
ssg3476
S'(f=<function resolve>)'
p3511
sg3478
S'<lambda>'
p3512
sa(dp3513
g3455
S'/home/mayank/IIIT/sem 3/SSAD&Project/web2py/applications/admin/controllers/default.py'
p3514
sg3457
(dp3515
S'a'
g3499
sS'path'
p3516
S"'/home/mayank/IIIT/sem 3/SSAD&Project/web2py/applications/taship1/views/default/'"
p3517
sS').split'
p3518
S'<built-in method split of str object>'
p3519
sS'global safe_read'
p3520
S'<function safe_read>'
p3521
ssg3463
I703
sg3464
(dp3522
I704
S'    try:'
p3523
sI705
S"        b = safe_read(path + '.1').split('\\n')"
p3524
sI706
S'    except IOError:'
p3525
sI707
S"        session.flash = 'Other file, no longer there'"
p3526
sI698
S'    """'
p3527
sI699
S''
sI700
S"    filename = '/'.join(request.args)"
p3528
sI701
S'    # ## check if file is not there'
p3529
sI702
S'    path = apath(filename, r=request)'
p3530
sI703
S"    a = safe_read(path).split('\\n')"
p3531
ssg3476
S'()'
p3532
sg3478
S'resolve'
p3533
sa(dp3534
g3455
S'/home/mayank/IIIT/sem 3/SSAD&Project/web2py/applications/admin/controllers/default.py'
p3535
sg3457
(dp3536
S'a'
S"'/home/mayank/IIIT/sem 3/SSAD&Project/web2py/applications/taship1/views/default/'"
p3537
sS'safe_file'
p3538
g3499
sS'global safe_open'
p3539
S'<function safe_open>'
p3540
sS'b'
S"'r'"
p3541
ssg3463
I66
sg3464
(dp3542
I64
S''
sI65
S"def safe_read(a, b='r'):"
p3543
sI66
S'    safe_file = safe_open(a, b)'
p3544
sI67
S'    try:'
p3545
sI68
S'        return safe_file.read()'
p3546
sI69
S'    finally:'
p3547
sI70
S'        safe_file.close()'
p3548
sI61
S'            def write(self,data): pass'
p3549
sI62
S'        return tmp()'
p3550
sI63
S'    return open(a,b)'
p3551
ssg3476
S"(a='/home/mayank/IIIT/sem 3/SSAD&Project/web2py/applications/taship1/views/default/', b='r')"
p3552
sg3478
S'safe_read'
p3553
sa(dp3554
g3455
S'/home/mayank/IIIT/sem 3/SSAD&Project/web2py/applications/admin/controllers/default.py'
p3555
sg3457
(dp3556
S'a'
S"'/home/mayank/IIIT/sem 3/SSAD&Project/web2py/applications/taship1/views/default/'"
p3557
sS'builtinopen'
p3558
S'<built-in function open>'
p3559
sS'b'
S"'r'"
p3560
ssg3463
I63
sg3464
(dp3561
I64
S''
sI65
S"def safe_read(a, b='r'):"
p3562
sI66
S'    safe_file = safe_open(a, b)'
p3563
sI67
S'    try:'
p3564
sI58
S'def safe_open(a,b):'
p3565
sI59
S"    if DEMO_MODE and ('w' in b or 'a' in b):"
p3566
sI60
S'        class tmp:'
p3567
sI61
S'            def write(self,data): pass'
p3568
sI62
S'        return tmp()'
p3569
sI63
S'    return open(a,b)'
p3570
ssg3476
S"(a='/home/mayank/IIIT/sem 3/SSAD&Project/web2py/applications/taship1/views/default/', b='r')"
p3571
sg3478
S'safe_open'
p3572
sasS'pyver'
p3573
S'Python 2.7.3: /usr/bin/python'
p3574
sS'session'
p3575
g63
(g64
g65
NtRp3576
(dp3577
g68
(dp3578
sg70
(lp3579
g63
(g72
g65
NtRp3580
(dp3581
g68
(dp3582
g76
I5
ssg77
Nsg70
(lp3583
g63
(g79
g65
NtRp3584
(dp3585
g68
(dp3586
sg77
g3580
sg70
(lp3587
g63
(g84
g65
NtRp3588
(dp3589
g68
(dp3590
g88
g89
ssg77
g3584
sg70
(lp3591
S'authorized'
p3592
asbag63
(g84
g65
NtRp3593
(dp3594
g68
(dp3595
g95
g96
ssg77
g3584
sg70
(lp3596
S':'
asbag63
(g84
g65
NtRp3597
(dp3598
g68
(dp3599
sg77
g3584
sg70
(lp3600
g63
(g64
g65
NtRp3601
(dp3602
g68
(dp3603
g76
I5
ssg77
g3597
sg70
(lp3604
g2108
asbasbasbag63
(g79
g65
NtRp3605
(dp3606
g68
(dp3607
sg77
g3580
sg70
(lp3608
g63
(g84
g65
NtRp3609
(dp3610
g68
(dp3611
g88
g89
ssg77
g3605
sg70
(lp3612
S'check_version'
p3613
asbag63
(g84
g65
NtRp3614
(dp3615
g68
(dp3616
g95
g96
ssg77
g3605
sg70
(lp3617
S':'
asbag63
(g84
g65
NtRp3618
(dp3619
g68
(dp3620
sg77
g3605
sg70
(lp3621
g63
(g64
g65
NtRp3622
(dp3623
g68
(dp3624
g76
I5
ssg77
g3618
sg70
(lp3625
g106
asbasbasbag63
(g79
g65
NtRp3626
(dp3627
g68
(dp3628
sg77
g3580
sg70
(lp3629
g63
(g84
g65
NtRp3630
(dp3631
g68
(dp3632
g88
g89
ssg77
g3626
sg70
(lp3633
S'flash'
p3634
asbag63
(g84
g65
NtRp3635
(dp3636
g68
(dp3637
g95
g96
ssg77
g3626
sg70
(lp3638
S':'
asbag63
(g84
g65
NtRp3639
(dp3640
g68
(dp3641
sg77
g3626
sg70
(lp3642
g63
(g64
g65
NtRp3643
(dp3644
g68
(dp3645
g76
I5
ssg77
g3639
sg70
(lp3646
S'None'
p3647
asbasbasbag63
(g79
g65
NtRp3648
(dp3649
g68
(dp3650
sg77
g3580
sg70
(lp3651
g63
(g84
g65
NtRp3652
(dp3653
g68
(dp3654
g88
g89
ssg77
g3648
sg70
(lp3655
S'last_time'
p3656
asbag63
(g84
g65
NtRp3657
(dp3658
g68
(dp3659
g95
g96
ssg77
g3648
sg70
(lp3660
S':'
asbag63
(g84
g65
NtRp3661
(dp3662
g68
(dp3663
sg77
g3648
sg70
(lp3664
g63
(g64
g65
NtRp3665
(dp3666
g68
(dp3667
g76
I5
ssg77
g3661
sg70
(lp3668
S'1350185795.982949'
p3669
asbasbasbag63
(g79
g65
NtRp3670
(dp3671
g68
(dp3672
sg77
g3580
sg70
(lp3673
g63
(g84
g65
NtRp3674
(dp3675
g68
(dp3676
g88
g89
ssg77
g3670
sg70
(lp3677
S'pam_user'
p3678
asbag63
(g84
g65
NtRp3679
(dp3680
g68
(dp3681
g95
g96
ssg77
g3670
sg70
(lp3682
S':'
asbag63
(g84
g65
NtRp3683
(dp3684
g68
(dp3685
sg77
g3670
sg70
(lp3686
g63
(g64
g65
NtRp3687
(dp3688
g68
(dp3689
g76
I5
ssg77
g3683
sg70
(lp3690
S'None'
p3691
asbasbasbag63
(g79
g65
NtRp3692
(dp3693
g68
(dp3694
sg77
g3580
sg70
(lp3695
g63
(g84
g65
NtRp3696
(dp3697
g68
(dp3698
g88
g89
ssg77
g3692
sg70
(lp3699
S'token'
p3700
asbag63
(g84
g65
NtRp3701
(dp3702
g68
(dp3703
g95
g96
ssg77
g3692
sg70
(lp3704
S':'
asbag63
(g84
g65
NtRp3705
(dp3706
g68
(dp3707
sg77
g3692
sg70
(lp3708
g63
(g64
g65
NtRp3709
(dp3710
g68
(dp3711
g76
I5
ssg77
g3705
sg70
(lp3712
S'd510846f-e036-43d8-8c63-b31e762f7d5a'
p3713
asbasbasbasbasbsS'etype'
p3714
S"<type 'exceptions.IOError'>"
p3715
sS'date'
p3716
S'Sun Oct 14 09:06:36 2012'
p3717
sS'response'
p3718
g63
(g64
g65
NtRp3719
(dp3720
g68
(dp3721
sg70
(lp3722
g63
(g72
g65
NtRp3723
(dp3724
g68
(dp3725
g76
I5
ssg77
Nsg70
(lp3726
g63
(g79
g65
NtRp3727
(dp3728
g68
(dp3729
sg77
g3723
sg70
(lp3730
g63
(g84
g65
NtRp3731
(dp3732
g68
(dp3733
g88
g89
ssg77
g3727
sg70
(lp3734
g212
asbag63
(g84
g65
NtRp3735
(dp3736
g68
(dp3737
g95
g96
ssg77
g3727
sg70
(lp3738
S':'
asbag63
(g84
g65
NtRp3739
(dp3740
g68
(dp3741
sg77
g3727
sg70
(lp3742
g63
(g64
g65
NtRp3743
(dp3744
g68
(dp3745
g76
I5
ssg77
g3739
sg70
(lp3746
S'<cStringIO.StringO object at 0x7f5c94328f80>'
p3747
asbasbasbag63
(g79
g65
NtRp3748
(dp3749
g68
(dp3750
sg77
g3723
sg70
(lp3751
g63
(g84
g65
NtRp3752
(dp3753
g68
(dp3754
g88
g89
ssg77
g3748
sg70
(lp3755
g300
asbag63
(g84
g65
NtRp3756
(dp3757
g68
(dp3758
g95
g96
ssg77
g3748
sg70
(lp3759
S':'
asbag63
(g84
g65
NtRp3760
(dp3761
g68
(dp3762
sg77
g3748
sg70
(lp3763
g63
(g64
g65
NtRp3764
(dp3765
g68
(dp3766
g76
I5
ssg77
g3760
sg70
(lp3767
g63
(g72
g65
NtRp3768
(dp3769
g68
(dp3770
g76
I4
ssg77
Nsg70
(lp3771
g63
(g79
g65
NtRp3772
(dp3773
g68
(dp3774
sg77
g3768
sg70
(lp3775
g63
(g84
g65
NtRp3776
(dp3777
g68
(dp3778
g88
g89
ssg77
g3772
sg70
(lp3779
S'session_id_admin'
p3780
asbag63
(g84
g65
NtRp3781
(dp3782
g68
(dp3783
g95
g96
ssg77
g3772
sg70
(lp3784
S':'
asbag63
(g84
g65
NtRp3785
(dp3786
g68
(dp3787
sg77
g3772
sg70
(lp3788
g63
(g64
g65
NtRp3789
(dp3790
g68
(dp3791
g76
I4
ssg77
g3785
sg70
(lp3792
g338
ag63
(g72
g65
NtRp3793
(dp3794
g68
(dp3795
g76
I3
ssg77
Nsg70
(lp3796
g63
(g79
g65
NtRp3797
(dp3798
g68
(dp3799
sg77
g3793
sg70
(lp3800
g63
(g84
g65
NtRp3801
(dp3802
g68
(dp3803
g88
g89
ssg77
g3797
sg70
(lp3804
g351
asbag63
(g84
g65
NtRp3805
(dp3806
g68
(dp3807
g95
g96
ssg77
g3797
sg70
(lp3808
S':'
asbag63
(g84
g65
NtRp3809
(dp3810
g68
(dp3811
sg77
g3797
sg70
(lp3812
g63
(g64
g65
NtRp3813
(dp3814
g68
(dp3815
g76
I3
ssg77
g3809
sg70
(lp3816
S''
asbasbasbag63
(g79
g65
NtRp3817
(dp3818
g68
(dp3819
sg77
g3793
sg70
(lp3820
g63
(g84
g65
NtRp3821
(dp3822
g68
(dp3823
g88
g89
ssg77
g3817
sg70
(lp3824
g372
asbag63
(g84
g65
NtRp3825
(dp3826
g68
(dp3827
g95
g96
ssg77
g3817
sg70
(lp3828
S':'
asbag63
(g84
g65
NtRp3829
(dp3830
g68
(dp3831
sg77
g3817
sg70
(lp3832
g63
(g64
g65
NtRp3833
(dp3834
g68
(dp3835
g76
I3
ssg77
g3829
sg70
(lp3836
S''
asbasbasbag63
(g79
g65
NtRp3837
(dp3838
g68
(dp3839
sg77
g3793
sg70
(lp3840
g63
(g84
g65
NtRp3841
(dp3842
g68
(dp3843
g88
g89
ssg77
g3837
sg70
(lp3844
g393
asbag63
(g84
g65
NtRp3845
(dp3846
g68
(dp3847
g95
g96
ssg77
g3837
sg70
(lp3848
S':'
asbag63
(g84
g65
NtRp3849
(dp3850
g68
(dp3851
sg77
g3837
sg70
(lp3852
g63
(g64
g65
NtRp3853
(dp3854
g68
(dp3855
g76
I3
ssg77
g3849
sg70
(lp3856
S''
asbasbasbag63
(g79
g65
NtRp3857
(dp3858
g68
(dp3859
sg77
g3793
sg70
(lp3860
g63
(g84
g65
NtRp3861
(dp3862
g68
(dp3863
g88
g89
ssg77
g3857
sg70
(lp3864
g414
asbag63
(g84
g65
NtRp3865
(dp3866
g68
(dp3867
g95
g96
ssg77
g3857
sg70
(lp3868
S':'
asbag63
(g84
g65
NtRp3869
(dp3870
g68
(dp3871
sg77
g3857
sg70
(lp3872
g63
(g64
g65
NtRp3873
(dp3874
g68
(dp3875
g76
I3
ssg77
g3869
sg70
(lp3876
S''
asbasbasbag63
(g79
g65
NtRp3877
(dp3878
g68
(dp3879
sg77
g3793
sg70
(lp3880
g63
(g84
g65
NtRp3881
(dp3882
g68
(dp3883
g88
g89
ssg77
g3877
sg70
(lp3884
g435
asbag63
(g84
g65
NtRp3885
(dp3886
g68
(dp3887
g95
g96
ssg77
g3877
sg70
(lp3888
S':'
asbag63
(g84
g65
NtRp3889
(dp3890
g68
(dp3891
sg77
g3877
sg70
(lp3892
g63
(g64
g65
NtRp3893
(dp3894
g68
(dp3895
g76
I3
ssg77
g3889
sg70
(lp3896
S''
asbasbasbag63
(g79
g65
NtRp3897
(dp3898
g68
(dp3899
sg77
g3793
sg70
(lp3900
g63
(g84
g65
NtRp3901
(dp3902
g68
(dp3903
g88
g89
ssg77
g3897
sg70
(lp3904
g456
asbag63
(g84
g65
NtRp3905
(dp3906
g68
(dp3907
g95
g96
ssg77
g3897
sg70
(lp3908
S':'
asbag63
(g84
g65
NtRp3909
(dp3910
g68
(dp3911
sg77
g3897
sg70
(lp3912
g63
(g64
g65
NtRp3913
(dp3914
g68
(dp3915
g76
I3
ssg77
g3909
sg70
(lp3916
S'/'
asbasbasbag63
(g79
g65
NtRp3917
(dp3918
g68
(dp3919
sg77
g3793
sg70
(lp3920
g63
(g84
g65
NtRp3921
(dp3922
g68
(dp3923
g88
g89
ssg77
g3917
sg70
(lp3924
g477
asbag63
(g84
g65
NtRp3925
(dp3926
g68
(dp3927
g95
g96
ssg77
g3917
sg70
(lp3928
S':'
asbag63
(g84
g65
NtRp3929
(dp3930
g68
(dp3931
sg77
g3917
sg70
(lp3932
g63
(g64
g65
NtRp3933
(dp3934
g68
(dp3935
g76
I3
ssg77
g3929
sg70
(lp3936
S''
asbasbasbag63
(g79
g65
NtRp3937
(dp3938
g68
(dp3939
sg77
g3793
sg70
(lp3940
g63
(g84
g65
NtRp3941
(dp3942
g68
(dp3943
g88
g89
ssg77
g3937
sg70
(lp3944
g498
asbag63
(g84
g65
NtRp3945
(dp3946
g68
(dp3947
g95
g96
ssg77
g3937
sg70
(lp3948
S':'
asbag63
(g84
g65
NtRp3949
(dp3950
g68
(dp3951
sg77
g3937
sg70
(lp3952
g63
(g64
g65
NtRp3953
(dp3954
g68
(dp3955
g76
I3
ssg77
g3949
sg70
(lp3956
S''
asbasbasbasbasbasbasbasbasbasbasbag63
(g79
g65
NtRp3957
(dp3958
g68
(dp3959
sg77
g3723
sg70
(lp3960
g63
(g84
g65
NtRp3961
(dp3962
g68
(dp3963
g88
g89
ssg77
g3957
sg70
(lp3964
S'delimiters'
p3965
asbag63
(g84
g65
NtRp3966
(dp3967
g68
(dp3968
g95
g96
ssg77
g3957
sg70
(lp3969
S':'
asbag63
(g84
g65
NtRp3970
(dp3971
g68
(dp3972
sg77
g3957
sg70
(lp3973
g63
(g64
g65
NtRp3974
(dp3975
g68
(dp3976
g76
I5
ssg77
g3970
sg70
(lp3977
g63
(g72
g65
NtRp3978
(dp3979
g68
(dp3980
g76
I4
ssg77
Nsg70
(lp3981
g63
(g79
g65
NtRp3982
(dp3983
g68
(dp3984
sg77
g3978
sg70
(lp3985
g63
(g84
g65
NtRp3986
(dp3987
g68
(dp3988
sg77
g3982
sg70
(lp3989
g63
(g64
g65
NtRp3990
(dp3991
g68
(dp3992
g76
I4
ssg77
g3986
sg70
(lp3993
S'{{'
p3994
asbasbasbag63
(g79
g65
NtRp3995
(dp3996
g68
(dp3997
sg77
g3978
sg70
(lp3998
g63
(g84
g65
NtRp3999
(dp4000
g68
(dp4001
sg77
g3995
sg70
(lp4002
g63
(g64
g65
NtRp4003
(dp4004
g68
(dp4005
g76
I4
ssg77
g3999
sg70
(lp4006
S'}}'
p4007
asbasbasbasbasbasbasbag63
(g79
g65
NtRp4008
(dp4009
g68
(dp4010
sg77
g3723
sg70
(lp4011
g63
(g84
g65
NtRp4012
(dp4013
g68
(dp4014
g88
g89
ssg77
g4008
sg70
(lp4015
S'files'
p4016
asbag63
(g84
g65
NtRp4017
(dp4018
g68
(dp4019
g95
g96
ssg77
g4008
sg70
(lp4020
S':'
asbag63
(g84
g65
NtRp4021
(dp4022
g68
(dp4023
sg77
g4008
sg70
(lp4024
g63
(g64
g65
NtRp4025
(dp4026
g68
(dp4027
g76
I5
ssg77
g4021
sg70
(lp4028
g63
(g72
g65
NtRp4029
(dp4030
g68
(dp4031
g76
I4
ssg77
Nsg70
(lp4032
g63
(g79
g65
NtRp4033
(dp4034
g68
(dp4035
sg77
g4029
sg70
(lp4036
g63
(g84
g65
NtRp4037
(dp4038
g68
(dp4039
sg77
g4033
sg70
(lp4040
g63
(g64
g65
NtRp4041
(dp4042
g68
(dp4043
g76
I4
ssg77
g4037
sg70
(lp4044
S'/admin/static/plugin_multiselect/jquery.dimensions.js'
p4045
asbasbasbag63
(g79
g65
NtRp4046
(dp4047
g68
(dp4048
sg77
g4029
sg70
(lp4049
g63
(g84
g65
NtRp4050
(dp4051
g68
(dp4052
sg77
g4046
sg70
(lp4053
g63
(g64
g65
NtRp4054
(dp4055
g68
(dp4056
g76
I4
ssg77
g4050
sg70
(lp4057
S'/admin/static/plugin_multiselect/jquery.multiselect.js'
p4058
asbasbasbag63
(g79
g65
NtRp4059
(dp4060
g68
(dp4061
sg77
g4029
sg70
(lp4062
g63
(g84
g65
NtRp4063
(dp4064
g68
(dp4065
sg77
g4059
sg70
(lp4066
g63
(g64
g65
NtRp4067
(dp4068
g68
(dp4069
g76
I4
ssg77
g4063
sg70
(lp4070
S'/admin/static/plugin_multiselect/jquery.multiselect.css'
p4071
asbasbasbag63
(g79
g65
NtRp4072
(dp4073
g68
(dp4074
sg77
g4029
sg70
(lp4075
g63
(g84
g65
NtRp4076
(dp4077
g68
(dp4078
sg77
g4072
sg70
(lp4079
g63
(g64
g65
NtRp4080
(dp4081
g68
(dp4082
g76
I4
ssg77
g4076
sg70
(lp4083
S'/admin/static/plugin_multiselect/start.js'
p4084
asbasbasbasbasbasbasbag63
(g79
g65
NtRp4085
(dp4086
g68
(dp4087
sg77
g3723
sg70
(lp4088
g63
(g84
g65
NtRp4089
(dp4090
g68
(dp4091
g88
g89
ssg77
g4085
sg70
(lp4092
S'flash'
p4093
asbag63
(g84
g65
NtRp4094
(dp4095
g68
(dp4096
g95
g96
ssg77
g4085
sg70
(lp4097
S':'
asbag63
(g84
g65
NtRp4098
(dp4099
g68
(dp4100
sg77
g4085
sg70
(lp4101
g63
(g64
g65
NtRp4102
(dp4103
g68
(dp4104
g76
I5
ssg77
g4098
sg70
(lp4105
S''
asbasbasbag63
(g79
g65
NtRp4106
(dp4107
g68
(dp4108
sg77
g3723
sg70
(lp4109
g63
(g84
g65
NtRp4110
(dp4111
g68
(dp4112
g88
g89
ssg77
g4106
sg70
(lp4113
S'generic_patterns'
p4114
asbag63
(g84
g65
NtRp4115
(dp4116
g68
(dp4117
g95
g96
ssg77
g4106
sg70
(lp4118
S':'
asbag63
(g84
g65
NtRp4119
(dp4120
g68
(dp4121
sg77
g4106
sg70
(lp4122
g63
(g64
g65
NtRp4123
(dp4124
g68
(dp4125
g76
I5
ssg77
g4119
sg70
(lp4126
g63
(g72
g65
NtRp4127
(dp4128
g68
(dp4129
g76
I4
ssg77
Nsg70
(lp4130
sbasbasbasbag63
(g79
g65
NtRp4131
(dp4132
g68
(dp4133
sg77
g3723
sg70
(lp4134
g63
(g84
g65
NtRp4135
(dp4136
g68
(dp4137
g88
g89
ssg77
g4131
sg70
(lp4138
S'headers'
p4139
asbag63
(g84
g65
NtRp4140
(dp4141
g68
(dp4142
g95
g96
ssg77
g4131
sg70
(lp4143
S':'
asbag63
(g84
g65
NtRp4144
(dp4145
g68
(dp4146
sg77
g4131
sg70
(lp4147
g63
(g64
g65
NtRp4148
(dp4149
g68
(dp4150
g76
I5
ssg77
g4144
sg70
(lp4151
g63
(g72
g65
NtRp4152
(dp4153
g68
(dp4154
g76
I4
ssg77
Nsg70
(lp4155
g63
(g79
g65
NtRp4156
(dp4157
g68
(dp4158
sg77
g4152
sg70
(lp4159
g63
(g84
g65
NtRp4160
(dp4161
g68
(dp4162
g88
g89
ssg77
g4156
sg70
(lp4163
S'Cache-Control'
p4164
asbag63
(g84
g65
NtRp4165
(dp4166
g68
(dp4167
g95
g96
ssg77
g4156
sg70
(lp4168
S':'
asbag63
(g84
g65
NtRp4169
(dp4170
g68
(dp4171
sg77
g4156
sg70
(lp4172
g63
(g64
g65
NtRp4173
(dp4174
g68
(dp4175
g76
I4
ssg77
g4169
sg70
(lp4176
S'no-store, no-cache, must-revalidate, post-check=0, pre-check=0'
p4177
asbasbasbag63
(g79
g65
NtRp4178
(dp4179
g68
(dp4180
sg77
g4152
sg70
(lp4181
g63
(g84
g65
NtRp4182
(dp4183
g68
(dp4184
g88
g89
ssg77
g4178
sg70
(lp4185
S'Content-Type'
p4186
asbag63
(g84
g65
NtRp4187
(dp4188
g68
(dp4189
g95
g96
ssg77
g4178
sg70
(lp4190
S':'
asbag63
(g84
g65
NtRp4191
(dp4192
g68
(dp4193
sg77
g4178
sg70
(lp4194
g63
(g64
g65
NtRp4195
(dp4196
g68
(dp4197
g76
I4
ssg77
g4191
sg70
(lp4198
S'text/html; charset=utf-8'
p4199
asbasbasbag63
(g79
g65
NtRp4200
(dp4201
g68
(dp4202
sg77
g4152
sg70
(lp4203
g63
(g84
g65
NtRp4204
(dp4205
g68
(dp4206
g88
g89
ssg77
g4200
sg70
(lp4207
S'Expires'
p4208
asbag63
(g84
g65
NtRp4209
(dp4210
g68
(dp4211
g95
g96
ssg77
g4200
sg70
(lp4212
S':'
asbag63
(g84
g65
NtRp4213
(dp4214
g68
(dp4215
sg77
g4200
sg70
(lp4216
g63
(g64
g65
NtRp4217
(dp4218
g68
(dp4219
g76
I4
ssg77
g4213
sg70
(lp4220
S'Sun, 14 Oct 2012 03:36:35 GMT'
p4221
asbasbasbag63
(g79
g65
NtRp4222
(dp4223
g68
(dp4224
sg77
g4152
sg70
(lp4225
g63
(g84
g65
NtRp4226
(dp4227
g68
(dp4228
g88
g89
ssg77
g4222
sg70
(lp4229
S'Pragma'
p4230
asbag63
(g84
g65
NtRp4231
(dp4232
g68
(dp4233
g95
g96
ssg77
g4222
sg70
(lp4234
S':'
asbag63
(g84
g65
NtRp4235
(dp4236
g68
(dp4237
sg77
g4222
sg70
(lp4238
g63
(g64
g65
NtRp4239
(dp4240
g68
(dp4241
g76
I4
ssg77
g4235
sg70
(lp4242
S'no-cache'
p4243
asbasbasbag63
(g79
g65
NtRp4244
(dp4245
g68
(dp4246
sg77
g4152
sg70
(lp4247
g63
(g84
g65
NtRp4248
(dp4249
g68
(dp4250
g88
g89
ssg77
g4244
sg70
(lp4251
S'X-Powered-By'
p4252
asbag63
(g84
g65
NtRp4253
(dp4254
g68
(dp4255
g95
g96
ssg77
g4244
sg70
(lp4256
S':'
asbag63
(g84
g65
NtRp4257
(dp4258
g68
(dp4259
sg77
g4244
sg70
(lp4260
g63
(g64
g65
NtRp4261
(dp4262
g68
(dp4263
g76
I4
ssg77
g4257
sg70
(lp4264
S'web2py'
p4265
asbasbasbasbasbasbasbag63
(g79
g65
NtRp4266
(dp4267
g68
(dp4268
sg77
g3723
sg70
(lp4269
g63
(g84
g65
NtRp4270
(dp4271
g68
(dp4272
g88
g89
ssg77
g4266
sg70
(lp4273
S'menu'
p4274
asbag63
(g84
g65
NtRp4275
(dp4276
g68
(dp4277
g95
g96
ssg77
g4266
sg70
(lp4278
S':'
asbag63
(g84
g65
NtRp4279
(dp4280
g68
(dp4281
sg77
g4266
sg70
(lp4282
g63
(g64
g65
NtRp4283
(dp4284
g68
(dp4285
g76
I5
ssg77
g4279
sg70
(lp4286
g63
(g72
g65
NtRp4287
(dp4288
g68
(dp4289
g76
I4
ssg77
Nsg70
(lp4290
g63
(g79
g65
NtRp4291
(dp4292
g68
(dp4293
sg77
g4287
sg70
(lp4294
g63
(g84
g65
NtRp4295
(dp4296
g68
(dp4297
sg77
g4291
sg70
(lp4298
g63
(g64
g65
NtRp4299
(dp4300
g68
(dp4301
g76
I4
ssg77
g4295
sg70
(lp4302
g63
(g72
g65
NtRp4303
(dp4304
g68
(dp4305
g76
I3
ssg77
Nsg70
(lp4306
g63
(g79
g65
NtRp4307
(dp4308
g68
(dp4309
sg77
g4303
sg70
(lp4310
g63
(g84
g65
NtRp4311
(dp4312
g68
(dp4313
sg77
g4307
sg70
(lp4314
g63
(g64
g65
NtRp4315
(dp4316
g68
(dp4317
g76
I3
ssg77
g4311
sg70
(lp4318
cgluon.languages
lazyT_unpickle
p4319
(S's\x04\x00\x00\x00Site'
tRp4320
asbasbasbag63
(g79
g65
NtRp4321
(dp4322
g68
(dp4323
sg77
g4303
sg70
(lp4324
g63
(g84
g65
NtRp4325
(dp4326
g68
(dp4327
sg77
g4321
sg70
(lp4328
g63
(g64
g65
NtRp4329
(dp4330
g68
(dp4331
g76
I3
ssg77
g4325
sg70
(lp4332
g106
asbasbasbag63
(g79
g65
NtRp4333
(dp4334
g68
(dp4335
sg77
g4303
sg70
(lp4336
g63
(g84
g65
NtRp4337
(dp4338
g68
(dp4339
sg77
g4333
sg70
(lp4340
g63
(g64
g65
NtRp4341
(dp4342
g68
(dp4343
g76
I3
ssg77
g4337
sg70
(lp4344
S'/admin/default/site'
p4345
asbasbasbasbasbasbasbag63
(g79
g65
NtRp4346
(dp4347
g68
(dp4348
sg77
g4287
sg70
(lp4349
g63
(g84
g65
NtRp4350
(dp4351
g68
(dp4352
sg77
g4346
sg70
(lp4353
g63
(g64
g65
NtRp4354
(dp4355
g68
(dp4356
g76
I4
ssg77
g4350
sg70
(lp4357
g63
(g72
g65
NtRp4358
(dp4359
g68
(dp4360
g76
I3
ssg77
Nsg70
(lp4361
g63
(g79
g65
NtRp4362
(dp4363
g68
(dp4364
sg77
g4358
sg70
(lp4365
g63
(g84
g65
NtRp4366
(dp4367
g68
(dp4368
sg77
g4362
sg70
(lp4369
g63
(g64
g65
NtRp4370
(dp4371
g68
(dp4372
g76
I3
ssg77
g4366
sg70
(lp4373
g4319
(S's\x04\x00\x00\x00Edit'
tRp4374
asbasbasbag63
(g79
g65
NtRp4375
(dp4376
g68
(dp4377
sg77
g4358
sg70
(lp4378
g63
(g84
g65
NtRp4379
(dp4380
g68
(dp4381
sg77
g4375
sg70
(lp4382
g63
(g64
g65
NtRp4383
(dp4384
g68
(dp4385
g76
I3
ssg77
g4379
sg70
(lp4386
g106
asbasbasbag63
(g79
g65
NtRp4387
(dp4388
g68
(dp4389
sg77
g4358
sg70
(lp4390
g63
(g84
g65
NtRp4391
(dp4392
g68
(dp4393
sg77
g4387
sg70
(lp4394
g63
(g64
g65
NtRp4395
(dp4396
g68
(dp4397
g76
I3
ssg77
g4391
sg70
(lp4398
S'/admin/default/design/taship1'
p4399
asbasbasbasbasbasbasbag63
(g79
g65
NtRp4400
(dp4401
g68
(dp4402
sg77
g4287
sg70
(lp4403
g63
(g84
g65
NtRp4404
(dp4405
g68
(dp4406
sg77
g4400
sg70
(lp4407
g63
(g64
g65
NtRp4408
(dp4409
g68
(dp4410
g76
I4
ssg77
g4404
sg70
(lp4411
g63
(g72
g65
NtRp4412
(dp4413
g68
(dp4414
g76
I3
ssg77
Nsg70
(lp4415
g63
(g79
g65
NtRp4416
(dp4417
g68
(dp4418
sg77
g4412
sg70
(lp4419
g63
(g84
g65
NtRp4420
(dp4421
g68
(dp4422
sg77
g4416
sg70
(lp4423
g63
(g64
g65
NtRp4424
(dp4425
g68
(dp4426
g76
I3
ssg77
g4420
sg70
(lp4427
g4319
(S's\x05\x00\x00\x00About'
tRp4428
asbasbasbag63
(g79
g65
NtRp4429
(dp4430
g68
(dp4431
sg77
g4412
sg70
(lp4432
g63
(g84
g65
NtRp4433
(dp4434
g68
(dp4435
sg77
g4429
sg70
(lp4436
g63
(g64
g65
NtRp4437
(dp4438
g68
(dp4439
g76
I3
ssg77
g4433
sg70
(lp4440
g106
asbasbasbag63
(g79
g65
NtRp4441
(dp4442
g68
(dp4443
sg77
g4412
sg70
(lp4444
g63
(g84
g65
NtRp4445
(dp4446
g68
(dp4447
sg77
g4441
sg70
(lp4448
g63
(g64
g65
NtRp4449
(dp4450
g68
(dp4451
g76
I3
ssg77
g4445
sg70
(lp4452
S'/admin/default/about/taship1'
p4453
asbasbasbasbasbasbasbag63
(g79
g65
NtRp4454
(dp4455
g68
(dp4456
sg77
g4287
sg70
(lp4457
g63
(g84
g65
NtRp4458
(dp4459
g68
(dp4460
sg77
g4454
sg70
(lp4461
g63
(g64
g65
NtRp4462
(dp4463
g68
(dp4464
g76
I4
ssg77
g4458
sg70
(lp4465
g63
(g72
g65
NtRp4466
(dp4467
g68
(dp4468
g76
I3
ssg77
Nsg70
(lp4469
g63
(g79
g65
NtRp4470
(dp4471
g68
(dp4472
sg77
g4466
sg70
(lp4473
g63
(g84
g65
NtRp4474
(dp4475
g68
(dp4476
sg77
g4470
sg70
(lp4477
g63
(g64
g65
NtRp4478
(dp4479
g68
(dp4480
g76
I3
ssg77
g4474
sg70
(lp4481
g4319
(S's\x06\x00\x00\x00Errors'
tRp4482
asbasbasbag63
(g79
g65
NtRp4483
(dp4484
g68
(dp4485
sg77
g4466
sg70
(lp4486
g63
(g84
g65
NtRp4487
(dp4488
g68
(dp4489
sg77
g4483
sg70
(lp4490
g63
(g64
g65
NtRp4491
(dp4492
g68
(dp4493
g76
I3
ssg77
g4487
sg70
(lp4494
g106
asbasbasbag63
(g79
g65
NtRp4495
(dp4496
g68
(dp4497
sg77
g4466
sg70
(lp4498
g63
(g84
g65
NtRp4499
(dp4500
g68
(dp4501
sg77
g4495
sg70
(lp4502
g63
(g64
g65
NtRp4503
(dp4504
g68
(dp4505
g76
I3
ssg77
g4499
sg70
(lp4506
S'/admin/default/errors/taship1'
p4507
asbasbasbasbasbasbasbag63
(g79
g65
NtRp4508
(dp4509
g68
(dp4510
sg77
g4287
sg70
(lp4511
g63
(g84
g65
NtRp4512
(dp4513
g68
(dp4514
sg77
g4508
sg70
(lp4515
g63
(g64
g65
NtRp4516
(dp4517
g68
(dp4518
g76
I4
ssg77
g4512
sg70
(lp4519
g63
(g72
g65
NtRp4520
(dp4521
g68
(dp4522
g76
I3
ssg77
Nsg70
(lp4523
g63
(g79
g65
NtRp4524
(dp4525
g68
(dp4526
sg77
g4520
sg70
(lp4527
g63
(g84
g65
NtRp4528
(dp4529
g68
(dp4530
sg77
g4524
sg70
(lp4531
g63
(g64
g65
NtRp4532
(dp4533
g68
(dp4534
g76
I3
ssg77
g4528
sg70
(lp4535
g4319
(S's\n\x00\x00\x00Versioning'
tRp4536
asbasbasbag63
(g79
g65
NtRp4537
(dp4538
g68
(dp4539
sg77
g4520
sg70
(lp4540
g63
(g84
g65
NtRp4541
(dp4542
g68
(dp4543
sg77
g4537
sg70
(lp4544
g63
(g64
g65
NtRp4545
(dp4546
g68
(dp4547
g76
I3
ssg77
g4541
sg70
(lp4548
g106
asbasbasbag63
(g79
g65
NtRp4549
(dp4550
g68
(dp4551
sg77
g4520
sg70
(lp4552
g63
(g84
g65
NtRp4553
(dp4554
g68
(dp4555
sg77
g4549
sg70
(lp4556
g63
(g64
g65
NtRp4557
(dp4558
g68
(dp4559
g76
I3
ssg77
g4553
sg70
(lp4560
S'/admin/mercurial/commit/taship1'
p4561
asbasbasbasbasbasbasbag63
(g79
g65
NtRp4562
(dp4563
g68
(dp4564
sg77
g4287
sg70
(lp4565
g63
(g84
g65
NtRp4566
(dp4567
g68
(dp4568
sg77
g4562
sg70
(lp4569
g63
(g64
g65
NtRp4570
(dp4571
g68
(dp4572
g76
I4
ssg77
g4566
sg70
(lp4573
g63
(g72
g65
NtRp4574
(dp4575
g68
(dp4576
g76
I3
ssg77
Nsg70
(lp4577
g63
(g79
g65
NtRp4578
(dp4579
g68
(dp4580
sg77
g4574
sg70
(lp4581
g63
(g84
g65
NtRp4582
(dp4583
g68
(dp4584
sg77
g4578
sg70
(lp4585
g63
(g64
g65
NtRp4586
(dp4587
g68
(dp4588
g76
I3
ssg77
g4582
sg70
(lp4589
g4319
(S's\x06\x00\x00\x00Logout'
tRp4590
asbasbasbag63
(g79
g65
NtRp4591
(dp4592
g68
(dp4593
sg77
g4574
sg70
(lp4594
g63
(g84
g65
NtRp4595
(dp4596
g68
(dp4597
sg77
g4591
sg70
(lp4598
g63
(g64
g65
NtRp4599
(dp4600
g68
(dp4601
g76
I3
ssg77
g4595
sg70
(lp4602
g106
asbasbasbag63
(g79
g65
NtRp4603
(dp4604
g68
(dp4605
sg77
g4574
sg70
(lp4606
g63
(g84
g65
NtRp4607
(dp4608
g68
(dp4609
sg77
g4603
sg70
(lp4610
g63
(g64
g65
NtRp4611
(dp4612
g68
(dp4613
g76
I3
ssg77
g4607
sg70
(lp4614
S'/admin/default/logout'
p4615
asbasbasbasbasbasbasbag63
(g79
g65
NtRp4616
(dp4617
g68
(dp4618
sg77
g4287
sg70
(lp4619
g63
(g84
g65
NtRp4620
(dp4621
g68
(dp4622
sg77
g4616
sg70
(lp4623
g63
(g64
g65
NtRp4624
(dp4625
g68
(dp4626
g76
I4
ssg77
g4620
sg70
(lp4627
g63
(g72
g65
NtRp4628
(dp4629
g68
(dp4630
g76
I3
ssg77
Nsg70
(lp4631
g63
(g79
g65
NtRp4632
(dp4633
g68
(dp4634
sg77
g4628
sg70
(lp4635
g63
(g84
g65
NtRp4636
(dp4637
g68
(dp4638
sg77
g4632
sg70
(lp4639
g63
(g64
g65
NtRp4640
(dp4641
g68
(dp4642
g76
I3
ssg77
g4636
sg70
(lp4643
g4319
(S's\x05\x00\x00\x00Debug'
tRp4644
asbasbasbag63
(g79
g65
NtRp4645
(dp4646
g68
(dp4647
sg77
g4628
sg70
(lp4648
g63
(g84
g65
NtRp4649
(dp4650
g68
(dp4651
sg77
g4645
sg70
(lp4652
g63
(g64
g65
NtRp4653
(dp4654
g68
(dp4655
g76
I3
ssg77
g4649
sg70
(lp4656
g106
asbasbasbag63
(g79
g65
NtRp4657
(dp4658
g68
(dp4659
sg77
g4628
sg70
(lp4660
g63
(g84
g65
NtRp4661
(dp4662
g68
(dp4663
sg77
g4657
sg70
(lp4664
g63
(g64
g65
NtRp4665
(dp4666
g68
(dp4667
g76
I3
ssg77
g4661
sg70
(lp4668
S'/admin/debug/interact'
p4669
asbasbasbasbasbasbasbag63
(g79
g65
NtRp4670
(dp4671
g68
(dp4672
sg77
g4287
sg70
(lp4673
g63
(g84
g65
NtRp4674
(dp4675
g68
(dp4676
sg77
g4670
sg70
(lp4677
g63
(g64
g65
NtRp4678
(dp4679
g68
(dp4680
g76
I4
ssg77
g4674
sg70
(lp4681
g63
(g72
g65
NtRp4682
(dp4683
g68
(dp4684
g76
I3
ssg77
Nsg70
(lp4685
g63
(g79
g65
NtRp4686
(dp4687
g68
(dp4688
sg77
g4682
sg70
(lp4689
g63
(g84
g65
NtRp4690
(dp4691
g68
(dp4692
sg77
g4686
sg70
(lp4693
g63
(g64
g65
NtRp4694
(dp4695
g68
(dp4696
g76
I3
ssg77
g4690
sg70
(lp4697
g4319
(S's\x04\x00\x00\x00Help'
tRp4698
asbasbasbag63
(g79
g65
NtRp4699
(dp4700
g68
(dp4701
sg77
g4682
sg70
(lp4702
g63
(g84
g65
NtRp4703
(dp4704
g68
(dp4705
sg77
g4699
sg70
(lp4706
g63
(g64
g65
NtRp4707
(dp4708
g68
(dp4709
g76
I3
ssg77
g4703
sg70
(lp4710
g106
asbasbasbag63
(g79
g65
NtRp4711
(dp4712
g68
(dp4713
sg77
g4682
sg70
(lp4714
g63
(g84
g65
NtRp4715
(dp4716
g68
(dp4717
sg77
g4711
sg70
(lp4718
g63
(g64
g65
NtRp4719
(dp4720
g68
(dp4721
g76
I3
ssg77
g4715
sg70
(lp4722
S'/examples/default/index'
p4723
asbasbasbasbasbasbasbasbasbasbasbag63
(g79
g65
NtRp4724
(dp4725
g68
(dp4726
sg77
g3723
sg70
(lp4727
g63
(g84
g65
NtRp4728
(dp4729
g68
(dp4730
g88
g89
ssg77
g4724
sg70
(lp4731
S'meta'
p4732
asbag63
(g84
g65
NtRp4733
(dp4734
g68
(dp4735
g95
g96
ssg77
g4724
sg70
(lp4736
S':'
asbag63
(g84
g65
NtRp4737
(dp4738
g68
(dp4739
sg77
g4724
sg70
(lp4740
g63
(g64
g65
NtRp4741
(dp4742
g68
(dp4743
g76
I5
ssg77
g4737
sg70
(lp4744
g63
(g72
g65
NtRp4745
(dp4746
g68
(dp4747
g76
I4
ssg77
Nsg70
(lp4748
sbasbasbasbag63
(g79
g65
NtRp4749
(dp4750
g68
(dp4751
sg77
g3723
sg70
(lp4752
g63
(g84
g65
NtRp4753
(dp4754
g68
(dp4755
g88
g89
ssg77
g4749
sg70
(lp4756
S'models_to_run'
p4757
asbag63
(g84
g65
NtRp4758
(dp4759
g68
(dp4760
g95
g96
ssg77
g4749
sg70
(lp4761
S':'
asbag63
(g84
g65
NtRp4762
(dp4763
g68
(dp4764
sg77
g4749
sg70
(lp4765
g63
(g64
g65
NtRp4766
(dp4767
g68
(dp4768
g76
I5
ssg77
g4762
sg70
(lp4769
g63
(g72
g65
NtRp4770
(dp4771
g68
(dp4772
g76
I4
ssg77
Nsg70
(lp4773
g63
(g79
g65
NtRp4774
(dp4775
g68
(dp4776
sg77
g4770
sg70
(lp4777
g63
(g84
g65
NtRp4778
(dp4779
g68
(dp4780
sg77
g4774
sg70
(lp4781
g63
(g64
g65
NtRp4782
(dp4783
g68
(dp4784
g76
I4
ssg77
g4778
sg70
(lp4785
S'^\\w+\\.py$'
p4786
asbasbasbag63
(g79
g65
NtRp4787
(dp4788
g68
(dp4789
sg77
g4770
sg70
(lp4790
g63
(g84
g65
NtRp4791
(dp4792
g68
(dp4793
sg77
g4787
sg70
(lp4794
g63
(g64
g65
NtRp4795
(dp4796
g68
(dp4797
g76
I4
ssg77
g4791
sg70
(lp4798
S'^default/\\w+\\.py$'
p4799
asbasbasbag63
(g79
g65
NtRp4800
(dp4801
g68
(dp4802
sg77
g4770
sg70
(lp4803
g63
(g84
g65
NtRp4804
(dp4805
g68
(dp4806
sg77
g4800
sg70
(lp4807
g63
(g64
g65
NtRp4808
(dp4809
g68
(dp4810
g76
I4
ssg77
g4804
sg70
(lp4811
S'^default/resolve/\\w+\\.py$'
p4812
asbasbasbasbasbasbasbag63
(g79
g65
NtRp4813
(dp4814
g68
(dp4815
sg77
g3723
sg70
(lp4816
g63
(g84
g65
NtRp4817
(dp4818
g68
(dp4819
g88
g89
ssg77
g4813
sg70
(lp4820
S'postprocessing'
p4821
asbag63
(g84
g65
NtRp4822
(dp4823
g68
(dp4824
g95
g96
ssg77
g4813
sg70
(lp4825
S':'
asbag63
(g84
g65
NtRp4826
(dp4827
g68
(dp4828
sg77
g4813
sg70
(lp4829
g63
(g64
g65
NtRp4830
(dp4831
g68
(dp4832
g76
I5
ssg77
g4826
sg70
(lp4833
g63
(g72
g65
NtRp4834
(dp4835
g68
(dp4836
g76
I4
ssg77
Nsg70
(lp4837
sbasbasbasbag63
(g79
g65
NtRp4838
(dp4839
g68
(dp4840
sg77
g3723
sg70
(lp4841
g63
(g84
g65
NtRp4842
(dp4843
g68
(dp4844
g88
g89
ssg77
g4838
sg70
(lp4845
S'session_file'
p4846
asbag63
(g84
g65
NtRp4847
(dp4848
g68
(dp4849
g95
g96
ssg77
g4838
sg70
(lp4850
S':'
asbag63
(g84
g65
NtRp4851
(dp4852
g68
(dp4853
sg77
g4838
sg70
(lp4854
g63
(g64
g65
NtRp4855
(dp4856
g68
(dp4857
g76
I5
ssg77
g4851
sg70
(lp4858
S"<open file '/home/mayank/IIIT/sem 3/SSAD&Project/web2py/applications/admin/sessions/127.0.0.1-5dcf2937-67e2-4b75-8344-2e4702696999', mode 'rb+' at 0x7f5c803746f0>"
p4859
asbasbasbag63
(g79
g65
NtRp4860
(dp4861
g68
(dp4862
sg77
g3723
sg70
(lp4863
g63
(g84
g65
NtRp4864
(dp4865
g68
(dp4866
g88
g89
ssg77
g4860
sg70
(lp4867
S'session_filename'
p4868
asbag63
(g84
g65
NtRp4869
(dp4870
g68
(dp4871
g95
g96
ssg77
g4860
sg70
(lp4872
S':'
asbag63
(g84
g65
NtRp4873
(dp4874
g68
(dp4875
sg77
g4860
sg70
(lp4876
g63
(g64
g65
NtRp4877
(dp4878
g68
(dp4879
g76
I5
ssg77
g4873
sg70
(lp4880
S'/home/mayank/IIIT/sem 3/SSAD&Project/web2py/applications/admin/sessions/127.0.0.1-5dcf2937-67e2-4b75-8344-2e4702696999'
p4881
asbasbasbag63
(g79
g65
NtRp4882
(dp4883
g68
(dp4884
sg77
g3723
sg70
(lp4885
g63
(g84
g65
NtRp4886
(dp4887
g68
(dp4888
g88
g89
ssg77
g4882
sg70
(lp4889
S'session_id'
p4890
asbag63
(g84
g65
NtRp4891
(dp4892
g68
(dp4893
g95
g96
ssg77
g4882
sg70
(lp4894
S':'
asbag63
(g84
g65
NtRp4895
(dp4896
g68
(dp4897
sg77
g4882
sg70
(lp4898
g63
(g64
g65
NtRp4899
(dp4900
g68
(dp4901
g76
I5
ssg77
g4895
sg70
(lp4902
g338
asbasbasbag63
(g79
g65
NtRp4903
(dp4904
g68
(dp4905
sg77
g3723
sg70
(lp4906
g63
(g84
g65
NtRp4907
(dp4908
g68
(dp4909
g88
g89
ssg77
g4903
sg70
(lp4910
S'session_id_name'
p4911
asbag63
(g84
g65
NtRp4912
(dp4913
g68
(dp4914
g95
g96
ssg77
g4903
sg70
(lp4915
S':'
asbag63
(g84
g65
NtRp4916
(dp4917
g68
(dp4918
sg77
g4903
sg70
(lp4919
g63
(g64
g65
NtRp4920
(dp4921
g68
(dp4922
g76
I5
ssg77
g4916
sg70
(lp4923
g3780
asbasbasbag63
(g79
g65
NtRp4924
(dp4925
g68
(dp4926
sg77
g3723
sg70
(lp4927
g63
(g84
g65
NtRp4928
(dp4929
g68
(dp4930
g88
g89
ssg77
g4924
sg70
(lp4931
S'session_locked'
p4932
asbag63
(g84
g65
NtRp4933
(dp4934
g68
(dp4935
g95
g96
ssg77
g4924
sg70
(lp4936
S':'
asbag63
(g84
g65
NtRp4937
(dp4938
g68
(dp4939
sg77
g4924
sg70
(lp4940
g63
(g64
g65
NtRp4941
(dp4942
g68
(dp4943
g76
I5
ssg77
g4937
sg70
(lp4944
g2108
asbasbasbag63
(g79
g65
NtRp4945
(dp4946
g68
(dp4947
sg77
g3723
sg70
(lp4948
g63
(g84
g65
NtRp4949
(dp4950
g68
(dp4951
g88
g89
ssg77
g4945
sg70
(lp4952
S'session_new'
p4953
asbag63
(g84
g65
NtRp4954
(dp4955
g68
(dp4956
g95
g96
ssg77
g4945
sg70
(lp4957
S':'
asbag63
(g84
g65
NtRp4958
(dp4959
g68
(dp4960
sg77
g4945
sg70
(lp4961
g63
(g64
g65
NtRp4962
(dp4963
g68
(dp4964
g76
I5
ssg77
g4958
sg70
(lp4965
g106
asbasbasbag63
(g79
g65
NtRp4966
(dp4967
g68
(dp4968
sg77
g3723
sg70
(lp4969
g63
(g84
g65
NtRp4970
(dp4971
g68
(dp4972
g88
g89
ssg77
g4966
sg70
(lp4973
S'status'
p4974
asbag63
(g84
g65
NtRp4975
(dp4976
g68
(dp4977
g95
g96
ssg77
g4966
sg70
(lp4978
S':'
asbag63
(g84
g65
NtRp4979
(dp4980
g68
(dp4981
sg77
g4966
sg70
(lp4982
g63
(g64
g65
NtRp4983
(dp4984
g68
(dp4985
g76
I5
ssg77
g4979
sg70
(lp4986
S'200'
p4987
asbasbasbag63
(g79
g65
NtRp4988
(dp4989
g68
(dp4990
sg77
g3723
sg70
(lp4991
g63
(g84
g65
NtRp4992
(dp4993
g68
(dp4994
g88
g89
ssg77
g4988
sg70
(lp4995
S'subtitle'
p4996
asbag63
(g84
g65
NtRp4997
(dp4998
g68
(dp4999
g95
g96
ssg77
g4988
sg70
(lp5000
S':'
asbag63
(g84
g65
NtRp5001
(dp5002
g68
(dp5003
sg77
g4988
sg70
(lp5004
g63
(g64
g65
NtRp5005
(dp5006
g68
(dp5007
g76
I5
ssg77
g5001
sg70
(lp5008
S'admin'
p5009
asbasbasbag63
(g79
g65
NtRp5010
(dp5011
g68
(dp5012
sg77
g3723
sg70
(lp5013
g63
(g84
g65
NtRp5014
(dp5015
g68
(dp5016
g88
g89
ssg77
g5010
sg70
(lp5017
S'title'
p5018
asbag63
(g84
g65
NtRp5019
(dp5020
g68
(dp5021
g95
g96
ssg77
g5010
sg70
(lp5022
S':'
asbag63
(g84
g65
NtRp5023
(dp5024
g68
(dp5025
sg77
g5010
sg70
(lp5026
g63
(g64
g65
NtRp5027
(dp5028
g68
(dp5029
g76
I5
ssg77
g5023
sg70
(lp5030
S'resolve taship1/views/default/'
p5031
asbasbasbag63
(g79
g65
NtRp5032
(dp5033
g68
(dp5034
sg77
g3723
sg70
(lp5035
g63
(g84
g65
NtRp5036
(dp5037
g68
(dp5038
g88
g89
ssg77
g5032
sg70
(lp5039
S'view'
p5040
asbag63
(g84
g65
NtRp5041
(dp5042
g68
(dp5043
g95
g96
ssg77
g5032
sg70
(lp5044
S':'
asbag63
(g84
g65
NtRp5045
(dp5046
g68
(dp5047
sg77
g5032
sg70
(lp5048
g63
(g64
g65
NtRp5049
(dp5050
g68
(dp5051
g76
I5
ssg77
g5045
sg70
(lp5052
S'default/resolve.html'
p5053
asbasbasbasbasbsS'locals'
p5054
(dp5055
S'a'
S"'/home/mayank/IIIT/sem 3/SSAD&Project/web2py/applications/taship1/views/default/'"
p5056
sS'b'
S"'r'"
p5057
sssS'traceback'
p5058
S'Traceback (most recent call last):\n  File "/home/mayank/IIIT/sem 3/SSAD&Project/web2py/gluon/restricted.py", line 209, in restricted\n    exec ccode in environment\n  File "/home/mayank/IIIT/sem 3/SSAD&Project/web2py/applications/admin/controllers/default.py", line 1726, in <module>\n  File "/home/mayank/IIIT/sem 3/SSAD&Project/web2py/gluon/globals.py", line 185, in <lambda>\n    self._caller = lambda f: f()\n  File "/home/mayank/IIIT/sem 3/SSAD&Project/web2py/applications/admin/controllers/default.py", line 703, in resolve\n    a = safe_read(path).split(\'\\n\')\n  File "/home/mayank/IIIT/sem 3/SSAD&Project/web2py/applications/admin/controllers/default.py", line 66, in safe_read\n    safe_file = safe_open(a, b)\n  File "/home/mayank/IIIT/sem 3/SSAD&Project/web2py/applications/admin/controllers/default.py", line 63, in safe_open\n    return open(a,b)\nIOError: [Errno 21] Is a directory: \'/home/mayank/IIIT/sem 3/SSAD&Project/web2py/applications/taship1/views/default/\'\n'
p5059
s.