(dp1
S'output'
p2
S"<type 'exceptions.OSError'> [Errno 2] No such file or directory: '/home/mayank/Desktop/web2pyAddmin/web2py/web2py/applications/201201170/languages'"
p3
sS'layer'
p4
S'/home/mayank/Desktop/web2pyAddmin/web2py/web2py/applications/admin/controllers/default.py'
p5
sS'code'
p6
S'# coding: utf8\n\nEXPERIMENTAL_STUFF = True\n\nif EXPERIMENTAL_STUFF:\n    is_mobile = request.user_agent().is_mobile\n    if is_mobile:\n        response.view = response.view.replace(\'default/\',\'default.mobile/\')\n        response.menu = []\n\nimport re\nfrom gluon.admin import *\nfrom gluon.fileutils import abspath, read_file, write_file\nfrom gluon.utils import web2py_uuid\nfrom glob import glob\nimport shutil\nimport platform\ntry:                                                                                      \n    from git import *                                                                     \n    have_git = True\nexcept ImportError:                                                                       \n    have_git = False\n    GIT_MISSING = \'requires python-git module, but not installed or incompatible version\'\n\nfrom gluon.languages import (regex_language, read_possible_languages,\n                             lang_sampling,\n                             read_dict, write_dict, read_plural_dict,\n                             write_plural_dict, PLURAL_RULES)\n\n\nif DEMO_MODE and request.function in [\'change_password\',\'pack\',\'pack_plugin\',\'upgrade_web2py\',\'uninstall\',\'cleanup\',\'compile_app\',\'remove_compiled_app\',\'delete\',\'delete_plugin\',\'create_file\',\'upload_file\',\'update_languages\',\'reload_routes\',\'git_push\',\'git_pull\']:\n    session.flash = T(\'disabled in demo mode\')\n    redirect(URL(\'site\'))\n\n\nif not is_manager() and request.function in [\'change_password\',\'upgrade_web2py\']:\n    session.flash = T(\'disabled in multi user mode\')\n    redirect(URL(\'site\'))\n\nif FILTER_APPS and request.args(0) and not request.args(0) in FILTER_APPS:\n    session.flash = T(\'disabled in demo mode\')\n    redirect(URL(\'site\'))\n\n\nif not session.token: session.token = web2py_uuid()\n\ndef count_lines(data):\n    return len([line for line in data.split(\'\\n\') if line.strip() and not line.startswith(\'#\')])\n\ndef log_progress(app,mode=\'EDIT\',filename=None,progress=0):\n    progress_file = os.path.join(apath(app, r=request), \'progress.log\')\n    now = str(request.now)[:19]\n    if not os.path.exists(progress_file):\n        safe_open(progress_file,\'w\').write(\'[%s] START\\n\' % now)\n    if filename:\n        safe_open(progress_file,\'a\').write(\'[%s] %s %s: %s\\n\' % (now,mode,filename,progress))\n\ndef safe_open(a,b):\n    if DEMO_MODE and (\'w\' in b or \'a\' in b):\n        class tmp:\n            def write(self,data): pass\n        return tmp()\n    return open(a,b)\n\ndef safe_read(a, b=\'r\'):\n    safe_file = safe_open(a, b)\n    try:\n        return safe_file.read()\n    finally:\n        safe_file.close()\n\ndef safe_write(a, value, b=\'w\'):\n    safe_file = safe_open(a, b)\n    try:\n        safe_file.write(value)\n    finally:\n        safe_file.close()\n\ndef get_app(name=None):\n    app = name or request.args(0)\n    if app and (not MULTI_USER_MODE or is_manager() or \\\n                    db(db.app.name==app)(db.app.owner==auth.user.id).count()):\n        return app\n    session.flash = T(\'App does not exist or your are not authorized\')\n    redirect(URL(\'site\'))\n\ndef index():\n    """ Index handler """\n\n    send = request.vars.send\n    if DEMO_MODE:\n        session.authorized = True\n        session.last_time = t0\n    if not send:\n        send = URL(\'site\')\n    if session.authorized:\n        redirect(send)\n    elif request.vars.password:\n        if verify_password(request.vars.password):\n            session.authorized = True\n            login_record(True)\n\n            if CHECK_VERSION:\n                session.check_version = True\n            else:\n                session.check_version = False\n\n            session.last_time = t0\n            if isinstance(send, list):  # ## why does this happen?\n                send = str(send[0])\n\n            redirect(send)\n        else:\n            times_denied = login_record(False)\n            if times_denied >= allowed_number_of_attempts:\n                response.flash = \\\n                    T(\'admin disabled because too many invalid login attempts\')\n            elif times_denied == allowed_number_of_attempts - 1:\n                response.flash = \\\n                    T(\'You have one more login attempt before you are locked out\')\n            else:\n                response.flash = T(\'invalid password.\')\n    return dict(send=send)\n\n\ndef check_version():\n    """ Checks if web2py is up to date """\n\n    session.forget()\n    session._unlock(response)\n\n    new_version, version_number = check_new_version(request.env.web2py_version,\n                                    WEB2PY_VERSION_URL)\n\n    if new_version == -1:\n        return A(T(\'Unable to check for upgrades\'), _href=WEB2PY_URL)\n    elif new_version != True:\n        return A(T(\'web2py is up to date\'), _href=WEB2PY_URL)\n    elif platform.system().lower() in (\'windows\',\'win32\',\'win64\') and os.path.exists("web2py.exe"):\n        return SPAN(\'You should upgrade to version %s.%s.%s\' % version_number[:3])\n    else:\n        return sp_button(URL(\'upgrade_web2py\'), T(\'upgrade now\')) \\\n            + XML(\' <strong class="upgrade_version">%s.%s.%s</strong>\' \\\n                      % version_number[:3])\n\ndef logout():\n    """ Logout handler """\n    session.authorized = None\n    if MULTI_USER_MODE:\n        redirect(URL(\'user/logout\'))\n    redirect(URL(\'index\'))\n\n\ndef change_password():\n\n    if session.pam_user:\n        session.flash = T(\'PAM authenticated user, cannot change password here\')\n        redirect(URL(\'site\'))\n    form=SQLFORM.factory(Field(\'current_admin_password\',\'password\'),\n                         Field(\'new_admin_password\',\'password\',requires=IS_STRONG()),\n                         Field(\'new_admin_password_again\',\'password\'))\n    if form.accepts(request.vars):\n        if not verify_password(request.vars.current_admin_password):\n            form.errors.current_admin_password = T(\'invalid password\')\n        elif form.vars.new_admin_password != form.vars.new_admin_password_again:\n            form.errors.new_admin_password_again = T(\'no match\')\n        else:\n            path = abspath(\'parameters_%s.py\' % request.env.server_port)\n            safe_write(path, \'password="%s"\' % CRYPT()(request.vars.new_admin_password)[0])\n            session.flash = T(\'password changed\')\n            redirect(URL(\'site\'))\n    return dict(form=form)\n\n\ndef site():\n    """ Site handler """\n\n    myversion = request.env.web2py_version\n\n    # Shortcut to make the elif statements more legible\n    file_or_appurl = \'file\' in request.vars or \'appurl\' in request.vars\n\n    class IS_VALID_APPNAME(object):\n        def __call__(self,value):\n            if not re.compile(\'\\w+\').match(value):\n                return (value,T(\'Invalid application name\'))\n            if not request.vars.overwrite and \\\n                    os.path.exists(os.path.join(apath(r=request),value)):\n                return (value,T(\'Application exists already\'))\n            return (value,None)\n\n    is_appname = IS_VALID_APPNAME()\n    form_create = SQLFORM.factory(Field(\'name\',requires=is_appname),\n                                  table_name=\'appcreate\')\n    form_update = SQLFORM.factory(Field(\'name\',requires=is_appname),\n                                  Field(\'file\',\'upload\',uploadfield=False),\n                                  Field(\'url\'),\n                                  Field(\'overwrite\',\'boolean\'),\n                                  table_name=\'appupdate\')\n    form_create.process()\n    form_update.process()\n\n    if DEMO_MODE:\n        pass\n\n    elif form_create.accepted:\n        # create a new application\n        appname = cleanpath(form_create.vars.name)\n        created, error = app_create(appname, request,info=True)\n        if created:\n            if MULTI_USER_MODE:\n                db.app.insert(name=appname,owner=auth.user.id)\n            log_progress(appname)\n            session.flash = T(\'new application "%s" created\', appname)\n            redirect(URL(\'design\',args=appname))\n        else:\n            session.flash = \\\n                DIV(T(\'unable to create application "%s"\' % appname),\n                    PRE(error))                      \n        redirect(URL(r=request))\n\n    elif form_update.accepted:\n        if (form_update.vars.url or \'\').endswith(\'.git\'):\n            if not have_git:\n                session.flash = GIT_MISSING\n                redirect(URL(r=request))\n            target = os.path.join(apath(r=request),form_update.vars.name)\n            try:\n                new_repo = Repo.clone_from(form_update.vars.url,target)\n                session.flash = T(\'new application "%s" imported\',\n                                  form_update.vars.name)\n            except GitCommandError, err:\n                session.flash = T(\'Invalid git repository specified.\')\n            redirect(URL(r=request))\n\n        elif form_update.vars.url:\n            # fetch an application via URL or file upload\n            try:\n                f = urllib.urlopen(form_update.vars.url)\n                if f.code == 404:\n                    raise Exception("404 file not found")\n            except Exception, e:\n                session.flash = \\\n                    DIV(T(\'Unable to download app because:\'),PRE(str(e)))\n                redirect(URL(r=request))\n            fname = form_update.vars.url\n            \n        elif form_update.accepted and form_update.vars.file:\n            fname = request.vars.file.filename\n            f = request.vars.file.file\n            \n        else:\n            session.flash = \'No file uploaded and no URL specified\'\n            redirect(URL(r=request))\n\n        if f:\n            appname = cleanpath(form_update.vars.name)\n            installed = app_install(appname, f, \n                                    request, fname,\n                                    overwrite=form_update.vars.overwrite)\n        if f and installed:\n            msg = \'application %(appname)s installed with md5sum: %(digest)s\'\n            if MULTI_USER_MODE:\n                db.app.insert(name=appname,owner=auth.user.id)\n            log_progress(appname)\n            session.flash = T(msg, dict(appname=appname,\n                                        digest=md5_hash(installed)))\n        elif f and form_update.vars.overwrite:\n            msg = \'unable to install application "%(appname)s"\'\n            session.flash = T(msg, dict(appname=form_update.vars.name))\n        else:\n            msg = \'unable to install application "%(appname)s"\'\n            session.flash = T(msg, dict(appname=form_update.vars.name))\n        redirect(URL(r=request))\n\n    regex = re.compile(\'^\\w+$\')\n\n    if is_manager():\n        apps = [f for f in os.listdir(apath(r=request)) if regex.match(f)]\n    else:\n        apps = [f.name for f in db(db.app.owner==auth.user_id).select()]\n\n    if FILTER_APPS:\n        apps = [f for f in apps if f in FILTER_APPS]\n\n    apps = sorted(apps,lambda a,b:cmp(a.upper(),b.upper()))\n\n    return dict(app=None, apps=apps, myversion=myversion, \n                form_create=form_create, form_update=form_update)\n\n\ndef report_progress(app):\n    import datetime\n    progress_file = os.path.join(apath(app, r=request), \'progress.log\')\n    regex = re.compile(\'\\[(.*?)\\][^\\:]+\\:\\s+(\\-?\\d+)\')\n    if not os.path.exists(progress_file):\n        return []\n    matches = regex.findall(open(progress_file,\'r\').read())\n    events,counter = [],0\n    for m in matches:\n        if not m: continue\n        days = -(request.now - datetime.datetime.strptime(m[0],\'%Y-%m-%d %H:%M:%S\')).days\n        counter += int(m[1])\n        events.append([days,counter])\n    return events\n\n\ndef pack():\n    app = get_app()\n\n    try:\n        if len(request.args) == 1:\n            fname = \'web2py.app.%s.w2p\' % app\n            filename = app_pack(app, request, raise_ex=True)\n        else:\n            fname = \'web2py.app.%s.compiled.w2p\' % app\n            filename = app_pack_compiled(app, request, raise_ex=True)\n    except Exception, e:\n        filename = None\n\n    if filename:\n        response.headers[\'Content-Type\'] = \'application/w2p\'\n        disposition = \'attachment; filename=%s\' % fname\n        response.headers[\'Content-Disposition\'] = disposition\n        return safe_read(filename, \'rb\')\n    else:\n        session.flash = T(\'internal error: %s\' % e)\n        redirect(URL(\'site\'))\n\ndef pack_plugin():\n    app = get_app()\n    if len(request.args) == 2:\n        fname = \'web2py.plugin.%s.w2p\' % request.args[1]\n        filename = plugin_pack(app, request.args[1], request)\n    if filename:\n        response.headers[\'Content-Type\'] = \'application/w2p\'\n        disposition = \'attachment; filename=%s\' % fname\n        response.headers[\'Content-Disposition\'] = disposition\n        return safe_read(filename, \'rb\')\n    else:\n        session.flash = T(\'internal error\')\n        redirect(URL(\'plugin\',args=request.args))\n\ndef upgrade_web2py():\n    dialog = FORM.confirm(T(\'Upgrade\'),\n                         {T(\'Cancel\'):URL(\'site\')})    \n    if dialog.accepted:\n        (success, error) = upgrade(request)\n        if success:\n            session.flash = T(\'web2py upgraded; please restart it\')\n        else:\n            session.flash = T(\'unable to upgrade because "%s"\', error)\n        redirect(URL(\'site\'))\n    return dict(dialog=dialog)\n\ndef uninstall():\n    app = get_app()\n\n    dialog = FORM.confirm(T(\'Uninstall\'),\n                         {T(\'Cancel\'):URL(\'site\')})\n    \n    if dialog.accepted:\n        if MULTI_USER_MODE:\n            if is_manager() and db(db.app.name==app).delete():\n                pass\n            elif db(db.app.name==app)(db.app.owner==auth.user.id).delete():\n                pass\n            else:\n                session.flash = T(\'no permission to uninstall "%s"\', app)\n                redirect(URL(\'site\'))\n        if app_uninstall(app, request):\n            session.flash = T(\'application "%s" uninstalled\', app)\n        else:\n            session.flash = T(\'unable to uninstall "%s"\', app)\n        redirect(URL(\'site\'))\n    return dict(app=app, dialog=dialog)\n\n\ndef cleanup():\n    app = get_app()\n    clean = app_cleanup(app, request)\n    if not clean:\n        session.flash = T("some files could not be removed")\n    else:\n        session.flash = T(\'cache, errors and sessions cleaned\')\n\n    redirect(URL(\'site\'))\n\n\ndef compile_app():\n    app = get_app()\n    c = app_compile(app, request)\n    if not c:\n        session.flash = T(\'application compiled\')\n    else:\n        session.flash = DIV(T(\'Cannot compile: there are errors in your app:\'),\n                              CODE(c))\n    redirect(URL(\'site\'))\n\n\ndef remove_compiled_app():\n    """ Remove the compiled application """\n    app = get_app()\n    remove_compiled_application(apath(app, r=request))\n    session.flash = T(\'compiled application removed\')\n    redirect(URL(\'site\'))\n\ndef delete():\n    """ Object delete handler """\n    app = get_app()\n    filename = \'/\'.join(request.args)\n    sender = request.vars.sender\n\n    if isinstance(sender, list):  # ## fix a problem with Vista\n        sender = sender[0]\n\n    if \'nodelete\' in request.vars:\n        redirect(URL(sender, anchor=request.vars.id))\n    elif \'delete\' in request.vars:\n        try:\n            full_path = apath(filename, r=request)\n            lineno = count_lines(open(full_path,\'r\').read())\n            os.unlink(full_path)\n            log_progress(app,\'DELETE\',filename,progress=-lineno)\n            session.flash = T(\'file "%(filename)s" deleted\',\n                              dict(filename=filename))\n        except Exception:\n            session.flash = T(\'unable to delete file "%(filename)s"\',\n                              dict(filename=filename))\n        redirect(URL(sender, anchor=request.vars.id2))\n    return dict(filename=filename, sender=sender)\n\ndef delete():\n    """ Object delete handler """\n    app = get_app()\n    filename = \'/\'.join(request.args)\n    sender = request.vars.sender\n\n    if isinstance(sender, list):  # ## fix a problem with Vista\n        sender = sender[0]\n\n    dialog = FORM.confirm(T(\'Delete\'),\n                         {T(\'Cancel\'):URL(sender, anchor=request.vars.id)})\n\n    if dialog.accepted:\n        try:\n            full_path = apath(filename, r=request)\n            lineno = count_lines(open(full_path,\'r\').read())\n            os.unlink(full_path)\n            log_progress(app,\'DELETE\',filename,progress=-lineno)\n            session.flash = T(\'file "%(filename)s" deleted\',\n                              dict(filename=filename))\n        except Exception:\n            session.flash = T(\'unable to delete file "%(filename)s"\',\n                              dict(filename=filename))\n        redirect(URL(sender, anchor=request.vars.id2))\n    return dict(dialog=dialog,filename=filename)\n\ndef enable():\n    app = get_app()\n    filename = os.path.join(apath(app, r=request),\'DISABLED\')\n    if is_gae:\n        return SPAN(T(\'Not supported\'),_style=\'color:yellow\')\n    elif os.path.exists(filename):\n        os.unlink(filename)\n        return SPAN(T(\'Disable\'),_style=\'color:green\')\n    else:\n        safe_open(filename,\'wb\').write(time.ctime())\n        return SPAN(T(\'Enable\'),_style=\'color:red\')\n\ndef peek():\n    """ Visualize object code """\n    app = get_app(request.vars.app)\n    filename = \'/\'.join(request.args)\n    if request.vars.app:\n        path = abspath(filename)\n    else:\n        path = apath(filename, r=request)\n    try:\n        data = safe_read(path).replace(\'\\r\',\'\')\n    except IOError:\n        session.flash = T(\'file does not exist\')\n        redirect(URL(\'site\'))\n\n    extension = filename[filename.rfind(\'.\') + 1:].lower()\n\n    return dict(app=app,\n                filename=filename,\n                data=data,\n                extension=extension)\n\ndef test():\n    """ Execute controller tests """\n    app = get_app()\n    if len(request.args) > 1:\n        file = request.args[1]\n    else:\n        file = \'.*\\.py\'\n\n    controllers = listdir(apath(\'%s/controllers/\' % app, r=request), file + \'$\')\n\n    return dict(app=app, controllers=controllers)\n\ndef keepalive():\n    return \'\'\n\ndef search():\n    keywords=request.vars.keywords or \'\'\n    app = get_app()\n    def match(filename,keywords):\n        filename=os.path.join(apath(app, r=request),filename)\n        if keywords in read_file(filename,\'rb\'):\n            return True\n        return False\n    path = apath(request.args[0], r=request)\n    files1 = glob(os.path.join(path,\'*/*.py\'))\n    files2 = glob(os.path.join(path,\'*/*.html\'))\n    files3 = glob(os.path.join(path,\'*/*/*.html\'))\n    files=[x[len(path)+1:].replace(\'\\\\\',\'/\') for x in files1+files2+files3 if match(x,keywords)]\n    return response.json(dict(files=files, message=T.M(\'Searching: **%s** %%{file}\', len(files))))\n\ndef edit():\n    """ File edit handler """\n    # Load json only if it is ajax edited...\n    app = get_app(request.vars.app)\n    filename = \'/\'.join(request.args)\n    if request.vars.app:\n        path = abspath(filename)\n    else:\n        path = apath(filename, r=request)\n     # Try to discover the file type\n    if filename[-3:] == \'.py\':\n        filetype = \'python\'\n    elif filename[-5:] == \'.html\':\n        filetype = \'html\'\n    elif filename[-5:] == \'.load\':\n        filetype = \'html\'\n    elif filename[-4:] == \'.css\':\n        filetype = \'css\'\n    elif filename[-3:] == \'.js\':\n        filetype = \'js\'\n    else:\n        filetype = \'html\'\n\n    # ## check if file is not there\n    if (\'revert\' in request.vars) and os.path.exists(path + \'.bak\'):\n        try:\n            data = safe_read(path + \'.bak\')\n            data1 = safe_read(path)\n        except IOError:\n            session.flash = T(\'Invalid action\')\n            if \'from_ajax\' in request.vars:\n                 return response.json({\'error\': str(T(\'Invalid action\'))})\n            else:\n                redirect(URL(\'site\'))\n\n        safe_write(path, data)\n        file_hash = md5_hash(data)\n        saved_on = time.ctime(os.stat(path)[stat.ST_MTIME])\n        safe_write(path + \'.bak\', data1)\n        response.flash = T(\'file "%s" of %s restored\', (filename, saved_on))\n    else:\n        try:\n            data = safe_read(path)\n        except IOError:\n            session.flash = T(\'Invalid action\')\n            if \'from_ajax\' in request.vars:\n                return response.json({\'error\': str(T(\'Invalid action\'))})\n            else:\n                redirect(URL(\'site\'))\n\n        lineno_old = count_lines(data)\n        file_hash = md5_hash(data)\n        saved_on = time.ctime(os.stat(path)[stat.ST_MTIME])\n\n        if request.vars.file_hash and request.vars.file_hash != file_hash:\n            session.flash = T(\'file changed on disk\')\n            data = request.vars.data.replace(\'\\r\\n\', \'\\n\').strip() + \'\\n\'\n            safe_write(path + \'.1\', data)\n            if \'from_ajax\' in request.vars:\n                return response.json({\'error\': str(T(\'file changed on disk\')),\n                                      \'redirect\': URL(\'resolve\',\n                                                      args=request.args)})\n            else:\n                redirect(URL(\'resolve\', args=request.args))\n        elif request.vars.data:\n            safe_write(path + \'.bak\', data)\n            data = request.vars.data.replace(\'\\r\\n\', \'\\n\').strip() + \'\\n\'\n            safe_write(path, data)\n            lineno_new = count_lines(data)\n            log_progress(app,\'EDIT\',filename,progress=lineno_new-lineno_old)\n            file_hash = md5_hash(data)\n            saved_on = time.ctime(os.stat(path)[stat.ST_MTIME])\n            response.flash = T(\'file saved on %s\', saved_on)\n\n    data_or_revert = (request.vars.data or request.vars.revert)\n\n    # Check compile errors\n    highlight = None\n    if filetype == \'python\' and request.vars.data:\n        import _ast\n        try:\n            code = request.vars.data.rstrip().replace(\'\\r\\n\',\'\\n\')+\'\\n\'\n            compile(code, path, "exec", _ast.PyCF_ONLY_AST)\n        except Exception, e:\n            start = sum([len(line)+1 for l, line\n                            in enumerate(request.vars.data.split("\\n"))\n                            if l < e.lineno-1])\n            if e.text and e.offset:\n                offset = e.offset - (len(e.text) - len(e.text.splitlines()[-1]))\n            else:\n                offset = 0\n            highlight = {\'start\': start, \'end\': start + offset + 1, \'lineno\': e.lineno}\n            try:\n                ex_name = e.__class__.__name__\n            except:\n                ex_name = \'unknown exception!\'\n            response.flash = DIV(T(\'failed to compile file because:\'), BR(),\n                                 B(ex_name), \' \'+T(\'at line %s\', e.lineno),\n                                 offset and \' \'+T(\'at char %s\', offset) or \'\',\n                                 PRE(str(e)))\n\n    if data_or_revert and request.args[1] == \'modules\':\n        # Lets try to reload the modules\n        try:\n            mopath = \'.\'.join(request.args[2:])[:-3]\n            exec \'import applications.%s.modules.%s\' % (request.args[0], mopath)\n            reload(sys.modules[\'applications.%s.modules.%s\'\n                    % (request.args[0], mopath)])\n        except Exception, e:\n            response.flash = DIV(T(\'failed to reload module because:\'),PRE(str(e)))\n\n    edit_controller = None\n    editviewlinks = None\n    view_link = None\n    if filetype == \'html\' and len(request.args) >= 3:\n        cfilename = os.path.join(request.args[0], \'controllers\',\n                                 request.args[2] + \'.py\')\n        if os.path.exists(apath(cfilename, r=request)):\n            edit_controller = URL(\'edit\', args=[cfilename])\n            view = request.args[3].replace(\'.html\',\'\')\n            view_link = URL(request.args[0],request.args[2],view)\n    elif filetype == \'python\' and request.args[1] == \'controllers\':\n        ## it\'s a controller file.\n        ## Create links to all of the associated view files.\n        app = get_app()\n        viewname = os.path.splitext(request.args[2])[0]\n        viewpath = os.path.join(app,\'views\',viewname)\n        aviewpath = apath(viewpath, r=request)\n        viewlist = []\n        if os.path.exists(aviewpath):\n            if os.path.isdir(aviewpath):\n                viewlist = glob(os.path.join(aviewpath,\'*.html\'))\n        elif os.path.exists(aviewpath+\'.html\'):\n            viewlist.append(aviewpath+\'.html\')\n        if len(viewlist):\n            editviewlinks = []\n            for v in viewlist:\n                vf = os.path.split(v)[-1]\n                vargs = "/".join([viewpath.replace(os.sep,"/"),vf])\n                editviewlinks.append(A(vf.split(".")[0],\\\n                    _href=URL(\'edit\',args=[vargs])))\n\n    if len(request.args) > 2 and request.args[1] == \'controllers\':\n        controller = (request.args[2])[:-3]\n        functions = regex_expose.findall(data)\n    else:\n        (controller, functions) = (None, None)\n\n    if \'from_ajax\' in request.vars:\n        return response.json({\'file_hash\': file_hash, \'saved_on\': saved_on, \'functions\':functions, \'controller\': controller, \'application\': request.args[0], \'highlight\': highlight })\n    else:\n\n        editarea_preferences = {}\n        editarea_preferences[\'FONT_SIZE\'] = \'10\'\n        editarea_preferences[\'FULL_SCREEN\'] = \'false\'\n        editarea_preferences[\'ALLOW_TOGGLE\'] = \'true\'\n        editarea_preferences[\'REPLACE_TAB_BY_SPACES\'] = \'4\'\n        editarea_preferences[\'DISPLAY\'] = \'onload\'\n        for key in editarea_preferences:\n            if globals().has_key(key):\n                editarea_preferences[key]=globals()[key]\n        return dict(app=request.args[0],\n                    filename=filename,\n                    filetype=filetype,\n                    data=data,\n                    edit_controller=edit_controller,\n                    file_hash=file_hash,\n                    saved_on=saved_on,\n                    controller=controller,\n                    functions=functions,\n                    view_link=view_link,\n                    editarea_preferences=editarea_preferences,\n                    editviewlinks=editviewlinks)\n\ndef resolve():\n    """\n    """\n\n    filename = \'/\'.join(request.args)\n    # ## check if file is not there\n    path = apath(filename, r=request)\n    a = safe_read(path).split(\'\\n\')\n    try:\n        b = safe_read(path + \'.1\').split(\'\\n\')\n    except IOError:\n        session.flash = \'Other file, no longer there\'\n        redirect(URL(\'edit\', args=request.args))\n\n    d = difflib.ndiff(a, b)\n\n    def leading(line):\n        """  """\n\n        # TODO: we really need to comment this\n        z = \'\'\n        for (k, c) in enumerate(line):\n            if c == \' \':\n                z += \'&nbsp;\'\n            elif c == \' \\t\':\n                z += \'&nbsp;\'\n            elif k == 0 and c == \'?\':\n                pass\n            else:\n                break\n\n        return XML(z)\n\n    def getclass(item):\n        """ Determine item class """\n\n        if item[0] == \' \':\n            return \'normal\'\n        if item[0] == \'+\':\n            return \'plus\'\n        if item[0] == \'-\':\n            return \'minus\'\n\n    if request.vars:\n        c = \'\\n\'.join([item[2:].rstrip() for (i, item) in enumerate(d) if item[0] \\\n                           == \' \' or \'line%i\' % i in request.vars])\n        safe_write(path, c)\n        session.flash = \'files merged\'\n        redirect(URL(\'edit\', args=request.args))\n    else:\n        # Making the short circuit compatible with <= python2.4\n        gen_data = lambda index,item: not item[:1] in [\'+\',\'-\'] and "" \\\n                   or INPUT(_type=\'checkbox\',\n                            _name=\'line%i\' % index,\n                            value=item[0] == \'+\')\n\n        diff = TABLE(*[TR(TD(gen_data(i,item)),\n                          TD(item[0]),\n                          TD(leading(item[2:]),\n                          TT(item[2:].rstrip())), _class=getclass(item))\n                       for (i, item) in enumerate(d) if item[0] != \'?\'])\n\n    return dict(diff=diff, filename=filename)\n\n\ndef edit_language():\n    """ Edit language file """\n    app = get_app()\n    filename = \'/\'.join(request.args)\n    strings = read_dict(apath(filename, r=request))\n\n    if \'__corrupted__\' in strings:\n       form = SPAN(strings[\'__corrupted__\'],_class=\'error\')\n       return dict(filename=filename, form=form)\n\n    keys = sorted(strings.keys(),lambda x,y: cmp(unicode(x,\'utf-8\').lower(), unicode(y,\'utf-8\').lower()))\n    rows = []\n    rows.append(H2(T(\'Original/Translation\')))\n\n    for key in keys:\n        name = md5_hash(key)\n        s = strings[key]\n        (prefix, sep, key) = key.partition(\'\\x01\')\n        if sep:\n            prefix = SPAN(prefix+\': \', _class=\'tm_ftag\')\n            k = key\n        else:\n            (k, prefix) = (prefix, \'\')\n\n        _class=\'untranslated\' if k==s else \'translated\'\n\n        if len(key) <= 40:\n            elem = INPUT(_type=\'text\', _name=name, value=s,\n                         _size=70,_class=_class)\n        else:\n            elem = TEXTAREA(_name=name, value=s, _cols=70,\n                            _rows=5, _class=_class)\n\n        # Making the short circuit compatible with <= python2.4\n        k = (s != k) and k or B(k)\n\n        rows.append(P(prefix, k, BR(), elem, TAG.BUTTON(T(\'delete\'),\n                            _onclick=\'return delkey("%s")\' % name), _id=name))\n\n    rows.append(INPUT(_type=\'submit\', _value=T(\'update\')))\n    form = FORM(*rows)\n    if form.accepts(request.vars, keepvalues=True):\n        strs = dict()\n        for key in keys:\n            name = md5_hash(key)\n            if form.vars[name]==chr(127): continue\n            strs[key] = form.vars[name]\n        write_dict(apath(filename, r=request), strs)\n        session.flash = T(\'file saved on %(time)s\', dict(time=time.ctime()))\n        redirect(URL(r=request,args=request.args))\n    return dict(app=request.args[0], filename=filename, form=form)\n\ndef edit_plurals():\n    """ Edit plurals file """\n    #import ipdb; ipdb.set_trace()\n    app = get_app()\n    filename = \'/\'.join(request.args)\n    plurals = read_plural_dict(apath(filename, r=request)) # plural forms dictionary\n    nplurals = int(request.vars.nplurals)-1 # plural forms quantity\n    xnplurals = xrange(nplurals)\n\n    if \'__corrupted__\' in plurals:\n       # show error message and exit\n       form = SPAN(plurals[\'__corrupted__\'],_class=\'error\')\n       return dict(filename=filename, form=form)\n\n    keys = sorted(plurals.keys(),lambda x,y: cmp(unicode(x,\'utf-8\').lower(), unicode(y,\'utf-8\').lower()))\n    rows = []\n\n    row=[T("Singular Form")]\n    row.extend([T("Plural Form #%s", n+1) for n in xnplurals])\n    table=TABLE(THEAD(TR(row)))\n\n    for key in keys:\n        name = md5_hash(key)\n        forms = plurals[key]\n\n        if len(forms) < nplurals:\n            forms.extend(None for i in xrange(nplurals-len(forms)))\n\n        row = [B(key)]\n        row.extend([INPUT(_type=\'text\', _name=name+\'_\'+str(n), value=forms[n], _size=20) for n in xnplurals])\n        row.append(TD(TAG.BUTTON(T(\'delete\'), _onclick=\'return delkey("%s")\' % name)))\n        rows.append(TR(row, _id=name))\n    if rows:\n        table.append(TBODY(rows))\n    rows=[table, INPUT(_type=\'submit\', _value=T(\'update\'))]\n    form = FORM(*rows)\n    if form.accepts(request.vars, keepvalues=True):\n        new_plurals = dict()\n        for key in keys:\n            name = md5_hash(key)\n            if form.vars[name+\'_0\']==chr(127): continue\n            new_plurals[key] = [form.vars[name+\'_\'+str(n)] for n in xnplurals]\n        write_plural_dict(apath(filename, r=request), new_plurals)\n        session.flash = T(\'file saved on %(time)s\', dict(time=time.ctime()))\n        redirect(URL(r=request, args=request.args, vars=dict(nplurals=request.vars.nplurals)))\n    return dict(app=request.args[0], filename=filename, form=form)\n\n\ndef about():\n    """ Read about info """\n    app = get_app()\n    # ## check if file is not there\n    about = safe_read(apath(\'%s/ABOUT\' % app, r=request))\n    license = safe_read(apath(\'%s/LICENSE\' % app, r=request))\n    return dict(app=app, about=MARKMIN(about), license=MARKMIN(license),progress=report_progress(app))\n\n\ndef design():\n    """ Application design handler """\n    app = get_app()\n\n    if not response.flash and app == request.application:\n        msg = T(\'ATTENTION: you cannot edit the running application!\')\n        response.flash = msg\n\n    if request.vars and not request.vars.token==session.token:\n        redirect(URL(\'logout\'))\n\n    if request.vars.pluginfile!=None and not isinstance(request.vars.pluginfile,str):\n        filename=os.path.basename(request.vars.pluginfile.filename)\n        if plugin_install(app, request.vars.pluginfile.file,\n                          request, filename):\n            session.flash = T(\'new plugin installed\')\n            redirect(URL(\'design\',args=app))\n        else:\n            session.flash = \\\n                T(\'unable to create application "%s"\', request.vars.filename)\n        redirect(URL(r=request))\n    elif isinstance(request.vars.pluginfile,str):\n        session.flash = T(\'plugin not specified\')\n        redirect(URL(r=request))\n\n\n    # If we have only pyc files it means that\n    # we cannot design\n    if os.path.exists(apath(\'%s/compiled\' % app, r=request)):\n        session.flash = \\\n            T(\'application is compiled and cannot be designed\')\n        redirect(URL(\'site\'))\n\n    # Get all models\n    models = listdir(apath(\'%s/models/\' % app, r=request), \'.*\\.py$\')\n    models=[x.replace(\'\\\\\',\'/\') for x in models]\n    defines = {}\n    for m in models:\n        data = safe_read(apath(\'%s/models/%s\' % (app, m), r=request))\n        defines[m] = regex_tables.findall(data)\n        defines[m].sort()\n\n    # Get all controllers\n    controllers = sorted(listdir(apath(\'%s/controllers/\' % app, r=request), \'.*\\.py$\'))\n    controllers = [x.replace(\'\\\\\',\'/\') for x in controllers]\n    functions = {}\n    for c in controllers:\n        data = safe_read(apath(\'%s/controllers/%s\' % (app, c), r=request))\n        items = regex_expose.findall(data)\n        functions[c] = items\n\n    # Get all views\n    views = sorted(listdir(apath(\'%s/views/\' % app, r=request), \'[\\w/\\-]+(\\.\\w+)+$\'))\n    views = [x.replace(\'\\\\\',\'/\') for x in views if not x.endswith(\'.bak\')]\n    extend = {}\n    include = {}\n    for c in views:\n        data = safe_read(apath(\'%s/views/%s\' % (app, c), r=request))\n        items = regex_extend.findall(data)\n\n        if items:\n            extend[c] = items[0][1]\n\n        items = regex_include.findall(data)\n        include[c] = [i[1] for i in items]\n\n    # Get all modules\n    modules = listdir(apath(\'%s/modules/\' % app, r=request), \'.*\\.py$\')\n    modules = modules=[x.replace(\'\\\\\',\'/\') for x in modules]\n    modules.sort()\n\n    # Get all private files\n    privates = listdir(apath(\'%s/private/\' % app, r=request), \'[^\\.#].*\')\n    privates = [x.replace(\'\\\\\',\'/\') for x in privates]\n    privates.sort()\n\n    # Get all static files\n    statics = listdir(apath(\'%s/static/\' % app, r=request), \'[^\\.#].*\')\n    statics = [x.replace(\'\\\\\',\'/\') for x in statics]\n    statics.sort()\n\n    # Get all languages\n    all_languages=dict([(lang+\'.py\',info[0]) for lang,info\n                        in read_possible_languages(apath(app, r=request)).iteritems()\n                        if info[2]!=0]) # info[2] is langfile_mtime:\n                                        # get only existed files\n    languages = sorted(all_languages)\n\n    plural_rules = {}\n    all_plurals = PLURAL_RULES\n    for langfile,lang in all_languages.iteritems():\n        lang=lang.strip()\n        match_language = regex_language.match(lang)\n        if match_language:\n            match_language = tuple(part\n                                   for part in match_language.groups()\n                                   if part)\n            plang = lang_sampling(match_language, all_plurals.keys())\n            if plang:\n               plural=all_plurals[plang]\n               plural_rules[langfile]=(plural[0],plang,plural[4],plural[3])\n            else:\n               plural_rules[langfile]=(0,lang,\'plural_rules-%s.py\'%lang,\'\')\n\n    plurals = listdir(apath(\'%s/languages/\' % app, r=request),\n                      \'^plural-[\\w-]+\\.py$\')\n\n    #Get crontab\n    cronfolder = apath(\'%s/cron\' % app, r=request)\n    if not os.path.exists(cronfolder): os.mkdir(cronfolder)\n    crontab = apath(\'%s/cron/crontab\' % app, r=request)\n    if not os.path.exists(crontab):\n        safe_write(crontab, \'#crontab\')\n\n    plugins=[]\n    def filter_plugins(items,plugins):\n        plugins+=[item[7:].split(\'/\')[0].split(\'.\')[0] for item in items if item.startswith(\'plugin_\')]\n        plugins[:]=list(set(plugins))\n        plugins.sort()\n        return [item for item in items if not item.startswith(\'plugin_\')]\n\n    return dict(app=app,\n                models=filter_plugins(models,plugins),\n                defines=defines,\n                controllers=filter_plugins(controllers,plugins),\n                functions=functions,\n                views=filter_plugins(views,plugins),\n                modules=filter_plugins(modules,plugins),\n                extend=extend,\n                include=include,\n                privates=filter_plugins(privates,plugins),\n                statics=filter_plugins(statics,plugins),\n                languages=languages,\n                plurals=plurals,\n                plural_rules=plural_rules,\n                crontab=crontab,\n                plugins=plugins)\n\ndef delete_plugin():\n    """ Object delete handler """\n    app=request.args(0)\n    plugin = request.args(1)\n    plugin_name=\'plugin_\'+plugin\n\n    dialog = FORM.confirm(\n        T(\'Delete\'),\n        {T(\'Cancel\'):URL(\'design\', args=app)})\n\n    if dialog.accepted:\n        try:\n            for folder in [\'models\',\'views\',\'controllers\',\'static\',\'modules\', \'private\']:\n                path=os.path.join(apath(app,r=request),folder)\n                for item in os.listdir(path):\n                    if item.rsplit(\'.\',1)[0] == plugin_name:\n                        filename=os.path.join(path,item)\n                        if os.path.isdir(filename):\n                            shutil.rmtree(filename)\n                        else:\n                            os.unlink(filename)\n            session.flash = T(\'plugin "%(plugin)s" deleted\',\n                              dict(plugin=plugin))\n        except Exception:\n            session.flash = T(\'unable to delete file plugin "%(plugin)s"\',\n                              dict(plugin=plugin))\n        redirect(URL(\'design\', args=request.args(0), anchor=request.vars.id2))\n    return dict(dialog=dialog,plugin=plugin)\n\ndef plugin():\n    """ Application design handler """\n    app = get_app()\n    plugin = request.args(1)\n\n    if not response.flash and app == request.application:\n        msg = T(\'ATTENTION: you cannot edit the running application!\')\n        response.flash = msg\n\n    # If we have only pyc files it means that\n    # we cannot design\n    if os.path.exists(apath(\'%s/compiled\' % app, r=request)):\n        session.flash = \\\n            T(\'application is compiled and cannot be designed\')\n        redirect(URL(\'site\'))\n\n    # Get all models\n    models = listdir(apath(\'%s/models/\' % app, r=request), \'.*\\.py$\')\n    models=[x.replace(\'\\\\\',\'/\') for x in models]\n    defines = {}\n    for m in models:\n        data = safe_read(apath(\'%s/models/%s\' % (app, m), r=request))\n        defines[m] = regex_tables.findall(data)\n        defines[m].sort()\n\n    # Get all controllers\n    controllers = sorted(listdir(apath(\'%s/controllers/\' % app, r=request), \'.*\\.py$\'))\n    controllers = [x.replace(\'\\\\\',\'/\') for x in controllers]\n    functions = {}\n    for c in controllers:\n        data = safe_read(apath(\'%s/controllers/%s\' % (app, c), r=request))\n        items = regex_expose.findall(data)\n        functions[c] = items\n\n    # Get all views\n    views = sorted(listdir(apath(\'%s/views/\' % app, r=request), \'[\\w/\\-]+\\.\\w+$\'))\n    views = [x.replace(\'\\\\\',\'/\') for x in views]\n    extend = {}\n    include = {}\n    for c in views:\n        data = safe_read(apath(\'%s/views/%s\' % (app, c), r=request))\n        items = regex_extend.findall(data)\n        if items:\n            extend[c] = items[0][1]\n\n        items = regex_include.findall(data)\n        include[c] = [i[1] for i in items]\n\n    # Get all modules\n    modules = listdir(apath(\'%s/modules/\' % app, r=request), \'.*\\.py$\')\n    modules = modules=[x.replace(\'\\\\\',\'/\') for x in modules]\n    modules.sort()\n\n    # Get all private files\n    privates = listdir(apath(\'%s/private/\' % app, r=request), \'[^\\.#].*\')\n    privates = [x.replace(\'\\\\\',\'/\') for x in privates]\n    privates.sort()\n\n    # Get all static files\n    statics = listdir(apath(\'%s/static/\' % app, r=request), \'[^\\.#].*\')\n    statics = [x.replace(\'\\\\\',\'/\') for x in statics]\n    statics.sort()\n\n    # Get all languages\n    languages = sorted([lang+\'.py\' for lang, info in\n                    T.get_possible_languages_info().iteritems()\n                    if info[2]!=0]) # info[2] is langfile_mtime:\n                                    # get only existed files\n\n    #Get crontab\n    crontab = apath(\'%s/cron/crontab\' % app, r=request)\n    if not os.path.exists(crontab):\n        safe_write(crontab, \'#crontab\')\n\n    def filter_plugins(items):\n        regex=re.compile(\'^plugin_\'+plugin+\'(/.*|\\..*)?$\')\n        return [item for item in items if item and regex.match(item)]\n\n    return dict(app=app,\n                models=filter_plugins(models),\n                defines=defines,\n                controllers=filter_plugins(controllers),\n                functions=functions,\n                views=filter_plugins(views),\n                modules=filter_plugins(modules),\n                extend=extend,\n                include=include,\n                privates=filter_plugins(privates),\n                statics=filter_plugins(statics),\n                languages=languages,\n                crontab=crontab)\n\n\ndef create_file():\n    """ Create files handler """\n    if request.vars and not request.vars.token==session.token:\n        redirect(URL(\'logout\'))\n    try:\n        anchor=\'#\'+request.vars.id if request.vars.id else \'\'\n        if request.vars.app:\n            app = get_app(request.vars.app)\n            path = abspath(request.vars.location)\n        else:\n            app = get_app(name=request.vars.location.split(\'/\')[0])\n            path = apath(request.vars.location, r=request)\n        filename = re.sub(\'[^\\w./-]+\', \'_\', request.vars.filename)\n        if path[-7:] == \'/rules/\':\n            # Handle plural rules files\n            if len(filename) == 0:\n                raise SyntaxError\n            if not filename[-3:] == \'.py\':\n                filename += \'.py\'\n            lang = re.match(\'^plural_rules-(.*)\\.py$\',filename).group(1)\n            langinfo = read_possible_languages(apath(app, r=request))[lang]\n            text = dedent("""\n                   #!/usr/bin/env python\n                   # -*- coding: utf8 -*-\n                   # Plural-Forms for %(lang)s (%(langname)s)\n\n                   nplurals=2  # for example, English language has 2 forms:\n                               # 1 singular and 1 plural\n\n                   # Determine plural_id for number *n* as sequence of positive\n                   # integers: 0,1,...\n                   # NOTE! For singular form ALWAYS return plural_id = 0\n                   get_plural_id = lambda n: int(n != 1)\n\n                   # Construct and return plural form of *word* using\n                   # *plural_id* (which ALWAYS>0). This function will be executed\n                   # for words (or phrases) not found in plural_dict dictionary.\n                   # By default this function simply returns word in singular:\n                   construct_plural_form = lambda word, plural_id: word\n                   """)[1:] % dict(lang=langinfo[0], langname=langinfo[1])\n\n        elif path[-11:] == \'/languages/\':\n            # Handle language files\n            if len(filename) == 0:\n                raise SyntaxError\n            if not filename[-3:] == \'.py\':\n                filename += \'.py\'\n            path=os.path.join(apath(app, r=request),\'languages\',filename)\n            if not os.path.exists(path):\n                safe_write(path, \'\')\n            # create language xx[-yy].py file:\n            findT(apath(app, r=request), filename[:-3])\n            session.flash = T(\'language file "%(filename)s" created/updated\',\n                               dict(filename=filename))\n            redirect(request.vars.sender+anchor)\n\n        elif path[-8:] == \'/models/\':\n            # Handle python models\n            if not filename[-3:] == \'.py\':\n                filename += \'.py\'\n\n            if len(filename) == 3:\n                raise SyntaxError\n\n            text = \'# coding: utf8\\n\'\n\n        elif path[-13:] == \'/controllers/\':\n            # Handle python controllers\n            if not filename[-3:] == \'.py\':\n                filename += \'.py\'\n\n            if len(filename) == 3:\n                raise SyntaxError\n\n            text = \'# coding: utf8\\n# %s\\ndef index(): return dict(message="hello from %s")\'\n            text = text % (T(\'try something like\'), filename)\n\n        elif path[-7:] == \'/views/\':\n            if request.vars.plugin and not filename.startswith(\'plugin_%s/\' % request.vars.plugin):\n                filename = \'plugin_%s/%s\' % (request.vars.plugin, filename)\n            # Handle template (html) views\n            if filename.find(\'.\')<0:\n                filename += \'.html\'\n            extension = filename.split(\'.\')[-1].lower()\n\n            if len(filename) == 5:\n                raise SyntaxError\n\n            msg = T(\'This is the %(filename)s template\', dict(filename=filename))\n            if extension == \'html\':\n                text = dedent("""\n                   {{extend \'layout.html\'}}\n                   <h1>%s</h1>\n                   {{=BEAUTIFY(response._vars)}}""" % msg)[1:]\n            else:\n                generic = os.path.join(path,\'generic.\'+extension)\n                if os.path.exists(generic):\n                    text = read_file(generic)\n                else:\n                    text = \'\'\n\n        elif path[-9:] == \'/modules/\':\n            if request.vars.plugin and not filename.startswith(\'plugin_%s/\' % request.vars.plugin):\n                filename = \'plugin_%s/%s\' % (request.vars.plugin, filename)\n            # Handle python module files\n            if not filename[-3:] == \'.py\':\n                filename += \'.py\'\n\n            if len(filename) == 3:\n                raise SyntaxError\n\n            text = dedent("""\n                   #!/usr/bin/env python\n                   # coding: utf8\n                   from gluon import *\\n""")[1:]\n\n        elif (path[-8:] == \'/static/\') or (path[-9:] == \'/private/\'):\n            if request.vars.plugin and not filename.startswith(\'plugin_%s/\' % request.vars.plugin):\n                filename = \'plugin_%s/%s\' % (request.vars.plugin, filename)\n            text = \'\'\n            \n        else:\n            redirect(request.vars.sender+anchor)\n\n        full_filename = os.path.join(path, filename)\n        dirpath = os.path.dirname(full_filename)\n\n        if not os.path.exists(dirpath):\n            os.makedirs(dirpath)\n\n        if os.path.exists(full_filename):\n            raise SyntaxError\n\n        safe_write(full_filename, text)\n        log_progress(app,\'CREATE\',filename)\n        session.flash = T(\'file "%(filename)s" created\',\n                          dict(filename=full_filename[len(path):]))\n        vars={}\n        if request.vars.id: vars[\'id\']=request.vars.id\n        if request.vars.app: vars[\'app\']=request.vars.app\n        redirect(URL(\'edit\',\n                 args=[os.path.join(request.vars.location, filename)], vars=vars))\n    except Exception, e:\n        if not isinstance(e,HTTP):\n            session.flash = T(\'cannot create file\')\n\n    redirect(request.vars.sender+anchor)\n\n\ndef upload_file():\n    """ File uploading handler """\n    if request.vars and not request.vars.token==session.token:\n        redirect(URL(\'logout\'))\n    try:\n        filename = None\n        app = get_app(name=request.vars.location.split(\'/\')[0])\n        path = apath(request.vars.location, r=request)\n\n        if request.vars.filename:\n            filename = re.sub(\'[^\\w\\./]+\', \'_\', request.vars.filename)\n        else:\n            filename = os.path.split(request.vars.file.filename)[-1]\n\n        if path[-8:] == \'/models/\' and not filename[-3:] == \'.py\':\n            filename += \'.py\'\n\n        if path[-9:] == \'/modules/\' and not filename[-3:] == \'.py\':\n            filename += \'.py\'\n\n        if path[-13:] == \'/controllers/\' and not filename[-3:] == \'.py\':\n            filename += \'.py\'\n\n        if path[-7:] == \'/views/\' and not filename[-5:] == \'.html\':\n            filename += \'.html\'\n\n        if path[-11:] == \'/languages/\' and not filename[-3:] == \'.py\':\n            filename += \'.py\'\n\n        filename = os.path.join(path, filename)\n        dirpath = os.path.dirname(filename)\n\n        if not os.path.exists(dirpath):\n            os.makedirs(dirpath)\n\n        data = request.vars.file.file.read()\n        lineno = count_lines(data)\n        safe_write(filename, data, \'wb\')\n        log_progress(app,\'UPLOAD\',filename,lineno)\n        session.flash = T(\'file "%(filename)s" uploaded\',\n                          dict(filename=filename[len(path):]))\n    except Exception:\n        if filename:\n            d = dict(filename = filename[len(path):])\n        else:\n            d = dict(filename = \'unkown\')\n        session.flash = T(\'cannot upload file "%(filename)s"\', d)\n\n    redirect(request.vars.sender)\n\n\ndef errors():\n    """ Error handler """\n    import operator\n    import os\n    import pickle\n    import hashlib\n\n    app = get_app()\n\n    method = request.args(1) or \'new\'\n    db_ready = {}\n    db_ready[\'status\'] = get_ticket_storage(app)\n    db_ready[\'errmessage\'] = T("No ticket_storage.txt found under /private folder")\n    db_ready[\'errlink\'] = "http://web2py.com/books/default/chapter/29/13#Collecting-tickets"\n\n    if method == \'new\':\n        errors_path = apath(\'%s/errors\' % app, r=request)\n\n        delete_hashes = []\n        for item in request.vars:\n            if item[:7] == \'delete_\':\n                delete_hashes.append(item[7:])\n\n        hash2error = dict()\n\n        for fn in listdir(errors_path, \'^[a-fA-F0-9.\\-]+$\'):\n            fullpath = os.path.join(errors_path, fn)\n            if not os.path.isfile(fullpath): continue\n            try:\n                fullpath_file = open(fullpath, \'r\')\n                try:\n                    error = pickle.load(fullpath_file)\n                finally:\n                    fullpath_file.close()\n            except IOError:\n                continue\n            except EOFError:\n                continue\n\n            hash = hashlib.md5(error[\'traceback\']).hexdigest()\n\n            if hash in delete_hashes:\n                os.unlink(fullpath)\n            else:\n                try:\n                    hash2error[hash][\'count\'] += 1\n                except KeyError:\n                    error_lines = error[\'traceback\'].split("\\n")\n                    last_line = error_lines[-2]\n                    error_causer = os.path.split(error[\'layer\'])[1]\n                    hash2error[hash] = dict(count=1, pickel=error,\n                                            causer=error_causer,\n                                            last_line=last_line,\n                                            hash=hash,ticket=fn)\n\n        decorated = [(x[\'count\'], x) for x in hash2error.values()]\n        decorated.sort(key=operator.itemgetter(0), reverse=True)\n\n        return dict(errors = [x[1] for x in decorated], app=app, method=method, db_ready=db_ready)\n\n\n    elif method == \'dbnew\':\n        errors_path = apath(\'%s/errors\' % app, r=request)\n        tk_db, tk_table = get_ticket_storage(app)\n\n        delete_hashes = []\n        for item in request.vars:\n            if item[:7] == \'delete_\':\n                delete_hashes.append(item[7:])\n\n        hash2error = dict()\n\n        for fn in tk_db(tk_table.id>0).select():\n            try:\n                error = pickle.loads(fn.ticket_data)\n            except AttributeError:\n                tk_db(tk_table.id == fn.id).delete()\n                tk_db.commit()\n\n            hash = hashlib.md5(error[\'traceback\']).hexdigest()\n\n            if hash in delete_hashes:\n                tk_db(tk_table.id == fn.id).delete()\n                tk_db.commit()\n            else:\n                try:\n                    hash2error[\'hash\'][\'count\'] += 1\n                except KeyError:\n                    error_lines = error[\'traceback\'].split("\\n")\n                    last_line = error_lines[-2]\n                    error_causer = os.path.split(error[\'layer\'])[1]\n                    hash2error[hash] = dict(count=1, pickel=error,\n                                            causer=error_causer,\n                                            last_line=last_line,\n                                            hash=hash,ticket=fn.ticket_id)\n\n        decorated = [(x[\'count\'], x) for x in hash2error.values()]\n\n        decorated.sort(key=operator.itemgetter(0), reverse=True)\n\n        return dict(errors = [x[1] for x in decorated], app=app, method=method)\n\n    elif method == \'dbold\':\n        tk_db, tk_table = get_ticket_storage(app)\n        for item in request.vars:\n            if item[:7] == \'delete_\':\n                tk_db(tk_table.ticket_id == item[7:]).delete()\n                tk_db.commit()\n        tickets_ = tk_db(tk_table.id>0).select(tk_table.ticket_id, tk_table.created_datetime, orderby=~tk_table.created_datetime)\n        tickets = [row.ticket_id for row in tickets_]\n        times = dict([(row.ticket_id, row.created_datetime) for row in tickets_])\n\n        return dict(app=app, tickets=tickets, method=method, times=times)\n\n    else:\n        for item in request.vars:\n            if item[:7] == \'delete_\':\n                os.unlink(apath(\'%s/errors/%s\' % (app, item[7:]), r=request))\n        func = lambda p: os.stat(apath(\'%s/errors/%s\' % \\\n                                           (app, p), r=request)).st_mtime\n        tickets = sorted(listdir(apath(\'%s/errors/\' % app, r=request), \'^\\w.*\'),\n                         key=func,\n                         reverse=True)\n\n        return dict(app=app, tickets=tickets, method=method, db_ready=db_ready)\n\ndef get_ticket_storage(app):\n    private_folder = apath(\'%s/private\' % app, r=request)\n    ticket_file = os.path.join(private_folder, \'ticket_storage.txt\')\n    if os.path.exists(ticket_file):\n        db_string = open(ticket_file).read()\n        db_string = db_string.strip().replace(\'\\r\',\'\').replace(\'\\n\',\'\')\n    else:\n        return False\n    tickets_table = \'web2py_ticket\'\n    tablename = tickets_table + \'_\' + app\n    db_path = apath(\'%s/databases\' % app, r=request)\n    ticketsdb = DAL(db_string, folder=db_path, auto_import=True)\n    if not ticketsdb.get(tablename):\n        table = ticketsdb.define_table(\n                tablename,\n                Field(\'ticket_id\', length=100),\n                Field(\'ticket_data\', \'text\'),\n                Field(\'created_datetime\', \'datetime\'),\n                )\n    return ticketsdb , ticketsdb.get(tablename)\n\ndef make_link(path):\n    """ Create a link from a path """\n    tryFile = path.replace(\'\\\\\', \'/\')\n\n    if os.path.isabs(tryFile) and os.path.isfile(tryFile):\n        (folder, filename) = os.path.split(tryFile)\n        (base, ext) = os.path.splitext(filename)\n        app = get_app()\n\n        editable = {\'controllers\': \'.py\', \'models\': \'.py\', \'views\': \'.html\'}\n        for key in editable.keys():\n            check_extension = folder.endswith("%s/%s" % (app,key))\n            if ext.lower() == editable[key] and check_extension:\n                return A(\'"\' + tryFile + \'"\',\n                         _href=URL(r=request,\n                         f=\'edit/%s/%s/%s\' % (app, key, filename))).xml()\n    return \'\'\n\n\ndef make_links(traceback):\n    """ Make links using the given traceback """\n\n    lwords = traceback.split(\'"\')\n\n    # Making the short circuit compatible with <= python2.4\n    result = (len(lwords) != 0) and lwords[0] or \'\'\n\n    i = 1\n\n    while i < len(lwords):\n        link = make_link(lwords[i])\n\n        if link == \'\':\n            result += \'"\' + lwords[i]\n        else:\n            result += link\n\n            if i + 1 < len(lwords):\n                result += lwords[i + 1]\n                i = i + 1\n\n        i = i + 1\n\n    return result\n\n\nclass TRACEBACK(object):\n    """ Generate the traceback """\n\n    def __init__(self, text):\n        """ TRACEBACK constructor """\n\n        self.s = make_links(CODE(text).xml())\n\n    def xml(self):\n        """ Returns the xml """\n\n        return self.s\n\n\ndef ticket():\n    """ Ticket handler """\n\n    if len(request.args) != 2:\n        session.flash = T(\'invalid ticket\')\n        redirect(URL(\'site\'))\n\n    app = get_app()\n    myversion = request.env.web2py_version\n    ticket = request.args[1]\n    e = RestrictedError()\n    e.load(request, app, ticket)\n\n    return dict(app=app,\n                ticket=ticket,\n                output=e.output,\n                traceback=(e.traceback and TRACEBACK(e.traceback)),\n                snapshot=e.snapshot,\n                code=e.code,\n                layer=e.layer,\n                myversion=myversion)\n\ndef ticketdb():\n    """ Ticket handler """\n\n    if len(request.args) != 2:\n        session.flash = T(\'invalid ticket\')\n        redirect(URL(\'site\'))\n\n    app = get_app()\n    myversion = request.env.web2py_version\n    ticket = request.args[1]\n    e = RestrictedError()\n    request.tickets_db = get_ticket_storage(app)[0]\n    e.load(request, app, ticket)\n    response.view = \'default/ticket.html\'\n    return dict(app=app,\n                ticket=ticket,\n                output=e.output,\n                traceback=(e.traceback and TRACEBACK(e.traceback)),\n                snapshot=e.snapshot,\n                code=e.code,\n                layer=e.layer,\n                myversion=myversion)\n\ndef error():\n    """ Generate a ticket (for testing) """\n    raise RuntimeError(\'admin ticket generator at your service\')\n\ndef update_languages():\n    """ Update available languages """\n\n    app = get_app()\n    update_all_languages(apath(app, r=request))\n    session.flash = T(\'Language files (static strings) updated\')\n    redirect(URL(\'design\',args=app,anchor=\'languages\'))\n\n\ndef twitter():\n    session.forget()\n    session._unlock(response)\n    import gluon.tools\n    import gluon.contrib.simplejson as sj\n    try:\n        if TWITTER_HASH:\n            page = urllib.urlopen("http://search.twitter.com/search.json?q=%%40%s" % TWITTER_HASH).read()\n            data = sj.loads(page, encoding="utf-8")[\'results\']\n            d = dict()\n            for e in data:\n                d[e["id"]] = e\n            r = reversed(sorted(d))\n            return dict(tweets = [d[k] for k in r])\n        else:\n            return \'disabled\'\n    except Exception, e:\n        return DIV(T(\'Unable to download because:\'),BR(),str(e))\n\n\ndef user():\n    if MULTI_USER_MODE:\n        if not db(db.auth_user).count():\n            auth.settings.registration_requires_approval = False\n        return dict(form=auth())\n    else:\n        return dict(form=T("Disabled"))\n\ndef reload_routes():\n    """ Reload routes.py """\n    import gluon.rewrite\n    gluon.rewrite.load()\n    redirect(URL(\'site\'))\n\ndef manage_students():\n    if not (MULTI_USER_MODE and is_manager()):\n        session.flash = T(\'Not Authorized\')\n        redirect(URL(\'site\'))\n    db.auth_user.registration_key.writable = True\n    grid = SQLFORM.grid(db.auth_user)\n    return locals()\n\ndef bulk_register():\n    if not (MULTI_USER_MODE and is_manager()):\n        session.flash = T(\'Not Authorized\')\n        redirect(URL(\'site\'))\n    form = SQLFORM.factory(Field(\'emails\',\'text\'))\n    if form.process().accepted:\n        emails = [x.strip() for x in form.vars.emails.split(\'\\n\') if x.strip()]\n        n = 0\n        for email in emails:\n            if not db.auth_user(email=email):\n                n += db.auth_user.insert(email = email) and 1 or 0\n        session.flash = T(\'%s students registered\',n)\n        redirect(URL(\'site\'))\n    return locals()\n\n### Begin experimental stuff need fixes:\n# 1) should run in its own process - cannot os.chdir\n# 2) should not prompt user at console\n# 3) should give option to force commit and not reuqire manual merge\n\ndef git_pull():\n    """ Git Pull handler """\n    app = get_app()\n    if not have_git:\n        session.flash = GIT_MISSING\n        redirect(URL(\'site\'))\n    dialog = FORM.confirm(T(\'Pull\'),\n                         {T(\'Cancel\'):URL(\'site\')})    \n    if dialog.accepted:\n        try:\n            repo = Repo(os.path.join(apath(r=request),app))\n            origin = repo.remotes.origin\n            origin.fetch()\n            origin.pull()\n            session.flash = T("Application updated via git pull")\n            redirect(URL(\'site\'))\n        except CheckoutError, message:\n            logging.error(message)\n            session.flash = T("Pull failed, certain files could not be checked out. Check logs for details.")\n            redirect(URL(\'site\'))\n        except UnmergedEntriesError:\n            session.flash = T("Pull is not possible because you have unmerged files. Fix them up in the work tree, and then try again.")\n            redirect(URL(\'site\'))\n        except AssertionError:\n            session.flash = T("Pull is not possible because you have unmerged files. Fix them up in the work tree, and then try again.")\n            redirect(URL(\'site\'))\n        except GitCommandError, status:\n            logging.error(str(status))\n            session.flash = T("Pull failed, git exited abnormally. See logs for details.")\n            redirect(URL(\'site\'))\n        except Exception,e:\n            logging.error("Unexpected error:", sys.exc_info()[0])\n            session.flash = T("Pull failed, git exited abnormally. See logs for details.")\n            redirect(URL(\'site\'))\n    elif \'cancel\' in request.vars:\n        redirect(URL(\'site\'))\n    return dict(app=app,dialog=dialog)\n\n\ndef git_push():\n    """ Git Push handler """\n    app = get_app()\n    if not have_git:\n        session.flash = GIT_MISSING\n        redirect(URL(\'site\'))\n    form = SQLFORM.factory(Field(\'changelog\',requires=IS_NOT_EMPTY()))\n    form.element(\'input[type=submit]\')[\'_value\']=T(\'Push\')\n    form.add_button(T(\'Cancel\'),URL(\'site\'))\n    form.process()\n    if form.accepted:\n        try:\n            repo = Repo(os.path.join(apath(r=request),app))\n            index = repo.index\n            index.add([apath(r=request)+app+\'/*\'])\n            new_commit = index.commit(form.vars.changelog)\n            origin = repo.remotes.origin\n            origin.push()\n            session.flash = T("Git repo updated with latest application changes.")\n            redirect(URL(\'site\'))\n        except UnmergedEntriesError:\n            session.flash = T("Push failed, there are unmerged entries in the cache. Resolve merge issues manually and try again.")\n            redirect(URL(\'site\'))\n        except Exception, e:\n            logging.error("Unexpected error:", sys.exc_info()[0])\n            session.flash = T("Push failed, git exited abnormally. See logs for details.")\n            redirect(URL(\'site\'))\n    return dict(app=app,form=form)\n\n\nresponse._vars=response._caller(design)\n'
p7
sS'snapshot'
p8
(dp9
S'exception'
p10
(dp11
S'__getslice__'
p12
S"<method-wrapper '__getslice__' of exceptions.OSError object>"
p13
sS'__str__'
p14
S"<method-wrapper '__str__' of exceptions.OSError object>"
p15
sS'__reduce__'
p16
S'<built-in method __reduce__ of exceptions.OSError object>'
p17
sS'__dict__'
p18
S'{}'
p19
sS'__sizeof__'
p20
S'<built-in method __sizeof__ of exceptions.OSError object>'
p21
sS'__init__'
p22
S"<method-wrapper '__init__' of exceptions.OSError object>"
p23
sS'__setattr__'
p24
S"<method-wrapper '__setattr__' of exceptions.OSError object>"
p25
sS'__reduce_ex__'
p26
S'<built-in method __reduce_ex__ of exceptions.OSError object>'
p27
sS'__new__'
p28
S'<built-in method __new__ of type object>'
p29
sS'errno'
p30
S'2'
sS'__format__'
p31
S'<built-in method __format__ of exceptions.OSError object>'
p32
sS'__class__'
p33
S"<type 'exceptions.OSError'>"
p34
sS'filename'
p35
S"'/home/mayank/Desktop/web2pyAddmin/web2py/web2py/applications/201201170/languages'"
p36
sS'__doc__'
p37
S"'OS system call failed.'"
p38
sS'__getitem__'
p39
S"<method-wrapper '__getitem__' of exceptions.OSError object>"
p40
sS'__setstate__'
p41
S'<built-in method __setstate__ of exceptions.OSError object>'
p42
sS'__getattribute__'
p43
S"<method-wrapper '__getattribute__' of exceptions.OSError object>"
p44
sS'args'
p45
S"(2, 'No such file or directory')"
p46
sS'__subclasshook__'
p47
S'<built-in method __subclasshook__ of type object>'
p48
sS'__unicode__'
p49
S'<built-in method __unicode__ of exceptions.OSError object>'
p50
sS'strerror'
p51
S"'No such file or directory'"
p52
sS'__delattr__'
p53
S"<method-wrapper '__delattr__' of exceptions.OSError object>"
p54
sS'__repr__'
p55
S"<method-wrapper '__repr__' of exceptions.OSError object>"
p56
sS'__hash__'
p57
S"<method-wrapper '__hash__' of exceptions.OSError object>"
p58
ssS'evalue'
p59
S"[Errno 2] No such file or directory: '/home/mayank/Desktop/web2pyAddmin/web2py/web2py/applications/201201170/languages'"
p60
sS'request'
p61
ccopy_reg
_reconstructor
p62
(cgluon.html
BEAUTIFY
p63
c__builtin__
object
p64
NtRp65
(dp66
S'attributes'
p67
(dp68
sS'components'
p69
(lp70
g62
(cgluon.html
TABLE
p71
g64
NtRp72
(dp73
g67
(dp74
S'level'
p75
I5
ssS'parent'
p76
Nsg69
(lp77
g62
(cgluon.html
TR
p78
g64
NtRp79
(dp80
g67
(dp81
sg76
g72
sg69
(lp82
g62
(cgluon.html
TD
p83
g64
NtRp84
(dp85
g67
(dp86
S'_style'
p87
S'font-weight:bold;vertical-align:top'
p88
ssg76
g79
sg69
(lp89
S'ajax'
p90
asbag62
(g83
g64
NtRp91
(dp92
g67
(dp93
S'_valign'
p94
S'top'
p95
ssg76
g79
sg69
(lp96
S':'
asbag62
(g83
g64
NtRp97
(dp98
g67
(dp99
sg76
g79
sg69
(lp100
g62
(g63
g64
NtRp101
(dp102
g67
(dp103
g75
I5
ssg76
g97
sg69
(lp104
S'False'
p105
asbasbasbag62
(g78
g64
NtRp106
(dp107
g67
(dp108
sg76
g72
sg69
(lp109
g62
(g83
g64
NtRp110
(dp111
g67
(dp112
g87
g88
ssg76
g106
sg69
(lp113
S'application'
p114
asbag62
(g83
g64
NtRp115
(dp116
g67
(dp117
g94
g95
ssg76
g106
sg69
(lp118
S':'
asbag62
(g83
g64
NtRp119
(dp120
g67
(dp121
sg76
g106
sg69
(lp122
g62
(g63
g64
NtRp123
(dp124
g67
(dp125
g75
I5
ssg76
g119
sg69
(lp126
S'admin'
p127
asbasbasbag62
(g78
g64
NtRp128
(dp129
g67
(dp130
sg76
g72
sg69
(lp131
g62
(g83
g64
NtRp132
(dp133
g67
(dp134
g87
g88
ssg76
g128
sg69
(lp135
g45
asbag62
(g83
g64
NtRp136
(dp137
g67
(dp138
g94
g95
ssg76
g128
sg69
(lp139
S':'
asbag62
(g83
g64
NtRp140
(dp141
g67
(dp142
sg76
g128
sg69
(lp143
g62
(g63
g64
NtRp144
(dp145
g67
(dp146
g75
I5
ssg76
g140
sg69
(lp147
g62
(g71
g64
NtRp148
(dp149
g67
(dp150
g75
I4
ssg76
Nsg69
(lp151
g62
(g78
g64
NtRp152
(dp153
g67
(dp154
sg76
g148
sg69
(lp155
g62
(g83
g64
NtRp156
(dp157
g67
(dp158
sg76
g152
sg69
(lp159
g62
(g63
g64
NtRp160
(dp161
g67
(dp162
g75
I4
ssg76
g156
sg69
(lp163
S'201201170'
p164
asbasbasbasbasbasbasbag62
(g78
g64
NtRp165
(dp166
g67
(dp167
sg76
g72
sg69
(lp168
g62
(g83
g64
NtRp169
(dp170
g67
(dp171
g87
g88
ssg76
g165
sg69
(lp172
S'body'
p173
asbag62
(g83
g64
NtRp174
(dp175
g67
(dp176
g94
g95
ssg76
g165
sg69
(lp177
S':'
asbag62
(g83
g64
NtRp178
(dp179
g67
(dp180
sg76
g165
sg69
(lp181
g62
(g63
g64
NtRp182
(dp183
g67
(dp184
g75
I5
ssg76
g178
sg69
(lp185
S'<cStringIO.StringO object at 0x2675c38>'
p186
asbasbasbag62
(g78
g64
NtRp187
(dp188
g67
(dp189
sg76
g72
sg69
(lp190
g62
(g83
g64
NtRp191
(dp192
g67
(dp193
g87
g88
ssg76
g187
sg69
(lp194
S'cid'
p195
asbag62
(g83
g64
NtRp196
(dp197
g67
(dp198
g94
g95
ssg76
g187
sg69
(lp199
S':'
asbag62
(g83
g64
NtRp200
(dp201
g67
(dp202
sg76
g187
sg69
(lp203
g62
(g63
g64
NtRp204
(dp205
g67
(dp206
g75
I5
ssg76
g200
sg69
(lp207
S'None'
p208
asbasbasbag62
(g78
g64
NtRp209
(dp210
g67
(dp211
sg76
g72
sg69
(lp212
g62
(g83
g64
NtRp213
(dp214
g67
(dp215
g87
g88
ssg76
g209
sg69
(lp216
S'client'
p217
asbag62
(g83
g64
NtRp218
(dp219
g67
(dp220
g94
g95
ssg76
g209
sg69
(lp221
S':'
asbag62
(g83
g64
NtRp222
(dp223
g67
(dp224
sg76
g209
sg69
(lp225
g62
(g63
g64
NtRp226
(dp227
g67
(dp228
g75
I5
ssg76
g222
sg69
(lp229
S'127.0.0.1'
p230
asbasbasbag62
(g78
g64
NtRp231
(dp232
g67
(dp233
sg76
g72
sg69
(lp234
g62
(g83
g64
NtRp235
(dp236
g67
(dp237
g87
g88
ssg76
g231
sg69
(lp238
S'controller'
p239
asbag62
(g83
g64
NtRp240
(dp241
g67
(dp242
g94
g95
ssg76
g231
sg69
(lp243
S':'
asbag62
(g83
g64
NtRp244
(dp245
g67
(dp246
sg76
g231
sg69
(lp247
g62
(g63
g64
NtRp248
(dp249
g67
(dp250
g75
I5
ssg76
g244
sg69
(lp251
S'default'
p252
asbasbasbag62
(g78
g64
NtRp253
(dp254
g67
(dp255
sg76
g72
sg69
(lp256
g62
(g83
g64
NtRp257
(dp258
g67
(dp259
g87
g88
ssg76
g253
sg69
(lp260
S'cookies'
p261
asbag62
(g83
g64
NtRp262
(dp263
g67
(dp264
g94
g95
ssg76
g253
sg69
(lp265
S':'
asbag62
(g83
g64
NtRp266
(dp267
g67
(dp268
sg76
g253
sg69
(lp269
g62
(g63
g64
NtRp270
(dp271
g67
(dp272
g75
I5
ssg76
g266
sg69
(lp273
g62
(g71
g64
NtRp274
(dp275
g67
(dp276
g75
I4
ssg76
Nsg69
(lp277
g62
(g78
g64
NtRp278
(dp279
g67
(dp280
sg76
g274
sg69
(lp281
g62
(g83
g64
NtRp282
(dp283
g67
(dp284
g87
g88
ssg76
g278
sg69
(lp285
S'session_id_admin'
p286
asbag62
(g83
g64
NtRp287
(dp288
g67
(dp289
g94
g95
ssg76
g278
sg69
(lp290
S':'
asbag62
(g83
g64
NtRp291
(dp292
g67
(dp293
sg76
g278
sg69
(lp294
g62
(g63
g64
NtRp295
(dp296
g67
(dp297
g75
I4
ssg76
g291
sg69
(lp298
S'127.0.0.1-dd501bec-a9f3-4a1f-a296-70bc24b875a6'
p299
ag62
(g71
g64
NtRp300
(dp301
g67
(dp302
g75
I3
ssg76
Nsg69
(lp303
g62
(g78
g64
NtRp304
(dp305
g67
(dp306
sg76
g300
sg69
(lp307
g62
(g83
g64
NtRp308
(dp309
g67
(dp310
g87
g88
ssg76
g304
sg69
(lp311
S'comment'
p312
asbag62
(g83
g64
NtRp313
(dp314
g67
(dp315
g94
g95
ssg76
g304
sg69
(lp316
S':'
asbag62
(g83
g64
NtRp317
(dp318
g67
(dp319
sg76
g304
sg69
(lp320
g62
(g63
g64
NtRp321
(dp322
g67
(dp323
g75
I3
ssg76
g317
sg69
(lp324
S''
asbasbasbag62
(g78
g64
NtRp325
(dp326
g67
(dp327
sg76
g300
sg69
(lp328
g62
(g83
g64
NtRp329
(dp330
g67
(dp331
g87
g88
ssg76
g325
sg69
(lp332
S'domain'
p333
asbag62
(g83
g64
NtRp334
(dp335
g67
(dp336
g94
g95
ssg76
g325
sg69
(lp337
S':'
asbag62
(g83
g64
NtRp338
(dp339
g67
(dp340
sg76
g325
sg69
(lp341
g62
(g63
g64
NtRp342
(dp343
g67
(dp344
g75
I3
ssg76
g338
sg69
(lp345
S''
asbasbasbag62
(g78
g64
NtRp346
(dp347
g67
(dp348
sg76
g300
sg69
(lp349
g62
(g83
g64
NtRp350
(dp351
g67
(dp352
g87
g88
ssg76
g346
sg69
(lp353
S'expires'
p354
asbag62
(g83
g64
NtRp355
(dp356
g67
(dp357
g94
g95
ssg76
g346
sg69
(lp358
S':'
asbag62
(g83
g64
NtRp359
(dp360
g67
(dp361
sg76
g346
sg69
(lp362
g62
(g63
g64
NtRp363
(dp364
g67
(dp365
g75
I3
ssg76
g359
sg69
(lp366
S''
asbasbasbag62
(g78
g64
NtRp367
(dp368
g67
(dp369
sg76
g300
sg69
(lp370
g62
(g83
g64
NtRp371
(dp372
g67
(dp373
g87
g88
ssg76
g367
sg69
(lp374
S'httponly'
p375
asbag62
(g83
g64
NtRp376
(dp377
g67
(dp378
g94
g95
ssg76
g367
sg69
(lp379
S':'
asbag62
(g83
g64
NtRp380
(dp381
g67
(dp382
sg76
g367
sg69
(lp383
g62
(g63
g64
NtRp384
(dp385
g67
(dp386
g75
I3
ssg76
g380
sg69
(lp387
S''
asbasbasbag62
(g78
g64
NtRp388
(dp389
g67
(dp390
sg76
g300
sg69
(lp391
g62
(g83
g64
NtRp392
(dp393
g67
(dp394
g87
g88
ssg76
g388
sg69
(lp395
S'max-age'
p396
asbag62
(g83
g64
NtRp397
(dp398
g67
(dp399
g94
g95
ssg76
g388
sg69
(lp400
S':'
asbag62
(g83
g64
NtRp401
(dp402
g67
(dp403
sg76
g388
sg69
(lp404
g62
(g63
g64
NtRp405
(dp406
g67
(dp407
g75
I3
ssg76
g401
sg69
(lp408
S''
asbasbasbag62
(g78
g64
NtRp409
(dp410
g67
(dp411
sg76
g300
sg69
(lp412
g62
(g83
g64
NtRp413
(dp414
g67
(dp415
g87
g88
ssg76
g409
sg69
(lp416
S'path'
p417
asbag62
(g83
g64
NtRp418
(dp419
g67
(dp420
g94
g95
ssg76
g409
sg69
(lp421
S':'
asbag62
(g83
g64
NtRp422
(dp423
g67
(dp424
sg76
g409
sg69
(lp425
g62
(g63
g64
NtRp426
(dp427
g67
(dp428
g75
I3
ssg76
g422
sg69
(lp429
S''
asbasbasbag62
(g78
g64
NtRp430
(dp431
g67
(dp432
sg76
g300
sg69
(lp433
g62
(g83
g64
NtRp434
(dp435
g67
(dp436
g87
g88
ssg76
g430
sg69
(lp437
S'secure'
p438
asbag62
(g83
g64
NtRp439
(dp440
g67
(dp441
g94
g95
ssg76
g430
sg69
(lp442
S':'
asbag62
(g83
g64
NtRp443
(dp444
g67
(dp445
sg76
g430
sg69
(lp446
g62
(g63
g64
NtRp447
(dp448
g67
(dp449
g75
I3
ssg76
g443
sg69
(lp450
S''
asbasbasbag62
(g78
g64
NtRp451
(dp452
g67
(dp453
sg76
g300
sg69
(lp454
g62
(g83
g64
NtRp455
(dp456
g67
(dp457
g87
g88
ssg76
g451
sg69
(lp458
S'version'
p459
asbag62
(g83
g64
NtRp460
(dp461
g67
(dp462
g94
g95
ssg76
g451
sg69
(lp463
S':'
asbag62
(g83
g64
NtRp464
(dp465
g67
(dp466
sg76
g451
sg69
(lp467
g62
(g63
g64
NtRp468
(dp469
g67
(dp470
g75
I3
ssg76
g464
sg69
(lp471
S''
asbasbasbasbasbasbasbag62
(g78
g64
NtRp472
(dp473
g67
(dp474
sg76
g274
sg69
(lp475
g62
(g83
g64
NtRp476
(dp477
g67
(dp478
g87
g88
ssg76
g472
sg69
(lp479
S'session_id_welcome'
p480
asbag62
(g83
g64
NtRp481
(dp482
g67
(dp483
g94
g95
ssg76
g472
sg69
(lp484
S':'
asbag62
(g83
g64
NtRp485
(dp486
g67
(dp487
sg76
g472
sg69
(lp488
g62
(g63
g64
NtRp489
(dp490
g67
(dp491
g75
I4
ssg76
g485
sg69
(lp492
S'127.0.0.1-1005be10-5418-4340-bf03-0d32383296ca'
p493
ag62
(g71
g64
NtRp494
(dp495
g67
(dp496
g75
I3
ssg76
Nsg69
(lp497
g62
(g78
g64
NtRp498
(dp499
g67
(dp500
sg76
g494
sg69
(lp501
g62
(g83
g64
NtRp502
(dp503
g67
(dp504
g87
g88
ssg76
g498
sg69
(lp505
g312
asbag62
(g83
g64
NtRp506
(dp507
g67
(dp508
g94
g95
ssg76
g498
sg69
(lp509
S':'
asbag62
(g83
g64
NtRp510
(dp511
g67
(dp512
sg76
g498
sg69
(lp513
g62
(g63
g64
NtRp514
(dp515
g67
(dp516
g75
I3
ssg76
g510
sg69
(lp517
S''
asbasbasbag62
(g78
g64
NtRp518
(dp519
g67
(dp520
sg76
g494
sg69
(lp521
g62
(g83
g64
NtRp522
(dp523
g67
(dp524
g87
g88
ssg76
g518
sg69
(lp525
g333
asbag62
(g83
g64
NtRp526
(dp527
g67
(dp528
g94
g95
ssg76
g518
sg69
(lp529
S':'
asbag62
(g83
g64
NtRp530
(dp531
g67
(dp532
sg76
g518
sg69
(lp533
g62
(g63
g64
NtRp534
(dp535
g67
(dp536
g75
I3
ssg76
g530
sg69
(lp537
S''
asbasbasbag62
(g78
g64
NtRp538
(dp539
g67
(dp540
sg76
g494
sg69
(lp541
g62
(g83
g64
NtRp542
(dp543
g67
(dp544
g87
g88
ssg76
g538
sg69
(lp545
g354
asbag62
(g83
g64
NtRp546
(dp547
g67
(dp548
g94
g95
ssg76
g538
sg69
(lp549
S':'
asbag62
(g83
g64
NtRp550
(dp551
g67
(dp552
sg76
g538
sg69
(lp553
g62
(g63
g64
NtRp554
(dp555
g67
(dp556
g75
I3
ssg76
g550
sg69
(lp557
S''
asbasbasbag62
(g78
g64
NtRp558
(dp559
g67
(dp560
sg76
g494
sg69
(lp561
g62
(g83
g64
NtRp562
(dp563
g67
(dp564
g87
g88
ssg76
g558
sg69
(lp565
g375
asbag62
(g83
g64
NtRp566
(dp567
g67
(dp568
g94
g95
ssg76
g558
sg69
(lp569
S':'
asbag62
(g83
g64
NtRp570
(dp571
g67
(dp572
sg76
g558
sg69
(lp573
g62
(g63
g64
NtRp574
(dp575
g67
(dp576
g75
I3
ssg76
g570
sg69
(lp577
S''
asbasbasbag62
(g78
g64
NtRp578
(dp579
g67
(dp580
sg76
g494
sg69
(lp581
g62
(g83
g64
NtRp582
(dp583
g67
(dp584
g87
g88
ssg76
g578
sg69
(lp585
g396
asbag62
(g83
g64
NtRp586
(dp587
g67
(dp588
g94
g95
ssg76
g578
sg69
(lp589
S':'
asbag62
(g83
g64
NtRp590
(dp591
g67
(dp592
sg76
g578
sg69
(lp593
g62
(g63
g64
NtRp594
(dp595
g67
(dp596
g75
I3
ssg76
g590
sg69
(lp597
S''
asbasbasbag62
(g78
g64
NtRp598
(dp599
g67
(dp600
sg76
g494
sg69
(lp601
g62
(g83
g64
NtRp602
(dp603
g67
(dp604
g87
g88
ssg76
g598
sg69
(lp605
g417
asbag62
(g83
g64
NtRp606
(dp607
g67
(dp608
g94
g95
ssg76
g598
sg69
(lp609
S':'
asbag62
(g83
g64
NtRp610
(dp611
g67
(dp612
sg76
g598
sg69
(lp613
g62
(g63
g64
NtRp614
(dp615
g67
(dp616
g75
I3
ssg76
g610
sg69
(lp617
S''
asbasbasbag62
(g78
g64
NtRp618
(dp619
g67
(dp620
sg76
g494
sg69
(lp621
g62
(g83
g64
NtRp622
(dp623
g67
(dp624
g87
g88
ssg76
g618
sg69
(lp625
g438
asbag62
(g83
g64
NtRp626
(dp627
g67
(dp628
g94
g95
ssg76
g618
sg69
(lp629
S':'
asbag62
(g83
g64
NtRp630
(dp631
g67
(dp632
sg76
g618
sg69
(lp633
g62
(g63
g64
NtRp634
(dp635
g67
(dp636
g75
I3
ssg76
g630
sg69
(lp637
S''
asbasbasbag62
(g78
g64
NtRp638
(dp639
g67
(dp640
sg76
g494
sg69
(lp641
g62
(g83
g64
NtRp642
(dp643
g67
(dp644
g87
g88
ssg76
g638
sg69
(lp645
g459
asbag62
(g83
g64
NtRp646
(dp647
g67
(dp648
g94
g95
ssg76
g638
sg69
(lp649
S':'
asbag62
(g83
g64
NtRp650
(dp651
g67
(dp652
sg76
g638
sg69
(lp653
g62
(g63
g64
NtRp654
(dp655
g67
(dp656
g75
I3
ssg76
g650
sg69
(lp657
S''
asbasbasbasbasbasbasbasbasbasbasbag62
(g78
g64
NtRp658
(dp659
g67
(dp660
sg76
g72
sg69
(lp661
g62
(g83
g64
NtRp662
(dp663
g67
(dp664
g87
g88
ssg76
g658
sg69
(lp665
S'env'
p666
asbag62
(g83
g64
NtRp667
(dp668
g67
(dp669
g94
g95
ssg76
g658
sg69
(lp670
S':'
asbag62
(g83
g64
NtRp671
(dp672
g67
(dp673
sg76
g658
sg69
(lp674
g62
(g63
g64
NtRp675
(dp676
g67
(dp677
g75
I5
ssg76
g671
sg69
(lp678
g62
(g71
g64
NtRp679
(dp680
g67
(dp681
g75
I4
ssg76
Nsg69
(lp682
g62
(g78
g64
NtRp683
(dp684
g67
(dp685
sg76
g679
sg69
(lp686
g62
(g83
g64
NtRp687
(dp688
g67
(dp689
g87
g88
ssg76
g683
sg69
(lp690
S'app_folders'
p691
asbag62
(g83
g64
NtRp692
(dp693
g67
(dp694
g94
g95
ssg76
g683
sg69
(lp695
S':'
asbag62
(g83
g64
NtRp696
(dp697
g67
(dp698
sg76
g683
sg69
(lp699
g62
(g63
g64
NtRp700
(dp701
g67
(dp702
g75
I4
ssg76
g696
sg69
(lp703
S"set(['/home/mayank/Desktop/web2pyAddmin/web2py/web2py/applications/admin/', '/home/mayank/Desktop/web2pyAddmin/web2py/web2py/applications/welcome/'])"
p704
asbasbasbag62
(g78
g64
NtRp705
(dp706
g67
(dp707
sg76
g679
sg69
(lp708
g62
(g83
g64
NtRp709
(dp710
g67
(dp711
g87
g88
ssg76
g705
sg69
(lp712
S'applications_parent'
p713
asbag62
(g83
g64
NtRp714
(dp715
g67
(dp716
g94
g95
ssg76
g705
sg69
(lp717
S':'
asbag62
(g83
g64
NtRp718
(dp719
g67
(dp720
sg76
g705
sg69
(lp721
g62
(g63
g64
NtRp722
(dp723
g67
(dp724
g75
I4
ssg76
g718
sg69
(lp725
S'/home/mayank/Desktop/web2pyAddmin/web2py/web2py'
p726
asbasbasbag62
(g78
g64
NtRp727
(dp728
g67
(dp729
sg76
g679
sg69
(lp730
g62
(g83
g64
NtRp731
(dp732
g67
(dp733
g87
g88
ssg76
g727
sg69
(lp734
S'cmd_args'
p735
asbag62
(g83
g64
NtRp736
(dp737
g67
(dp738
g94
g95
ssg76
g727
sg69
(lp739
S':'
asbag62
(g83
g64
NtRp740
(dp741
g67
(dp742
sg76
g727
sg69
(lp743
g62
(g63
g64
NtRp744
(dp745
g67
(dp746
g75
I4
ssg76
g740
sg69
(lp747
g62
(g71
g64
NtRp748
(dp749
g67
(dp750
g75
I3
ssg76
Nsg69
(lp751
sbasbasbasbag62
(g78
g64
NtRp752
(dp753
g67
(dp754
sg76
g679
sg69
(lp755
g62
(g83
g64
NtRp756
(dp757
g67
(dp758
g87
g88
ssg76
g752
sg69
(lp759
S'cmd_options'
p760
asbag62
(g83
g64
NtRp761
(dp762
g67
(dp763
g94
g95
ssg76
g752
sg69
(lp764
S':'
asbag62
(g83
g64
NtRp765
(dp766
g67
(dp767
sg76
g752
sg69
(lp768
g62
(g63
g64
NtRp769
(dp770
g67
(dp771
g75
I4
ssg76
g765
sg69
(lp772
S"<Values at 0x2a3d830: {'verbose': False, 'ip': '127.0.0.1', 'with_scheduler': False, 'ips': ['127.0.1.1', '10.1.33.121'], 'shutdown_timeout': 5, 'taskbar': False, 'port': 8000, 'maxthreads': None, 'softcron': False, 'server_name': 'mayank', 'bpython': False, 'nogui': False, 'nocron': False, 'extcron': False, 'run_system_tests': False, 'test': None, 'folder': '/home/mayank/Desktop/web2pyAddmin/web2py/web2py', 'config': '', 'import_models': False, 'winservice': '', 'shell': None, 'run': '', 'log_filename': 'httpserver.log', 'debuglevel': 30, 'args': [''], 'socket_timeout': 5, 'ssl_ca_certificate': None, 'scheduler': None, 'profiler_filename': None, 'ssl_private_key': '', 'scheduler_groups': None, 'password': 'a', 'request_queue_size': 5, 'ssl_certificate': '', 'cronjob': False, 'numthreads': None, 'quiet': False, 'interfaces': None, 'minthreads': None, 'timeout': 10, 'plain': False, 'nobanner': False, 'pid_filename': 'httpserver.pid'}>"
p773
asbasbasbag62
(g78
g64
NtRp774
(dp775
g67
(dp776
sg76
g679
sg69
(lp777
g62
(g83
g64
NtRp778
(dp779
g67
(dp780
g87
g88
ssg76
g774
sg69
(lp781
S'db_sessions'
p782
asbag62
(g83
g64
NtRp783
(dp784
g67
(dp785
g94
g95
ssg76
g774
sg69
(lp786
S':'
asbag62
(g83
g64
NtRp787
(dp788
g67
(dp789
sg76
g774
sg69
(lp790
g62
(g63
g64
NtRp791
(dp792
g67
(dp793
g75
I4
ssg76
g787
sg69
(lp794
S'set([])'
p795
asbasbasbag62
(g78
g64
NtRp796
(dp797
g67
(dp798
sg76
g679
sg69
(lp799
g62
(g83
g64
NtRp800
(dp801
g67
(dp802
g87
g88
ssg76
g796
sg69
(lp803
S'debugging'
p804
asbag62
(g83
g64
NtRp805
(dp806
g67
(dp807
g94
g95
ssg76
g796
sg69
(lp808
S':'
asbag62
(g83
g64
NtRp809
(dp810
g67
(dp811
sg76
g796
sg69
(lp812
g62
(g63
g64
NtRp813
(dp814
g67
(dp815
g75
I4
ssg76
g809
sg69
(lp816
g105
asbasbasbag62
(g78
g64
NtRp817
(dp818
g67
(dp819
sg76
g679
sg69
(lp820
g62
(g83
g64
NtRp821
(dp822
g67
(dp823
g87
g88
ssg76
g817
sg69
(lp824
S'gluon_parent'
p825
asbag62
(g83
g64
NtRp826
(dp827
g67
(dp828
g94
g95
ssg76
g817
sg69
(lp829
S':'
asbag62
(g83
g64
NtRp830
(dp831
g67
(dp832
sg76
g817
sg69
(lp833
g62
(g63
g64
NtRp834
(dp835
g67
(dp836
g75
I4
ssg76
g830
sg69
(lp837
S'/home/mayank/Desktop/web2pyAddmin/web2py/web2py'
p838
asbasbasbag62
(g78
g64
NtRp839
(dp840
g67
(dp841
sg76
g679
sg69
(lp842
g62
(g83
g64
NtRp843
(dp844
g67
(dp845
g87
g88
ssg76
g839
sg69
(lp846
S'http_accept'
p847
asbag62
(g83
g64
NtRp848
(dp849
g67
(dp850
g94
g95
ssg76
g839
sg69
(lp851
S':'
asbag62
(g83
g64
NtRp852
(dp853
g67
(dp854
sg76
g839
sg69
(lp855
g62
(g63
g64
NtRp856
(dp857
g67
(dp858
g75
I4
ssg76
g852
sg69
(lp859
S'text/html,application/xhtml+xml,application/xml;q=0.9,*/*;q=0.8'
p860
asbasbasbag62
(g78
g64
NtRp861
(dp862
g67
(dp863
sg76
g679
sg69
(lp864
g62
(g83
g64
NtRp865
(dp866
g67
(dp867
g87
g88
ssg76
g861
sg69
(lp868
S'http_accept_encoding'
p869
asbag62
(g83
g64
NtRp870
(dp871
g67
(dp872
g94
g95
ssg76
g861
sg69
(lp873
S':'
asbag62
(g83
g64
NtRp874
(dp875
g67
(dp876
sg76
g861
sg69
(lp877
g62
(g63
g64
NtRp878
(dp879
g67
(dp880
g75
I4
ssg76
g874
sg69
(lp881
S'gzip, deflate'
p882
asbasbasbag62
(g78
g64
NtRp883
(dp884
g67
(dp885
sg76
g679
sg69
(lp886
g62
(g83
g64
NtRp887
(dp888
g67
(dp889
g87
g88
ssg76
g883
sg69
(lp890
S'http_accept_language'
p891
asbag62
(g83
g64
NtRp892
(dp893
g67
(dp894
g94
g95
ssg76
g883
sg69
(lp895
S':'
asbag62
(g83
g64
NtRp896
(dp897
g67
(dp898
sg76
g883
sg69
(lp899
g62
(g63
g64
NtRp900
(dp901
g67
(dp902
g75
I4
ssg76
g896
sg69
(lp903
S'en-US,en;q=0.5'
p904
asbasbasbag62
(g78
g64
NtRp905
(dp906
g67
(dp907
sg76
g679
sg69
(lp908
g62
(g83
g64
NtRp909
(dp910
g67
(dp911
g87
g88
ssg76
g905
sg69
(lp912
S'http_connection'
p913
asbag62
(g83
g64
NtRp914
(dp915
g67
(dp916
g94
g95
ssg76
g905
sg69
(lp917
S':'
asbag62
(g83
g64
NtRp918
(dp919
g67
(dp920
sg76
g905
sg69
(lp921
g62
(g63
g64
NtRp922
(dp923
g67
(dp924
g75
I4
ssg76
g918
sg69
(lp925
S'keep-alive'
p926
asbasbasbag62
(g78
g64
NtRp927
(dp928
g67
(dp929
sg76
g679
sg69
(lp930
g62
(g83
g64
NtRp931
(dp932
g67
(dp933
g87
g88
ssg76
g927
sg69
(lp934
S'http_cookie'
p935
asbag62
(g83
g64
NtRp936
(dp937
g67
(dp938
g94
g95
ssg76
g927
sg69
(lp939
S':'
asbag62
(g83
g64
NtRp940
(dp941
g67
(dp942
sg76
g927
sg69
(lp943
g62
(g63
g64
NtRp944
(dp945
g67
(dp946
g75
I4
ssg76
g940
sg69
(lp947
S'session_id_welcome=127.0.0.1-1005be10-5418-4340-bf03-0d32383296ca; session_id_admin=127.0.0.1-dd501bec-a9f3-4a1f-a296-70bc24b875a6'
p948
asbasbasbag62
(g78
g64
NtRp949
(dp950
g67
(dp951
sg76
g679
sg69
(lp952
g62
(g83
g64
NtRp953
(dp954
g67
(dp955
g87
g88
ssg76
g949
sg69
(lp956
S'http_host'
p957
asbag62
(g83
g64
NtRp958
(dp959
g67
(dp960
g94
g95
ssg76
g949
sg69
(lp961
S':'
asbag62
(g83
g64
NtRp962
(dp963
g67
(dp964
sg76
g949
sg69
(lp965
g62
(g63
g64
NtRp966
(dp967
g67
(dp968
g75
I4
ssg76
g962
sg69
(lp969
S'127.0.0.1:8000'
p970
asbasbasbag62
(g78
g64
NtRp971
(dp972
g67
(dp973
sg76
g679
sg69
(lp974
g62
(g83
g64
NtRp975
(dp976
g67
(dp977
g87
g88
ssg76
g971
sg69
(lp978
S'http_referer'
p979
asbag62
(g83
g64
NtRp980
(dp981
g67
(dp982
g94
g95
ssg76
g971
sg69
(lp983
S':'
asbag62
(g83
g64
NtRp984
(dp985
g67
(dp986
sg76
g971
sg69
(lp987
g62
(g63
g64
NtRp988
(dp989
g67
(dp990
g75
I4
ssg76
g984
sg69
(lp991
S'http://127.0.0.1:8000/admin/default/site'
p992
asbasbasbag62
(g78
g64
NtRp993
(dp994
g67
(dp995
sg76
g679
sg69
(lp996
g62
(g83
g64
NtRp997
(dp998
g67
(dp999
g87
g88
ssg76
g993
sg69
(lp1000
S'http_user_agent'
p1001
asbag62
(g83
g64
NtRp1002
(dp1003
g67
(dp1004
g94
g95
ssg76
g993
sg69
(lp1005
S':'
asbag62
(g83
g64
NtRp1006
(dp1007
g67
(dp1008
sg76
g993
sg69
(lp1009
g62
(g63
g64
NtRp1010
(dp1011
g67
(dp1012
g75
I4
ssg76
g1006
sg69
(lp1013
S'Mozilla/5.0 (X11; Ubuntu; Linux x86_64; rv:20.0) Gecko/20100101 Firefox/20.0'
p1014
asbasbasbag62
(g78
g64
NtRp1015
(dp1016
g67
(dp1017
sg76
g679
sg69
(lp1018
g62
(g83
g64
NtRp1019
(dp1020
g67
(dp1021
g87
g88
ssg76
g1015
sg69
(lp1022
S'is_jython'
p1023
asbag62
(g83
g64
NtRp1024
(dp1025
g67
(dp1026
g94
g95
ssg76
g1015
sg69
(lp1027
S':'
asbag62
(g83
g64
NtRp1028
(dp1029
g67
(dp1030
sg76
g1015
sg69
(lp1031
g62
(g63
g64
NtRp1032
(dp1033
g67
(dp1034
g75
I4
ssg76
g1028
sg69
(lp1035
g105
asbasbasbag62
(g78
g64
NtRp1036
(dp1037
g67
(dp1038
sg76
g679
sg69
(lp1039
g62
(g83
g64
NtRp1040
(dp1041
g67
(dp1042
g87
g88
ssg76
g1036
sg69
(lp1043
S'is_pypy'
p1044
asbag62
(g83
g64
NtRp1045
(dp1046
g67
(dp1047
g94
g95
ssg76
g1036
sg69
(lp1048
S':'
asbag62
(g83
g64
NtRp1049
(dp1050
g67
(dp1051
sg76
g1036
sg69
(lp1052
g62
(g63
g64
NtRp1053
(dp1054
g67
(dp1055
g75
I4
ssg76
g1049
sg69
(lp1056
g105
asbasbasbag62
(g78
g64
NtRp1057
(dp1058
g67
(dp1059
sg76
g679
sg69
(lp1060
g62
(g83
g64
NtRp1061
(dp1062
g67
(dp1063
g87
g88
ssg76
g1057
sg69
(lp1064
S'path_info'
p1065
asbag62
(g83
g64
NtRp1066
(dp1067
g67
(dp1068
g94
g95
ssg76
g1057
sg69
(lp1069
S':'
asbag62
(g83
g64
NtRp1070
(dp1071
g67
(dp1072
sg76
g1057
sg69
(lp1073
g62
(g63
g64
NtRp1074
(dp1075
g67
(dp1076
g75
I4
ssg76
g1070
sg69
(lp1077
S'/admin/default/design/201201170'
p1078
asbasbasbag62
(g78
g64
NtRp1079
(dp1080
g67
(dp1081
sg76
g679
sg69
(lp1082
g62
(g83
g64
NtRp1083
(dp1084
g67
(dp1085
g87
g88
ssg76
g1079
sg69
(lp1086
S'query_string'
p1087
asbag62
(g83
g64
NtRp1088
(dp1089
g67
(dp1090
g94
g95
ssg76
g1079
sg69
(lp1091
S':'
asbag62
(g83
g64
NtRp1092
(dp1093
g67
(dp1094
sg76
g1079
sg69
(lp1095
g62
(g63
g64
NtRp1096
(dp1097
g67
(dp1098
g75
I4
ssg76
g1092
sg69
(lp1099
S''
asbasbasbag62
(g78
g64
NtRp1100
(dp1101
g67
(dp1102
sg76
g679
sg69
(lp1103
g62
(g83
g64
NtRp1104
(dp1105
g67
(dp1106
g87
g88
ssg76
g1100
sg69
(lp1107
S'remote_addr'
p1108
asbag62
(g83
g64
NtRp1109
(dp1110
g67
(dp1111
g94
g95
ssg76
g1100
sg69
(lp1112
S':'
asbag62
(g83
g64
NtRp1113
(dp1114
g67
(dp1115
sg76
g1100
sg69
(lp1116
g62
(g63
g64
NtRp1117
(dp1118
g67
(dp1119
g75
I4
ssg76
g1113
sg69
(lp1120
g230
asbasbasbag62
(g78
g64
NtRp1121
(dp1122
g67
(dp1123
sg76
g679
sg69
(lp1124
g62
(g83
g64
NtRp1125
(dp1126
g67
(dp1127
g87
g88
ssg76
g1121
sg69
(lp1128
S'remote_port'
p1129
asbag62
(g83
g64
NtRp1130
(dp1131
g67
(dp1132
g94
g95
ssg76
g1121
sg69
(lp1133
S':'
asbag62
(g83
g64
NtRp1134
(dp1135
g67
(dp1136
sg76
g1121
sg69
(lp1137
g62
(g63
g64
NtRp1138
(dp1139
g67
(dp1140
g75
I4
ssg76
g1134
sg69
(lp1141
S'32954'
p1142
asbasbasbag62
(g78
g64
NtRp1143
(dp1144
g67
(dp1145
sg76
g679
sg69
(lp1146
g62
(g83
g64
NtRp1147
(dp1148
g67
(dp1149
g87
g88
ssg76
g1143
sg69
(lp1150
S'request_method'
p1151
asbag62
(g83
g64
NtRp1152
(dp1153
g67
(dp1154
g94
g95
ssg76
g1143
sg69
(lp1155
S':'
asbag62
(g83
g64
NtRp1156
(dp1157
g67
(dp1158
sg76
g1143
sg69
(lp1159
g62
(g63
g64
NtRp1160
(dp1161
g67
(dp1162
g75
I4
ssg76
g1156
sg69
(lp1163
S'GET'
p1164
asbasbasbag62
(g78
g64
NtRp1165
(dp1166
g67
(dp1167
sg76
g679
sg69
(lp1168
g62
(g83
g64
NtRp1169
(dp1170
g67
(dp1171
g87
g88
ssg76
g1165
sg69
(lp1172
S'request_uri'
p1173
asbag62
(g83
g64
NtRp1174
(dp1175
g67
(dp1176
g94
g95
ssg76
g1165
sg69
(lp1177
S':'
asbag62
(g83
g64
NtRp1178
(dp1179
g67
(dp1180
sg76
g1165
sg69
(lp1181
g62
(g63
g64
NtRp1182
(dp1183
g67
(dp1184
g75
I4
ssg76
g1178
sg69
(lp1185
g1078
asbasbasbag62
(g78
g64
NtRp1186
(dp1187
g67
(dp1188
sg76
g679
sg69
(lp1189
g62
(g83
g64
NtRp1190
(dp1191
g67
(dp1192
g87
g88
ssg76
g1186
sg69
(lp1193
S'script_name'
p1194
asbag62
(g83
g64
NtRp1195
(dp1196
g67
(dp1197
g94
g95
ssg76
g1186
sg69
(lp1198
S':'
asbag62
(g83
g64
NtRp1199
(dp1200
g67
(dp1201
sg76
g1186
sg69
(lp1202
g62
(g63
g64
NtRp1203
(dp1204
g67
(dp1205
g75
I4
ssg76
g1199
sg69
(lp1206
S''
asbasbasbag62
(g78
g64
NtRp1207
(dp1208
g67
(dp1209
sg76
g679
sg69
(lp1210
g62
(g83
g64
NtRp1211
(dp1212
g67
(dp1213
g87
g88
ssg76
g1207
sg69
(lp1214
S'server_name'
p1215
asbag62
(g83
g64
NtRp1216
(dp1217
g67
(dp1218
g94
g95
ssg76
g1207
sg69
(lp1219
S':'
asbag62
(g83
g64
NtRp1220
(dp1221
g67
(dp1222
sg76
g1207
sg69
(lp1223
g62
(g63
g64
NtRp1224
(dp1225
g67
(dp1226
g75
I4
ssg76
g1220
sg69
(lp1227
S'mayank'
p1228
asbasbasbag62
(g78
g64
NtRp1229
(dp1230
g67
(dp1231
sg76
g679
sg69
(lp1232
g62
(g83
g64
NtRp1233
(dp1234
g67
(dp1235
g87
g88
ssg76
g1229
sg69
(lp1236
S'server_port'
p1237
asbag62
(g83
g64
NtRp1238
(dp1239
g67
(dp1240
g94
g95
ssg76
g1229
sg69
(lp1241
S':'
asbag62
(g83
g64
NtRp1242
(dp1243
g67
(dp1244
sg76
g1229
sg69
(lp1245
g62
(g63
g64
NtRp1246
(dp1247
g67
(dp1248
g75
I4
ssg76
g1242
sg69
(lp1249
S'8000'
p1250
asbasbasbag62
(g78
g64
NtRp1251
(dp1252
g67
(dp1253
sg76
g679
sg69
(lp1254
g62
(g83
g64
NtRp1255
(dp1256
g67
(dp1257
g87
g88
ssg76
g1251
sg69
(lp1258
S'server_protocol'
p1259
asbag62
(g83
g64
NtRp1260
(dp1261
g67
(dp1262
g94
g95
ssg76
g1251
sg69
(lp1263
S':'
asbag62
(g83
g64
NtRp1264
(dp1265
g67
(dp1266
sg76
g1251
sg69
(lp1267
g62
(g63
g64
NtRp1268
(dp1269
g67
(dp1270
g75
I4
ssg76
g1264
sg69
(lp1271
S'HTTP/1.1'
p1272
asbasbasbag62
(g78
g64
NtRp1273
(dp1274
g67
(dp1275
sg76
g679
sg69
(lp1276
g62
(g83
g64
NtRp1277
(dp1278
g67
(dp1279
g87
g88
ssg76
g1273
sg69
(lp1280
S'server_software'
p1281
asbag62
(g83
g64
NtRp1282
(dp1283
g67
(dp1284
g94
g95
ssg76
g1273
sg69
(lp1285
S':'
asbag62
(g83
g64
NtRp1286
(dp1287
g67
(dp1288
sg76
g1273
sg69
(lp1289
g62
(g63
g64
NtRp1290
(dp1291
g67
(dp1292
g75
I4
ssg76
g1286
sg69
(lp1293
S'Rocket 1.2.4'
p1294
asbasbasbag62
(g78
g64
NtRp1295
(dp1296
g67
(dp1297
sg76
g679
sg69
(lp1298
g62
(g83
g64
NtRp1299
(dp1300
g67
(dp1301
g87
g88
ssg76
g1295
sg69
(lp1302
S'web2py_crontype'
p1303
asbag62
(g83
g64
NtRp1304
(dp1305
g67
(dp1306
g94
g95
ssg76
g1295
sg69
(lp1307
S':'
asbag62
(g83
g64
NtRp1308
(dp1309
g67
(dp1310
sg76
g1295
sg69
(lp1311
g62
(g63
g64
NtRp1312
(dp1313
g67
(dp1314
g75
I4
ssg76
g1308
sg69
(lp1315
S'hard'
p1316
asbasbasbag62
(g78
g64
NtRp1317
(dp1318
g67
(dp1319
sg76
g679
sg69
(lp1320
g62
(g83
g64
NtRp1321
(dp1322
g67
(dp1323
g87
g88
ssg76
g1317
sg69
(lp1324
S'web2py_path'
p1325
asbag62
(g83
g64
NtRp1326
(dp1327
g67
(dp1328
g94
g95
ssg76
g1317
sg69
(lp1329
S':'
asbag62
(g83
g64
NtRp1330
(dp1331
g67
(dp1332
sg76
g1317
sg69
(lp1333
g62
(g63
g64
NtRp1334
(dp1335
g67
(dp1336
g75
I4
ssg76
g1330
sg69
(lp1337
g726
asbasbasbag62
(g78
g64
NtRp1338
(dp1339
g67
(dp1340
sg76
g679
sg69
(lp1341
g62
(g83
g64
NtRp1342
(dp1343
g67
(dp1344
g87
g88
ssg76
g1338
sg69
(lp1345
S'web2py_version'
p1346
asbag62
(g83
g64
NtRp1347
(dp1348
g67
(dp1349
g94
g95
ssg76
g1338
sg69
(lp1350
S':'
asbag62
(g83
g64
NtRp1351
(dp1352
g67
(dp1353
sg76
g1338
sg69
(lp1354
g62
(g63
g64
NtRp1355
(dp1356
g67
(dp1357
g75
I4
ssg76
g1351
sg69
(lp1358
g62
(g71
g64
NtRp1359
(dp1360
g67
(dp1361
g75
I3
ssg76
Nsg69
(lp1362
g62
(g78
g64
NtRp1363
(dp1364
g67
(dp1365
sg76
g1359
sg69
(lp1366
g62
(g83
g64
NtRp1367
(dp1368
g67
(dp1369
sg76
g1363
sg69
(lp1370
g62
(g63
g64
NtRp1371
(dp1372
g67
(dp1373
g75
I3
ssg76
g1367
sg69
(lp1374
S'2'
asbasbasbag62
(g78
g64
NtRp1375
(dp1376
g67
(dp1377
sg76
g1359
sg69
(lp1378
g62
(g83
g64
NtRp1379
(dp1380
g67
(dp1381
sg76
g1375
sg69
(lp1382
g62
(g63
g64
NtRp1383
(dp1384
g67
(dp1385
g75
I3
ssg76
g1379
sg69
(lp1386
S'0'
asbasbasbag62
(g78
g64
NtRp1387
(dp1388
g67
(dp1389
sg76
g1359
sg69
(lp1390
g62
(g83
g64
NtRp1391
(dp1392
g67
(dp1393
sg76
g1387
sg69
(lp1394
g62
(g63
g64
NtRp1395
(dp1396
g67
(dp1397
g75
I3
ssg76
g1391
sg69
(lp1398
S'8'
asbasbasbag62
(g78
g64
NtRp1399
(dp1400
g67
(dp1401
sg76
g1359
sg69
(lp1402
g62
(g83
g64
NtRp1403
(dp1404
g67
(dp1405
sg76
g1399
sg69
(lp1406
g62
(g63
g64
NtRp1407
(dp1408
g67
(dp1409
g75
I3
ssg76
g1403
sg69
(lp1410
S'datetime.datetime(2012, 9, 7, 3, 47, 51)'
p1411
asbasbasbag62
(g78
g64
NtRp1412
(dp1413
g67
(dp1414
sg76
g1359
sg69
(lp1415
g62
(g83
g64
NtRp1416
(dp1417
g67
(dp1418
sg76
g1412
sg69
(lp1419
g62
(g63
g64
NtRp1420
(dp1421
g67
(dp1422
g75
I3
ssg76
g1416
sg69
(lp1423
S'stable'
p1424
asbasbasbasbasbasbasbag62
(g78
g64
NtRp1425
(dp1426
g67
(dp1427
sg76
g679
sg69
(lp1428
g62
(g83
g64
NtRp1429
(dp1430
g67
(dp1431
g87
g88
ssg76
g1425
sg69
(lp1432
S'wsgi_errors'
p1433
asbag62
(g83
g64
NtRp1434
(dp1435
g67
(dp1436
g94
g95
ssg76
g1425
sg69
(lp1437
S':'
asbag62
(g83
g64
NtRp1438
(dp1439
g67
(dp1440
sg76
g1425
sg69
(lp1441
g62
(g63
g64
NtRp1442
(dp1443
g67
(dp1444
g75
I4
ssg76
g1438
sg69
(lp1445
S"<open file '<stderr>', mode 'w' at 0x7f00d20031e0>"
p1446
asbasbasbag62
(g78
g64
NtRp1447
(dp1448
g67
(dp1449
sg76
g679
sg69
(lp1450
g62
(g83
g64
NtRp1451
(dp1452
g67
(dp1453
g87
g88
ssg76
g1447
sg69
(lp1454
S'wsgi_file_wrapper'
p1455
asbag62
(g83
g64
NtRp1456
(dp1457
g67
(dp1458
g94
g95
ssg76
g1447
sg69
(lp1459
S':'
asbag62
(g83
g64
NtRp1460
(dp1461
g67
(dp1462
sg76
g1447
sg69
(lp1463
g62
(g63
g64
NtRp1464
(dp1465
g67
(dp1466
g75
I4
ssg76
g1460
sg69
(lp1467
S'<class wsgiref.util.FileWrapper at 0x294fb48>'
p1468
asbasbasbag62
(g78
g64
NtRp1469
(dp1470
g67
(dp1471
sg76
g679
sg69
(lp1472
g62
(g83
g64
NtRp1473
(dp1474
g67
(dp1475
g87
g88
ssg76
g1469
sg69
(lp1476
S'wsgi_input'
p1477
asbag62
(g83
g64
NtRp1478
(dp1479
g67
(dp1480
g94
g95
ssg76
g1469
sg69
(lp1481
S':'
asbag62
(g83
g64
NtRp1482
(dp1483
g67
(dp1484
sg76
g1469
sg69
(lp1485
g62
(g63
g64
NtRp1486
(dp1487
g67
(dp1488
g75
I4
ssg76
g1482
sg69
(lp1489
S'<socket._fileobject object at 0x2208450>'
p1490
asbasbasbag62
(g78
g64
NtRp1491
(dp1492
g67
(dp1493
sg76
g679
sg69
(lp1494
g62
(g83
g64
NtRp1495
(dp1496
g67
(dp1497
g87
g88
ssg76
g1491
sg69
(lp1498
S'wsgi_multiprocess'
p1499
asbag62
(g83
g64
NtRp1500
(dp1501
g67
(dp1502
g94
g95
ssg76
g1491
sg69
(lp1503
S':'
asbag62
(g83
g64
NtRp1504
(dp1505
g67
(dp1506
sg76
g1491
sg69
(lp1507
g62
(g63
g64
NtRp1508
(dp1509
g67
(dp1510
g75
I4
ssg76
g1504
sg69
(lp1511
g105
asbasbasbag62
(g78
g64
NtRp1512
(dp1513
g67
(dp1514
sg76
g679
sg69
(lp1515
g62
(g83
g64
NtRp1516
(dp1517
g67
(dp1518
g87
g88
ssg76
g1512
sg69
(lp1519
S'wsgi_multithread'
p1520
asbag62
(g83
g64
NtRp1521
(dp1522
g67
(dp1523
g94
g95
ssg76
g1512
sg69
(lp1524
S':'
asbag62
(g83
g64
NtRp1525
(dp1526
g67
(dp1527
sg76
g1512
sg69
(lp1528
g62
(g63
g64
NtRp1529
(dp1530
g67
(dp1531
g75
I4
ssg76
g1525
sg69
(lp1532
S'True'
p1533
asbasbasbag62
(g78
g64
NtRp1534
(dp1535
g67
(dp1536
sg76
g679
sg69
(lp1537
g62
(g83
g64
NtRp1538
(dp1539
g67
(dp1540
g87
g88
ssg76
g1534
sg69
(lp1541
S'wsgi_run_once'
p1542
asbag62
(g83
g64
NtRp1543
(dp1544
g67
(dp1545
g94
g95
ssg76
g1534
sg69
(lp1546
S':'
asbag62
(g83
g64
NtRp1547
(dp1548
g67
(dp1549
sg76
g1534
sg69
(lp1550
g62
(g63
g64
NtRp1551
(dp1552
g67
(dp1553
g75
I4
ssg76
g1547
sg69
(lp1554
g105
asbasbasbag62
(g78
g64
NtRp1555
(dp1556
g67
(dp1557
sg76
g679
sg69
(lp1558
g62
(g83
g64
NtRp1559
(dp1560
g67
(dp1561
g87
g88
ssg76
g1555
sg69
(lp1562
S'wsgi_url_scheme'
p1563
asbag62
(g83
g64
NtRp1564
(dp1565
g67
(dp1566
g94
g95
ssg76
g1555
sg69
(lp1567
S':'
asbag62
(g83
g64
NtRp1568
(dp1569
g67
(dp1570
sg76
g1555
sg69
(lp1571
g62
(g63
g64
NtRp1572
(dp1573
g67
(dp1574
g75
I4
ssg76
g1568
sg69
(lp1575
S'http'
p1576
asbasbasbag62
(g78
g64
NtRp1577
(dp1578
g67
(dp1579
sg76
g679
sg69
(lp1580
g62
(g83
g64
NtRp1581
(dp1582
g67
(dp1583
g87
g88
ssg76
g1577
sg69
(lp1584
S'wsgi_version'
p1585
asbag62
(g83
g64
NtRp1586
(dp1587
g67
(dp1588
g94
g95
ssg76
g1577
sg69
(lp1589
S':'
asbag62
(g83
g64
NtRp1590
(dp1591
g67
(dp1592
sg76
g1577
sg69
(lp1593
g62
(g63
g64
NtRp1594
(dp1595
g67
(dp1596
g75
I4
ssg76
g1590
sg69
(lp1597
g62
(g71
g64
NtRp1598
(dp1599
g67
(dp1600
g75
I3
ssg76
Nsg69
(lp1601
g62
(g78
g64
NtRp1602
(dp1603
g67
(dp1604
sg76
g1598
sg69
(lp1605
g62
(g83
g64
NtRp1606
(dp1607
g67
(dp1608
sg76
g1602
sg69
(lp1609
g62
(g63
g64
NtRp1610
(dp1611
g67
(dp1612
g75
I3
ssg76
g1606
sg69
(lp1613
S'1'
asbasbasbag62
(g78
g64
NtRp1614
(dp1615
g67
(dp1616
sg76
g1598
sg69
(lp1617
g62
(g83
g64
NtRp1618
(dp1619
g67
(dp1620
sg76
g1614
sg69
(lp1621
g62
(g63
g64
NtRp1622
(dp1623
g67
(dp1624
g75
I3
ssg76
g1618
sg69
(lp1625
S'0'
asbasbasbasbasbasbasbasbasbasbasbag62
(g78
g64
NtRp1626
(dp1627
g67
(dp1628
sg76
g72
sg69
(lp1629
g62
(g83
g64
NtRp1630
(dp1631
g67
(dp1632
g87
g88
ssg76
g1626
sg69
(lp1633
S'extension'
p1634
asbag62
(g83
g64
NtRp1635
(dp1636
g67
(dp1637
g94
g95
ssg76
g1626
sg69
(lp1638
S':'
asbag62
(g83
g64
NtRp1639
(dp1640
g67
(dp1641
sg76
g1626
sg69
(lp1642
g62
(g63
g64
NtRp1643
(dp1644
g67
(dp1645
g75
I5
ssg76
g1639
sg69
(lp1646
S'html'
p1647
asbasbasbag62
(g78
g64
NtRp1648
(dp1649
g67
(dp1650
sg76
g72
sg69
(lp1651
g62
(g83
g64
NtRp1652
(dp1653
g67
(dp1654
g87
g88
ssg76
g1648
sg69
(lp1655
S'folder'
p1656
asbag62
(g83
g64
NtRp1657
(dp1658
g67
(dp1659
g94
g95
ssg76
g1648
sg69
(lp1660
S':'
asbag62
(g83
g64
NtRp1661
(dp1662
g67
(dp1663
sg76
g1648
sg69
(lp1664
g62
(g63
g64
NtRp1665
(dp1666
g67
(dp1667
g75
I5
ssg76
g1661
sg69
(lp1668
S'/home/mayank/Desktop/web2pyAddmin/web2py/web2py/applications/admin/'
p1669
asbasbasbag62
(g78
g64
NtRp1670
(dp1671
g67
(dp1672
sg76
g72
sg69
(lp1673
g62
(g83
g64
NtRp1674
(dp1675
g67
(dp1676
g87
g88
ssg76
g1670
sg69
(lp1677
S'function'
p1678
asbag62
(g83
g64
NtRp1679
(dp1680
g67
(dp1681
g94
g95
ssg76
g1670
sg69
(lp1682
S':'
asbag62
(g83
g64
NtRp1683
(dp1684
g67
(dp1685
sg76
g1670
sg69
(lp1686
g62
(g63
g64
NtRp1687
(dp1688
g67
(dp1689
g75
I5
ssg76
g1683
sg69
(lp1690
S'design'
p1691
asbasbasbag62
(g78
g64
NtRp1692
(dp1693
g67
(dp1694
sg76
g72
sg69
(lp1695
g62
(g83
g64
NtRp1696
(dp1697
g67
(dp1698
g87
g88
ssg76
g1692
sg69
(lp1699
S'get_vars'
p1700
asbag62
(g83
g64
NtRp1701
(dp1702
g67
(dp1703
g94
g95
ssg76
g1692
sg69
(lp1704
S':'
asbag62
(g83
g64
NtRp1705
(dp1706
g67
(dp1707
sg76
g1692
sg69
(lp1708
g62
(g63
g64
NtRp1709
(dp1710
g67
(dp1711
g75
I5
ssg76
g1705
sg69
(lp1712
g62
(g71
g64
NtRp1713
(dp1714
g67
(dp1715
g75
I4
ssg76
Nsg69
(lp1716
sbasbasbasbag62
(g78
g64
NtRp1717
(dp1718
g67
(dp1719
sg76
g72
sg69
(lp1720
g62
(g83
g64
NtRp1721
(dp1722
g67
(dp1723
g87
g88
ssg76
g1717
sg69
(lp1724
S'global_settings'
p1725
asbag62
(g83
g64
NtRp1726
(dp1727
g67
(dp1728
g94
g95
ssg76
g1717
sg69
(lp1729
S':'
asbag62
(g83
g64
NtRp1730
(dp1731
g67
(dp1732
sg76
g1717
sg69
(lp1733
g62
(g63
g64
NtRp1734
(dp1735
g67
(dp1736
g75
I5
ssg76
g1730
sg69
(lp1737
g62
(g71
g64
NtRp1738
(dp1739
g67
(dp1740
g75
I4
ssg76
Nsg69
(lp1741
g62
(g78
g64
NtRp1742
(dp1743
g67
(dp1744
sg76
g1738
sg69
(lp1745
g62
(g83
g64
NtRp1746
(dp1747
g67
(dp1748
g87
g88
ssg76
g1742
sg69
(lp1749
g691
asbag62
(g83
g64
NtRp1750
(dp1751
g67
(dp1752
g94
g95
ssg76
g1742
sg69
(lp1753
S':'
asbag62
(g83
g64
NtRp1754
(dp1755
g67
(dp1756
sg76
g1742
sg69
(lp1757
g62
(g63
g64
NtRp1758
(dp1759
g67
(dp1760
g75
I4
ssg76
g1754
sg69
(lp1761
S"set(['/home/mayank/Desktop/web2pyAddmin/web2py/web2py/applications/admin/', '/home/mayank/Desktop/web2pyAddmin/web2py/web2py/applications/welcome/'])"
p1762
asbasbasbag62
(g78
g64
NtRp1763
(dp1764
g67
(dp1765
sg76
g1738
sg69
(lp1766
g62
(g83
g64
NtRp1767
(dp1768
g67
(dp1769
g87
g88
ssg76
g1763
sg69
(lp1770
g713
asbag62
(g83
g64
NtRp1771
(dp1772
g67
(dp1773
g94
g95
ssg76
g1763
sg69
(lp1774
S':'
asbag62
(g83
g64
NtRp1775
(dp1776
g67
(dp1777
sg76
g1763
sg69
(lp1778
g62
(g63
g64
NtRp1779
(dp1780
g67
(dp1781
g75
I4
ssg76
g1775
sg69
(lp1782
g726
asbasbasbag62
(g78
g64
NtRp1783
(dp1784
g67
(dp1785
sg76
g1738
sg69
(lp1786
g62
(g83
g64
NtRp1787
(dp1788
g67
(dp1789
g87
g88
ssg76
g1783
sg69
(lp1790
g735
asbag62
(g83
g64
NtRp1791
(dp1792
g67
(dp1793
g94
g95
ssg76
g1783
sg69
(lp1794
S':'
asbag62
(g83
g64
NtRp1795
(dp1796
g67
(dp1797
sg76
g1783
sg69
(lp1798
g62
(g63
g64
NtRp1799
(dp1800
g67
(dp1801
g75
I4
ssg76
g1795
sg69
(lp1802
g62
(g71
g64
NtRp1803
(dp1804
g67
(dp1805
g75
I3
ssg76
Nsg69
(lp1806
sbasbasbasbag62
(g78
g64
NtRp1807
(dp1808
g67
(dp1809
sg76
g1738
sg69
(lp1810
g62
(g83
g64
NtRp1811
(dp1812
g67
(dp1813
g87
g88
ssg76
g1807
sg69
(lp1814
g760
asbag62
(g83
g64
NtRp1815
(dp1816
g67
(dp1817
g94
g95
ssg76
g1807
sg69
(lp1818
S':'
asbag62
(g83
g64
NtRp1819
(dp1820
g67
(dp1821
sg76
g1807
sg69
(lp1822
g62
(g63
g64
NtRp1823
(dp1824
g67
(dp1825
g75
I4
ssg76
g1819
sg69
(lp1826
S"<Values at 0x2a3d830: {'verbose': False, 'ip': '127.0.0.1', 'with_scheduler': False, 'ips': ['127.0.1.1', '10.1.33.121'], 'shutdown_timeout': 5, 'taskbar': False, 'port': 8000, 'maxthreads': None, 'softcron': False, 'server_name': 'mayank', 'bpython': False, 'nogui': False, 'nocron': False, 'extcron': False, 'run_system_tests': False, 'test': None, 'folder': '/home/mayank/Desktop/web2pyAddmin/web2py/web2py', 'config': '', 'import_models': False, 'winservice': '', 'shell': None, 'run': '', 'log_filename': 'httpserver.log', 'debuglevel': 30, 'args': [''], 'socket_timeout': 5, 'ssl_ca_certificate': None, 'scheduler': None, 'profiler_filename': None, 'ssl_private_key': '', 'scheduler_groups': None, 'password': 'a', 'request_queue_size': 5, 'ssl_certificate': '', 'cronjob': False, 'numthreads': None, 'quiet': False, 'interfaces': None, 'minthreads': None, 'timeout': 10, 'plain': False, 'nobanner': False, 'pid_filename': 'httpserver.pid'}>"
p1827
asbasbasbag62
(g78
g64
NtRp1828
(dp1829
g67
(dp1830
sg76
g1738
sg69
(lp1831
g62
(g83
g64
NtRp1832
(dp1833
g67
(dp1834
g87
g88
ssg76
g1828
sg69
(lp1835
g782
asbag62
(g83
g64
NtRp1836
(dp1837
g67
(dp1838
g94
g95
ssg76
g1828
sg69
(lp1839
S':'
asbag62
(g83
g64
NtRp1840
(dp1841
g67
(dp1842
sg76
g1828
sg69
(lp1843
g62
(g63
g64
NtRp1844
(dp1845
g67
(dp1846
g75
I4
ssg76
g1840
sg69
(lp1847
S'set([])'
p1848
asbasbasbag62
(g78
g64
NtRp1849
(dp1850
g67
(dp1851
sg76
g1738
sg69
(lp1852
g62
(g83
g64
NtRp1853
(dp1854
g67
(dp1855
g87
g88
ssg76
g1849
sg69
(lp1856
g804
asbag62
(g83
g64
NtRp1857
(dp1858
g67
(dp1859
g94
g95
ssg76
g1849
sg69
(lp1860
S':'
asbag62
(g83
g64
NtRp1861
(dp1862
g67
(dp1863
sg76
g1849
sg69
(lp1864
g62
(g63
g64
NtRp1865
(dp1866
g67
(dp1867
g75
I4
ssg76
g1861
sg69
(lp1868
g105
asbasbasbag62
(g78
g64
NtRp1869
(dp1870
g67
(dp1871
sg76
g1738
sg69
(lp1872
g62
(g83
g64
NtRp1873
(dp1874
g67
(dp1875
g87
g88
ssg76
g1869
sg69
(lp1876
g825
asbag62
(g83
g64
NtRp1877
(dp1878
g67
(dp1879
g94
g95
ssg76
g1869
sg69
(lp1880
S':'
asbag62
(g83
g64
NtRp1881
(dp1882
g67
(dp1883
sg76
g1869
sg69
(lp1884
g62
(g63
g64
NtRp1885
(dp1886
g67
(dp1887
g75
I4
ssg76
g1881
sg69
(lp1888
g838
asbasbasbag62
(g78
g64
NtRp1889
(dp1890
g67
(dp1891
sg76
g1738
sg69
(lp1892
g62
(g83
g64
NtRp1893
(dp1894
g67
(dp1895
g87
g88
ssg76
g1889
sg69
(lp1896
g1023
asbag62
(g83
g64
NtRp1897
(dp1898
g67
(dp1899
g94
g95
ssg76
g1889
sg69
(lp1900
S':'
asbag62
(g83
g64
NtRp1901
(dp1902
g67
(dp1903
sg76
g1889
sg69
(lp1904
g62
(g63
g64
NtRp1905
(dp1906
g67
(dp1907
g75
I4
ssg76
g1901
sg69
(lp1908
g105
asbasbasbag62
(g78
g64
NtRp1909
(dp1910
g67
(dp1911
sg76
g1738
sg69
(lp1912
g62
(g83
g64
NtRp1913
(dp1914
g67
(dp1915
g87
g88
ssg76
g1909
sg69
(lp1916
g1044
asbag62
(g83
g64
NtRp1917
(dp1918
g67
(dp1919
g94
g95
ssg76
g1909
sg69
(lp1920
S':'
asbag62
(g83
g64
NtRp1921
(dp1922
g67
(dp1923
sg76
g1909
sg69
(lp1924
g62
(g63
g64
NtRp1925
(dp1926
g67
(dp1927
g75
I4
ssg76
g1921
sg69
(lp1928
g105
asbasbasbag62
(g78
g64
NtRp1929
(dp1930
g67
(dp1931
sg76
g1738
sg69
(lp1932
g62
(g83
g64
NtRp1933
(dp1934
g67
(dp1935
g87
g88
ssg76
g1929
sg69
(lp1936
g1303
asbag62
(g83
g64
NtRp1937
(dp1938
g67
(dp1939
g94
g95
ssg76
g1929
sg69
(lp1940
S':'
asbag62
(g83
g64
NtRp1941
(dp1942
g67
(dp1943
sg76
g1929
sg69
(lp1944
g62
(g63
g64
NtRp1945
(dp1946
g67
(dp1947
g75
I4
ssg76
g1941
sg69
(lp1948
g1316
asbasbasbag62
(g78
g64
NtRp1949
(dp1950
g67
(dp1951
sg76
g1738
sg69
(lp1952
g62
(g83
g64
NtRp1953
(dp1954
g67
(dp1955
g87
g88
ssg76
g1949
sg69
(lp1956
g1346
asbag62
(g83
g64
NtRp1957
(dp1958
g67
(dp1959
g94
g95
ssg76
g1949
sg69
(lp1960
S':'
asbag62
(g83
g64
NtRp1961
(dp1962
g67
(dp1963
sg76
g1949
sg69
(lp1964
g62
(g63
g64
NtRp1965
(dp1966
g67
(dp1967
g75
I4
ssg76
g1961
sg69
(lp1968
g62
(g71
g64
NtRp1969
(dp1970
g67
(dp1971
g75
I3
ssg76
Nsg69
(lp1972
g62
(g78
g64
NtRp1973
(dp1974
g67
(dp1975
sg76
g1969
sg69
(lp1976
g62
(g83
g64
NtRp1977
(dp1978
g67
(dp1979
sg76
g1973
sg69
(lp1980
g62
(g63
g64
NtRp1981
(dp1982
g67
(dp1983
g75
I3
ssg76
g1977
sg69
(lp1984
S'2'
asbasbasbag62
(g78
g64
NtRp1985
(dp1986
g67
(dp1987
sg76
g1969
sg69
(lp1988
g62
(g83
g64
NtRp1989
(dp1990
g67
(dp1991
sg76
g1985
sg69
(lp1992
g62
(g63
g64
NtRp1993
(dp1994
g67
(dp1995
g75
I3
ssg76
g1989
sg69
(lp1996
S'0'
asbasbasbag62
(g78
g64
NtRp1997
(dp1998
g67
(dp1999
sg76
g1969
sg69
(lp2000
g62
(g83
g64
NtRp2001
(dp2002
g67
(dp2003
sg76
g1997
sg69
(lp2004
g62
(g63
g64
NtRp2005
(dp2006
g67
(dp2007
g75
I3
ssg76
g2001
sg69
(lp2008
S'8'
asbasbasbag62
(g78
g64
NtRp2009
(dp2010
g67
(dp2011
sg76
g1969
sg69
(lp2012
g62
(g83
g64
NtRp2013
(dp2014
g67
(dp2015
sg76
g2009
sg69
(lp2016
g62
(g63
g64
NtRp2017
(dp2018
g67
(dp2019
g75
I3
ssg76
g2013
sg69
(lp2020
S'datetime.datetime(2012, 9, 7, 3, 47, 51)'
p2021
asbasbasbag62
(g78
g64
NtRp2022
(dp2023
g67
(dp2024
sg76
g1969
sg69
(lp2025
g62
(g83
g64
NtRp2026
(dp2027
g67
(dp2028
sg76
g2022
sg69
(lp2029
g62
(g63
g64
NtRp2030
(dp2031
g67
(dp2032
g75
I3
ssg76
g2026
sg69
(lp2033
g1424
asbasbasbasbasbasbasbasbasbasbasbag62
(g78
g64
NtRp2034
(dp2035
g67
(dp2036
sg76
g72
sg69
(lp2037
g62
(g83
g64
NtRp2038
(dp2039
g67
(dp2040
g87
g88
ssg76
g2034
sg69
(lp2041
S'is_https'
p2042
asbag62
(g83
g64
NtRp2043
(dp2044
g67
(dp2045
g94
g95
ssg76
g2034
sg69
(lp2046
S':'
asbag62
(g83
g64
NtRp2047
(dp2048
g67
(dp2049
sg76
g2034
sg69
(lp2050
g62
(g63
g64
NtRp2051
(dp2052
g67
(dp2053
g75
I5
ssg76
g2047
sg69
(lp2054
g105
asbasbasbag62
(g78
g64
NtRp2055
(dp2056
g67
(dp2057
sg76
g72
sg69
(lp2058
g62
(g83
g64
NtRp2059
(dp2060
g67
(dp2061
g87
g88
ssg76
g2055
sg69
(lp2062
S'is_local'
p2063
asbag62
(g83
g64
NtRp2064
(dp2065
g67
(dp2066
g94
g95
ssg76
g2055
sg69
(lp2067
S':'
asbag62
(g83
g64
NtRp2068
(dp2069
g67
(dp2070
sg76
g2055
sg69
(lp2071
g62
(g63
g64
NtRp2072
(dp2073
g67
(dp2074
g75
I5
ssg76
g2068
sg69
(lp2075
g1533
asbasbasbag62
(g78
g64
NtRp2076
(dp2077
g67
(dp2078
sg76
g72
sg69
(lp2079
g62
(g83
g64
NtRp2080
(dp2081
g67
(dp2082
g87
g88
ssg76
g2076
sg69
(lp2083
S'is_restful'
p2084
asbag62
(g83
g64
NtRp2085
(dp2086
g67
(dp2087
g94
g95
ssg76
g2076
sg69
(lp2088
S':'
asbag62
(g83
g64
NtRp2089
(dp2090
g67
(dp2091
sg76
g2076
sg69
(lp2092
g62
(g63
g64
NtRp2093
(dp2094
g67
(dp2095
g75
I5
ssg76
g2089
sg69
(lp2096
g105
asbasbasbag62
(g78
g64
NtRp2097
(dp2098
g67
(dp2099
sg76
g72
sg69
(lp2100
g62
(g83
g64
NtRp2101
(dp2102
g67
(dp2103
g87
g88
ssg76
g2097
sg69
(lp2104
S'now'
p2105
asbag62
(g83
g64
NtRp2106
(dp2107
g67
(dp2108
g94
g95
ssg76
g2097
sg69
(lp2109
S':'
asbag62
(g83
g64
NtRp2110
(dp2111
g67
(dp2112
sg76
g2097
sg69
(lp2113
g62
(g63
g64
NtRp2114
(dp2115
g67
(dp2116
g75
I5
ssg76
g2110
sg69
(lp2117
S'datetime.datetime(2013, 9, 11, 19, 23, 17, 323943)'
p2118
asbasbasbag62
(g78
g64
NtRp2119
(dp2120
g67
(dp2121
sg76
g72
sg69
(lp2122
g62
(g83
g64
NtRp2123
(dp2124
g67
(dp2125
g87
g88
ssg76
g2119
sg69
(lp2126
S'post_vars'
p2127
asbag62
(g83
g64
NtRp2128
(dp2129
g67
(dp2130
g94
g95
ssg76
g2119
sg69
(lp2131
S':'
asbag62
(g83
g64
NtRp2132
(dp2133
g67
(dp2134
sg76
g2119
sg69
(lp2135
g62
(g63
g64
NtRp2136
(dp2137
g67
(dp2138
g75
I5
ssg76
g2132
sg69
(lp2139
g62
(g71
g64
NtRp2140
(dp2141
g67
(dp2142
g75
I4
ssg76
Nsg69
(lp2143
sbasbasbasbag62
(g78
g64
NtRp2144
(dp2145
g67
(dp2146
sg76
g72
sg69
(lp2147
g62
(g83
g64
NtRp2148
(dp2149
g67
(dp2150
g87
g88
ssg76
g2144
sg69
(lp2151
S'raw_args'
p2152
asbag62
(g83
g64
NtRp2153
(dp2154
g67
(dp2155
g94
g95
ssg76
g2144
sg69
(lp2156
S':'
asbag62
(g83
g64
NtRp2157
(dp2158
g67
(dp2159
sg76
g2144
sg69
(lp2160
g62
(g63
g64
NtRp2161
(dp2162
g67
(dp2163
g75
I5
ssg76
g2157
sg69
(lp2164
g164
asbasbasbag62
(g78
g64
NtRp2165
(dp2166
g67
(dp2167
sg76
g72
sg69
(lp2168
g62
(g83
g64
NtRp2169
(dp2170
g67
(dp2171
g87
g88
ssg76
g2165
sg69
(lp2172
S'raw_extension'
p2173
asbag62
(g83
g64
NtRp2174
(dp2175
g67
(dp2176
g94
g95
ssg76
g2165
sg69
(lp2177
S':'
asbag62
(g83
g64
NtRp2178
(dp2179
g67
(dp2180
sg76
g2165
sg69
(lp2181
g62
(g63
g64
NtRp2182
(dp2183
g67
(dp2184
g75
I5
ssg76
g2178
sg69
(lp2185
S'None'
p2186
asbasbasbag62
(g78
g64
NtRp2187
(dp2188
g67
(dp2189
sg76
g72
sg69
(lp2190
g62
(g83
g64
NtRp2191
(dp2192
g67
(dp2193
g87
g88
ssg76
g2187
sg69
(lp2194
S'url'
p2195
asbag62
(g83
g64
NtRp2196
(dp2197
g67
(dp2198
g94
g95
ssg76
g2187
sg69
(lp2199
S':'
asbag62
(g83
g64
NtRp2200
(dp2201
g67
(dp2202
sg76
g2187
sg69
(lp2203
g62
(g63
g64
NtRp2204
(dp2205
g67
(dp2206
g75
I5
ssg76
g2200
sg69
(lp2207
g1078
asbasbasbag62
(g78
g64
NtRp2208
(dp2209
g67
(dp2210
sg76
g72
sg69
(lp2211
g62
(g83
g64
NtRp2212
(dp2213
g67
(dp2214
g87
g88
ssg76
g2208
sg69
(lp2215
S'utcnow'
p2216
asbag62
(g83
g64
NtRp2217
(dp2218
g67
(dp2219
g94
g95
ssg76
g2208
sg69
(lp2220
S':'
asbag62
(g83
g64
NtRp2221
(dp2222
g67
(dp2223
sg76
g2208
sg69
(lp2224
g62
(g63
g64
NtRp2225
(dp2226
g67
(dp2227
g75
I5
ssg76
g2221
sg69
(lp2228
S'datetime.datetime(2013, 9, 11, 13, 53, 17, 323961)'
p2229
asbasbasbag62
(g78
g64
NtRp2230
(dp2231
g67
(dp2232
sg76
g72
sg69
(lp2233
g62
(g83
g64
NtRp2234
(dp2235
g67
(dp2236
g87
g88
ssg76
g2230
sg69
(lp2237
S'uuid'
p2238
asbag62
(g83
g64
NtRp2239
(dp2240
g67
(dp2241
g94
g95
ssg76
g2230
sg69
(lp2242
S':'
asbag62
(g83
g64
NtRp2243
(dp2244
g67
(dp2245
sg76
g2230
sg69
(lp2246
g62
(g63
g64
NtRp2247
(dp2248
g67
(dp2249
g75
I5
ssg76
g2243
sg69
(lp2250
S'admin/127.0.0.1.2013-09-11.19-23-17.34e55943-9b28-45a1-8fd0-383bbe3f54bf'
p2251
asbasbasbag62
(g78
g64
NtRp2252
(dp2253
g67
(dp2254
sg76
g72
sg69
(lp2255
g62
(g83
g64
NtRp2256
(dp2257
g67
(dp2258
g87
g88
ssg76
g2252
sg69
(lp2259
S'vars'
p2260
asbag62
(g83
g64
NtRp2261
(dp2262
g67
(dp2263
g94
g95
ssg76
g2252
sg69
(lp2264
S':'
asbag62
(g83
g64
NtRp2265
(dp2266
g67
(dp2267
sg76
g2252
sg69
(lp2268
g62
(g63
g64
NtRp2269
(dp2270
g67
(dp2271
g75
I5
ssg76
g2265
sg69
(lp2272
g62
(g71
g64
NtRp2273
(dp2274
g67
(dp2275
g75
I4
ssg76
Nsg69
(lp2276
sbasbasbasbag62
(g78
g64
NtRp2277
(dp2278
g67
(dp2279
sg76
g72
sg69
(lp2280
g62
(g83
g64
NtRp2281
(dp2282
g67
(dp2283
g87
g88
ssg76
g2277
sg69
(lp2284
S'wsgi'
p2285
asbag62
(g83
g64
NtRp2286
(dp2287
g67
(dp2288
g94
g95
ssg76
g2277
sg69
(lp2289
S':'
asbag62
(g83
g64
NtRp2290
(dp2291
g67
(dp2292
sg76
g2277
sg69
(lp2293
g62
(g63
g64
NtRp2294
(dp2295
g67
(dp2296
g75
I5
ssg76
g2290
sg69
(lp2297
g62
(g71
g64
NtRp2298
(dp2299
g67
(dp2300
g75
I4
ssg76
Nsg69
(lp2301
g62
(g78
g64
NtRp2302
(dp2303
g67
(dp2304
sg76
g2298
sg69
(lp2305
g62
(g83
g64
NtRp2306
(dp2307
g67
(dp2308
g87
g88
ssg76
g2302
sg69
(lp2309
S'environ'
p2310
asbag62
(g83
g64
NtRp2311
(dp2312
g67
(dp2313
g94
g95
ssg76
g2302
sg69
(lp2314
S':'
asbag62
(g83
g64
NtRp2315
(dp2316
g67
(dp2317
sg76
g2302
sg69
(lp2318
g62
(g63
g64
NtRp2319
(dp2320
g67
(dp2321
g75
I4
ssg76
g2315
sg69
(lp2322
g62
(g71
g64
NtRp2323
(dp2324
g67
(dp2325
g75
I3
ssg76
Nsg69
(lp2326
g62
(g78
g64
NtRp2327
(dp2328
g67
(dp2329
sg76
g2323
sg69
(lp2330
g62
(g83
g64
NtRp2331
(dp2332
g67
(dp2333
g87
g88
ssg76
g2327
sg69
(lp2334
S'HTTP_ACCEPT'
p2335
asbag62
(g83
g64
NtRp2336
(dp2337
g67
(dp2338
g94
g95
ssg76
g2327
sg69
(lp2339
S':'
asbag62
(g83
g64
NtRp2340
(dp2341
g67
(dp2342
sg76
g2327
sg69
(lp2343
g62
(g63
g64
NtRp2344
(dp2345
g67
(dp2346
g75
I3
ssg76
g2340
sg69
(lp2347
g860
asbasbasbag62
(g78
g64
NtRp2348
(dp2349
g67
(dp2350
sg76
g2323
sg69
(lp2351
g62
(g83
g64
NtRp2352
(dp2353
g67
(dp2354
g87
g88
ssg76
g2348
sg69
(lp2355
S'HTTP_ACCEPT_ENCODING'
p2356
asbag62
(g83
g64
NtRp2357
(dp2358
g67
(dp2359
g94
g95
ssg76
g2348
sg69
(lp2360
S':'
asbag62
(g83
g64
NtRp2361
(dp2362
g67
(dp2363
sg76
g2348
sg69
(lp2364
g62
(g63
g64
NtRp2365
(dp2366
g67
(dp2367
g75
I3
ssg76
g2361
sg69
(lp2368
g882
asbasbasbag62
(g78
g64
NtRp2369
(dp2370
g67
(dp2371
sg76
g2323
sg69
(lp2372
g62
(g83
g64
NtRp2373
(dp2374
g67
(dp2375
g87
g88
ssg76
g2369
sg69
(lp2376
S'HTTP_ACCEPT_LANGUAGE'
p2377
asbag62
(g83
g64
NtRp2378
(dp2379
g67
(dp2380
g94
g95
ssg76
g2369
sg69
(lp2381
S':'
asbag62
(g83
g64
NtRp2382
(dp2383
g67
(dp2384
sg76
g2369
sg69
(lp2385
g62
(g63
g64
NtRp2386
(dp2387
g67
(dp2388
g75
I3
ssg76
g2382
sg69
(lp2389
g904
asbasbasbag62
(g78
g64
NtRp2390
(dp2391
g67
(dp2392
sg76
g2323
sg69
(lp2393
g62
(g83
g64
NtRp2394
(dp2395
g67
(dp2396
g87
g88
ssg76
g2390
sg69
(lp2397
S'HTTP_CONNECTION'
p2398
asbag62
(g83
g64
NtRp2399
(dp2400
g67
(dp2401
g94
g95
ssg76
g2390
sg69
(lp2402
S':'
asbag62
(g83
g64
NtRp2403
(dp2404
g67
(dp2405
sg76
g2390
sg69
(lp2406
g62
(g63
g64
NtRp2407
(dp2408
g67
(dp2409
g75
I3
ssg76
g2403
sg69
(lp2410
g926
asbasbasbag62
(g78
g64
NtRp2411
(dp2412
g67
(dp2413
sg76
g2323
sg69
(lp2414
g62
(g83
g64
NtRp2415
(dp2416
g67
(dp2417
g87
g88
ssg76
g2411
sg69
(lp2418
S'HTTP_COOKIE'
p2419
asbag62
(g83
g64
NtRp2420
(dp2421
g67
(dp2422
g94
g95
ssg76
g2411
sg69
(lp2423
S':'
asbag62
(g83
g64
NtRp2424
(dp2425
g67
(dp2426
sg76
g2411
sg69
(lp2427
g62
(g63
g64
NtRp2428
(dp2429
g67
(dp2430
g75
I3
ssg76
g2424
sg69
(lp2431
g948
asbasbasbag62
(g78
g64
NtRp2432
(dp2433
g67
(dp2434
sg76
g2323
sg69
(lp2435
g62
(g83
g64
NtRp2436
(dp2437
g67
(dp2438
g87
g88
ssg76
g2432
sg69
(lp2439
S'HTTP_HOST'
p2440
asbag62
(g83
g64
NtRp2441
(dp2442
g67
(dp2443
g94
g95
ssg76
g2432
sg69
(lp2444
S':'
asbag62
(g83
g64
NtRp2445
(dp2446
g67
(dp2447
sg76
g2432
sg69
(lp2448
g62
(g63
g64
NtRp2449
(dp2450
g67
(dp2451
g75
I3
ssg76
g2445
sg69
(lp2452
g970
asbasbasbag62
(g78
g64
NtRp2453
(dp2454
g67
(dp2455
sg76
g2323
sg69
(lp2456
g62
(g83
g64
NtRp2457
(dp2458
g67
(dp2459
g87
g88
ssg76
g2453
sg69
(lp2460
S'HTTP_REFERER'
p2461
asbag62
(g83
g64
NtRp2462
(dp2463
g67
(dp2464
g94
g95
ssg76
g2453
sg69
(lp2465
S':'
asbag62
(g83
g64
NtRp2466
(dp2467
g67
(dp2468
sg76
g2453
sg69
(lp2469
g62
(g63
g64
NtRp2470
(dp2471
g67
(dp2472
g75
I3
ssg76
g2466
sg69
(lp2473
g992
asbasbasbag62
(g78
g64
NtRp2474
(dp2475
g67
(dp2476
sg76
g2323
sg69
(lp2477
g62
(g83
g64
NtRp2478
(dp2479
g67
(dp2480
g87
g88
ssg76
g2474
sg69
(lp2481
S'HTTP_USER_AGENT'
p2482
asbag62
(g83
g64
NtRp2483
(dp2484
g67
(dp2485
g94
g95
ssg76
g2474
sg69
(lp2486
S':'
asbag62
(g83
g64
NtRp2487
(dp2488
g67
(dp2489
sg76
g2474
sg69
(lp2490
g62
(g63
g64
NtRp2491
(dp2492
g67
(dp2493
g75
I3
ssg76
g2487
sg69
(lp2494
g1014
asbasbasbag62
(g78
g64
NtRp2495
(dp2496
g67
(dp2497
sg76
g2323
sg69
(lp2498
g62
(g83
g64
NtRp2499
(dp2500
g67
(dp2501
g87
g88
ssg76
g2495
sg69
(lp2502
S'PATH_INFO'
p2503
asbag62
(g83
g64
NtRp2504
(dp2505
g67
(dp2506
g94
g95
ssg76
g2495
sg69
(lp2507
S':'
asbag62
(g83
g64
NtRp2508
(dp2509
g67
(dp2510
sg76
g2495
sg69
(lp2511
g62
(g63
g64
NtRp2512
(dp2513
g67
(dp2514
g75
I3
ssg76
g2508
sg69
(lp2515
g1078
asbasbasbag62
(g78
g64
NtRp2516
(dp2517
g67
(dp2518
sg76
g2323
sg69
(lp2519
g62
(g83
g64
NtRp2520
(dp2521
g67
(dp2522
g87
g88
ssg76
g2516
sg69
(lp2523
S'QUERY_STRING'
p2524
asbag62
(g83
g64
NtRp2525
(dp2526
g67
(dp2527
g94
g95
ssg76
g2516
sg69
(lp2528
S':'
asbag62
(g83
g64
NtRp2529
(dp2530
g67
(dp2531
sg76
g2516
sg69
(lp2532
g62
(g63
g64
NtRp2533
(dp2534
g67
(dp2535
g75
I3
ssg76
g2529
sg69
(lp2536
S''
asbasbasbag62
(g78
g64
NtRp2537
(dp2538
g67
(dp2539
sg76
g2323
sg69
(lp2540
g62
(g83
g64
NtRp2541
(dp2542
g67
(dp2543
g87
g88
ssg76
g2537
sg69
(lp2544
S'REMOTE_ADDR'
p2545
asbag62
(g83
g64
NtRp2546
(dp2547
g67
(dp2548
g94
g95
ssg76
g2537
sg69
(lp2549
S':'
asbag62
(g83
g64
NtRp2550
(dp2551
g67
(dp2552
sg76
g2537
sg69
(lp2553
g62
(g63
g64
NtRp2554
(dp2555
g67
(dp2556
g75
I3
ssg76
g2550
sg69
(lp2557
g230
asbasbasbag62
(g78
g64
NtRp2558
(dp2559
g67
(dp2560
sg76
g2323
sg69
(lp2561
g62
(g83
g64
NtRp2562
(dp2563
g67
(dp2564
g87
g88
ssg76
g2558
sg69
(lp2565
S'REMOTE_PORT'
p2566
asbag62
(g83
g64
NtRp2567
(dp2568
g67
(dp2569
g94
g95
ssg76
g2558
sg69
(lp2570
S':'
asbag62
(g83
g64
NtRp2571
(dp2572
g67
(dp2573
sg76
g2558
sg69
(lp2574
g62
(g63
g64
NtRp2575
(dp2576
g67
(dp2577
g75
I3
ssg76
g2571
sg69
(lp2578
g1142
asbasbasbag62
(g78
g64
NtRp2579
(dp2580
g67
(dp2581
sg76
g2323
sg69
(lp2582
g62
(g83
g64
NtRp2583
(dp2584
g67
(dp2585
g87
g88
ssg76
g2579
sg69
(lp2586
S'REQUEST_METHOD'
p2587
asbag62
(g83
g64
NtRp2588
(dp2589
g67
(dp2590
g94
g95
ssg76
g2579
sg69
(lp2591
S':'
asbag62
(g83
g64
NtRp2592
(dp2593
g67
(dp2594
sg76
g2579
sg69
(lp2595
g62
(g63
g64
NtRp2596
(dp2597
g67
(dp2598
g75
I3
ssg76
g2592
sg69
(lp2599
g1164
asbasbasbag62
(g78
g64
NtRp2600
(dp2601
g67
(dp2602
sg76
g2323
sg69
(lp2603
g62
(g83
g64
NtRp2604
(dp2605
g67
(dp2606
g87
g88
ssg76
g2600
sg69
(lp2607
S'REQUEST_URI'
p2608
asbag62
(g83
g64
NtRp2609
(dp2610
g67
(dp2611
g94
g95
ssg76
g2600
sg69
(lp2612
S':'
asbag62
(g83
g64
NtRp2613
(dp2614
g67
(dp2615
sg76
g2600
sg69
(lp2616
g62
(g63
g64
NtRp2617
(dp2618
g67
(dp2619
g75
I3
ssg76
g2613
sg69
(lp2620
g1078
asbasbasbag62
(g78
g64
NtRp2621
(dp2622
g67
(dp2623
sg76
g2323
sg69
(lp2624
g62
(g83
g64
NtRp2625
(dp2626
g67
(dp2627
g87
g88
ssg76
g2621
sg69
(lp2628
S'SCRIPT_NAME'
p2629
asbag62
(g83
g64
NtRp2630
(dp2631
g67
(dp2632
g94
g95
ssg76
g2621
sg69
(lp2633
S':'
asbag62
(g83
g64
NtRp2634
(dp2635
g67
(dp2636
sg76
g2621
sg69
(lp2637
g62
(g63
g64
NtRp2638
(dp2639
g67
(dp2640
g75
I3
ssg76
g2634
sg69
(lp2641
S''
asbasbasbag62
(g78
g64
NtRp2642
(dp2643
g67
(dp2644
sg76
g2323
sg69
(lp2645
g62
(g83
g64
NtRp2646
(dp2647
g67
(dp2648
g87
g88
ssg76
g2642
sg69
(lp2649
S'SERVER_NAME'
p2650
asbag62
(g83
g64
NtRp2651
(dp2652
g67
(dp2653
g94
g95
ssg76
g2642
sg69
(lp2654
S':'
asbag62
(g83
g64
NtRp2655
(dp2656
g67
(dp2657
sg76
g2642
sg69
(lp2658
g62
(g63
g64
NtRp2659
(dp2660
g67
(dp2661
g75
I3
ssg76
g2655
sg69
(lp2662
g1228
asbasbasbag62
(g78
g64
NtRp2663
(dp2664
g67
(dp2665
sg76
g2323
sg69
(lp2666
g62
(g83
g64
NtRp2667
(dp2668
g67
(dp2669
g87
g88
ssg76
g2663
sg69
(lp2670
S'SERVER_PORT'
p2671
asbag62
(g83
g64
NtRp2672
(dp2673
g67
(dp2674
g94
g95
ssg76
g2663
sg69
(lp2675
S':'
asbag62
(g83
g64
NtRp2676
(dp2677
g67
(dp2678
sg76
g2663
sg69
(lp2679
g62
(g63
g64
NtRp2680
(dp2681
g67
(dp2682
g75
I3
ssg76
g2676
sg69
(lp2683
g1250
asbasbasbag62
(g78
g64
NtRp2684
(dp2685
g67
(dp2686
sg76
g2323
sg69
(lp2687
g62
(g83
g64
NtRp2688
(dp2689
g67
(dp2690
g87
g88
ssg76
g2684
sg69
(lp2691
S'SERVER_PROTOCOL'
p2692
asbag62
(g83
g64
NtRp2693
(dp2694
g67
(dp2695
g94
g95
ssg76
g2684
sg69
(lp2696
S':'
asbag62
(g83
g64
NtRp2697
(dp2698
g67
(dp2699
sg76
g2684
sg69
(lp2700
g62
(g63
g64
NtRp2701
(dp2702
g67
(dp2703
g75
I3
ssg76
g2697
sg69
(lp2704
g1272
asbasbasbag62
(g78
g64
NtRp2705
(dp2706
g67
(dp2707
sg76
g2323
sg69
(lp2708
g62
(g83
g64
NtRp2709
(dp2710
g67
(dp2711
g87
g88
ssg76
g2705
sg69
(lp2712
S'SERVER_SOFTWARE'
p2713
asbag62
(g83
g64
NtRp2714
(dp2715
g67
(dp2716
g94
g95
ssg76
g2705
sg69
(lp2717
S':'
asbag62
(g83
g64
NtRp2718
(dp2719
g67
(dp2720
sg76
g2705
sg69
(lp2721
g62
(g63
g64
NtRp2722
(dp2723
g67
(dp2724
g75
I3
ssg76
g2718
sg69
(lp2725
g1294
asbasbasbag62
(g78
g64
NtRp2726
(dp2727
g67
(dp2728
sg76
g2323
sg69
(lp2729
g62
(g83
g64
NtRp2730
(dp2731
g67
(dp2732
g87
g88
ssg76
g2726
sg69
(lp2733
S'wsgi.errors'
p2734
asbag62
(g83
g64
NtRp2735
(dp2736
g67
(dp2737
g94
g95
ssg76
g2726
sg69
(lp2738
S':'
asbag62
(g83
g64
NtRp2739
(dp2740
g67
(dp2741
sg76
g2726
sg69
(lp2742
g62
(g63
g64
NtRp2743
(dp2744
g67
(dp2745
g75
I3
ssg76
g2739
sg69
(lp2746
S"<open file '<stderr>', mode 'w' at 0x7f00d20031e0>"
p2747
asbasbasbag62
(g78
g64
NtRp2748
(dp2749
g67
(dp2750
sg76
g2323
sg69
(lp2751
g62
(g83
g64
NtRp2752
(dp2753
g67
(dp2754
g87
g88
ssg76
g2748
sg69
(lp2755
S'wsgi.file_wrapper'
p2756
asbag62
(g83
g64
NtRp2757
(dp2758
g67
(dp2759
g94
g95
ssg76
g2748
sg69
(lp2760
S':'
asbag62
(g83
g64
NtRp2761
(dp2762
g67
(dp2763
sg76
g2748
sg69
(lp2764
g62
(g63
g64
NtRp2765
(dp2766
g67
(dp2767
g75
I3
ssg76
g2761
sg69
(lp2768
S'<class wsgiref.util.FileWrapper at 0x294fb48>'
p2769
asbasbasbag62
(g78
g64
NtRp2770
(dp2771
g67
(dp2772
sg76
g2323
sg69
(lp2773
g62
(g83
g64
NtRp2774
(dp2775
g67
(dp2776
g87
g88
ssg76
g2770
sg69
(lp2777
S'wsgi.input'
p2778
asbag62
(g83
g64
NtRp2779
(dp2780
g67
(dp2781
g94
g95
ssg76
g2770
sg69
(lp2782
S':'
asbag62
(g83
g64
NtRp2783
(dp2784
g67
(dp2785
sg76
g2770
sg69
(lp2786
g62
(g63
g64
NtRp2787
(dp2788
g67
(dp2789
g75
I3
ssg76
g2783
sg69
(lp2790
S'<cStringIO.StringO object at 0x2675c38>'
p2791
asbasbasbag62
(g78
g64
NtRp2792
(dp2793
g67
(dp2794
sg76
g2323
sg69
(lp2795
g62
(g83
g64
NtRp2796
(dp2797
g67
(dp2798
g87
g88
ssg76
g2792
sg69
(lp2799
S'wsgi.multiprocess'
p2800
asbag62
(g83
g64
NtRp2801
(dp2802
g67
(dp2803
g94
g95
ssg76
g2792
sg69
(lp2804
S':'
asbag62
(g83
g64
NtRp2805
(dp2806
g67
(dp2807
sg76
g2792
sg69
(lp2808
g62
(g63
g64
NtRp2809
(dp2810
g67
(dp2811
g75
I3
ssg76
g2805
sg69
(lp2812
g105
asbasbasbag62
(g78
g64
NtRp2813
(dp2814
g67
(dp2815
sg76
g2323
sg69
(lp2816
g62
(g83
g64
NtRp2817
(dp2818
g67
(dp2819
g87
g88
ssg76
g2813
sg69
(lp2820
S'wsgi.multithread'
p2821
asbag62
(g83
g64
NtRp2822
(dp2823
g67
(dp2824
g94
g95
ssg76
g2813
sg69
(lp2825
S':'
asbag62
(g83
g64
NtRp2826
(dp2827
g67
(dp2828
sg76
g2813
sg69
(lp2829
g62
(g63
g64
NtRp2830
(dp2831
g67
(dp2832
g75
I3
ssg76
g2826
sg69
(lp2833
g1533
asbasbasbag62
(g78
g64
NtRp2834
(dp2835
g67
(dp2836
sg76
g2323
sg69
(lp2837
g62
(g83
g64
NtRp2838
(dp2839
g67
(dp2840
g87
g88
ssg76
g2834
sg69
(lp2841
S'wsgi.run_once'
p2842
asbag62
(g83
g64
NtRp2843
(dp2844
g67
(dp2845
g94
g95
ssg76
g2834
sg69
(lp2846
S':'
asbag62
(g83
g64
NtRp2847
(dp2848
g67
(dp2849
sg76
g2834
sg69
(lp2850
g62
(g63
g64
NtRp2851
(dp2852
g67
(dp2853
g75
I3
ssg76
g2847
sg69
(lp2854
g105
asbasbasbag62
(g78
g64
NtRp2855
(dp2856
g67
(dp2857
sg76
g2323
sg69
(lp2858
g62
(g83
g64
NtRp2859
(dp2860
g67
(dp2861
g87
g88
ssg76
g2855
sg69
(lp2862
S'wsgi.url_scheme'
p2863
asbag62
(g83
g64
NtRp2864
(dp2865
g67
(dp2866
g94
g95
ssg76
g2855
sg69
(lp2867
S':'
asbag62
(g83
g64
NtRp2868
(dp2869
g67
(dp2870
sg76
g2855
sg69
(lp2871
g62
(g63
g64
NtRp2872
(dp2873
g67
(dp2874
g75
I3
ssg76
g2868
sg69
(lp2875
g1576
asbasbasbag62
(g78
g64
NtRp2876
(dp2877
g67
(dp2878
sg76
g2323
sg69
(lp2879
g62
(g83
g64
NtRp2880
(dp2881
g67
(dp2882
g87
g88
ssg76
g2876
sg69
(lp2883
S'wsgi.version'
p2884
asbag62
(g83
g64
NtRp2885
(dp2886
g67
(dp2887
g94
g95
ssg76
g2876
sg69
(lp2888
S':'
asbag62
(g83
g64
NtRp2889
(dp2890
g67
(dp2891
sg76
g2876
sg69
(lp2892
g62
(g63
g64
NtRp2893
(dp2894
g67
(dp2895
g75
I3
ssg76
g2889
sg69
(lp2896
S'1'
asbasbasbasbasbasbasbasbasbasbasbasbasbsS'frames'
p2897
(lp2898
(dp2899
S'file'
p2900
S'/home/mayank/Desktop/web2pyAddmin/web2py/web2py/gluon/restricted.py'
p2901
sS'dump'
p2902
(dp2903
S'environment'
p2904
S"{'A': <class 'gluon.html.A'>, 'ALLOW_TOGGLE': 'true', 'A_button': <function A_button>, 'B': <class 'gluon.html.B'>, 'BEAUTIFY': <class 'gluon.html.BEAUTIFY'>, 'BODY': <class 'gluon.html.BODY'>, 'BR': <class 'gluon.html.BR'>, 'BUTTON': <class 'gluon.html.BUTTON'>, 'CAT': <class 'gluon.html.CAT'>, 'CENTER': <class 'gluon.html.CENTER'>, ...}"
p2905
sS'ccode'
p2906
S'<code object <module> at 0x285f0b0, file "/home/...plications/admin/controllers/default.py", line 3>'
p2907
ssS'lnum'
p2908
I209
sS'lines'
p2909
(dp2910
I204
S'    try:'
p2911
sI205
S'        if type(code) == types.CodeType:'
p2912
sI206
S'            ccode = code'
p2913
sI207
S'        else:'
p2914
sI208
S'            ccode = compile2(code,layer)'
p2915
sI209
S'        exec ccode in environment'
p2916
sI210
S'    except HTTP:'
p2917
sI211
S'        raise'
p2918
sI212
S'    except RestrictedError:'
p2919
sI213
S'        # do not encapsulate (obfuscate) the original RestrictedError'
p2920
ssS'call'
p2921
S"(code='# coding: utf8\\n\\nEXPERIMENTAL_STUFF = True\\n\\nif EX...=form)\\n\\n\\nresponse._vars=response._caller(design)\\n', environment={'A': <class 'gluon.html.A'>, 'ALLOW_TOGGLE': 'true', 'A_button': <function A_button>, 'B': <class 'gluon.html.B'>, 'BEAUTIFY': <class 'gluon.html.BEAUTIFY'>, 'BODY': <class 'gluon.html.BODY'>, 'BR': <class 'gluon.html.BR'>, 'BUTTON': <class 'gluon.html.BUTTON'>, 'CAT': <class 'gluon.html.CAT'>, 'CENTER': <class 'gluon.html.CENTER'>, ...}, layer='/home/mayank/Desktop/web2pyAddmin/web2py/web2py/applications/admin/controllers/default.py')"
p2922
sS'func'
p2923
S'restricted'
p2924
sa(dp2925
g2900
S'/home/mayank/Desktop/web2pyAddmin/web2py/web2py/applications/admin/controllers/default.py'
p2926
sg2902
(dp2927
sg2908
I1726
sg2909
(dp2928
I1715
S"            redirect(URL('site'))"
p2929
sI1716
S'        except UnmergedEntriesError:'
p2930
sI1717
S'            session.flash = T("Push failed, there are unmerged entries in the cache. Resolve merge issues manually and try again.")'
p2931
sI1718
S"            redirect(URL('site'))"
p2932
sI1719
S'        except Exception, e:'
p2933
sI1720
S'            logging.error("Unexpected error:", sys.exc_info()[0])'
p2934
sI1721
S'            session.flash = T("Push failed, git exited abnormally. See logs for details.")'
p2935
sI1722
S"            redirect(URL('site'))"
p2936
sI1723
S'    return dict(app=app,form=form)'
p2937
sI1724
S''
ssg2921
S'()'
p2938
sg2923
S'<module>'
p2939
sa(dp2940
g2900
S'/home/mayank/Desktop/web2pyAddmin/web2py/web2py/gluon/globals.py'
p2941
sg2902
(dp2942
S'self'
p2943
S'undefined'
p2944
sS'f'
S'<function design>'
p2945
ssg2908
I185
sg2909
(dp2946
I180
S'        self.menu = []             # used by the default view layout'
p2947
sI181
S'        self.files = []            # used by web2py_ajax.html'
p2948
sI182
S'        self.generic_patterns = [] # patterns to allow generic views'
p2949
sI183
S"        self.delimiters = ('{{','}}')"
p2950
sI184
S'        self._vars = None'
p2951
sI185
S'        self._caller = lambda f: f()'
p2952
sI186
S'        self._view_environment = None'
p2953
sI187
S'        self._custom_commit = None'
p2954
sI188
S'        self._custom_rollback = None'
p2955
sI189
S''
ssg2921
S'(f=<function design>)'
p2956
sg2923
S'<lambda>'
p2957
sa(dp2958
g2900
S'/home/mayank/Desktop/web2pyAddmin/web2py/web2py/applications/admin/controllers/default.py'
p2959
sg2902
(dp2960
S'global request'
p2961
S"<Storage {'function': 'design', 'body': <cString...applications/admin/', 'post_vars': <Storage {}>}>"
p2962
sS'global read_possible_languages'
p2963
S'<function read_possible_languages>'
p2964
sS'app'
p2965
S"'201201170'"
p2966
sS'r'
g2944
sS'global apath'
p2967
S'<function apath>'
p2968
sS').iteritems'
p2969
S'<built-in method iteritems of Request object>'
p2970
ssg2908
I953
sg2909
(dp2971
I948
S"    statics = [x.replace('\\\\','/') for x in statics]"
p2972
sI949
S'    statics.sort()'
p2973
sI950
S''
sI951
S'    # Get all languages'
p2974
sI952
S"    all_languages=dict([(lang+'.py',info[0]) for lang,info"
p2975
sI953
S'                        in read_possible_languages(apath(app, r=request)).iteritems()'
p2976
sI954
S'                        if info[2]!=0]) # info[2] is langfile_mtime:'
p2977
sI955
S'                                        # get only existed files'
p2978
sI956
S'    languages = sorted(all_languages)'
p2979
sI957
S''
ssg2921
S'()'
p2980
sg2923
S'design'
p2981
sa(dp2982
g2900
S'/home/mayank/Desktop/web2pyAddmin/web2py/web2py/gluon/languages.py'
p2983
sg2902
(dp2984
S'os.listdir'
p2985
S'<built-in function listdir>'
p2986
sS'global os'
p2987
S"<module 'os' from '/usr/lib/python2.7/os.pyc'>"
p2988
sS'langdir'
p2989
S"'/home/mayank/Desktop/web2pyAddmin/web2py/web2py/applications/201201170/languages'"
p2990
sS'filename'
p2991
g2944
ssg2908
I209
sg2909
(dp2992
I204
S''
sI205
S'def read_possible_languages(appdir):'
p2993
sI206
S'    langs = {}'
p2994
sI207
S'    # scan languages directory for langfiles:'
p2995
sI208
S"    langdir = ospath.join(appdir,'languages')"
p2996
sI209
S'    for filename in os.listdir(langdir):'
p2997
sI210
S"        if regex_langfile.match(filename) or filename=='default.py':"
p2998
sI211
S'            lang = filename[:-3]'
p2999
sI212
S'            langs[lang] = get_lang_info(lang, langdir)'
p3000
sI213
S"    if not 'en' in langs:"
p3001
ssg2921
S"(appdir='/home/mayank/Desktop/web2pyAddmin/web2py/web2py/applications/201201170')"
p3002
sg2923
S'read_possible_languages'
p3003
sasS'pyver'
p3004
S'Python 2.7.4: /usr/bin/python'
p3005
sS'session'
p3006
g62
(g63
g64
NtRp3007
(dp3008
g67
(dp3009
sg69
(lp3010
g62
(g71
g64
NtRp3011
(dp3012
g67
(dp3013
g75
I5
ssg76
Nsg69
(lp3014
g62
(g78
g64
NtRp3015
(dp3016
g67
(dp3017
sg76
g3011
sg69
(lp3018
g62
(g83
g64
NtRp3019
(dp3020
g67
(dp3021
g87
g88
ssg76
g3015
sg69
(lp3022
S'authorized'
p3023
asbag62
(g83
g64
NtRp3024
(dp3025
g67
(dp3026
g94
g95
ssg76
g3015
sg69
(lp3027
S':'
asbag62
(g83
g64
NtRp3028
(dp3029
g67
(dp3030
sg76
g3015
sg69
(lp3031
g62
(g63
g64
NtRp3032
(dp3033
g67
(dp3034
g75
I5
ssg76
g3028
sg69
(lp3035
g1533
asbasbasbag62
(g78
g64
NtRp3036
(dp3037
g67
(dp3038
sg76
g3011
sg69
(lp3039
g62
(g83
g64
NtRp3040
(dp3041
g67
(dp3042
g87
g88
ssg76
g3036
sg69
(lp3043
S'check_version'
p3044
asbag62
(g83
g64
NtRp3045
(dp3046
g67
(dp3047
g94
g95
ssg76
g3036
sg69
(lp3048
S':'
asbag62
(g83
g64
NtRp3049
(dp3050
g67
(dp3051
sg76
g3036
sg69
(lp3052
g62
(g63
g64
NtRp3053
(dp3054
g67
(dp3055
g75
I5
ssg76
g3049
sg69
(lp3056
g105
asbasbasbag62
(g78
g64
NtRp3057
(dp3058
g67
(dp3059
sg76
g3011
sg69
(lp3060
g62
(g83
g64
NtRp3061
(dp3062
g67
(dp3063
g87
g88
ssg76
g3057
sg69
(lp3064
S'last_time'
p3065
asbag62
(g83
g64
NtRp3066
(dp3067
g67
(dp3068
g94
g95
ssg76
g3057
sg69
(lp3069
S':'
asbag62
(g83
g64
NtRp3070
(dp3071
g67
(dp3072
sg76
g3057
sg69
(lp3073
g62
(g63
g64
NtRp3074
(dp3075
g67
(dp3076
g75
I5
ssg76
g3070
sg69
(lp3077
S'1378907597.32728'
p3078
asbasbasbag62
(g78
g64
NtRp3079
(dp3080
g67
(dp3081
sg76
g3011
sg69
(lp3082
g62
(g83
g64
NtRp3083
(dp3084
g67
(dp3085
g87
g88
ssg76
g3079
sg69
(lp3086
S'pam_user'
p3087
asbag62
(g83
g64
NtRp3088
(dp3089
g67
(dp3090
g94
g95
ssg76
g3079
sg69
(lp3091
S':'
asbag62
(g83
g64
NtRp3092
(dp3093
g67
(dp3094
sg76
g3079
sg69
(lp3095
g62
(g63
g64
NtRp3096
(dp3097
g67
(dp3098
g75
I5
ssg76
g3092
sg69
(lp3099
S'None'
p3100
asbasbasbag62
(g78
g64
NtRp3101
(dp3102
g67
(dp3103
sg76
g3011
sg69
(lp3104
g62
(g83
g64
NtRp3105
(dp3106
g67
(dp3107
g87
g88
ssg76
g3101
sg69
(lp3108
S'token'
p3109
asbag62
(g83
g64
NtRp3110
(dp3111
g67
(dp3112
g94
g95
ssg76
g3101
sg69
(lp3113
S':'
asbag62
(g83
g64
NtRp3114
(dp3115
g67
(dp3116
sg76
g3101
sg69
(lp3117
g62
(g63
g64
NtRp3118
(dp3119
g67
(dp3120
g75
I5
ssg76
g3114
sg69
(lp3121
S'8ab6732a-0699-4df4-9c0d-ebadca0a85fd'
p3122
asbasbasbasbasbsS'etype'
p3123
S"<type 'exceptions.OSError'>"
p3124
sS'date'
p3125
S'Wed Sep 11 19:23:17 2013'
p3126
sS'response'
p3127
g62
(g63
g64
NtRp3128
(dp3129
g67
(dp3130
sg69
(lp3131
g62
(g71
g64
NtRp3132
(dp3133
g67
(dp3134
g75
I5
ssg76
Nsg69
(lp3135
g62
(g78
g64
NtRp3136
(dp3137
g67
(dp3138
sg76
g3132
sg69
(lp3139
g62
(g83
g64
NtRp3140
(dp3141
g67
(dp3142
g87
g88
ssg76
g3136
sg69
(lp3143
g173
asbag62
(g83
g64
NtRp3144
(dp3145
g67
(dp3146
g94
g95
ssg76
g3136
sg69
(lp3147
S':'
asbag62
(g83
g64
NtRp3148
(dp3149
g67
(dp3150
sg76
g3136
sg69
(lp3151
g62
(g63
g64
NtRp3152
(dp3153
g67
(dp3154
g75
I5
ssg76
g3148
sg69
(lp3155
S'<cStringIO.StringO object at 0x7f00c41f2c38>'
p3156
asbasbasbag62
(g78
g64
NtRp3157
(dp3158
g67
(dp3159
sg76
g3132
sg69
(lp3160
g62
(g83
g64
NtRp3161
(dp3162
g67
(dp3163
g87
g88
ssg76
g3157
sg69
(lp3164
g261
asbag62
(g83
g64
NtRp3165
(dp3166
g67
(dp3167
g94
g95
ssg76
g3157
sg69
(lp3168
S':'
asbag62
(g83
g64
NtRp3169
(dp3170
g67
(dp3171
sg76
g3157
sg69
(lp3172
g62
(g63
g64
NtRp3173
(dp3174
g67
(dp3175
g75
I5
ssg76
g3169
sg69
(lp3176
g62
(g71
g64
NtRp3177
(dp3178
g67
(dp3179
g75
I4
ssg76
Nsg69
(lp3180
g62
(g78
g64
NtRp3181
(dp3182
g67
(dp3183
sg76
g3177
sg69
(lp3184
g62
(g83
g64
NtRp3185
(dp3186
g67
(dp3187
g87
g88
ssg76
g3181
sg69
(lp3188
S'session_id_admin'
p3189
asbag62
(g83
g64
NtRp3190
(dp3191
g67
(dp3192
g94
g95
ssg76
g3181
sg69
(lp3193
S':'
asbag62
(g83
g64
NtRp3194
(dp3195
g67
(dp3196
sg76
g3181
sg69
(lp3197
g62
(g63
g64
NtRp3198
(dp3199
g67
(dp3200
g75
I4
ssg76
g3194
sg69
(lp3201
g299
ag62
(g71
g64
NtRp3202
(dp3203
g67
(dp3204
g75
I3
ssg76
Nsg69
(lp3205
g62
(g78
g64
NtRp3206
(dp3207
g67
(dp3208
sg76
g3202
sg69
(lp3209
g62
(g83
g64
NtRp3210
(dp3211
g67
(dp3212
g87
g88
ssg76
g3206
sg69
(lp3213
g312
asbag62
(g83
g64
NtRp3214
(dp3215
g67
(dp3216
g94
g95
ssg76
g3206
sg69
(lp3217
S':'
asbag62
(g83
g64
NtRp3218
(dp3219
g67
(dp3220
sg76
g3206
sg69
(lp3221
g62
(g63
g64
NtRp3222
(dp3223
g67
(dp3224
g75
I3
ssg76
g3218
sg69
(lp3225
S''
asbasbasbag62
(g78
g64
NtRp3226
(dp3227
g67
(dp3228
sg76
g3202
sg69
(lp3229
g62
(g83
g64
NtRp3230
(dp3231
g67
(dp3232
g87
g88
ssg76
g3226
sg69
(lp3233
g333
asbag62
(g83
g64
NtRp3234
(dp3235
g67
(dp3236
g94
g95
ssg76
g3226
sg69
(lp3237
S':'
asbag62
(g83
g64
NtRp3238
(dp3239
g67
(dp3240
sg76
g3226
sg69
(lp3241
g62
(g63
g64
NtRp3242
(dp3243
g67
(dp3244
g75
I3
ssg76
g3238
sg69
(lp3245
S''
asbasbasbag62
(g78
g64
NtRp3246
(dp3247
g67
(dp3248
sg76
g3202
sg69
(lp3249
g62
(g83
g64
NtRp3250
(dp3251
g67
(dp3252
g87
g88
ssg76
g3246
sg69
(lp3253
g354
asbag62
(g83
g64
NtRp3254
(dp3255
g67
(dp3256
g94
g95
ssg76
g3246
sg69
(lp3257
S':'
asbag62
(g83
g64
NtRp3258
(dp3259
g67
(dp3260
sg76
g3246
sg69
(lp3261
g62
(g63
g64
NtRp3262
(dp3263
g67
(dp3264
g75
I3
ssg76
g3258
sg69
(lp3265
S''
asbasbasbag62
(g78
g64
NtRp3266
(dp3267
g67
(dp3268
sg76
g3202
sg69
(lp3269
g62
(g83
g64
NtRp3270
(dp3271
g67
(dp3272
g87
g88
ssg76
g3266
sg69
(lp3273
g375
asbag62
(g83
g64
NtRp3274
(dp3275
g67
(dp3276
g94
g95
ssg76
g3266
sg69
(lp3277
S':'
asbag62
(g83
g64
NtRp3278
(dp3279
g67
(dp3280
sg76
g3266
sg69
(lp3281
g62
(g63
g64
NtRp3282
(dp3283
g67
(dp3284
g75
I3
ssg76
g3278
sg69
(lp3285
S''
asbasbasbag62
(g78
g64
NtRp3286
(dp3287
g67
(dp3288
sg76
g3202
sg69
(lp3289
g62
(g83
g64
NtRp3290
(dp3291
g67
(dp3292
g87
g88
ssg76
g3286
sg69
(lp3293
g396
asbag62
(g83
g64
NtRp3294
(dp3295
g67
(dp3296
g94
g95
ssg76
g3286
sg69
(lp3297
S':'
asbag62
(g83
g64
NtRp3298
(dp3299
g67
(dp3300
sg76
g3286
sg69
(lp3301
g62
(g63
g64
NtRp3302
(dp3303
g67
(dp3304
g75
I3
ssg76
g3298
sg69
(lp3305
S''
asbasbasbag62
(g78
g64
NtRp3306
(dp3307
g67
(dp3308
sg76
g3202
sg69
(lp3309
g62
(g83
g64
NtRp3310
(dp3311
g67
(dp3312
g87
g88
ssg76
g3306
sg69
(lp3313
g417
asbag62
(g83
g64
NtRp3314
(dp3315
g67
(dp3316
g94
g95
ssg76
g3306
sg69
(lp3317
S':'
asbag62
(g83
g64
NtRp3318
(dp3319
g67
(dp3320
sg76
g3306
sg69
(lp3321
g62
(g63
g64
NtRp3322
(dp3323
g67
(dp3324
g75
I3
ssg76
g3318
sg69
(lp3325
S'/'
asbasbasbag62
(g78
g64
NtRp3326
(dp3327
g67
(dp3328
sg76
g3202
sg69
(lp3329
g62
(g83
g64
NtRp3330
(dp3331
g67
(dp3332
g87
g88
ssg76
g3326
sg69
(lp3333
g438
asbag62
(g83
g64
NtRp3334
(dp3335
g67
(dp3336
g94
g95
ssg76
g3326
sg69
(lp3337
S':'
asbag62
(g83
g64
NtRp3338
(dp3339
g67
(dp3340
sg76
g3326
sg69
(lp3341
g62
(g63
g64
NtRp3342
(dp3343
g67
(dp3344
g75
I3
ssg76
g3338
sg69
(lp3345
S''
asbasbasbag62
(g78
g64
NtRp3346
(dp3347
g67
(dp3348
sg76
g3202
sg69
(lp3349
g62
(g83
g64
NtRp3350
(dp3351
g67
(dp3352
g87
g88
ssg76
g3346
sg69
(lp3353
g459
asbag62
(g83
g64
NtRp3354
(dp3355
g67
(dp3356
g94
g95
ssg76
g3346
sg69
(lp3357
S':'
asbag62
(g83
g64
NtRp3358
(dp3359
g67
(dp3360
sg76
g3346
sg69
(lp3361
g62
(g63
g64
NtRp3362
(dp3363
g67
(dp3364
g75
I3
ssg76
g3358
sg69
(lp3365
S''
asbasbasbasbasbasbasbasbasbasbasbag62
(g78
g64
NtRp3366
(dp3367
g67
(dp3368
sg76
g3132
sg69
(lp3369
g62
(g83
g64
NtRp3370
(dp3371
g67
(dp3372
g87
g88
ssg76
g3366
sg69
(lp3373
S'delimiters'
p3374
asbag62
(g83
g64
NtRp3375
(dp3376
g67
(dp3377
g94
g95
ssg76
g3366
sg69
(lp3378
S':'
asbag62
(g83
g64
NtRp3379
(dp3380
g67
(dp3381
sg76
g3366
sg69
(lp3382
g62
(g63
g64
NtRp3383
(dp3384
g67
(dp3385
g75
I5
ssg76
g3379
sg69
(lp3386
g62
(g71
g64
NtRp3387
(dp3388
g67
(dp3389
g75
I4
ssg76
Nsg69
(lp3390
g62
(g78
g64
NtRp3391
(dp3392
g67
(dp3393
sg76
g3387
sg69
(lp3394
g62
(g83
g64
NtRp3395
(dp3396
g67
(dp3397
sg76
g3391
sg69
(lp3398
g62
(g63
g64
NtRp3399
(dp3400
g67
(dp3401
g75
I4
ssg76
g3395
sg69
(lp3402
S'{{'
p3403
asbasbasbag62
(g78
g64
NtRp3404
(dp3405
g67
(dp3406
sg76
g3387
sg69
(lp3407
g62
(g83
g64
NtRp3408
(dp3409
g67
(dp3410
sg76
g3404
sg69
(lp3411
g62
(g63
g64
NtRp3412
(dp3413
g67
(dp3414
g75
I4
ssg76
g3408
sg69
(lp3415
S'}}'
p3416
asbasbasbasbasbasbasbag62
(g78
g64
NtRp3417
(dp3418
g67
(dp3419
sg76
g3132
sg69
(lp3420
g62
(g83
g64
NtRp3421
(dp3422
g67
(dp3423
g87
g88
ssg76
g3417
sg69
(lp3424
S'files'
p3425
asbag62
(g83
g64
NtRp3426
(dp3427
g67
(dp3428
g94
g95
ssg76
g3417
sg69
(lp3429
S':'
asbag62
(g83
g64
NtRp3430
(dp3431
g67
(dp3432
sg76
g3417
sg69
(lp3433
g62
(g63
g64
NtRp3434
(dp3435
g67
(dp3436
g75
I5
ssg76
g3430
sg69
(lp3437
g62
(g71
g64
NtRp3438
(dp3439
g67
(dp3440
g75
I4
ssg76
Nsg69
(lp3441
g62
(g78
g64
NtRp3442
(dp3443
g67
(dp3444
sg76
g3438
sg69
(lp3445
g62
(g83
g64
NtRp3446
(dp3447
g67
(dp3448
sg76
g3442
sg69
(lp3449
g62
(g63
g64
NtRp3450
(dp3451
g67
(dp3452
g75
I4
ssg76
g3446
sg69
(lp3453
S'/admin/static/plugin_multiselect/jquery.dimensions.js'
p3454
asbasbasbag62
(g78
g64
NtRp3455
(dp3456
g67
(dp3457
sg76
g3438
sg69
(lp3458
g62
(g83
g64
NtRp3459
(dp3460
g67
(dp3461
sg76
g3455
sg69
(lp3462
g62
(g63
g64
NtRp3463
(dp3464
g67
(dp3465
g75
I4
ssg76
g3459
sg69
(lp3466
S'/admin/static/plugin_multiselect/jquery.multiselect.js'
p3467
asbasbasbag62
(g78
g64
NtRp3468
(dp3469
g67
(dp3470
sg76
g3438
sg69
(lp3471
g62
(g83
g64
NtRp3472
(dp3473
g67
(dp3474
sg76
g3468
sg69
(lp3475
g62
(g63
g64
NtRp3476
(dp3477
g67
(dp3478
g75
I4
ssg76
g3472
sg69
(lp3479
S'/admin/static/plugin_multiselect/jquery.multiselect.css'
p3480
asbasbasbag62
(g78
g64
NtRp3481
(dp3482
g67
(dp3483
sg76
g3438
sg69
(lp3484
g62
(g83
g64
NtRp3485
(dp3486
g67
(dp3487
sg76
g3481
sg69
(lp3488
g62
(g63
g64
NtRp3489
(dp3490
g67
(dp3491
g75
I4
ssg76
g3485
sg69
(lp3492
S'/admin/static/plugin_multiselect/start.js'
p3493
asbasbasbasbasbasbasbag62
(g78
g64
NtRp3494
(dp3495
g67
(dp3496
sg76
g3132
sg69
(lp3497
g62
(g83
g64
NtRp3498
(dp3499
g67
(dp3500
g87
g88
ssg76
g3494
sg69
(lp3501
S'flash'
p3502
asbag62
(g83
g64
NtRp3503
(dp3504
g67
(dp3505
g94
g95
ssg76
g3494
sg69
(lp3506
S':'
asbag62
(g83
g64
NtRp3507
(dp3508
g67
(dp3509
sg76
g3494
sg69
(lp3510
g62
(g63
g64
NtRp3511
(dp3512
g67
(dp3513
g75
I5
ssg76
g3507
sg69
(lp3514
S''
asbasbasbag62
(g78
g64
NtRp3515
(dp3516
g67
(dp3517
sg76
g3132
sg69
(lp3518
g62
(g83
g64
NtRp3519
(dp3520
g67
(dp3521
g87
g88
ssg76
g3515
sg69
(lp3522
S'generic_patterns'
p3523
asbag62
(g83
g64
NtRp3524
(dp3525
g67
(dp3526
g94
g95
ssg76
g3515
sg69
(lp3527
S':'
asbag62
(g83
g64
NtRp3528
(dp3529
g67
(dp3530
sg76
g3515
sg69
(lp3531
g62
(g63
g64
NtRp3532
(dp3533
g67
(dp3534
g75
I5
ssg76
g3528
sg69
(lp3535
g62
(g71
g64
NtRp3536
(dp3537
g67
(dp3538
g75
I4
ssg76
Nsg69
(lp3539
sbasbasbasbag62
(g78
g64
NtRp3540
(dp3541
g67
(dp3542
sg76
g3132
sg69
(lp3543
g62
(g83
g64
NtRp3544
(dp3545
g67
(dp3546
g87
g88
ssg76
g3540
sg69
(lp3547
S'headers'
p3548
asbag62
(g83
g64
NtRp3549
(dp3550
g67
(dp3551
g94
g95
ssg76
g3540
sg69
(lp3552
S':'
asbag62
(g83
g64
NtRp3553
(dp3554
g67
(dp3555
sg76
g3540
sg69
(lp3556
g62
(g63
g64
NtRp3557
(dp3558
g67
(dp3559
g75
I5
ssg76
g3553
sg69
(lp3560
g62
(g71
g64
NtRp3561
(dp3562
g67
(dp3563
g75
I4
ssg76
Nsg69
(lp3564
g62
(g78
g64
NtRp3565
(dp3566
g67
(dp3567
sg76
g3561
sg69
(lp3568
g62
(g83
g64
NtRp3569
(dp3570
g67
(dp3571
g87
g88
ssg76
g3565
sg69
(lp3572
S'Cache-Control'
p3573
asbag62
(g83
g64
NtRp3574
(dp3575
g67
(dp3576
g94
g95
ssg76
g3565
sg69
(lp3577
S':'
asbag62
(g83
g64
NtRp3578
(dp3579
g67
(dp3580
sg76
g3565
sg69
(lp3581
g62
(g63
g64
NtRp3582
(dp3583
g67
(dp3584
g75
I4
ssg76
g3578
sg69
(lp3585
S'no-store, no-cache, must-revalidate, post-check=0, pre-check=0'
p3586
asbasbasbag62
(g78
g64
NtRp3587
(dp3588
g67
(dp3589
sg76
g3561
sg69
(lp3590
g62
(g83
g64
NtRp3591
(dp3592
g67
(dp3593
g87
g88
ssg76
g3587
sg69
(lp3594
S'Content-Type'
p3595
asbag62
(g83
g64
NtRp3596
(dp3597
g67
(dp3598
g94
g95
ssg76
g3587
sg69
(lp3599
S':'
asbag62
(g83
g64
NtRp3600
(dp3601
g67
(dp3602
sg76
g3587
sg69
(lp3603
g62
(g63
g64
NtRp3604
(dp3605
g67
(dp3606
g75
I4
ssg76
g3600
sg69
(lp3607
S'text/html; charset=utf-8'
p3608
asbasbasbag62
(g78
g64
NtRp3609
(dp3610
g67
(dp3611
sg76
g3561
sg69
(lp3612
g62
(g83
g64
NtRp3613
(dp3614
g67
(dp3615
g87
g88
ssg76
g3609
sg69
(lp3616
S'Expires'
p3617
asbag62
(g83
g64
NtRp3618
(dp3619
g67
(dp3620
g94
g95
ssg76
g3609
sg69
(lp3621
S':'
asbag62
(g83
g64
NtRp3622
(dp3623
g67
(dp3624
sg76
g3609
sg69
(lp3625
g62
(g63
g64
NtRp3626
(dp3627
g67
(dp3628
g75
I4
ssg76
g3622
sg69
(lp3629
S'Wed, 11 Sep 2013 13:53:17 GMT'
p3630
asbasbasbag62
(g78
g64
NtRp3631
(dp3632
g67
(dp3633
sg76
g3561
sg69
(lp3634
g62
(g83
g64
NtRp3635
(dp3636
g67
(dp3637
g87
g88
ssg76
g3631
sg69
(lp3638
S'Pragma'
p3639
asbag62
(g83
g64
NtRp3640
(dp3641
g67
(dp3642
g94
g95
ssg76
g3631
sg69
(lp3643
S':'
asbag62
(g83
g64
NtRp3644
(dp3645
g67
(dp3646
sg76
g3631
sg69
(lp3647
g62
(g63
g64
NtRp3648
(dp3649
g67
(dp3650
g75
I4
ssg76
g3644
sg69
(lp3651
S'no-cache'
p3652
asbasbasbag62
(g78
g64
NtRp3653
(dp3654
g67
(dp3655
sg76
g3561
sg69
(lp3656
g62
(g83
g64
NtRp3657
(dp3658
g67
(dp3659
g87
g88
ssg76
g3653
sg69
(lp3660
S'X-Powered-By'
p3661
asbag62
(g83
g64
NtRp3662
(dp3663
g67
(dp3664
g94
g95
ssg76
g3653
sg69
(lp3665
S':'
asbag62
(g83
g64
NtRp3666
(dp3667
g67
(dp3668
sg76
g3653
sg69
(lp3669
g62
(g63
g64
NtRp3670
(dp3671
g67
(dp3672
g75
I4
ssg76
g3666
sg69
(lp3673
S'web2py'
p3674
asbasbasbasbasbasbasbag62
(g78
g64
NtRp3675
(dp3676
g67
(dp3677
sg76
g3132
sg69
(lp3678
g62
(g83
g64
NtRp3679
(dp3680
g67
(dp3681
g87
g88
ssg76
g3675
sg69
(lp3682
S'menu'
p3683
asbag62
(g83
g64
NtRp3684
(dp3685
g67
(dp3686
g94
g95
ssg76
g3675
sg69
(lp3687
S':'
asbag62
(g83
g64
NtRp3688
(dp3689
g67
(dp3690
sg76
g3675
sg69
(lp3691
g62
(g63
g64
NtRp3692
(dp3693
g67
(dp3694
g75
I5
ssg76
g3688
sg69
(lp3695
g62
(g71
g64
NtRp3696
(dp3697
g67
(dp3698
g75
I4
ssg76
Nsg69
(lp3699
g62
(g78
g64
NtRp3700
(dp3701
g67
(dp3702
sg76
g3696
sg69
(lp3703
g62
(g83
g64
NtRp3704
(dp3705
g67
(dp3706
sg76
g3700
sg69
(lp3707
g62
(g63
g64
NtRp3708
(dp3709
g67
(dp3710
g75
I4
ssg76
g3704
sg69
(lp3711
g62
(g71
g64
NtRp3712
(dp3713
g67
(dp3714
g75
I3
ssg76
Nsg69
(lp3715
g62
(g78
g64
NtRp3716
(dp3717
g67
(dp3718
sg76
g3712
sg69
(lp3719
g62
(g83
g64
NtRp3720
(dp3721
g67
(dp3722
sg76
g3716
sg69
(lp3723
g62
(g63
g64
NtRp3724
(dp3725
g67
(dp3726
g75
I3
ssg76
g3720
sg69
(lp3727
cgluon.languages
lazyT_unpickle
p3728
(S's\x04\x00\x00\x00Site'
tRp3729
asbasbasbag62
(g78
g64
NtRp3730
(dp3731
g67
(dp3732
sg76
g3712
sg69
(lp3733
g62
(g83
g64
NtRp3734
(dp3735
g67
(dp3736
sg76
g3730
sg69
(lp3737
g62
(g63
g64
NtRp3738
(dp3739
g67
(dp3740
g75
I3
ssg76
g3734
sg69
(lp3741
g105
asbasbasbag62
(g78
g64
NtRp3742
(dp3743
g67
(dp3744
sg76
g3712
sg69
(lp3745
g62
(g83
g64
NtRp3746
(dp3747
g67
(dp3748
sg76
g3742
sg69
(lp3749
g62
(g63
g64
NtRp3750
(dp3751
g67
(dp3752
g75
I3
ssg76
g3746
sg69
(lp3753
S'/admin/default/site'
p3754
asbasbasbasbasbasbasbag62
(g78
g64
NtRp3755
(dp3756
g67
(dp3757
sg76
g3696
sg69
(lp3758
g62
(g83
g64
NtRp3759
(dp3760
g67
(dp3761
sg76
g3755
sg69
(lp3762
g62
(g63
g64
NtRp3763
(dp3764
g67
(dp3765
g75
I4
ssg76
g3759
sg69
(lp3766
g62
(g71
g64
NtRp3767
(dp3768
g67
(dp3769
g75
I3
ssg76
Nsg69
(lp3770
g62
(g78
g64
NtRp3771
(dp3772
g67
(dp3773
sg76
g3767
sg69
(lp3774
g62
(g83
g64
NtRp3775
(dp3776
g67
(dp3777
sg76
g3771
sg69
(lp3778
g62
(g63
g64
NtRp3779
(dp3780
g67
(dp3781
g75
I3
ssg76
g3775
sg69
(lp3782
g3728
(S's\x04\x00\x00\x00Edit'
tRp3783
asbasbasbag62
(g78
g64
NtRp3784
(dp3785
g67
(dp3786
sg76
g3767
sg69
(lp3787
g62
(g83
g64
NtRp3788
(dp3789
g67
(dp3790
sg76
g3784
sg69
(lp3791
g62
(g63
g64
NtRp3792
(dp3793
g67
(dp3794
g75
I3
ssg76
g3788
sg69
(lp3795
g1533
asbasbasbag62
(g78
g64
NtRp3796
(dp3797
g67
(dp3798
sg76
g3767
sg69
(lp3799
g62
(g83
g64
NtRp3800
(dp3801
g67
(dp3802
sg76
g3796
sg69
(lp3803
g62
(g63
g64
NtRp3804
(dp3805
g67
(dp3806
g75
I3
ssg76
g3800
sg69
(lp3807
S'/admin/default/design/201201170'
p3808
asbasbasbasbasbasbasbag62
(g78
g64
NtRp3809
(dp3810
g67
(dp3811
sg76
g3696
sg69
(lp3812
g62
(g83
g64
NtRp3813
(dp3814
g67
(dp3815
sg76
g3809
sg69
(lp3816
g62
(g63
g64
NtRp3817
(dp3818
g67
(dp3819
g75
I4
ssg76
g3813
sg69
(lp3820
g62
(g71
g64
NtRp3821
(dp3822
g67
(dp3823
g75
I3
ssg76
Nsg69
(lp3824
g62
(g78
g64
NtRp3825
(dp3826
g67
(dp3827
sg76
g3821
sg69
(lp3828
g62
(g83
g64
NtRp3829
(dp3830
g67
(dp3831
sg76
g3825
sg69
(lp3832
g62
(g63
g64
NtRp3833
(dp3834
g67
(dp3835
g75
I3
ssg76
g3829
sg69
(lp3836
g3728
(S's\x05\x00\x00\x00About'
tRp3837
asbasbasbag62
(g78
g64
NtRp3838
(dp3839
g67
(dp3840
sg76
g3821
sg69
(lp3841
g62
(g83
g64
NtRp3842
(dp3843
g67
(dp3844
sg76
g3838
sg69
(lp3845
g62
(g63
g64
NtRp3846
(dp3847
g67
(dp3848
g75
I3
ssg76
g3842
sg69
(lp3849
g105
asbasbasbag62
(g78
g64
NtRp3850
(dp3851
g67
(dp3852
sg76
g3821
sg69
(lp3853
g62
(g83
g64
NtRp3854
(dp3855
g67
(dp3856
sg76
g3850
sg69
(lp3857
g62
(g63
g64
NtRp3858
(dp3859
g67
(dp3860
g75
I3
ssg76
g3854
sg69
(lp3861
S'/admin/default/about/201201170'
p3862
asbasbasbasbasbasbasbag62
(g78
g64
NtRp3863
(dp3864
g67
(dp3865
sg76
g3696
sg69
(lp3866
g62
(g83
g64
NtRp3867
(dp3868
g67
(dp3869
sg76
g3863
sg69
(lp3870
g62
(g63
g64
NtRp3871
(dp3872
g67
(dp3873
g75
I4
ssg76
g3867
sg69
(lp3874
g62
(g71
g64
NtRp3875
(dp3876
g67
(dp3877
g75
I3
ssg76
Nsg69
(lp3878
g62
(g78
g64
NtRp3879
(dp3880
g67
(dp3881
sg76
g3875
sg69
(lp3882
g62
(g83
g64
NtRp3883
(dp3884
g67
(dp3885
sg76
g3879
sg69
(lp3886
g62
(g63
g64
NtRp3887
(dp3888
g67
(dp3889
g75
I3
ssg76
g3883
sg69
(lp3890
g3728
(S's\x06\x00\x00\x00Errors'
tRp3891
asbasbasbag62
(g78
g64
NtRp3892
(dp3893
g67
(dp3894
sg76
g3875
sg69
(lp3895
g62
(g83
g64
NtRp3896
(dp3897
g67
(dp3898
sg76
g3892
sg69
(lp3899
g62
(g63
g64
NtRp3900
(dp3901
g67
(dp3902
g75
I3
ssg76
g3896
sg69
(lp3903
g105
asbasbasbag62
(g78
g64
NtRp3904
(dp3905
g67
(dp3906
sg76
g3875
sg69
(lp3907
g62
(g83
g64
NtRp3908
(dp3909
g67
(dp3910
sg76
g3904
sg69
(lp3911
g62
(g63
g64
NtRp3912
(dp3913
g67
(dp3914
g75
I3
ssg76
g3908
sg69
(lp3915
S'/admin/default/errors/201201170'
p3916
asbasbasbasbasbasbasbag62
(g78
g64
NtRp3917
(dp3918
g67
(dp3919
sg76
g3696
sg69
(lp3920
g62
(g83
g64
NtRp3921
(dp3922
g67
(dp3923
sg76
g3917
sg69
(lp3924
g62
(g63
g64
NtRp3925
(dp3926
g67
(dp3927
g75
I4
ssg76
g3921
sg69
(lp3928
g62
(g71
g64
NtRp3929
(dp3930
g67
(dp3931
g75
I3
ssg76
Nsg69
(lp3932
g62
(g78
g64
NtRp3933
(dp3934
g67
(dp3935
sg76
g3929
sg69
(lp3936
g62
(g83
g64
NtRp3937
(dp3938
g67
(dp3939
sg76
g3933
sg69
(lp3940
g62
(g63
g64
NtRp3941
(dp3942
g67
(dp3943
g75
I3
ssg76
g3937
sg69
(lp3944
g3728
(S's\n\x00\x00\x00Versioning'
tRp3945
asbasbasbag62
(g78
g64
NtRp3946
(dp3947
g67
(dp3948
sg76
g3929
sg69
(lp3949
g62
(g83
g64
NtRp3950
(dp3951
g67
(dp3952
sg76
g3946
sg69
(lp3953
g62
(g63
g64
NtRp3954
(dp3955
g67
(dp3956
g75
I3
ssg76
g3950
sg69
(lp3957
g105
asbasbasbag62
(g78
g64
NtRp3958
(dp3959
g67
(dp3960
sg76
g3929
sg69
(lp3961
g62
(g83
g64
NtRp3962
(dp3963
g67
(dp3964
sg76
g3958
sg69
(lp3965
g62
(g63
g64
NtRp3966
(dp3967
g67
(dp3968
g75
I3
ssg76
g3962
sg69
(lp3969
S'/admin/mercurial/commit/201201170'
p3970
asbasbasbasbasbasbasbag62
(g78
g64
NtRp3971
(dp3972
g67
(dp3973
sg76
g3696
sg69
(lp3974
g62
(g83
g64
NtRp3975
(dp3976
g67
(dp3977
sg76
g3971
sg69
(lp3978
g62
(g63
g64
NtRp3979
(dp3980
g67
(dp3981
g75
I4
ssg76
g3975
sg69
(lp3982
g62
(g71
g64
NtRp3983
(dp3984
g67
(dp3985
g75
I3
ssg76
Nsg69
(lp3986
g62
(g78
g64
NtRp3987
(dp3988
g67
(dp3989
sg76
g3983
sg69
(lp3990
g62
(g83
g64
NtRp3991
(dp3992
g67
(dp3993
sg76
g3987
sg69
(lp3994
g62
(g63
g64
NtRp3995
(dp3996
g67
(dp3997
g75
I3
ssg76
g3991
sg69
(lp3998
g3728
(S's\x06\x00\x00\x00Logout'
tRp3999
asbasbasbag62
(g78
g64
NtRp4000
(dp4001
g67
(dp4002
sg76
g3983
sg69
(lp4003
g62
(g83
g64
NtRp4004
(dp4005
g67
(dp4006
sg76
g4000
sg69
(lp4007
g62
(g63
g64
NtRp4008
(dp4009
g67
(dp4010
g75
I3
ssg76
g4004
sg69
(lp4011
g105
asbasbasbag62
(g78
g64
NtRp4012
(dp4013
g67
(dp4014
sg76
g3983
sg69
(lp4015
g62
(g83
g64
NtRp4016
(dp4017
g67
(dp4018
sg76
g4012
sg69
(lp4019
g62
(g63
g64
NtRp4020
(dp4021
g67
(dp4022
g75
I3
ssg76
g4016
sg69
(lp4023
S'/admin/default/logout'
p4024
asbasbasbasbasbasbasbag62
(g78
g64
NtRp4025
(dp4026
g67
(dp4027
sg76
g3696
sg69
(lp4028
g62
(g83
g64
NtRp4029
(dp4030
g67
(dp4031
sg76
g4025
sg69
(lp4032
g62
(g63
g64
NtRp4033
(dp4034
g67
(dp4035
g75
I4
ssg76
g4029
sg69
(lp4036
g62
(g71
g64
NtRp4037
(dp4038
g67
(dp4039
g75
I3
ssg76
Nsg69
(lp4040
g62
(g78
g64
NtRp4041
(dp4042
g67
(dp4043
sg76
g4037
sg69
(lp4044
g62
(g83
g64
NtRp4045
(dp4046
g67
(dp4047
sg76
g4041
sg69
(lp4048
g62
(g63
g64
NtRp4049
(dp4050
g67
(dp4051
g75
I3
ssg76
g4045
sg69
(lp4052
g3728
(S's\x05\x00\x00\x00Debug'
tRp4053
asbasbasbag62
(g78
g64
NtRp4054
(dp4055
g67
(dp4056
sg76
g4037
sg69
(lp4057
g62
(g83
g64
NtRp4058
(dp4059
g67
(dp4060
sg76
g4054
sg69
(lp4061
g62
(g63
g64
NtRp4062
(dp4063
g67
(dp4064
g75
I3
ssg76
g4058
sg69
(lp4065
g105
asbasbasbag62
(g78
g64
NtRp4066
(dp4067
g67
(dp4068
sg76
g4037
sg69
(lp4069
g62
(g83
g64
NtRp4070
(dp4071
g67
(dp4072
sg76
g4066
sg69
(lp4073
g62
(g63
g64
NtRp4074
(dp4075
g67
(dp4076
g75
I3
ssg76
g4070
sg69
(lp4077
S'/admin/debug/interact'
p4078
asbasbasbasbasbasbasbag62
(g78
g64
NtRp4079
(dp4080
g67
(dp4081
sg76
g3696
sg69
(lp4082
g62
(g83
g64
NtRp4083
(dp4084
g67
(dp4085
sg76
g4079
sg69
(lp4086
g62
(g63
g64
NtRp4087
(dp4088
g67
(dp4089
g75
I4
ssg76
g4083
sg69
(lp4090
g62
(g71
g64
NtRp4091
(dp4092
g67
(dp4093
g75
I3
ssg76
Nsg69
(lp4094
g62
(g78
g64
NtRp4095
(dp4096
g67
(dp4097
sg76
g4091
sg69
(lp4098
g62
(g83
g64
NtRp4099
(dp4100
g67
(dp4101
sg76
g4095
sg69
(lp4102
g62
(g63
g64
NtRp4103
(dp4104
g67
(dp4105
g75
I3
ssg76
g4099
sg69
(lp4106
g3728
(S's\x04\x00\x00\x00Help'
tRp4107
asbasbasbag62
(g78
g64
NtRp4108
(dp4109
g67
(dp4110
sg76
g4091
sg69
(lp4111
g62
(g83
g64
NtRp4112
(dp4113
g67
(dp4114
sg76
g4108
sg69
(lp4115
g62
(g63
g64
NtRp4116
(dp4117
g67
(dp4118
g75
I3
ssg76
g4112
sg69
(lp4119
g105
asbasbasbag62
(g78
g64
NtRp4120
(dp4121
g67
(dp4122
sg76
g4091
sg69
(lp4123
g62
(g83
g64
NtRp4124
(dp4125
g67
(dp4126
sg76
g4120
sg69
(lp4127
g62
(g63
g64
NtRp4128
(dp4129
g67
(dp4130
g75
I3
ssg76
g4124
sg69
(lp4131
S'/examples/default/index'
p4132
asbasbasbasbasbasbasbasbasbasbasbag62
(g78
g64
NtRp4133
(dp4134
g67
(dp4135
sg76
g3132
sg69
(lp4136
g62
(g83
g64
NtRp4137
(dp4138
g67
(dp4139
g87
g88
ssg76
g4133
sg69
(lp4140
S'meta'
p4141
asbag62
(g83
g64
NtRp4142
(dp4143
g67
(dp4144
g94
g95
ssg76
g4133
sg69
(lp4145
S':'
asbag62
(g83
g64
NtRp4146
(dp4147
g67
(dp4148
sg76
g4133
sg69
(lp4149
g62
(g63
g64
NtRp4150
(dp4151
g67
(dp4152
g75
I5
ssg76
g4146
sg69
(lp4153
g62
(g71
g64
NtRp4154
(dp4155
g67
(dp4156
g75
I4
ssg76
Nsg69
(lp4157
sbasbasbasbag62
(g78
g64
NtRp4158
(dp4159
g67
(dp4160
sg76
g3132
sg69
(lp4161
g62
(g83
g64
NtRp4162
(dp4163
g67
(dp4164
g87
g88
ssg76
g4158
sg69
(lp4165
S'models_to_run'
p4166
asbag62
(g83
g64
NtRp4167
(dp4168
g67
(dp4169
g94
g95
ssg76
g4158
sg69
(lp4170
S':'
asbag62
(g83
g64
NtRp4171
(dp4172
g67
(dp4173
sg76
g4158
sg69
(lp4174
g62
(g63
g64
NtRp4175
(dp4176
g67
(dp4177
g75
I5
ssg76
g4171
sg69
(lp4178
g62
(g71
g64
NtRp4179
(dp4180
g67
(dp4181
g75
I4
ssg76
Nsg69
(lp4182
g62
(g78
g64
NtRp4183
(dp4184
g67
(dp4185
sg76
g4179
sg69
(lp4186
g62
(g83
g64
NtRp4187
(dp4188
g67
(dp4189
sg76
g4183
sg69
(lp4190
g62
(g63
g64
NtRp4191
(dp4192
g67
(dp4193
g75
I4
ssg76
g4187
sg69
(lp4194
S'^\\w+\\.py$'
p4195
asbasbasbag62
(g78
g64
NtRp4196
(dp4197
g67
(dp4198
sg76
g4179
sg69
(lp4199
g62
(g83
g64
NtRp4200
(dp4201
g67
(dp4202
sg76
g4196
sg69
(lp4203
g62
(g63
g64
NtRp4204
(dp4205
g67
(dp4206
g75
I4
ssg76
g4200
sg69
(lp4207
S'^default/\\w+\\.py$'
p4208
asbasbasbag62
(g78
g64
NtRp4209
(dp4210
g67
(dp4211
sg76
g4179
sg69
(lp4212
g62
(g83
g64
NtRp4213
(dp4214
g67
(dp4215
sg76
g4209
sg69
(lp4216
g62
(g63
g64
NtRp4217
(dp4218
g67
(dp4219
g75
I4
ssg76
g4213
sg69
(lp4220
S'^default/design/\\w+\\.py$'
p4221
asbasbasbasbasbasbasbag62
(g78
g64
NtRp4222
(dp4223
g67
(dp4224
sg76
g3132
sg69
(lp4225
g62
(g83
g64
NtRp4226
(dp4227
g67
(dp4228
g87
g88
ssg76
g4222
sg69
(lp4229
S'postprocessing'
p4230
asbag62
(g83
g64
NtRp4231
(dp4232
g67
(dp4233
g94
g95
ssg76
g4222
sg69
(lp4234
S':'
asbag62
(g83
g64
NtRp4235
(dp4236
g67
(dp4237
sg76
g4222
sg69
(lp4238
g62
(g63
g64
NtRp4239
(dp4240
g67
(dp4241
g75
I5
ssg76
g4235
sg69
(lp4242
g62
(g71
g64
NtRp4243
(dp4244
g67
(dp4245
g75
I4
ssg76
Nsg69
(lp4246
sbasbasbasbag62
(g78
g64
NtRp4247
(dp4248
g67
(dp4249
sg76
g3132
sg69
(lp4250
g62
(g83
g64
NtRp4251
(dp4252
g67
(dp4253
g87
g88
ssg76
g4247
sg69
(lp4254
S'session_file'
p4255
asbag62
(g83
g64
NtRp4256
(dp4257
g67
(dp4258
g94
g95
ssg76
g4247
sg69
(lp4259
S':'
asbag62
(g83
g64
NtRp4260
(dp4261
g67
(dp4262
sg76
g4247
sg69
(lp4263
g62
(g63
g64
NtRp4264
(dp4265
g67
(dp4266
g75
I5
ssg76
g4260
sg69
(lp4267
S"<open file '/home/mayank/Desktop/web2pyAddmin/web2py/web2py/applications/admin/sessions/127.0.0.1-dd501bec-a9f3-4a1f-a296-70bc24b875a6', mode 'rb+' at 0x266d540>"
p4268
asbasbasbag62
(g78
g64
NtRp4269
(dp4270
g67
(dp4271
sg76
g3132
sg69
(lp4272
g62
(g83
g64
NtRp4273
(dp4274
g67
(dp4275
g87
g88
ssg76
g4269
sg69
(lp4276
S'session_filename'
p4277
asbag62
(g83
g64
NtRp4278
(dp4279
g67
(dp4280
g94
g95
ssg76
g4269
sg69
(lp4281
S':'
asbag62
(g83
g64
NtRp4282
(dp4283
g67
(dp4284
sg76
g4269
sg69
(lp4285
g62
(g63
g64
NtRp4286
(dp4287
g67
(dp4288
g75
I5
ssg76
g4282
sg69
(lp4289
S'/home/mayank/Desktop/web2pyAddmin/web2py/web2py/applications/admin/sessions/127.0.0.1-dd501bec-a9f3-4a1f-a296-70bc24b875a6'
p4290
asbasbasbag62
(g78
g64
NtRp4291
(dp4292
g67
(dp4293
sg76
g3132
sg69
(lp4294
g62
(g83
g64
NtRp4295
(dp4296
g67
(dp4297
g87
g88
ssg76
g4291
sg69
(lp4298
S'session_id'
p4299
asbag62
(g83
g64
NtRp4300
(dp4301
g67
(dp4302
g94
g95
ssg76
g4291
sg69
(lp4303
S':'
asbag62
(g83
g64
NtRp4304
(dp4305
g67
(dp4306
sg76
g4291
sg69
(lp4307
g62
(g63
g64
NtRp4308
(dp4309
g67
(dp4310
g75
I5
ssg76
g4304
sg69
(lp4311
g299
asbasbasbag62
(g78
g64
NtRp4312
(dp4313
g67
(dp4314
sg76
g3132
sg69
(lp4315
g62
(g83
g64
NtRp4316
(dp4317
g67
(dp4318
g87
g88
ssg76
g4312
sg69
(lp4319
S'session_id_name'
p4320
asbag62
(g83
g64
NtRp4321
(dp4322
g67
(dp4323
g94
g95
ssg76
g4312
sg69
(lp4324
S':'
asbag62
(g83
g64
NtRp4325
(dp4326
g67
(dp4327
sg76
g4312
sg69
(lp4328
g62
(g63
g64
NtRp4329
(dp4330
g67
(dp4331
g75
I5
ssg76
g4325
sg69
(lp4332
g3189
asbasbasbag62
(g78
g64
NtRp4333
(dp4334
g67
(dp4335
sg76
g3132
sg69
(lp4336
g62
(g83
g64
NtRp4337
(dp4338
g67
(dp4339
g87
g88
ssg76
g4333
sg69
(lp4340
S'session_locked'
p4341
asbag62
(g83
g64
NtRp4342
(dp4343
g67
(dp4344
g94
g95
ssg76
g4333
sg69
(lp4345
S':'
asbag62
(g83
g64
NtRp4346
(dp4347
g67
(dp4348
sg76
g4333
sg69
(lp4349
g62
(g63
g64
NtRp4350
(dp4351
g67
(dp4352
g75
I5
ssg76
g4346
sg69
(lp4353
g1533
asbasbasbag62
(g78
g64
NtRp4354
(dp4355
g67
(dp4356
sg76
g3132
sg69
(lp4357
g62
(g83
g64
NtRp4358
(dp4359
g67
(dp4360
g87
g88
ssg76
g4354
sg69
(lp4361
S'session_new'
p4362
asbag62
(g83
g64
NtRp4363
(dp4364
g67
(dp4365
g94
g95
ssg76
g4354
sg69
(lp4366
S':'
asbag62
(g83
g64
NtRp4367
(dp4368
g67
(dp4369
sg76
g4354
sg69
(lp4370
g62
(g63
g64
NtRp4371
(dp4372
g67
(dp4373
g75
I5
ssg76
g4367
sg69
(lp4374
g105
asbasbasbag62
(g78
g64
NtRp4375
(dp4376
g67
(dp4377
sg76
g3132
sg69
(lp4378
g62
(g83
g64
NtRp4379
(dp4380
g67
(dp4381
g87
g88
ssg76
g4375
sg69
(lp4382
S'status'
p4383
asbag62
(g83
g64
NtRp4384
(dp4385
g67
(dp4386
g94
g95
ssg76
g4375
sg69
(lp4387
S':'
asbag62
(g83
g64
NtRp4388
(dp4389
g67
(dp4390
sg76
g4375
sg69
(lp4391
g62
(g63
g64
NtRp4392
(dp4393
g67
(dp4394
g75
I5
ssg76
g4388
sg69
(lp4395
S'200'
p4396
asbasbasbag62
(g78
g64
NtRp4397
(dp4398
g67
(dp4399
sg76
g3132
sg69
(lp4400
g62
(g83
g64
NtRp4401
(dp4402
g67
(dp4403
g87
g88
ssg76
g4397
sg69
(lp4404
S'subtitle'
p4405
asbag62
(g83
g64
NtRp4406
(dp4407
g67
(dp4408
g94
g95
ssg76
g4397
sg69
(lp4409
S':'
asbag62
(g83
g64
NtRp4410
(dp4411
g67
(dp4412
sg76
g4397
sg69
(lp4413
g62
(g63
g64
NtRp4414
(dp4415
g67
(dp4416
g75
I5
ssg76
g4410
sg69
(lp4417
S'admin'
p4418
asbasbasbag62
(g78
g64
NtRp4419
(dp4420
g67
(dp4421
sg76
g3132
sg69
(lp4422
g62
(g83
g64
NtRp4423
(dp4424
g67
(dp4425
g87
g88
ssg76
g4419
sg69
(lp4426
S'title'
p4427
asbag62
(g83
g64
NtRp4428
(dp4429
g67
(dp4430
g94
g95
ssg76
g4419
sg69
(lp4431
S':'
asbag62
(g83
g64
NtRp4432
(dp4433
g67
(dp4434
sg76
g4419
sg69
(lp4435
g62
(g63
g64
NtRp4436
(dp4437
g67
(dp4438
g75
I5
ssg76
g4432
sg69
(lp4439
S'design 201201170'
p4440
asbasbasbag62
(g78
g64
NtRp4441
(dp4442
g67
(dp4443
sg76
g3132
sg69
(lp4444
g62
(g83
g64
NtRp4445
(dp4446
g67
(dp4447
g87
g88
ssg76
g4441
sg69
(lp4448
S'view'
p4449
asbag62
(g83
g64
NtRp4450
(dp4451
g67
(dp4452
g94
g95
ssg76
g4441
sg69
(lp4453
S':'
asbag62
(g83
g64
NtRp4454
(dp4455
g67
(dp4456
sg76
g4441
sg69
(lp4457
g62
(g63
g64
NtRp4458
(dp4459
g67
(dp4460
g75
I5
ssg76
g4454
sg69
(lp4461
S'default/design.html'
p4462
asbasbasbasbasbsS'locals'
p4463
(dp4464
S'appdir'
p4465
S"'/home/mayank/Desktop/web2pyAddmin/web2py/web2py/applications/201201170'"
p4466
sS'langs'
p4467
g19
sS'langdir'
p4468
S"'/home/mayank/Desktop/web2pyAddmin/web2py/web2py/applications/201201170/languages'"
p4469
sssS'traceback'
p4470
S'Traceback (most recent call last):\n  File "/home/mayank/Desktop/web2pyAddmin/web2py/web2py/gluon/restricted.py", line 209, in restricted\n    exec ccode in environment\n  File "/home/mayank/Desktop/web2pyAddmin/web2py/web2py/applications/admin/controllers/default.py", line 1726, in <module>\n  File "/home/mayank/Desktop/web2pyAddmin/web2py/web2py/gluon/globals.py", line 185, in <lambda>\n    self._caller = lambda f: f()\n  File "/home/mayank/Desktop/web2pyAddmin/web2py/web2py/applications/admin/controllers/default.py", line 953, in design\n    in read_possible_languages(apath(app, r=request)).iteritems()\n  File "/home/mayank/Desktop/web2pyAddmin/web2py/web2py/gluon/languages.py", line 209, in read_possible_languages\n    for filename in os.listdir(langdir):\nOSError: [Errno 2] No such file or directory: \'/home/mayank/Desktop/web2pyAddmin/web2py/web2py/applications/201201170/languages\'\n'
p4471
s.