(dp1
S'output'
p2
S"<type 'exceptions.OSError'> [Errno 2] No such file or directory: '/home/mayank/IIIT/sem 3/SSAD&Project/web2py/applications/project/languages'"
p3
sS'layer'
p4
S'/home/mayank/IIIT/sem 3/SSAD&Project/web2py/applications/admin/controllers/default.py'
p5
sS'code'
p6
S'# coding: utf8\n\nEXPERIMENTAL_STUFF = True\n\nif EXPERIMENTAL_STUFF:\n    is_mobile = request.user_agent().is_mobile\n    if is_mobile:\n        response.view = response.view.replace(\'default/\',\'default.mobile/\')\n        response.menu = []\n\nimport re\nfrom gluon.admin import *\nfrom gluon.fileutils import abspath, read_file, write_file\nfrom gluon.utils import web2py_uuid\nfrom glob import glob\nimport shutil\nimport platform\ntry:                                                                                      \n    from git import *                                                                     \n    have_git = True\nexcept ImportError:                                                                       \n    have_git = False\n    GIT_MISSING = \'requires python-git module, but not installed or incompatible version\'\n\nfrom gluon.languages import (regex_language, read_possible_languages,\n                             lang_sampling,\n                             read_dict, write_dict, read_plural_dict,\n                             write_plural_dict, PLURAL_RULES)\n\n\nif DEMO_MODE and request.function in [\'change_password\',\'pack\',\'pack_plugin\',\'upgrade_web2py\',\'uninstall\',\'cleanup\',\'compile_app\',\'remove_compiled_app\',\'delete\',\'delete_plugin\',\'create_file\',\'upload_file\',\'update_languages\',\'reload_routes\',\'git_push\',\'git_pull\']:\n    session.flash = T(\'disabled in demo mode\')\n    redirect(URL(\'site\'))\n\n\nif not is_manager() and request.function in [\'change_password\',\'upgrade_web2py\']:\n    session.flash = T(\'disabled in multi user mode\')\n    redirect(URL(\'site\'))\n\nif FILTER_APPS and request.args(0) and not request.args(0) in FILTER_APPS:\n    session.flash = T(\'disabled in demo mode\')\n    redirect(URL(\'site\'))\n\n\nif not session.token: session.token = web2py_uuid()\n\ndef count_lines(data):\n    return len([line for line in data.split(\'\\n\') if line.strip() and not line.startswith(\'#\')])\n\ndef log_progress(app,mode=\'EDIT\',filename=None,progress=0):\n    progress_file = os.path.join(apath(app, r=request), \'progress.log\')\n    now = str(request.now)[:19]\n    if not os.path.exists(progress_file):\n        safe_open(progress_file,\'w\').write(\'[%s] START\\n\' % now)\n    if filename:\n        safe_open(progress_file,\'a\').write(\'[%s] %s %s: %s\\n\' % (now,mode,filename,progress))\n\ndef safe_open(a,b):\n    if DEMO_MODE and (\'w\' in b or \'a\' in b):\n        class tmp:\n            def write(self,data): pass\n        return tmp()\n    return open(a,b)\n\ndef safe_read(a, b=\'r\'):\n    safe_file = safe_open(a, b)\n    try:\n        return safe_file.read()\n    finally:\n        safe_file.close()\n\ndef safe_write(a, value, b=\'w\'):\n    safe_file = safe_open(a, b)\n    try:\n        safe_file.write(value)\n    finally:\n        safe_file.close()\n\ndef get_app(name=None):\n    app = name or request.args(0)\n    if app and (not MULTI_USER_MODE or is_manager() or \\\n                    db(db.app.name==app)(db.app.owner==auth.user.id).count()):\n        return app\n    session.flash = T(\'App does not exist or your are not authorized\')\n    redirect(URL(\'site\'))\n\ndef index():\n    """ Index handler """\n\n    send = request.vars.send\n    if DEMO_MODE:\n        session.authorized = True\n        session.last_time = t0\n    if not send:\n        send = URL(\'site\')\n    if session.authorized:\n        redirect(send)\n    elif request.vars.password:\n        if verify_password(request.vars.password):\n            session.authorized = True\n            login_record(True)\n\n            if CHECK_VERSION:\n                session.check_version = True\n            else:\n                session.check_version = False\n\n            session.last_time = t0\n            if isinstance(send, list):  # ## why does this happen?\n                send = str(send[0])\n\n            redirect(send)\n        else:\n            times_denied = login_record(False)\n            if times_denied >= allowed_number_of_attempts:\n                response.flash = \\\n                    T(\'admin disabled because too many invalid login attempts\')\n            elif times_denied == allowed_number_of_attempts - 1:\n                response.flash = \\\n                    T(\'You have one more login attempt before you are locked out\')\n            else:\n                response.flash = T(\'invalid password.\')\n    return dict(send=send)\n\n\ndef check_version():\n    """ Checks if web2py is up to date """\n\n    session.forget()\n    session._unlock(response)\n\n    new_version, version_number = check_new_version(request.env.web2py_version,\n                                    WEB2PY_VERSION_URL)\n\n    if new_version == -1:\n        return A(T(\'Unable to check for upgrades\'), _href=WEB2PY_URL)\n    elif new_version != True:\n        return A(T(\'web2py is up to date\'), _href=WEB2PY_URL)\n    elif platform.system().lower() in (\'windows\',\'win32\',\'win64\') and os.path.exists("web2py.exe"):\n        return SPAN(\'You should upgrade to version %s.%s.%s\' % version_number[:3])\n    else:\n        return sp_button(URL(\'upgrade_web2py\'), T(\'upgrade now\')) \\\n            + XML(\' <strong class="upgrade_version">%s.%s.%s</strong>\' \\\n                      % version_number[:3])\n\ndef logout():\n    """ Logout handler """\n    session.authorized = None\n    if MULTI_USER_MODE:\n        redirect(URL(\'user/logout\'))\n    redirect(URL(\'index\'))\n\n\ndef change_password():\n\n    if session.pam_user:\n        session.flash = T(\'PAM authenticated user, cannot change password here\')\n        redirect(URL(\'site\'))\n    form=SQLFORM.factory(Field(\'current_admin_password\',\'password\'),\n                         Field(\'new_admin_password\',\'password\',requires=IS_STRONG()),\n                         Field(\'new_admin_password_again\',\'password\'))\n    if form.accepts(request.vars):\n        if not verify_password(request.vars.current_admin_password):\n            form.errors.current_admin_password = T(\'invalid password\')\n        elif form.vars.new_admin_password != form.vars.new_admin_password_again:\n            form.errors.new_admin_password_again = T(\'no match\')\n        else:\n            path = abspath(\'parameters_%s.py\' % request.env.server_port)\n            safe_write(path, \'password="%s"\' % CRYPT()(request.vars.new_admin_password)[0])\n            session.flash = T(\'password changed\')\n            redirect(URL(\'site\'))\n    return dict(form=form)\n\n\ndef site():\n    """ Site handler """\n\n    myversion = request.env.web2py_version\n\n    # Shortcut to make the elif statements more legible\n    file_or_appurl = \'file\' in request.vars or \'appurl\' in request.vars\n\n    class IS_VALID_APPNAME(object):\n        def __call__(self,value):\n            if not re.compile(\'\\w+\').match(value):\n                return (value,T(\'Invalid application name\'))\n            if not request.vars.overwrite and \\\n                    os.path.exists(os.path.join(apath(r=request),value)):\n                return (value,T(\'Application exists already\'))\n            return (value,None)\n\n    is_appname = IS_VALID_APPNAME()\n    form_create = SQLFORM.factory(Field(\'name\',requires=is_appname),\n                                  table_name=\'appcreate\')\n    form_update = SQLFORM.factory(Field(\'name\',requires=is_appname),\n                                  Field(\'file\',\'upload\',uploadfield=False),\n                                  Field(\'url\'),\n                                  Field(\'overwrite\',\'boolean\'),\n                                  table_name=\'appupdate\')\n    form_create.process()\n    form_update.process()\n\n    if DEMO_MODE:\n        pass\n\n    elif form_create.accepted:\n        # create a new application\n        appname = cleanpath(form_create.vars.name)\n        created, error = app_create(appname, request,info=True)\n        if created:\n            if MULTI_USER_MODE:\n                db.app.insert(name=appname,owner=auth.user.id)\n            log_progress(appname)\n            session.flash = T(\'new application "%s" created\', appname)\n            redirect(URL(\'design\',args=appname))\n        else:\n            session.flash = \\\n                DIV(T(\'unable to create application "%s"\' % appname),\n                    PRE(error))                      \n        redirect(URL(r=request))\n\n    elif form_update.accepted:\n        if (form_update.vars.url or \'\').endswith(\'.git\'):\n            if not have_git:\n                session.flash = GIT_MISSING\n                redirect(URL(r=request))\n            target = os.path.join(apath(r=request),form_update.vars.name)\n            try:\n                new_repo = Repo.clone_from(form_update.vars.url,target)\n                session.flash = T(\'new application "%s" imported\',\n                                  form_update.vars.name)\n            except GitCommandError, err:\n                session.flash = T(\'Invalid git repository specified.\')\n            redirect(URL(r=request))\n\n        elif form_update.vars.url:\n            # fetch an application via URL or file upload\n            try:\n                f = urllib.urlopen(form_update.vars.url)\n                if f.code == 404:\n                    raise Exception("404 file not found")\n            except Exception, e:\n                session.flash = \\\n                    DIV(T(\'Unable to download app because:\'),PRE(str(e)))\n                redirect(URL(r=request))\n            fname = form_update.vars.url\n            \n        elif form_update.accepted and form_update.vars.file:\n            fname = request.vars.file.filename\n            f = request.vars.file.file\n            \n        else:\n            session.flash = \'No file uploaded and no URL specified\'\n            redirect(URL(r=request))\n\n        if f:\n            appname = cleanpath(form_update.vars.name)\n            installed = app_install(appname, f, \n                                    request, fname,\n                                    overwrite=form_update.vars.overwrite)\n        if f and installed:\n            msg = \'application %(appname)s installed with md5sum: %(digest)s\'\n            if MULTI_USER_MODE:\n                db.app.insert(name=appname,owner=auth.user.id)\n            log_progress(appname)\n            session.flash = T(msg, dict(appname=appname,\n                                        digest=md5_hash(installed)))\n        elif f and form_update.vars.overwrite:\n            msg = \'unable to install application "%(appname)s"\'\n            session.flash = T(msg, dict(appname=form_update.vars.name))\n        else:\n            msg = \'unable to install application "%(appname)s"\'\n            session.flash = T(msg, dict(appname=form_update.vars.name))\n        redirect(URL(r=request))\n\n    regex = re.compile(\'^\\w+$\')\n\n    if is_manager():\n        apps = [f for f in os.listdir(apath(r=request)) if regex.match(f)]\n    else:\n        apps = [f.name for f in db(db.app.owner==auth.user_id).select()]\n\n    if FILTER_APPS:\n        apps = [f for f in apps if f in FILTER_APPS]\n\n    apps = sorted(apps,lambda a,b:cmp(a.upper(),b.upper()))\n\n    return dict(app=None, apps=apps, myversion=myversion, \n                form_create=form_create, form_update=form_update)\n\n\ndef report_progress(app):\n    import datetime\n    progress_file = os.path.join(apath(app, r=request), \'progress.log\')\n    regex = re.compile(\'\\[(.*?)\\][^\\:]+\\:\\s+(\\-?\\d+)\')\n    if not os.path.exists(progress_file):\n        return []\n    matches = regex.findall(open(progress_file,\'r\').read())\n    events,counter = [],0\n    for m in matches:\n        if not m: continue\n        days = -(request.now - datetime.datetime.strptime(m[0],\'%Y-%m-%d %H:%M:%S\')).days\n        counter += int(m[1])\n        events.append([days,counter])\n    return events\n\n\ndef pack():\n    app = get_app()\n\n    try:\n        if len(request.args) == 1:\n            fname = \'web2py.app.%s.w2p\' % app\n            filename = app_pack(app, request, raise_ex=True)\n        else:\n            fname = \'web2py.app.%s.compiled.w2p\' % app\n            filename = app_pack_compiled(app, request, raise_ex=True)\n    except Exception, e:\n        filename = None\n\n    if filename:\n        response.headers[\'Content-Type\'] = \'application/w2p\'\n        disposition = \'attachment; filename=%s\' % fname\n        response.headers[\'Content-Disposition\'] = disposition\n        return safe_read(filename, \'rb\')\n    else:\n        session.flash = T(\'internal error: %s\' % e)\n        redirect(URL(\'site\'))\n\ndef pack_plugin():\n    app = get_app()\n    if len(request.args) == 2:\n        fname = \'web2py.plugin.%s.w2p\' % request.args[1]\n        filename = plugin_pack(app, request.args[1], request)\n    if filename:\n        response.headers[\'Content-Type\'] = \'application/w2p\'\n        disposition = \'attachment; filename=%s\' % fname\n        response.headers[\'Content-Disposition\'] = disposition\n        return safe_read(filename, \'rb\')\n    else:\n        session.flash = T(\'internal error\')\n        redirect(URL(\'plugin\',args=request.args))\n\ndef upgrade_web2py():\n    dialog = FORM.confirm(T(\'Upgrade\'),\n                         {T(\'Cancel\'):URL(\'site\')})    \n    if dialog.accepted:\n        (success, error) = upgrade(request)\n        if success:\n            session.flash = T(\'web2py upgraded; please restart it\')\n        else:\n            session.flash = T(\'unable to upgrade because "%s"\', error)\n        redirect(URL(\'site\'))\n    return dict(dialog=dialog)\n\ndef uninstall():\n    app = get_app()\n\n    dialog = FORM.confirm(T(\'Uninstall\'),\n                         {T(\'Cancel\'):URL(\'site\')})\n    \n    if dialog.accepted:\n        if MULTI_USER_MODE:\n            if is_manager() and db(db.app.name==app).delete():\n                pass\n            elif db(db.app.name==app)(db.app.owner==auth.user.id).delete():\n                pass\n            else:\n                session.flash = T(\'no permission to uninstall "%s"\', app)\n                redirect(URL(\'site\'))\n        if app_uninstall(app, request):\n            session.flash = T(\'application "%s" uninstalled\', app)\n        else:\n            session.flash = T(\'unable to uninstall "%s"\', app)\n        redirect(URL(\'site\'))\n    return dict(app=app, dialog=dialog)\n\n\ndef cleanup():\n    app = get_app()\n    clean = app_cleanup(app, request)\n    if not clean:\n        session.flash = T("some files could not be removed")\n    else:\n        session.flash = T(\'cache, errors and sessions cleaned\')\n\n    redirect(URL(\'site\'))\n\n\ndef compile_app():\n    app = get_app()\n    c = app_compile(app, request)\n    if not c:\n        session.flash = T(\'application compiled\')\n    else:\n        session.flash = DIV(T(\'Cannot compile: there are errors in your app:\'),\n                              CODE(c))\n    redirect(URL(\'site\'))\n\n\ndef remove_compiled_app():\n    """ Remove the compiled application """\n    app = get_app()\n    remove_compiled_application(apath(app, r=request))\n    session.flash = T(\'compiled application removed\')\n    redirect(URL(\'site\'))\n\ndef delete():\n    """ Object delete handler """\n    app = get_app()\n    filename = \'/\'.join(request.args)\n    sender = request.vars.sender\n\n    if isinstance(sender, list):  # ## fix a problem with Vista\n        sender = sender[0]\n\n    if \'nodelete\' in request.vars:\n        redirect(URL(sender, anchor=request.vars.id))\n    elif \'delete\' in request.vars:\n        try:\n            full_path = apath(filename, r=request)\n            lineno = count_lines(open(full_path,\'r\').read())\n            os.unlink(full_path)\n            log_progress(app,\'DELETE\',filename,progress=-lineno)\n            session.flash = T(\'file "%(filename)s" deleted\',\n                              dict(filename=filename))\n        except Exception:\n            session.flash = T(\'unable to delete file "%(filename)s"\',\n                              dict(filename=filename))\n        redirect(URL(sender, anchor=request.vars.id2))\n    return dict(filename=filename, sender=sender)\n\ndef delete():\n    """ Object delete handler """\n    app = get_app()\n    filename = \'/\'.join(request.args)\n    sender = request.vars.sender\n\n    if isinstance(sender, list):  # ## fix a problem with Vista\n        sender = sender[0]\n\n    dialog = FORM.confirm(T(\'Delete\'),\n                         {T(\'Cancel\'):URL(sender, anchor=request.vars.id)})\n\n    if dialog.accepted:\n        try:\n            full_path = apath(filename, r=request)\n            lineno = count_lines(open(full_path,\'r\').read())\n            os.unlink(full_path)\n            log_progress(app,\'DELETE\',filename,progress=-lineno)\n            session.flash = T(\'file "%(filename)s" deleted\',\n                              dict(filename=filename))\n        except Exception:\n            session.flash = T(\'unable to delete file "%(filename)s"\',\n                              dict(filename=filename))\n        redirect(URL(sender, anchor=request.vars.id2))\n    return dict(dialog=dialog,filename=filename)\n\ndef enable():\n    app = get_app()\n    filename = os.path.join(apath(app, r=request),\'DISABLED\')\n    if is_gae:\n        return SPAN(T(\'Not supported\'),_style=\'color:yellow\')\n    elif os.path.exists(filename):\n        os.unlink(filename)\n        return SPAN(T(\'Disable\'),_style=\'color:green\')\n    else:\n        safe_open(filename,\'wb\').write(time.ctime())\n        return SPAN(T(\'Enable\'),_style=\'color:red\')\n\ndef peek():\n    """ Visualize object code """\n    app = get_app(request.vars.app)\n    filename = \'/\'.join(request.args)\n    if request.vars.app:\n        path = abspath(filename)\n    else:\n        path = apath(filename, r=request)\n    try:\n        data = safe_read(path).replace(\'\\r\',\'\')\n    except IOError:\n        session.flash = T(\'file does not exist\')\n        redirect(URL(\'site\'))\n\n    extension = filename[filename.rfind(\'.\') + 1:].lower()\n\n    return dict(app=app,\n                filename=filename,\n                data=data,\n                extension=extension)\n\ndef test():\n    """ Execute controller tests """\n    app = get_app()\n    if len(request.args) > 1:\n        file = request.args[1]\n    else:\n        file = \'.*\\.py\'\n\n    controllers = listdir(apath(\'%s/controllers/\' % app, r=request), file + \'$\')\n\n    return dict(app=app, controllers=controllers)\n\ndef keepalive():\n    return \'\'\n\ndef search():\n    keywords=request.vars.keywords or \'\'\n    app = get_app()\n    def match(filename,keywords):\n        filename=os.path.join(apath(app, r=request),filename)\n        if keywords in read_file(filename,\'rb\'):\n            return True\n        return False\n    path = apath(request.args[0], r=request)\n    files1 = glob(os.path.join(path,\'*/*.py\'))\n    files2 = glob(os.path.join(path,\'*/*.html\'))\n    files3 = glob(os.path.join(path,\'*/*/*.html\'))\n    files=[x[len(path)+1:].replace(\'\\\\\',\'/\') for x in files1+files2+files3 if match(x,keywords)]\n    return response.json(dict(files=files, message=T.M(\'Searching: **%s** %%{file}\', len(files))))\n\ndef edit():\n    """ File edit handler """\n    # Load json only if it is ajax edited...\n    app = get_app(request.vars.app)\n    filename = \'/\'.join(request.args)\n    if request.vars.app:\n        path = abspath(filename)\n    else:\n        path = apath(filename, r=request)\n     # Try to discover the file type\n    if filename[-3:] == \'.py\':\n        filetype = \'python\'\n    elif filename[-5:] == \'.html\':\n        filetype = \'html\'\n    elif filename[-5:] == \'.load\':\n        filetype = \'html\'\n    elif filename[-4:] == \'.css\':\n        filetype = \'css\'\n    elif filename[-3:] == \'.js\':\n        filetype = \'js\'\n    else:\n        filetype = \'html\'\n\n    # ## check if file is not there\n    if (\'revert\' in request.vars) and os.path.exists(path + \'.bak\'):\n        try:\n            data = safe_read(path + \'.bak\')\n            data1 = safe_read(path)\n        except IOError:\n            session.flash = T(\'Invalid action\')\n            if \'from_ajax\' in request.vars:\n                 return response.json({\'error\': str(T(\'Invalid action\'))})\n            else:\n                redirect(URL(\'site\'))\n\n        safe_write(path, data)\n        file_hash = md5_hash(data)\n        saved_on = time.ctime(os.stat(path)[stat.ST_MTIME])\n        safe_write(path + \'.bak\', data1)\n        response.flash = T(\'file "%s" of %s restored\', (filename, saved_on))\n    else:\n        try:\n            data = safe_read(path)\n        except IOError:\n            session.flash = T(\'Invalid action\')\n            if \'from_ajax\' in request.vars:\n                return response.json({\'error\': str(T(\'Invalid action\'))})\n            else:\n                redirect(URL(\'site\'))\n\n        lineno_old = count_lines(data)\n        file_hash = md5_hash(data)\n        saved_on = time.ctime(os.stat(path)[stat.ST_MTIME])\n\n        if request.vars.file_hash and request.vars.file_hash != file_hash:\n            session.flash = T(\'file changed on disk\')\n            data = request.vars.data.replace(\'\\r\\n\', \'\\n\').strip() + \'\\n\'\n            safe_write(path + \'.1\', data)\n            if \'from_ajax\' in request.vars:\n                return response.json({\'error\': str(T(\'file changed on disk\')),\n                                      \'redirect\': URL(\'resolve\',\n                                                      args=request.args)})\n            else:\n                redirect(URL(\'resolve\', args=request.args))\n        elif request.vars.data:\n            safe_write(path + \'.bak\', data)\n            data = request.vars.data.replace(\'\\r\\n\', \'\\n\').strip() + \'\\n\'\n            safe_write(path, data)\n            lineno_new = count_lines(data)\n            log_progress(app,\'EDIT\',filename,progress=lineno_new-lineno_old)\n            file_hash = md5_hash(data)\n            saved_on = time.ctime(os.stat(path)[stat.ST_MTIME])\n            response.flash = T(\'file saved on %s\', saved_on)\n\n    data_or_revert = (request.vars.data or request.vars.revert)\n\n    # Check compile errors\n    highlight = None\n    if filetype == \'python\' and request.vars.data:\n        import _ast\n        try:\n            code = request.vars.data.rstrip().replace(\'\\r\\n\',\'\\n\')+\'\\n\'\n            compile(code, path, "exec", _ast.PyCF_ONLY_AST)\n        except Exception, e:\n            start = sum([len(line)+1 for l, line\n                            in enumerate(request.vars.data.split("\\n"))\n                            if l < e.lineno-1])\n            if e.text and e.offset:\n                offset = e.offset - (len(e.text) - len(e.text.splitlines()[-1]))\n            else:\n                offset = 0\n            highlight = {\'start\': start, \'end\': start + offset + 1, \'lineno\': e.lineno}\n            try:\n                ex_name = e.__class__.__name__\n            except:\n                ex_name = \'unknown exception!\'\n            response.flash = DIV(T(\'failed to compile file because:\'), BR(),\n                                 B(ex_name), \' \'+T(\'at line %s\', e.lineno),\n                                 offset and \' \'+T(\'at char %s\', offset) or \'\',\n                                 PRE(str(e)))\n\n    if data_or_revert and request.args[1] == \'modules\':\n        # Lets try to reload the modules\n        try:\n            mopath = \'.\'.join(request.args[2:])[:-3]\n            exec \'import applications.%s.modules.%s\' % (request.args[0], mopath)\n            reload(sys.modules[\'applications.%s.modules.%s\'\n                    % (request.args[0], mopath)])\n        except Exception, e:\n            response.flash = DIV(T(\'failed to reload module because:\'),PRE(str(e)))\n\n    edit_controller = None\n    editviewlinks = None\n    view_link = None\n    if filetype == \'html\' and len(request.args) >= 3:\n        cfilename = os.path.join(request.args[0], \'controllers\',\n                                 request.args[2] + \'.py\')\n        if os.path.exists(apath(cfilename, r=request)):\n            edit_controller = URL(\'edit\', args=[cfilename])\n            view = request.args[3].replace(\'.html\',\'\')\n            view_link = URL(request.args[0],request.args[2],view)\n    elif filetype == \'python\' and request.args[1] == \'controllers\':\n        ## it\'s a controller file.\n        ## Create links to all of the associated view files.\n        app = get_app()\n        viewname = os.path.splitext(request.args[2])[0]\n        viewpath = os.path.join(app,\'views\',viewname)\n        aviewpath = apath(viewpath, r=request)\n        viewlist = []\n        if os.path.exists(aviewpath):\n            if os.path.isdir(aviewpath):\n                viewlist = glob(os.path.join(aviewpath,\'*.html\'))\n        elif os.path.exists(aviewpath+\'.html\'):\n            viewlist.append(aviewpath+\'.html\')\n        if len(viewlist):\n            editviewlinks = []\n            for v in viewlist:\n                vf = os.path.split(v)[-1]\n                vargs = "/".join([viewpath.replace(os.sep,"/"),vf])\n                editviewlinks.append(A(vf.split(".")[0],\\\n                    _href=URL(\'edit\',args=[vargs])))\n\n    if len(request.args) > 2 and request.args[1] == \'controllers\':\n        controller = (request.args[2])[:-3]\n        functions = regex_expose.findall(data)\n    else:\n        (controller, functions) = (None, None)\n\n    if \'from_ajax\' in request.vars:\n        return response.json({\'file_hash\': file_hash, \'saved_on\': saved_on, \'functions\':functions, \'controller\': controller, \'application\': request.args[0], \'highlight\': highlight })\n    else:\n\n        editarea_preferences = {}\n        editarea_preferences[\'FONT_SIZE\'] = \'10\'\n        editarea_preferences[\'FULL_SCREEN\'] = \'false\'\n        editarea_preferences[\'ALLOW_TOGGLE\'] = \'true\'\n        editarea_preferences[\'REPLACE_TAB_BY_SPACES\'] = \'4\'\n        editarea_preferences[\'DISPLAY\'] = \'onload\'\n        for key in editarea_preferences:\n            if globals().has_key(key):\n                editarea_preferences[key]=globals()[key]\n        return dict(app=request.args[0],\n                    filename=filename,\n                    filetype=filetype,\n                    data=data,\n                    edit_controller=edit_controller,\n                    file_hash=file_hash,\n                    saved_on=saved_on,\n                    controller=controller,\n                    functions=functions,\n                    view_link=view_link,\n                    editarea_preferences=editarea_preferences,\n                    editviewlinks=editviewlinks)\n\ndef resolve():\n    """\n    """\n\n    filename = \'/\'.join(request.args)\n    # ## check if file is not there\n    path = apath(filename, r=request)\n    a = safe_read(path).split(\'\\n\')\n    try:\n        b = safe_read(path + \'.1\').split(\'\\n\')\n    except IOError:\n        session.flash = \'Other file, no longer there\'\n        redirect(URL(\'edit\', args=request.args))\n\n    d = difflib.ndiff(a, b)\n\n    def leading(line):\n        """  """\n\n        # TODO: we really need to comment this\n        z = \'\'\n        for (k, c) in enumerate(line):\n            if c == \' \':\n                z += \'&nbsp;\'\n            elif c == \' \\t\':\n                z += \'&nbsp;\'\n            elif k == 0 and c == \'?\':\n                pass\n            else:\n                break\n\n        return XML(z)\n\n    def getclass(item):\n        """ Determine item class """\n\n        if item[0] == \' \':\n            return \'normal\'\n        if item[0] == \'+\':\n            return \'plus\'\n        if item[0] == \'-\':\n            return \'minus\'\n\n    if request.vars:\n        c = \'\\n\'.join([item[2:].rstrip() for (i, item) in enumerate(d) if item[0] \\\n                           == \' \' or \'line%i\' % i in request.vars])\n        safe_write(path, c)\n        session.flash = \'files merged\'\n        redirect(URL(\'edit\', args=request.args))\n    else:\n        # Making the short circuit compatible with <= python2.4\n        gen_data = lambda index,item: not item[:1] in [\'+\',\'-\'] and "" \\\n                   or INPUT(_type=\'checkbox\',\n                            _name=\'line%i\' % index,\n                            value=item[0] == \'+\')\n\n        diff = TABLE(*[TR(TD(gen_data(i,item)),\n                          TD(item[0]),\n                          TD(leading(item[2:]),\n                          TT(item[2:].rstrip())), _class=getclass(item))\n                       for (i, item) in enumerate(d) if item[0] != \'?\'])\n\n    return dict(diff=diff, filename=filename)\n\n\ndef edit_language():\n    """ Edit language file """\n    app = get_app()\n    filename = \'/\'.join(request.args)\n    strings = read_dict(apath(filename, r=request))\n\n    if \'__corrupted__\' in strings:\n       form = SPAN(strings[\'__corrupted__\'],_class=\'error\')\n       return dict(filename=filename, form=form)\n\n    keys = sorted(strings.keys(),lambda x,y: cmp(unicode(x,\'utf-8\').lower(), unicode(y,\'utf-8\').lower()))\n    rows = []\n    rows.append(H2(T(\'Original/Translation\')))\n\n    for key in keys:\n        name = md5_hash(key)\n        s = strings[key]\n        (prefix, sep, key) = key.partition(\'\\x01\')\n        if sep:\n            prefix = SPAN(prefix+\': \', _class=\'tm_ftag\')\n            k = key\n        else:\n            (k, prefix) = (prefix, \'\')\n\n        _class=\'untranslated\' if k==s else \'translated\'\n\n        if len(key) <= 40:\n            elem = INPUT(_type=\'text\', _name=name, value=s,\n                         _size=70,_class=_class)\n        else:\n            elem = TEXTAREA(_name=name, value=s, _cols=70,\n                            _rows=5, _class=_class)\n\n        # Making the short circuit compatible with <= python2.4\n        k = (s != k) and k or B(k)\n\n        rows.append(P(prefix, k, BR(), elem, TAG.BUTTON(T(\'delete\'),\n                            _onclick=\'return delkey("%s")\' % name), _id=name))\n\n    rows.append(INPUT(_type=\'submit\', _value=T(\'update\')))\n    form = FORM(*rows)\n    if form.accepts(request.vars, keepvalues=True):\n        strs = dict()\n        for key in keys:\n            name = md5_hash(key)\n            if form.vars[name]==chr(127): continue\n            strs[key] = form.vars[name]\n        write_dict(apath(filename, r=request), strs)\n        session.flash = T(\'file saved on %(time)s\', dict(time=time.ctime()))\n        redirect(URL(r=request,args=request.args))\n    return dict(app=request.args[0], filename=filename, form=form)\n\ndef edit_plurals():\n    """ Edit plurals file """\n    #import ipdb; ipdb.set_trace()\n    app = get_app()\n    filename = \'/\'.join(request.args)\n    plurals = read_plural_dict(apath(filename, r=request)) # plural forms dictionary\n    nplurals = int(request.vars.nplurals)-1 # plural forms quantity\n    xnplurals = xrange(nplurals)\n\n    if \'__corrupted__\' in plurals:\n       # show error message and exit\n       form = SPAN(plurals[\'__corrupted__\'],_class=\'error\')\n       return dict(filename=filename, form=form)\n\n    keys = sorted(plurals.keys(),lambda x,y: cmp(unicode(x,\'utf-8\').lower(), unicode(y,\'utf-8\').lower()))\n    rows = []\n\n    row=[T("Singular Form")]\n    row.extend([T("Plural Form #%s", n+1) for n in xnplurals])\n    table=TABLE(THEAD(TR(row)))\n\n    for key in keys:\n        name = md5_hash(key)\n        forms = plurals[key]\n\n        if len(forms) < nplurals:\n            forms.extend(None for i in xrange(nplurals-len(forms)))\n\n        row = [B(key)]\n        row.extend([INPUT(_type=\'text\', _name=name+\'_\'+str(n), value=forms[n], _size=20) for n in xnplurals])\n        row.append(TD(TAG.BUTTON(T(\'delete\'), _onclick=\'return delkey("%s")\' % name)))\n        rows.append(TR(row, _id=name))\n    if rows:\n        table.append(TBODY(rows))\n    rows=[table, INPUT(_type=\'submit\', _value=T(\'update\'))]\n    form = FORM(*rows)\n    if form.accepts(request.vars, keepvalues=True):\n        new_plurals = dict()\n        for key in keys:\n            name = md5_hash(key)\n            if form.vars[name+\'_0\']==chr(127): continue\n            new_plurals[key] = [form.vars[name+\'_\'+str(n)] for n in xnplurals]\n        write_plural_dict(apath(filename, r=request), new_plurals)\n        session.flash = T(\'file saved on %(time)s\', dict(time=time.ctime()))\n        redirect(URL(r=request, args=request.args, vars=dict(nplurals=request.vars.nplurals)))\n    return dict(app=request.args[0], filename=filename, form=form)\n\n\ndef about():\n    """ Read about info """\n    app = get_app()\n    # ## check if file is not there\n    about = safe_read(apath(\'%s/ABOUT\' % app, r=request))\n    license = safe_read(apath(\'%s/LICENSE\' % app, r=request))\n    return dict(app=app, about=MARKMIN(about), license=MARKMIN(license),progress=report_progress(app))\n\n\ndef design():\n    """ Application design handler """\n    app = get_app()\n\n    if not response.flash and app == request.application:\n        msg = T(\'ATTENTION: you cannot edit the running application!\')\n        response.flash = msg\n\n    if request.vars and not request.vars.token==session.token:\n        redirect(URL(\'logout\'))\n\n    if request.vars.pluginfile!=None and not isinstance(request.vars.pluginfile,str):\n        filename=os.path.basename(request.vars.pluginfile.filename)\n        if plugin_install(app, request.vars.pluginfile.file,\n                          request, filename):\n            session.flash = T(\'new plugin installed\')\n            redirect(URL(\'design\',args=app))\n        else:\n            session.flash = \\\n                T(\'unable to create application "%s"\', request.vars.filename)\n        redirect(URL(r=request))\n    elif isinstance(request.vars.pluginfile,str):\n        session.flash = T(\'plugin not specified\')\n        redirect(URL(r=request))\n\n\n    # If we have only pyc files it means that\n    # we cannot design\n    if os.path.exists(apath(\'%s/compiled\' % app, r=request)):\n        session.flash = \\\n            T(\'application is compiled and cannot be designed\')\n        redirect(URL(\'site\'))\n\n    # Get all models\n    models = listdir(apath(\'%s/models/\' % app, r=request), \'.*\\.py$\')\n    models=[x.replace(\'\\\\\',\'/\') for x in models]\n    defines = {}\n    for m in models:\n        data = safe_read(apath(\'%s/models/%s\' % (app, m), r=request))\n        defines[m] = regex_tables.findall(data)\n        defines[m].sort()\n\n    # Get all controllers\n    controllers = sorted(listdir(apath(\'%s/controllers/\' % app, r=request), \'.*\\.py$\'))\n    controllers = [x.replace(\'\\\\\',\'/\') for x in controllers]\n    functions = {}\n    for c in controllers:\n        data = safe_read(apath(\'%s/controllers/%s\' % (app, c), r=request))\n        items = regex_expose.findall(data)\n        functions[c] = items\n\n    # Get all views\n    views = sorted(listdir(apath(\'%s/views/\' % app, r=request), \'[\\w/\\-]+(\\.\\w+)+$\'))\n    views = [x.replace(\'\\\\\',\'/\') for x in views if not x.endswith(\'.bak\')]\n    extend = {}\n    include = {}\n    for c in views:\n        data = safe_read(apath(\'%s/views/%s\' % (app, c), r=request))\n        items = regex_extend.findall(data)\n\n        if items:\n            extend[c] = items[0][1]\n\n        items = regex_include.findall(data)\n        include[c] = [i[1] for i in items]\n\n    # Get all modules\n    modules = listdir(apath(\'%s/modules/\' % app, r=request), \'.*\\.py$\')\n    modules = modules=[x.replace(\'\\\\\',\'/\') for x in modules]\n    modules.sort()\n\n    # Get all private files\n    privates = listdir(apath(\'%s/private/\' % app, r=request), \'[^\\.#].*\')\n    privates = [x.replace(\'\\\\\',\'/\') for x in privates]\n    privates.sort()\n\n    # Get all static files\n    statics = listdir(apath(\'%s/static/\' % app, r=request), \'[^\\.#].*\')\n    statics = [x.replace(\'\\\\\',\'/\') for x in statics]\n    statics.sort()\n\n    # Get all languages\n    all_languages=dict([(lang+\'.py\',info[0]) for lang,info\n                        in read_possible_languages(apath(app, r=request)).iteritems()\n                        if info[2]!=0]) # info[2] is langfile_mtime:\n                                        # get only existed files\n    languages = sorted(all_languages)\n\n    plural_rules = {}\n    all_plurals = PLURAL_RULES\n    for langfile,lang in all_languages.iteritems():\n        lang=lang.strip()\n        match_language = regex_language.match(lang)\n        if match_language:\n            match_language = tuple(part\n                                   for part in match_language.groups()\n                                   if part)\n            plang = lang_sampling(match_language, all_plurals.keys())\n            if plang:\n               plural=all_plurals[plang]\n               plural_rules[langfile]=(plural[0],plang,plural[4],plural[3])\n            else:\n               plural_rules[langfile]=(0,lang,\'plural_rules-%s.py\'%lang,\'\')\n\n    plurals = listdir(apath(\'%s/languages/\' % app, r=request),\n                      \'^plural-[\\w-]+\\.py$\')\n\n    #Get crontab\n    cronfolder = apath(\'%s/cron\' % app, r=request)\n    if not os.path.exists(cronfolder): os.mkdir(cronfolder)\n    crontab = apath(\'%s/cron/crontab\' % app, r=request)\n    if not os.path.exists(crontab):\n        safe_write(crontab, \'#crontab\')\n\n    plugins=[]\n    def filter_plugins(items,plugins):\n        plugins+=[item[7:].split(\'/\')[0].split(\'.\')[0] for item in items if item.startswith(\'plugin_\')]\n        plugins[:]=list(set(plugins))\n        plugins.sort()\n        return [item for item in items if not item.startswith(\'plugin_\')]\n\n    return dict(app=app,\n                models=filter_plugins(models,plugins),\n                defines=defines,\n                controllers=filter_plugins(controllers,plugins),\n                functions=functions,\n                views=filter_plugins(views,plugins),\n                modules=filter_plugins(modules,plugins),\n                extend=extend,\n                include=include,\n                privates=filter_plugins(privates,plugins),\n                statics=filter_plugins(statics,plugins),\n                languages=languages,\n                plurals=plurals,\n                plural_rules=plural_rules,\n                crontab=crontab,\n                plugins=plugins)\n\ndef delete_plugin():\n    """ Object delete handler """\n    app=request.args(0)\n    plugin = request.args(1)\n    plugin_name=\'plugin_\'+plugin\n\n    dialog = FORM.confirm(\n        T(\'Delete\'),\n        {T(\'Cancel\'):URL(\'design\', args=app)})\n\n    if dialog.accepted:\n        try:\n            for folder in [\'models\',\'views\',\'controllers\',\'static\',\'modules\', \'private\']:\n                path=os.path.join(apath(app,r=request),folder)\n                for item in os.listdir(path):\n                    if item.rsplit(\'.\',1)[0] == plugin_name:\n                        filename=os.path.join(path,item)\n                        if os.path.isdir(filename):\n                            shutil.rmtree(filename)\n                        else:\n                            os.unlink(filename)\n            session.flash = T(\'plugin "%(plugin)s" deleted\',\n                              dict(plugin=plugin))\n        except Exception:\n            session.flash = T(\'unable to delete file plugin "%(plugin)s"\',\n                              dict(plugin=plugin))\n        redirect(URL(\'design\', args=request.args(0), anchor=request.vars.id2))\n    return dict(dialog=dialog,plugin=plugin)\n\ndef plugin():\n    """ Application design handler """\n    app = get_app()\n    plugin = request.args(1)\n\n    if not response.flash and app == request.application:\n        msg = T(\'ATTENTION: you cannot edit the running application!\')\n        response.flash = msg\n\n    # If we have only pyc files it means that\n    # we cannot design\n    if os.path.exists(apath(\'%s/compiled\' % app, r=request)):\n        session.flash = \\\n            T(\'application is compiled and cannot be designed\')\n        redirect(URL(\'site\'))\n\n    # Get all models\n    models = listdir(apath(\'%s/models/\' % app, r=request), \'.*\\.py$\')\n    models=[x.replace(\'\\\\\',\'/\') for x in models]\n    defines = {}\n    for m in models:\n        data = safe_read(apath(\'%s/models/%s\' % (app, m), r=request))\n        defines[m] = regex_tables.findall(data)\n        defines[m].sort()\n\n    # Get all controllers\n    controllers = sorted(listdir(apath(\'%s/controllers/\' % app, r=request), \'.*\\.py$\'))\n    controllers = [x.replace(\'\\\\\',\'/\') for x in controllers]\n    functions = {}\n    for c in controllers:\n        data = safe_read(apath(\'%s/controllers/%s\' % (app, c), r=request))\n        items = regex_expose.findall(data)\n        functions[c] = items\n\n    # Get all views\n    views = sorted(listdir(apath(\'%s/views/\' % app, r=request), \'[\\w/\\-]+\\.\\w+$\'))\n    views = [x.replace(\'\\\\\',\'/\') for x in views]\n    extend = {}\n    include = {}\n    for c in views:\n        data = safe_read(apath(\'%s/views/%s\' % (app, c), r=request))\n        items = regex_extend.findall(data)\n        if items:\n            extend[c] = items[0][1]\n\n        items = regex_include.findall(data)\n        include[c] = [i[1] for i in items]\n\n    # Get all modules\n    modules = listdir(apath(\'%s/modules/\' % app, r=request), \'.*\\.py$\')\n    modules = modules=[x.replace(\'\\\\\',\'/\') for x in modules]\n    modules.sort()\n\n    # Get all private files\n    privates = listdir(apath(\'%s/private/\' % app, r=request), \'[^\\.#].*\')\n    privates = [x.replace(\'\\\\\',\'/\') for x in privates]\n    privates.sort()\n\n    # Get all static files\n    statics = listdir(apath(\'%s/static/\' % app, r=request), \'[^\\.#].*\')\n    statics = [x.replace(\'\\\\\',\'/\') for x in statics]\n    statics.sort()\n\n    # Get all languages\n    languages = sorted([lang+\'.py\' for lang, info in\n                    T.get_possible_languages_info().iteritems()\n                    if info[2]!=0]) # info[2] is langfile_mtime:\n                                    # get only existed files\n\n    #Get crontab\n    crontab = apath(\'%s/cron/crontab\' % app, r=request)\n    if not os.path.exists(crontab):\n        safe_write(crontab, \'#crontab\')\n\n    def filter_plugins(items):\n        regex=re.compile(\'^plugin_\'+plugin+\'(/.*|\\..*)?$\')\n        return [item for item in items if item and regex.match(item)]\n\n    return dict(app=app,\n                models=filter_plugins(models),\n                defines=defines,\n                controllers=filter_plugins(controllers),\n                functions=functions,\n                views=filter_plugins(views),\n                modules=filter_plugins(modules),\n                extend=extend,\n                include=include,\n                privates=filter_plugins(privates),\n                statics=filter_plugins(statics),\n                languages=languages,\n                crontab=crontab)\n\n\ndef create_file():\n    """ Create files handler """\n    if request.vars and not request.vars.token==session.token:\n        redirect(URL(\'logout\'))\n    try:\n        anchor=\'#\'+request.vars.id if request.vars.id else \'\'\n        if request.vars.app:\n            app = get_app(request.vars.app)\n            path = abspath(request.vars.location)\n        else:\n            app = get_app(name=request.vars.location.split(\'/\')[0])\n            path = apath(request.vars.location, r=request)\n        filename = re.sub(\'[^\\w./-]+\', \'_\', request.vars.filename)\n        if path[-7:] == \'/rules/\':\n            # Handle plural rules files\n            if len(filename) == 0:\n                raise SyntaxError\n            if not filename[-3:] == \'.py\':\n                filename += \'.py\'\n            lang = re.match(\'^plural_rules-(.*)\\.py$\',filename).group(1)\n            langinfo = read_possible_languages(apath(app, r=request))[lang]\n            text = dedent("""\n                   #!/usr/bin/env python\n                   # -*- coding: utf8 -*-\n                   # Plural-Forms for %(lang)s (%(langname)s)\n\n                   nplurals=2  # for example, English language has 2 forms:\n                               # 1 singular and 1 plural\n\n                   # Determine plural_id for number *n* as sequence of positive\n                   # integers: 0,1,...\n                   # NOTE! For singular form ALWAYS return plural_id = 0\n                   get_plural_id = lambda n: int(n != 1)\n\n                   # Construct and return plural form of *word* using\n                   # *plural_id* (which ALWAYS>0). This function will be executed\n                   # for words (or phrases) not found in plural_dict dictionary.\n                   # By default this function simply returns word in singular:\n                   construct_plural_form = lambda word, plural_id: word\n                   """)[1:] % dict(lang=langinfo[0], langname=langinfo[1])\n\n        elif path[-11:] == \'/languages/\':\n            # Handle language files\n            if len(filename) == 0:\n                raise SyntaxError\n            if not filename[-3:] == \'.py\':\n                filename += \'.py\'\n            path=os.path.join(apath(app, r=request),\'languages\',filename)\n            if not os.path.exists(path):\n                safe_write(path, \'\')\n            # create language xx[-yy].py file:\n            findT(apath(app, r=request), filename[:-3])\n            session.flash = T(\'language file "%(filename)s" created/updated\',\n                               dict(filename=filename))\n            redirect(request.vars.sender+anchor)\n\n        elif path[-8:] == \'/models/\':\n            # Handle python models\n            if not filename[-3:] == \'.py\':\n                filename += \'.py\'\n\n            if len(filename) == 3:\n                raise SyntaxError\n\n            text = \'# coding: utf8\\n\'\n\n        elif path[-13:] == \'/controllers/\':\n            # Handle python controllers\n            if not filename[-3:] == \'.py\':\n                filename += \'.py\'\n\n            if len(filename) == 3:\n                raise SyntaxError\n\n            text = \'# coding: utf8\\n# %s\\ndef index(): return dict(message="hello from %s")\'\n            text = text % (T(\'try something like\'), filename)\n\n        elif path[-7:] == \'/views/\':\n            if request.vars.plugin and not filename.startswith(\'plugin_%s/\' % request.vars.plugin):\n                filename = \'plugin_%s/%s\' % (request.vars.plugin, filename)\n            # Handle template (html) views\n            if filename.find(\'.\')<0:\n                filename += \'.html\'\n            extension = filename.split(\'.\')[-1].lower()\n\n            if len(filename) == 5:\n                raise SyntaxError\n\n            msg = T(\'This is the %(filename)s template\', dict(filename=filename))\n            if extension == \'html\':\n                text = dedent("""\n                   {{extend \'layout.html\'}}\n                   <h1>%s</h1>\n                   {{=BEAUTIFY(response._vars)}}""" % msg)[1:]\n            else:\n                generic = os.path.join(path,\'generic.\'+extension)\n                if os.path.exists(generic):\n                    text = read_file(generic)\n                else:\n                    text = \'\'\n\n        elif path[-9:] == \'/modules/\':\n            if request.vars.plugin and not filename.startswith(\'plugin_%s/\' % request.vars.plugin):\n                filename = \'plugin_%s/%s\' % (request.vars.plugin, filename)\n            # Handle python module files\n            if not filename[-3:] == \'.py\':\n                filename += \'.py\'\n\n            if len(filename) == 3:\n                raise SyntaxError\n\n            text = dedent("""\n                   #!/usr/bin/env python\n                   # coding: utf8\n                   from gluon import *\\n""")[1:]\n\n        elif (path[-8:] == \'/static/\') or (path[-9:] == \'/private/\'):\n            if request.vars.plugin and not filename.startswith(\'plugin_%s/\' % request.vars.plugin):\n                filename = \'plugin_%s/%s\' % (request.vars.plugin, filename)\n            text = \'\'\n            \n        else:\n            redirect(request.vars.sender+anchor)\n\n        full_filename = os.path.join(path, filename)\n        dirpath = os.path.dirname(full_filename)\n\n        if not os.path.exists(dirpath):\n            os.makedirs(dirpath)\n\n        if os.path.exists(full_filename):\n            raise SyntaxError\n\n        safe_write(full_filename, text)\n        log_progress(app,\'CREATE\',filename)\n        session.flash = T(\'file "%(filename)s" created\',\n                          dict(filename=full_filename[len(path):]))\n        vars={}\n        if request.vars.id: vars[\'id\']=request.vars.id\n        if request.vars.app: vars[\'app\']=request.vars.app\n        redirect(URL(\'edit\',\n                 args=[os.path.join(request.vars.location, filename)], vars=vars))\n    except Exception, e:\n        if not isinstance(e,HTTP):\n            session.flash = T(\'cannot create file\')\n\n    redirect(request.vars.sender+anchor)\n\n\ndef upload_file():\n    """ File uploading handler """\n    if request.vars and not request.vars.token==session.token:\n        redirect(URL(\'logout\'))\n    try:\n        filename = None\n        app = get_app(name=request.vars.location.split(\'/\')[0])\n        path = apath(request.vars.location, r=request)\n\n        if request.vars.filename:\n            filename = re.sub(\'[^\\w\\./]+\', \'_\', request.vars.filename)\n        else:\n            filename = os.path.split(request.vars.file.filename)[-1]\n\n        if path[-8:] == \'/models/\' and not filename[-3:] == \'.py\':\n            filename += \'.py\'\n\n        if path[-9:] == \'/modules/\' and not filename[-3:] == \'.py\':\n            filename += \'.py\'\n\n        if path[-13:] == \'/controllers/\' and not filename[-3:] == \'.py\':\n            filename += \'.py\'\n\n        if path[-7:] == \'/views/\' and not filename[-5:] == \'.html\':\n            filename += \'.html\'\n\n        if path[-11:] == \'/languages/\' and not filename[-3:] == \'.py\':\n            filename += \'.py\'\n\n        filename = os.path.join(path, filename)\n        dirpath = os.path.dirname(filename)\n\n        if not os.path.exists(dirpath):\n            os.makedirs(dirpath)\n\n        data = request.vars.file.file.read()\n        lineno = count_lines(data)\n        safe_write(filename, data, \'wb\')\n        log_progress(app,\'UPLOAD\',filename,lineno)\n        session.flash = T(\'file "%(filename)s" uploaded\',\n                          dict(filename=filename[len(path):]))\n    except Exception:\n        if filename:\n            d = dict(filename = filename[len(path):])\n        else:\n            d = dict(filename = \'unkown\')\n        session.flash = T(\'cannot upload file "%(filename)s"\', d)\n\n    redirect(request.vars.sender)\n\n\ndef errors():\n    """ Error handler """\n    import operator\n    import os\n    import pickle\n    import hashlib\n\n    app = get_app()\n\n    method = request.args(1) or \'new\'\n    db_ready = {}\n    db_ready[\'status\'] = get_ticket_storage(app)\n    db_ready[\'errmessage\'] = T("No ticket_storage.txt found under /private folder")\n    db_ready[\'errlink\'] = "http://web2py.com/books/default/chapter/29/13#Collecting-tickets"\n\n    if method == \'new\':\n        errors_path = apath(\'%s/errors\' % app, r=request)\n\n        delete_hashes = []\n        for item in request.vars:\n            if item[:7] == \'delete_\':\n                delete_hashes.append(item[7:])\n\n        hash2error = dict()\n\n        for fn in listdir(errors_path, \'^[a-fA-F0-9.\\-]+$\'):\n            fullpath = os.path.join(errors_path, fn)\n            if not os.path.isfile(fullpath): continue\n            try:\n                fullpath_file = open(fullpath, \'r\')\n                try:\n                    error = pickle.load(fullpath_file)\n                finally:\n                    fullpath_file.close()\n            except IOError:\n                continue\n            except EOFError:\n                continue\n\n            hash = hashlib.md5(error[\'traceback\']).hexdigest()\n\n            if hash in delete_hashes:\n                os.unlink(fullpath)\n            else:\n                try:\n                    hash2error[hash][\'count\'] += 1\n                except KeyError:\n                    error_lines = error[\'traceback\'].split("\\n")\n                    last_line = error_lines[-2]\n                    error_causer = os.path.split(error[\'layer\'])[1]\n                    hash2error[hash] = dict(count=1, pickel=error,\n                                            causer=error_causer,\n                                            last_line=last_line,\n                                            hash=hash,ticket=fn)\n\n        decorated = [(x[\'count\'], x) for x in hash2error.values()]\n        decorated.sort(key=operator.itemgetter(0), reverse=True)\n\n        return dict(errors = [x[1] for x in decorated], app=app, method=method, db_ready=db_ready)\n\n\n    elif method == \'dbnew\':\n        errors_path = apath(\'%s/errors\' % app, r=request)\n        tk_db, tk_table = get_ticket_storage(app)\n\n        delete_hashes = []\n        for item in request.vars:\n            if item[:7] == \'delete_\':\n                delete_hashes.append(item[7:])\n\n        hash2error = dict()\n\n        for fn in tk_db(tk_table.id>0).select():\n            try:\n                error = pickle.loads(fn.ticket_data)\n            except AttributeError:\n                tk_db(tk_table.id == fn.id).delete()\n                tk_db.commit()\n\n            hash = hashlib.md5(error[\'traceback\']).hexdigest()\n\n            if hash in delete_hashes:\n                tk_db(tk_table.id == fn.id).delete()\n                tk_db.commit()\n            else:\n                try:\n                    hash2error[\'hash\'][\'count\'] += 1\n                except KeyError:\n                    error_lines = error[\'traceback\'].split("\\n")\n                    last_line = error_lines[-2]\n                    error_causer = os.path.split(error[\'layer\'])[1]\n                    hash2error[hash] = dict(count=1, pickel=error,\n                                            causer=error_causer,\n                                            last_line=last_line,\n                                            hash=hash,ticket=fn.ticket_id)\n\n        decorated = [(x[\'count\'], x) for x in hash2error.values()]\n\n        decorated.sort(key=operator.itemgetter(0), reverse=True)\n\n        return dict(errors = [x[1] for x in decorated], app=app, method=method)\n\n    elif method == \'dbold\':\n        tk_db, tk_table = get_ticket_storage(app)\n        for item in request.vars:\n            if item[:7] == \'delete_\':\n                tk_db(tk_table.ticket_id == item[7:]).delete()\n                tk_db.commit()\n        tickets_ = tk_db(tk_table.id>0).select(tk_table.ticket_id, tk_table.created_datetime, orderby=~tk_table.created_datetime)\n        tickets = [row.ticket_id for row in tickets_]\n        times = dict([(row.ticket_id, row.created_datetime) for row in tickets_])\n\n        return dict(app=app, tickets=tickets, method=method, times=times)\n\n    else:\n        for item in request.vars:\n            if item[:7] == \'delete_\':\n                os.unlink(apath(\'%s/errors/%s\' % (app, item[7:]), r=request))\n        func = lambda p: os.stat(apath(\'%s/errors/%s\' % \\\n                                           (app, p), r=request)).st_mtime\n        tickets = sorted(listdir(apath(\'%s/errors/\' % app, r=request), \'^\\w.*\'),\n                         key=func,\n                         reverse=True)\n\n        return dict(app=app, tickets=tickets, method=method, db_ready=db_ready)\n\ndef get_ticket_storage(app):\n    private_folder = apath(\'%s/private\' % app, r=request)\n    ticket_file = os.path.join(private_folder, \'ticket_storage.txt\')\n    if os.path.exists(ticket_file):\n        db_string = open(ticket_file).read()\n        db_string = db_string.strip().replace(\'\\r\',\'\').replace(\'\\n\',\'\')\n    else:\n        return False\n    tickets_table = \'web2py_ticket\'\n    tablename = tickets_table + \'_\' + app\n    db_path = apath(\'%s/databases\' % app, r=request)\n    ticketsdb = DAL(db_string, folder=db_path, auto_import=True)\n    if not ticketsdb.get(tablename):\n        table = ticketsdb.define_table(\n                tablename,\n                Field(\'ticket_id\', length=100),\n                Field(\'ticket_data\', \'text\'),\n                Field(\'created_datetime\', \'datetime\'),\n                )\n    return ticketsdb , ticketsdb.get(tablename)\n\ndef make_link(path):\n    """ Create a link from a path """\n    tryFile = path.replace(\'\\\\\', \'/\')\n\n    if os.path.isabs(tryFile) and os.path.isfile(tryFile):\n        (folder, filename) = os.path.split(tryFile)\n        (base, ext) = os.path.splitext(filename)\n        app = get_app()\n\n        editable = {\'controllers\': \'.py\', \'models\': \'.py\', \'views\': \'.html\'}\n        for key in editable.keys():\n            check_extension = folder.endswith("%s/%s" % (app,key))\n            if ext.lower() == editable[key] and check_extension:\n                return A(\'"\' + tryFile + \'"\',\n                         _href=URL(r=request,\n                         f=\'edit/%s/%s/%s\' % (app, key, filename))).xml()\n    return \'\'\n\n\ndef make_links(traceback):\n    """ Make links using the given traceback """\n\n    lwords = traceback.split(\'"\')\n\n    # Making the short circuit compatible with <= python2.4\n    result = (len(lwords) != 0) and lwords[0] or \'\'\n\n    i = 1\n\n    while i < len(lwords):\n        link = make_link(lwords[i])\n\n        if link == \'\':\n            result += \'"\' + lwords[i]\n        else:\n            result += link\n\n            if i + 1 < len(lwords):\n                result += lwords[i + 1]\n                i = i + 1\n\n        i = i + 1\n\n    return result\n\n\nclass TRACEBACK(object):\n    """ Generate the traceback """\n\n    def __init__(self, text):\n        """ TRACEBACK constructor """\n\n        self.s = make_links(CODE(text).xml())\n\n    def xml(self):\n        """ Returns the xml """\n\n        return self.s\n\n\ndef ticket():\n    """ Ticket handler """\n\n    if len(request.args) != 2:\n        session.flash = T(\'invalid ticket\')\n        redirect(URL(\'site\'))\n\n    app = get_app()\n    myversion = request.env.web2py_version\n    ticket = request.args[1]\n    e = RestrictedError()\n    e.load(request, app, ticket)\n\n    return dict(app=app,\n                ticket=ticket,\n                output=e.output,\n                traceback=(e.traceback and TRACEBACK(e.traceback)),\n                snapshot=e.snapshot,\n                code=e.code,\n                layer=e.layer,\n                myversion=myversion)\n\ndef ticketdb():\n    """ Ticket handler """\n\n    if len(request.args) != 2:\n        session.flash = T(\'invalid ticket\')\n        redirect(URL(\'site\'))\n\n    app = get_app()\n    myversion = request.env.web2py_version\n    ticket = request.args[1]\n    e = RestrictedError()\n    request.tickets_db = get_ticket_storage(app)[0]\n    e.load(request, app, ticket)\n    response.view = \'default/ticket.html\'\n    return dict(app=app,\n                ticket=ticket,\n                output=e.output,\n                traceback=(e.traceback and TRACEBACK(e.traceback)),\n                snapshot=e.snapshot,\n                code=e.code,\n                layer=e.layer,\n                myversion=myversion)\n\ndef error():\n    """ Generate a ticket (for testing) """\n    raise RuntimeError(\'admin ticket generator at your service\')\n\ndef update_languages():\n    """ Update available languages """\n\n    app = get_app()\n    update_all_languages(apath(app, r=request))\n    session.flash = T(\'Language files (static strings) updated\')\n    redirect(URL(\'design\',args=app,anchor=\'languages\'))\n\n\ndef twitter():\n    session.forget()\n    session._unlock(response)\n    import gluon.tools\n    import gluon.contrib.simplejson as sj\n    try:\n        if TWITTER_HASH:\n            page = urllib.urlopen("http://search.twitter.com/search.json?q=%%40%s" % TWITTER_HASH).read()\n            data = sj.loads(page, encoding="utf-8")[\'results\']\n            d = dict()\n            for e in data:\n                d[e["id"]] = e\n            r = reversed(sorted(d))\n            return dict(tweets = [d[k] for k in r])\n        else:\n            return \'disabled\'\n    except Exception, e:\n        return DIV(T(\'Unable to download because:\'),BR(),str(e))\n\n\ndef user():\n    if MULTI_USER_MODE:\n        if not db(db.auth_user).count():\n            auth.settings.registration_requires_approval = False\n        return dict(form=auth())\n    else:\n        return dict(form=T("Disabled"))\n\ndef reload_routes():\n    """ Reload routes.py """\n    import gluon.rewrite\n    gluon.rewrite.load()\n    redirect(URL(\'site\'))\n\ndef manage_students():\n    if not (MULTI_USER_MODE and is_manager()):\n        session.flash = T(\'Not Authorized\')\n        redirect(URL(\'site\'))\n    db.auth_user.registration_key.writable = True\n    grid = SQLFORM.grid(db.auth_user)\n    return locals()\n\ndef bulk_register():\n    if not (MULTI_USER_MODE and is_manager()):\n        session.flash = T(\'Not Authorized\')\n        redirect(URL(\'site\'))\n    form = SQLFORM.factory(Field(\'emails\',\'text\'))\n    if form.process().accepted:\n        emails = [x.strip() for x in form.vars.emails.split(\'\\n\') if x.strip()]\n        n = 0\n        for email in emails:\n            if not db.auth_user(email=email):\n                n += db.auth_user.insert(email = email) and 1 or 0\n        session.flash = T(\'%s students registered\',n)\n        redirect(URL(\'site\'))\n    return locals()\n\n### Begin experimental stuff need fixes:\n# 1) should run in its own process - cannot os.chdir\n# 2) should not prompt user at console\n# 3) should give option to force commit and not reuqire manual merge\n\ndef git_pull():\n    """ Git Pull handler """\n    app = get_app()\n    if not have_git:\n        session.flash = GIT_MISSING\n        redirect(URL(\'site\'))\n    dialog = FORM.confirm(T(\'Pull\'),\n                         {T(\'Cancel\'):URL(\'site\')})    \n    if dialog.accepted:\n        try:\n            repo = Repo(os.path.join(apath(r=request),app))\n            origin = repo.remotes.origin\n            origin.fetch()\n            origin.pull()\n            session.flash = T("Application updated via git pull")\n            redirect(URL(\'site\'))\n        except CheckoutError, message:\n            logging.error(message)\n            session.flash = T("Pull failed, certain files could not be checked out. Check logs for details.")\n            redirect(URL(\'site\'))\n        except UnmergedEntriesError:\n            session.flash = T("Pull is not possible because you have unmerged files. Fix them up in the work tree, and then try again.")\n            redirect(URL(\'site\'))\n        except AssertionError:\n            session.flash = T("Pull is not possible because you have unmerged files. Fix them up in the work tree, and then try again.")\n            redirect(URL(\'site\'))\n        except GitCommandError, status:\n            logging.error(str(status))\n            session.flash = T("Pull failed, git exited abnormally. See logs for details.")\n            redirect(URL(\'site\'))\n        except Exception,e:\n            logging.error("Unexpected error:", sys.exc_info()[0])\n            session.flash = T("Pull failed, git exited abnormally. See logs for details.")\n            redirect(URL(\'site\'))\n    elif \'cancel\' in request.vars:\n        redirect(URL(\'site\'))\n    return dict(app=app,dialog=dialog)\n\n\ndef git_push():\n    """ Git Push handler """\n    app = get_app()\n    if not have_git:\n        session.flash = GIT_MISSING\n        redirect(URL(\'site\'))\n    form = SQLFORM.factory(Field(\'changelog\',requires=IS_NOT_EMPTY()))\n    form.element(\'input[type=submit]\')[\'_value\']=T(\'Push\')\n    form.add_button(T(\'Cancel\'),URL(\'site\'))\n    form.process()\n    if form.accepted:\n        try:\n            repo = Repo(os.path.join(apath(r=request),app))\n            index = repo.index\n            index.add([apath(r=request)+app+\'/*\'])\n            new_commit = index.commit(form.vars.changelog)\n            origin = repo.remotes.origin\n            origin.push()\n            session.flash = T("Git repo updated with latest application changes.")\n            redirect(URL(\'site\'))\n        except UnmergedEntriesError:\n            session.flash = T("Push failed, there are unmerged entries in the cache. Resolve merge issues manually and try again.")\n            redirect(URL(\'site\'))\n        except Exception, e:\n            logging.error("Unexpected error:", sys.exc_info()[0])\n            session.flash = T("Push failed, git exited abnormally. See logs for details.")\n            redirect(URL(\'site\'))\n    return dict(app=app,form=form)\n\n\nresponse._vars=response._caller(design)\n'
p7
sS'snapshot'
p8
(dp9
S'exception'
p10
(dp11
S'__getslice__'
p12
S"<method-wrapper '__getslice__' of exceptions.OSError object>"
p13
sS'__str__'
p14
S"<method-wrapper '__str__' of exceptions.OSError object>"
p15
sS'__reduce__'
p16
S'<built-in method __reduce__ of exceptions.OSError object>'
p17
sS'__dict__'
p18
S'{}'
p19
sS'__sizeof__'
p20
S'<built-in method __sizeof__ of exceptions.OSError object>'
p21
sS'__init__'
p22
S"<method-wrapper '__init__' of exceptions.OSError object>"
p23
sS'__setattr__'
p24
S"<method-wrapper '__setattr__' of exceptions.OSError object>"
p25
sS'__reduce_ex__'
p26
S'<built-in method __reduce_ex__ of exceptions.OSError object>'
p27
sS'__new__'
p28
S'<built-in method __new__ of type object>'
p29
sS'errno'
p30
S'2'
sS'__format__'
p31
S'<built-in method __format__ of exceptions.OSError object>'
p32
sS'__class__'
p33
S"<type 'exceptions.OSError'>"
p34
sS'filename'
p35
S"'/home/mayank/IIIT/sem 3/SSAD&Project/web2py/applications/project/languages'"
p36
sS'__doc__'
p37
S"'OS system call failed.'"
p38
sS'__getitem__'
p39
S"<method-wrapper '__getitem__' of exceptions.OSError object>"
p40
sS'__setstate__'
p41
S'<built-in method __setstate__ of exceptions.OSError object>'
p42
sS'__getattribute__'
p43
S"<method-wrapper '__getattribute__' of exceptions.OSError object>"
p44
sS'args'
p45
S"(2, 'No such file or directory')"
p46
sS'__subclasshook__'
p47
S'<built-in method __subclasshook__ of type object>'
p48
sS'__unicode__'
p49
S'<built-in method __unicode__ of exceptions.OSError object>'
p50
sS'strerror'
p51
S"'No such file or directory'"
p52
sS'__delattr__'
p53
S"<method-wrapper '__delattr__' of exceptions.OSError object>"
p54
sS'__repr__'
p55
S"<method-wrapper '__repr__' of exceptions.OSError object>"
p56
sS'__hash__'
p57
S"<method-wrapper '__hash__' of exceptions.OSError object>"
p58
ssS'evalue'
p59
S"[Errno 2] No such file or directory: '/home/mayank/IIIT/sem 3/SSAD&Project/web2py/applications/project/languages'"
p60
sS'request'
p61
ccopy_reg
_reconstructor
p62
(cgluon.html
BEAUTIFY
p63
c__builtin__
object
p64
NtRp65
(dp66
S'attributes'
p67
(dp68
sS'components'
p69
(lp70
g62
(cgluon.html
TABLE
p71
g64
NtRp72
(dp73
g67
(dp74
S'level'
p75
I5
ssS'parent'
p76
Nsg69
(lp77
g62
(cgluon.html
TR
p78
g64
NtRp79
(dp80
g67
(dp81
sg76
g72
sg69
(lp82
g62
(cgluon.html
TD
p83
g64
NtRp84
(dp85
g67
(dp86
S'_style'
p87
S'font-weight:bold;vertical-align:top'
p88
ssg76
g79
sg69
(lp89
S'ajax'
p90
asbag62
(g83
g64
NtRp91
(dp92
g67
(dp93
S'_valign'
p94
S'top'
p95
ssg76
g79
sg69
(lp96
S':'
asbag62
(g83
g64
NtRp97
(dp98
g67
(dp99
sg76
g79
sg69
(lp100
g62
(g63
g64
NtRp101
(dp102
g67
(dp103
g75
I5
ssg76
g97
sg69
(lp104
S'False'
p105
asbasbasbag62
(g78
g64
NtRp106
(dp107
g67
(dp108
sg76
g72
sg69
(lp109
g62
(g83
g64
NtRp110
(dp111
g67
(dp112
g87
g88
ssg76
g106
sg69
(lp113
S'application'
p114
asbag62
(g83
g64
NtRp115
(dp116
g67
(dp117
g94
g95
ssg76
g106
sg69
(lp118
S':'
asbag62
(g83
g64
NtRp119
(dp120
g67
(dp121
sg76
g106
sg69
(lp122
g62
(g63
g64
NtRp123
(dp124
g67
(dp125
g75
I5
ssg76
g119
sg69
(lp126
S'admin'
p127
asbasbasbag62
(g78
g64
NtRp128
(dp129
g67
(dp130
sg76
g72
sg69
(lp131
g62
(g83
g64
NtRp132
(dp133
g67
(dp134
g87
g88
ssg76
g128
sg69
(lp135
g45
asbag62
(g83
g64
NtRp136
(dp137
g67
(dp138
g94
g95
ssg76
g128
sg69
(lp139
S':'
asbag62
(g83
g64
NtRp140
(dp141
g67
(dp142
sg76
g128
sg69
(lp143
g62
(g63
g64
NtRp144
(dp145
g67
(dp146
g75
I5
ssg76
g140
sg69
(lp147
g62
(g71
g64
NtRp148
(dp149
g67
(dp150
g75
I4
ssg76
Nsg69
(lp151
g62
(g78
g64
NtRp152
(dp153
g67
(dp154
sg76
g148
sg69
(lp155
g62
(g83
g64
NtRp156
(dp157
g67
(dp158
sg76
g152
sg69
(lp159
g62
(g63
g64
NtRp160
(dp161
g67
(dp162
g75
I4
ssg76
g156
sg69
(lp163
S'project'
p164
asbasbasbasbasbasbasbag62
(g78
g64
NtRp165
(dp166
g67
(dp167
sg76
g72
sg69
(lp168
g62
(g83
g64
NtRp169
(dp170
g67
(dp171
g87
g88
ssg76
g165
sg69
(lp172
S'body'
p173
asbag62
(g83
g64
NtRp174
(dp175
g67
(dp176
g94
g95
ssg76
g165
sg69
(lp177
S':'
asbag62
(g83
g64
NtRp178
(dp179
g67
(dp180
sg76
g165
sg69
(lp181
g62
(g63
g64
NtRp182
(dp183
g67
(dp184
g75
I5
ssg76
g178
sg69
(lp185
S'<cStringIO.StringO object at 0x7ffb5c266fb8>'
p186
asbasbasbag62
(g78
g64
NtRp187
(dp188
g67
(dp189
sg76
g72
sg69
(lp190
g62
(g83
g64
NtRp191
(dp192
g67
(dp193
g87
g88
ssg76
g187
sg69
(lp194
S'cid'
p195
asbag62
(g83
g64
NtRp196
(dp197
g67
(dp198
g94
g95
ssg76
g187
sg69
(lp199
S':'
asbag62
(g83
g64
NtRp200
(dp201
g67
(dp202
sg76
g187
sg69
(lp203
g62
(g63
g64
NtRp204
(dp205
g67
(dp206
g75
I5
ssg76
g200
sg69
(lp207
S'None'
p208
asbasbasbag62
(g78
g64
NtRp209
(dp210
g67
(dp211
sg76
g72
sg69
(lp212
g62
(g83
g64
NtRp213
(dp214
g67
(dp215
g87
g88
ssg76
g209
sg69
(lp216
S'client'
p217
asbag62
(g83
g64
NtRp218
(dp219
g67
(dp220
g94
g95
ssg76
g209
sg69
(lp221
S':'
asbag62
(g83
g64
NtRp222
(dp223
g67
(dp224
sg76
g209
sg69
(lp225
g62
(g63
g64
NtRp226
(dp227
g67
(dp228
g75
I5
ssg76
g222
sg69
(lp229
S'127.0.0.1'
p230
asbasbasbag62
(g78
g64
NtRp231
(dp232
g67
(dp233
sg76
g72
sg69
(lp234
g62
(g83
g64
NtRp235
(dp236
g67
(dp237
g87
g88
ssg76
g231
sg69
(lp238
S'controller'
p239
asbag62
(g83
g64
NtRp240
(dp241
g67
(dp242
g94
g95
ssg76
g231
sg69
(lp243
S':'
asbag62
(g83
g64
NtRp244
(dp245
g67
(dp246
sg76
g231
sg69
(lp247
g62
(g63
g64
NtRp248
(dp249
g67
(dp250
g75
I5
ssg76
g244
sg69
(lp251
S'default'
p252
asbasbasbag62
(g78
g64
NtRp253
(dp254
g67
(dp255
sg76
g72
sg69
(lp256
g62
(g83
g64
NtRp257
(dp258
g67
(dp259
g87
g88
ssg76
g253
sg69
(lp260
S'cookies'
p261
asbag62
(g83
g64
NtRp262
(dp263
g67
(dp264
g94
g95
ssg76
g253
sg69
(lp265
S':'
asbag62
(g83
g64
NtRp266
(dp267
g67
(dp268
sg76
g253
sg69
(lp269
g62
(g63
g64
NtRp270
(dp271
g67
(dp272
g75
I5
ssg76
g266
sg69
(lp273
g62
(g71
g64
NtRp274
(dp275
g67
(dp276
g75
I4
ssg76
Nsg69
(lp277
g62
(g78
g64
NtRp278
(dp279
g67
(dp280
sg76
g274
sg69
(lp281
g62
(g83
g64
NtRp282
(dp283
g67
(dp284
g87
g88
ssg76
g278
sg69
(lp285
S'session_id_admin'
p286
asbag62
(g83
g64
NtRp287
(dp288
g67
(dp289
g94
g95
ssg76
g278
sg69
(lp290
S':'
asbag62
(g83
g64
NtRp291
(dp292
g67
(dp293
sg76
g278
sg69
(lp294
g62
(g63
g64
NtRp295
(dp296
g67
(dp297
g75
I4
ssg76
g291
sg69
(lp298
S'127.0.0.1-92babadb-20f9-4563-b74c-0a42e07649f1'
p299
ag62
(g71
g64
NtRp300
(dp301
g67
(dp302
g75
I3
ssg76
Nsg69
(lp303
g62
(g78
g64
NtRp304
(dp305
g67
(dp306
sg76
g300
sg69
(lp307
g62
(g83
g64
NtRp308
(dp309
g67
(dp310
g87
g88
ssg76
g304
sg69
(lp311
S'comment'
p312
asbag62
(g83
g64
NtRp313
(dp314
g67
(dp315
g94
g95
ssg76
g304
sg69
(lp316
S':'
asbag62
(g83
g64
NtRp317
(dp318
g67
(dp319
sg76
g304
sg69
(lp320
g62
(g63
g64
NtRp321
(dp322
g67
(dp323
g75
I3
ssg76
g317
sg69
(lp324
S''
asbasbasbag62
(g78
g64
NtRp325
(dp326
g67
(dp327
sg76
g300
sg69
(lp328
g62
(g83
g64
NtRp329
(dp330
g67
(dp331
g87
g88
ssg76
g325
sg69
(lp332
S'domain'
p333
asbag62
(g83
g64
NtRp334
(dp335
g67
(dp336
g94
g95
ssg76
g325
sg69
(lp337
S':'
asbag62
(g83
g64
NtRp338
(dp339
g67
(dp340
sg76
g325
sg69
(lp341
g62
(g63
g64
NtRp342
(dp343
g67
(dp344
g75
I3
ssg76
g338
sg69
(lp345
S''
asbasbasbag62
(g78
g64
NtRp346
(dp347
g67
(dp348
sg76
g300
sg69
(lp349
g62
(g83
g64
NtRp350
(dp351
g67
(dp352
g87
g88
ssg76
g346
sg69
(lp353
S'expires'
p354
asbag62
(g83
g64
NtRp355
(dp356
g67
(dp357
g94
g95
ssg76
g346
sg69
(lp358
S':'
asbag62
(g83
g64
NtRp359
(dp360
g67
(dp361
sg76
g346
sg69
(lp362
g62
(g63
g64
NtRp363
(dp364
g67
(dp365
g75
I3
ssg76
g359
sg69
(lp366
S''
asbasbasbag62
(g78
g64
NtRp367
(dp368
g67
(dp369
sg76
g300
sg69
(lp370
g62
(g83
g64
NtRp371
(dp372
g67
(dp373
g87
g88
ssg76
g367
sg69
(lp374
S'httponly'
p375
asbag62
(g83
g64
NtRp376
(dp377
g67
(dp378
g94
g95
ssg76
g367
sg69
(lp379
S':'
asbag62
(g83
g64
NtRp380
(dp381
g67
(dp382
sg76
g367
sg69
(lp383
g62
(g63
g64
NtRp384
(dp385
g67
(dp386
g75
I3
ssg76
g380
sg69
(lp387
S''
asbasbasbag62
(g78
g64
NtRp388
(dp389
g67
(dp390
sg76
g300
sg69
(lp391
g62
(g83
g64
NtRp392
(dp393
g67
(dp394
g87
g88
ssg76
g388
sg69
(lp395
S'max-age'
p396
asbag62
(g83
g64
NtRp397
(dp398
g67
(dp399
g94
g95
ssg76
g388
sg69
(lp400
S':'
asbag62
(g83
g64
NtRp401
(dp402
g67
(dp403
sg76
g388
sg69
(lp404
g62
(g63
g64
NtRp405
(dp406
g67
(dp407
g75
I3
ssg76
g401
sg69
(lp408
S''
asbasbasbag62
(g78
g64
NtRp409
(dp410
g67
(dp411
sg76
g300
sg69
(lp412
g62
(g83
g64
NtRp413
(dp414
g67
(dp415
g87
g88
ssg76
g409
sg69
(lp416
S'path'
p417
asbag62
(g83
g64
NtRp418
(dp419
g67
(dp420
g94
g95
ssg76
g409
sg69
(lp421
S':'
asbag62
(g83
g64
NtRp422
(dp423
g67
(dp424
sg76
g409
sg69
(lp425
g62
(g63
g64
NtRp426
(dp427
g67
(dp428
g75
I3
ssg76
g422
sg69
(lp429
S''
asbasbasbag62
(g78
g64
NtRp430
(dp431
g67
(dp432
sg76
g300
sg69
(lp433
g62
(g83
g64
NtRp434
(dp435
g67
(dp436
g87
g88
ssg76
g430
sg69
(lp437
S'secure'
p438
asbag62
(g83
g64
NtRp439
(dp440
g67
(dp441
g94
g95
ssg76
g430
sg69
(lp442
S':'
asbag62
(g83
g64
NtRp443
(dp444
g67
(dp445
sg76
g430
sg69
(lp446
g62
(g63
g64
NtRp447
(dp448
g67
(dp449
g75
I3
ssg76
g443
sg69
(lp450
S''
asbasbasbag62
(g78
g64
NtRp451
(dp452
g67
(dp453
sg76
g300
sg69
(lp454
g62
(g83
g64
NtRp455
(dp456
g67
(dp457
g87
g88
ssg76
g451
sg69
(lp458
S'version'
p459
asbag62
(g83
g64
NtRp460
(dp461
g67
(dp462
g94
g95
ssg76
g451
sg69
(lp463
S':'
asbag62
(g83
g64
NtRp464
(dp465
g67
(dp466
sg76
g451
sg69
(lp467
g62
(g63
g64
NtRp468
(dp469
g67
(dp470
g75
I3
ssg76
g464
sg69
(lp471
S''
asbasbasbasbasbasbasbag62
(g78
g64
NtRp472
(dp473
g67
(dp474
sg76
g274
sg69
(lp475
g62
(g83
g64
NtRp476
(dp477
g67
(dp478
g87
g88
ssg76
g472
sg69
(lp479
S'session_id_project'
p480
asbag62
(g83
g64
NtRp481
(dp482
g67
(dp483
g94
g95
ssg76
g472
sg69
(lp484
S':'
asbag62
(g83
g64
NtRp485
(dp486
g67
(dp487
sg76
g472
sg69
(lp488
g62
(g63
g64
NtRp489
(dp490
g67
(dp491
g75
I4
ssg76
g485
sg69
(lp492
S'127.0.0.1-0f627984-9087-4e8e-90f8-ba516e0a4bcf'
p493
ag62
(g71
g64
NtRp494
(dp495
g67
(dp496
g75
I3
ssg76
Nsg69
(lp497
g62
(g78
g64
NtRp498
(dp499
g67
(dp500
sg76
g494
sg69
(lp501
g62
(g83
g64
NtRp502
(dp503
g67
(dp504
g87
g88
ssg76
g498
sg69
(lp505
g312
asbag62
(g83
g64
NtRp506
(dp507
g67
(dp508
g94
g95
ssg76
g498
sg69
(lp509
S':'
asbag62
(g83
g64
NtRp510
(dp511
g67
(dp512
sg76
g498
sg69
(lp513
g62
(g63
g64
NtRp514
(dp515
g67
(dp516
g75
I3
ssg76
g510
sg69
(lp517
S''
asbasbasbag62
(g78
g64
NtRp518
(dp519
g67
(dp520
sg76
g494
sg69
(lp521
g62
(g83
g64
NtRp522
(dp523
g67
(dp524
g87
g88
ssg76
g518
sg69
(lp525
g333
asbag62
(g83
g64
NtRp526
(dp527
g67
(dp528
g94
g95
ssg76
g518
sg69
(lp529
S':'
asbag62
(g83
g64
NtRp530
(dp531
g67
(dp532
sg76
g518
sg69
(lp533
g62
(g63
g64
NtRp534
(dp535
g67
(dp536
g75
I3
ssg76
g530
sg69
(lp537
S''
asbasbasbag62
(g78
g64
NtRp538
(dp539
g67
(dp540
sg76
g494
sg69
(lp541
g62
(g83
g64
NtRp542
(dp543
g67
(dp544
g87
g88
ssg76
g538
sg69
(lp545
g354
asbag62
(g83
g64
NtRp546
(dp547
g67
(dp548
g94
g95
ssg76
g538
sg69
(lp549
S':'
asbag62
(g83
g64
NtRp550
(dp551
g67
(dp552
sg76
g538
sg69
(lp553
g62
(g63
g64
NtRp554
(dp555
g67
(dp556
g75
I3
ssg76
g550
sg69
(lp557
S''
asbasbasbag62
(g78
g64
NtRp558
(dp559
g67
(dp560
sg76
g494
sg69
(lp561
g62
(g83
g64
NtRp562
(dp563
g67
(dp564
g87
g88
ssg76
g558
sg69
(lp565
g375
asbag62
(g83
g64
NtRp566
(dp567
g67
(dp568
g94
g95
ssg76
g558
sg69
(lp569
S':'
asbag62
(g83
g64
NtRp570
(dp571
g67
(dp572
sg76
g558
sg69
(lp573
g62
(g63
g64
NtRp574
(dp575
g67
(dp576
g75
I3
ssg76
g570
sg69
(lp577
S''
asbasbasbag62
(g78
g64
NtRp578
(dp579
g67
(dp580
sg76
g494
sg69
(lp581
g62
(g83
g64
NtRp582
(dp583
g67
(dp584
g87
g88
ssg76
g578
sg69
(lp585
g396
asbag62
(g83
g64
NtRp586
(dp587
g67
(dp588
g94
g95
ssg76
g578
sg69
(lp589
S':'
asbag62
(g83
g64
NtRp590
(dp591
g67
(dp592
sg76
g578
sg69
(lp593
g62
(g63
g64
NtRp594
(dp595
g67
(dp596
g75
I3
ssg76
g590
sg69
(lp597
S''
asbasbasbag62
(g78
g64
NtRp598
(dp599
g67
(dp600
sg76
g494
sg69
(lp601
g62
(g83
g64
NtRp602
(dp603
g67
(dp604
g87
g88
ssg76
g598
sg69
(lp605
g417
asbag62
(g83
g64
NtRp606
(dp607
g67
(dp608
g94
g95
ssg76
g598
sg69
(lp609
S':'
asbag62
(g83
g64
NtRp610
(dp611
g67
(dp612
sg76
g598
sg69
(lp613
g62
(g63
g64
NtRp614
(dp615
g67
(dp616
g75
I3
ssg76
g610
sg69
(lp617
S''
asbasbasbag62
(g78
g64
NtRp618
(dp619
g67
(dp620
sg76
g494
sg69
(lp621
g62
(g83
g64
NtRp622
(dp623
g67
(dp624
g87
g88
ssg76
g618
sg69
(lp625
g438
asbag62
(g83
g64
NtRp626
(dp627
g67
(dp628
g94
g95
ssg76
g618
sg69
(lp629
S':'
asbag62
(g83
g64
NtRp630
(dp631
g67
(dp632
sg76
g618
sg69
(lp633
g62
(g63
g64
NtRp634
(dp635
g67
(dp636
g75
I3
ssg76
g630
sg69
(lp637
S''
asbasbasbag62
(g78
g64
NtRp638
(dp639
g67
(dp640
sg76
g494
sg69
(lp641
g62
(g83
g64
NtRp642
(dp643
g67
(dp644
g87
g88
ssg76
g638
sg69
(lp645
g459
asbag62
(g83
g64
NtRp646
(dp647
g67
(dp648
g94
g95
ssg76
g638
sg69
(lp649
S':'
asbag62
(g83
g64
NtRp650
(dp651
g67
(dp652
sg76
g638
sg69
(lp653
g62
(g63
g64
NtRp654
(dp655
g67
(dp656
g75
I3
ssg76
g650
sg69
(lp657
S''
asbasbasbasbasbasbasbag62
(g78
g64
NtRp658
(dp659
g67
(dp660
sg76
g274
sg69
(lp661
g62
(g83
g64
NtRp662
(dp663
g67
(dp664
g87
g88
ssg76
g658
sg69
(lp665
S'session_id_taship'
p666
asbag62
(g83
g64
NtRp667
(dp668
g67
(dp669
g94
g95
ssg76
g658
sg69
(lp670
S':'
asbag62
(g83
g64
NtRp671
(dp672
g67
(dp673
sg76
g658
sg69
(lp674
g62
(g63
g64
NtRp675
(dp676
g67
(dp677
g75
I4
ssg76
g671
sg69
(lp678
S'127.0.0.1-38b85c7a-83f7-4964-a858-56db623764a4'
p679
ag62
(g71
g64
NtRp680
(dp681
g67
(dp682
g75
I3
ssg76
Nsg69
(lp683
g62
(g78
g64
NtRp684
(dp685
g67
(dp686
sg76
g680
sg69
(lp687
g62
(g83
g64
NtRp688
(dp689
g67
(dp690
g87
g88
ssg76
g684
sg69
(lp691
g312
asbag62
(g83
g64
NtRp692
(dp693
g67
(dp694
g94
g95
ssg76
g684
sg69
(lp695
S':'
asbag62
(g83
g64
NtRp696
(dp697
g67
(dp698
sg76
g684
sg69
(lp699
g62
(g63
g64
NtRp700
(dp701
g67
(dp702
g75
I3
ssg76
g696
sg69
(lp703
S''
asbasbasbag62
(g78
g64
NtRp704
(dp705
g67
(dp706
sg76
g680
sg69
(lp707
g62
(g83
g64
NtRp708
(dp709
g67
(dp710
g87
g88
ssg76
g704
sg69
(lp711
g333
asbag62
(g83
g64
NtRp712
(dp713
g67
(dp714
g94
g95
ssg76
g704
sg69
(lp715
S':'
asbag62
(g83
g64
NtRp716
(dp717
g67
(dp718
sg76
g704
sg69
(lp719
g62
(g63
g64
NtRp720
(dp721
g67
(dp722
g75
I3
ssg76
g716
sg69
(lp723
S''
asbasbasbag62
(g78
g64
NtRp724
(dp725
g67
(dp726
sg76
g680
sg69
(lp727
g62
(g83
g64
NtRp728
(dp729
g67
(dp730
g87
g88
ssg76
g724
sg69
(lp731
g354
asbag62
(g83
g64
NtRp732
(dp733
g67
(dp734
g94
g95
ssg76
g724
sg69
(lp735
S':'
asbag62
(g83
g64
NtRp736
(dp737
g67
(dp738
sg76
g724
sg69
(lp739
g62
(g63
g64
NtRp740
(dp741
g67
(dp742
g75
I3
ssg76
g736
sg69
(lp743
S''
asbasbasbag62
(g78
g64
NtRp744
(dp745
g67
(dp746
sg76
g680
sg69
(lp747
g62
(g83
g64
NtRp748
(dp749
g67
(dp750
g87
g88
ssg76
g744
sg69
(lp751
g375
asbag62
(g83
g64
NtRp752
(dp753
g67
(dp754
g94
g95
ssg76
g744
sg69
(lp755
S':'
asbag62
(g83
g64
NtRp756
(dp757
g67
(dp758
sg76
g744
sg69
(lp759
g62
(g63
g64
NtRp760
(dp761
g67
(dp762
g75
I3
ssg76
g756
sg69
(lp763
S''
asbasbasbag62
(g78
g64
NtRp764
(dp765
g67
(dp766
sg76
g680
sg69
(lp767
g62
(g83
g64
NtRp768
(dp769
g67
(dp770
g87
g88
ssg76
g764
sg69
(lp771
g396
asbag62
(g83
g64
NtRp772
(dp773
g67
(dp774
g94
g95
ssg76
g764
sg69
(lp775
S':'
asbag62
(g83
g64
NtRp776
(dp777
g67
(dp778
sg76
g764
sg69
(lp779
g62
(g63
g64
NtRp780
(dp781
g67
(dp782
g75
I3
ssg76
g776
sg69
(lp783
S''
asbasbasbag62
(g78
g64
NtRp784
(dp785
g67
(dp786
sg76
g680
sg69
(lp787
g62
(g83
g64
NtRp788
(dp789
g67
(dp790
g87
g88
ssg76
g784
sg69
(lp791
g417
asbag62
(g83
g64
NtRp792
(dp793
g67
(dp794
g94
g95
ssg76
g784
sg69
(lp795
S':'
asbag62
(g83
g64
NtRp796
(dp797
g67
(dp798
sg76
g784
sg69
(lp799
g62
(g63
g64
NtRp800
(dp801
g67
(dp802
g75
I3
ssg76
g796
sg69
(lp803
S''
asbasbasbag62
(g78
g64
NtRp804
(dp805
g67
(dp806
sg76
g680
sg69
(lp807
g62
(g83
g64
NtRp808
(dp809
g67
(dp810
g87
g88
ssg76
g804
sg69
(lp811
g438
asbag62
(g83
g64
NtRp812
(dp813
g67
(dp814
g94
g95
ssg76
g804
sg69
(lp815
S':'
asbag62
(g83
g64
NtRp816
(dp817
g67
(dp818
sg76
g804
sg69
(lp819
g62
(g63
g64
NtRp820
(dp821
g67
(dp822
g75
I3
ssg76
g816
sg69
(lp823
S''
asbasbasbag62
(g78
g64
NtRp824
(dp825
g67
(dp826
sg76
g680
sg69
(lp827
g62
(g83
g64
NtRp828
(dp829
g67
(dp830
g87
g88
ssg76
g824
sg69
(lp831
g459
asbag62
(g83
g64
NtRp832
(dp833
g67
(dp834
g94
g95
ssg76
g824
sg69
(lp835
S':'
asbag62
(g83
g64
NtRp836
(dp837
g67
(dp838
sg76
g824
sg69
(lp839
g62
(g63
g64
NtRp840
(dp841
g67
(dp842
g75
I3
ssg76
g836
sg69
(lp843
S''
asbasbasbasbasbasbasbag62
(g78
g64
NtRp844
(dp845
g67
(dp846
sg76
g274
sg69
(lp847
g62
(g83
g64
NtRp848
(dp849
g67
(dp850
g87
g88
ssg76
g844
sg69
(lp851
S'session_id_taship1'
p852
asbag62
(g83
g64
NtRp853
(dp854
g67
(dp855
g94
g95
ssg76
g844
sg69
(lp856
S':'
asbag62
(g83
g64
NtRp857
(dp858
g67
(dp859
sg76
g844
sg69
(lp860
g62
(g63
g64
NtRp861
(dp862
g67
(dp863
g75
I4
ssg76
g857
sg69
(lp864
S'127.0.0.1-59fd082a-fb25-47c8-93db-0de0ab278bfa'
p865
ag62
(g71
g64
NtRp866
(dp867
g67
(dp868
g75
I3
ssg76
Nsg69
(lp869
g62
(g78
g64
NtRp870
(dp871
g67
(dp872
sg76
g866
sg69
(lp873
g62
(g83
g64
NtRp874
(dp875
g67
(dp876
g87
g88
ssg76
g870
sg69
(lp877
g312
asbag62
(g83
g64
NtRp878
(dp879
g67
(dp880
g94
g95
ssg76
g870
sg69
(lp881
S':'
asbag62
(g83
g64
NtRp882
(dp883
g67
(dp884
sg76
g870
sg69
(lp885
g62
(g63
g64
NtRp886
(dp887
g67
(dp888
g75
I3
ssg76
g882
sg69
(lp889
S''
asbasbasbag62
(g78
g64
NtRp890
(dp891
g67
(dp892
sg76
g866
sg69
(lp893
g62
(g83
g64
NtRp894
(dp895
g67
(dp896
g87
g88
ssg76
g890
sg69
(lp897
g333
asbag62
(g83
g64
NtRp898
(dp899
g67
(dp900
g94
g95
ssg76
g890
sg69
(lp901
S':'
asbag62
(g83
g64
NtRp902
(dp903
g67
(dp904
sg76
g890
sg69
(lp905
g62
(g63
g64
NtRp906
(dp907
g67
(dp908
g75
I3
ssg76
g902
sg69
(lp909
S''
asbasbasbag62
(g78
g64
NtRp910
(dp911
g67
(dp912
sg76
g866
sg69
(lp913
g62
(g83
g64
NtRp914
(dp915
g67
(dp916
g87
g88
ssg76
g910
sg69
(lp917
g354
asbag62
(g83
g64
NtRp918
(dp919
g67
(dp920
g94
g95
ssg76
g910
sg69
(lp921
S':'
asbag62
(g83
g64
NtRp922
(dp923
g67
(dp924
sg76
g910
sg69
(lp925
g62
(g63
g64
NtRp926
(dp927
g67
(dp928
g75
I3
ssg76
g922
sg69
(lp929
S''
asbasbasbag62
(g78
g64
NtRp930
(dp931
g67
(dp932
sg76
g866
sg69
(lp933
g62
(g83
g64
NtRp934
(dp935
g67
(dp936
g87
g88
ssg76
g930
sg69
(lp937
g375
asbag62
(g83
g64
NtRp938
(dp939
g67
(dp940
g94
g95
ssg76
g930
sg69
(lp941
S':'
asbag62
(g83
g64
NtRp942
(dp943
g67
(dp944
sg76
g930
sg69
(lp945
g62
(g63
g64
NtRp946
(dp947
g67
(dp948
g75
I3
ssg76
g942
sg69
(lp949
S''
asbasbasbag62
(g78
g64
NtRp950
(dp951
g67
(dp952
sg76
g866
sg69
(lp953
g62
(g83
g64
NtRp954
(dp955
g67
(dp956
g87
g88
ssg76
g950
sg69
(lp957
g396
asbag62
(g83
g64
NtRp958
(dp959
g67
(dp960
g94
g95
ssg76
g950
sg69
(lp961
S':'
asbag62
(g83
g64
NtRp962
(dp963
g67
(dp964
sg76
g950
sg69
(lp965
g62
(g63
g64
NtRp966
(dp967
g67
(dp968
g75
I3
ssg76
g962
sg69
(lp969
S''
asbasbasbag62
(g78
g64
NtRp970
(dp971
g67
(dp972
sg76
g866
sg69
(lp973
g62
(g83
g64
NtRp974
(dp975
g67
(dp976
g87
g88
ssg76
g970
sg69
(lp977
g417
asbag62
(g83
g64
NtRp978
(dp979
g67
(dp980
g94
g95
ssg76
g970
sg69
(lp981
S':'
asbag62
(g83
g64
NtRp982
(dp983
g67
(dp984
sg76
g970
sg69
(lp985
g62
(g63
g64
NtRp986
(dp987
g67
(dp988
g75
I3
ssg76
g982
sg69
(lp989
S''
asbasbasbag62
(g78
g64
NtRp990
(dp991
g67
(dp992
sg76
g866
sg69
(lp993
g62
(g83
g64
NtRp994
(dp995
g67
(dp996
g87
g88
ssg76
g990
sg69
(lp997
g438
asbag62
(g83
g64
NtRp998
(dp999
g67
(dp1000
g94
g95
ssg76
g990
sg69
(lp1001
S':'
asbag62
(g83
g64
NtRp1002
(dp1003
g67
(dp1004
sg76
g990
sg69
(lp1005
g62
(g63
g64
NtRp1006
(dp1007
g67
(dp1008
g75
I3
ssg76
g1002
sg69
(lp1009
S''
asbasbasbag62
(g78
g64
NtRp1010
(dp1011
g67
(dp1012
sg76
g866
sg69
(lp1013
g62
(g83
g64
NtRp1014
(dp1015
g67
(dp1016
g87
g88
ssg76
g1010
sg69
(lp1017
g459
asbag62
(g83
g64
NtRp1018
(dp1019
g67
(dp1020
g94
g95
ssg76
g1010
sg69
(lp1021
S':'
asbag62
(g83
g64
NtRp1022
(dp1023
g67
(dp1024
sg76
g1010
sg69
(lp1025
g62
(g63
g64
NtRp1026
(dp1027
g67
(dp1028
g75
I3
ssg76
g1022
sg69
(lp1029
S''
asbasbasbasbasbasbasbag62
(g78
g64
NtRp1030
(dp1031
g67
(dp1032
sg76
g274
sg69
(lp1033
g62
(g83
g64
NtRp1034
(dp1035
g67
(dp1036
g87
g88
ssg76
g1030
sg69
(lp1037
S'session_id_welcome'
p1038
asbag62
(g83
g64
NtRp1039
(dp1040
g67
(dp1041
g94
g95
ssg76
g1030
sg69
(lp1042
S':'
asbag62
(g83
g64
NtRp1043
(dp1044
g67
(dp1045
sg76
g1030
sg69
(lp1046
g62
(g63
g64
NtRp1047
(dp1048
g67
(dp1049
g75
I4
ssg76
g1043
sg69
(lp1050
S'127.0.0.1-6400ae51-ac88-4bc6-9f1f-4fa750198167'
p1051
ag62
(g71
g64
NtRp1052
(dp1053
g67
(dp1054
g75
I3
ssg76
Nsg69
(lp1055
g62
(g78
g64
NtRp1056
(dp1057
g67
(dp1058
sg76
g1052
sg69
(lp1059
g62
(g83
g64
NtRp1060
(dp1061
g67
(dp1062
g87
g88
ssg76
g1056
sg69
(lp1063
g312
asbag62
(g83
g64
NtRp1064
(dp1065
g67
(dp1066
g94
g95
ssg76
g1056
sg69
(lp1067
S':'
asbag62
(g83
g64
NtRp1068
(dp1069
g67
(dp1070
sg76
g1056
sg69
(lp1071
g62
(g63
g64
NtRp1072
(dp1073
g67
(dp1074
g75
I3
ssg76
g1068
sg69
(lp1075
S''
asbasbasbag62
(g78
g64
NtRp1076
(dp1077
g67
(dp1078
sg76
g1052
sg69
(lp1079
g62
(g83
g64
NtRp1080
(dp1081
g67
(dp1082
g87
g88
ssg76
g1076
sg69
(lp1083
g333
asbag62
(g83
g64
NtRp1084
(dp1085
g67
(dp1086
g94
g95
ssg76
g1076
sg69
(lp1087
S':'
asbag62
(g83
g64
NtRp1088
(dp1089
g67
(dp1090
sg76
g1076
sg69
(lp1091
g62
(g63
g64
NtRp1092
(dp1093
g67
(dp1094
g75
I3
ssg76
g1088
sg69
(lp1095
S''
asbasbasbag62
(g78
g64
NtRp1096
(dp1097
g67
(dp1098
sg76
g1052
sg69
(lp1099
g62
(g83
g64
NtRp1100
(dp1101
g67
(dp1102
g87
g88
ssg76
g1096
sg69
(lp1103
g354
asbag62
(g83
g64
NtRp1104
(dp1105
g67
(dp1106
g94
g95
ssg76
g1096
sg69
(lp1107
S':'
asbag62
(g83
g64
NtRp1108
(dp1109
g67
(dp1110
sg76
g1096
sg69
(lp1111
g62
(g63
g64
NtRp1112
(dp1113
g67
(dp1114
g75
I3
ssg76
g1108
sg69
(lp1115
S''
asbasbasbag62
(g78
g64
NtRp1116
(dp1117
g67
(dp1118
sg76
g1052
sg69
(lp1119
g62
(g83
g64
NtRp1120
(dp1121
g67
(dp1122
g87
g88
ssg76
g1116
sg69
(lp1123
g375
asbag62
(g83
g64
NtRp1124
(dp1125
g67
(dp1126
g94
g95
ssg76
g1116
sg69
(lp1127
S':'
asbag62
(g83
g64
NtRp1128
(dp1129
g67
(dp1130
sg76
g1116
sg69
(lp1131
g62
(g63
g64
NtRp1132
(dp1133
g67
(dp1134
g75
I3
ssg76
g1128
sg69
(lp1135
S''
asbasbasbag62
(g78
g64
NtRp1136
(dp1137
g67
(dp1138
sg76
g1052
sg69
(lp1139
g62
(g83
g64
NtRp1140
(dp1141
g67
(dp1142
g87
g88
ssg76
g1136
sg69
(lp1143
g396
asbag62
(g83
g64
NtRp1144
(dp1145
g67
(dp1146
g94
g95
ssg76
g1136
sg69
(lp1147
S':'
asbag62
(g83
g64
NtRp1148
(dp1149
g67
(dp1150
sg76
g1136
sg69
(lp1151
g62
(g63
g64
NtRp1152
(dp1153
g67
(dp1154
g75
I3
ssg76
g1148
sg69
(lp1155
S''
asbasbasbag62
(g78
g64
NtRp1156
(dp1157
g67
(dp1158
sg76
g1052
sg69
(lp1159
g62
(g83
g64
NtRp1160
(dp1161
g67
(dp1162
g87
g88
ssg76
g1156
sg69
(lp1163
g417
asbag62
(g83
g64
NtRp1164
(dp1165
g67
(dp1166
g94
g95
ssg76
g1156
sg69
(lp1167
S':'
asbag62
(g83
g64
NtRp1168
(dp1169
g67
(dp1170
sg76
g1156
sg69
(lp1171
g62
(g63
g64
NtRp1172
(dp1173
g67
(dp1174
g75
I3
ssg76
g1168
sg69
(lp1175
S''
asbasbasbag62
(g78
g64
NtRp1176
(dp1177
g67
(dp1178
sg76
g1052
sg69
(lp1179
g62
(g83
g64
NtRp1180
(dp1181
g67
(dp1182
g87
g88
ssg76
g1176
sg69
(lp1183
g438
asbag62
(g83
g64
NtRp1184
(dp1185
g67
(dp1186
g94
g95
ssg76
g1176
sg69
(lp1187
S':'
asbag62
(g83
g64
NtRp1188
(dp1189
g67
(dp1190
sg76
g1176
sg69
(lp1191
g62
(g63
g64
NtRp1192
(dp1193
g67
(dp1194
g75
I3
ssg76
g1188
sg69
(lp1195
S''
asbasbasbag62
(g78
g64
NtRp1196
(dp1197
g67
(dp1198
sg76
g1052
sg69
(lp1199
g62
(g83
g64
NtRp1200
(dp1201
g67
(dp1202
g87
g88
ssg76
g1196
sg69
(lp1203
g459
asbag62
(g83
g64
NtRp1204
(dp1205
g67
(dp1206
g94
g95
ssg76
g1196
sg69
(lp1207
S':'
asbag62
(g83
g64
NtRp1208
(dp1209
g67
(dp1210
sg76
g1196
sg69
(lp1211
g62
(g63
g64
NtRp1212
(dp1213
g67
(dp1214
g75
I3
ssg76
g1208
sg69
(lp1215
S''
asbasbasbasbasbasbasbasbasbasbasbag62
(g78
g64
NtRp1216
(dp1217
g67
(dp1218
sg76
g72
sg69
(lp1219
g62
(g83
g64
NtRp1220
(dp1221
g67
(dp1222
g87
g88
ssg76
g1216
sg69
(lp1223
S'env'
p1224
asbag62
(g83
g64
NtRp1225
(dp1226
g67
(dp1227
g94
g95
ssg76
g1216
sg69
(lp1228
S':'
asbag62
(g83
g64
NtRp1229
(dp1230
g67
(dp1231
sg76
g1216
sg69
(lp1232
g62
(g63
g64
NtRp1233
(dp1234
g67
(dp1235
g75
I5
ssg76
g1229
sg69
(lp1236
g62
(g71
g64
NtRp1237
(dp1238
g67
(dp1239
g75
I4
ssg76
Nsg69
(lp1240
g62
(g78
g64
NtRp1241
(dp1242
g67
(dp1243
sg76
g1237
sg69
(lp1244
g62
(g83
g64
NtRp1245
(dp1246
g67
(dp1247
g87
g88
ssg76
g1241
sg69
(lp1248
S'app_folders'
p1249
asbag62
(g83
g64
NtRp1250
(dp1251
g67
(dp1252
g94
g95
ssg76
g1241
sg69
(lp1253
S':'
asbag62
(g83
g64
NtRp1254
(dp1255
g67
(dp1256
sg76
g1241
sg69
(lp1257
g62
(g63
g64
NtRp1258
(dp1259
g67
(dp1260
g75
I4
ssg76
g1254
sg69
(lp1261
S"set(['/home/mayank/IIIT/sem 3/SSAD&Project/web2py/applications/project/', '/home/mayank/IIIT/sem 3/SSAD&Project/web2py/applications/taship1/', '/home/mayank/IIIT/sem 3/SSAD&Project/web2py/applications/taship/', '/home/mayank/IIIT/sem 3/SSAD&Project/web2py/applications/admin/', '/home/mayank/IIIT/sem 3/SSAD&Project/web2py/applications/welcome/'])"
p1262
asbasbasbag62
(g78
g64
NtRp1263
(dp1264
g67
(dp1265
sg76
g1237
sg69
(lp1266
g62
(g83
g64
NtRp1267
(dp1268
g67
(dp1269
g87
g88
ssg76
g1263
sg69
(lp1270
S'applications_parent'
p1271
asbag62
(g83
g64
NtRp1272
(dp1273
g67
(dp1274
g94
g95
ssg76
g1263
sg69
(lp1275
S':'
asbag62
(g83
g64
NtRp1276
(dp1277
g67
(dp1278
sg76
g1263
sg69
(lp1279
g62
(g63
g64
NtRp1280
(dp1281
g67
(dp1282
g75
I4
ssg76
g1276
sg69
(lp1283
S'/home/mayank/IIIT/sem 3/SSAD&Project/web2py'
p1284
asbasbasbag62
(g78
g64
NtRp1285
(dp1286
g67
(dp1287
sg76
g1237
sg69
(lp1288
g62
(g83
g64
NtRp1289
(dp1290
g67
(dp1291
g87
g88
ssg76
g1285
sg69
(lp1292
S'cmd_args'
p1293
asbag62
(g83
g64
NtRp1294
(dp1295
g67
(dp1296
g94
g95
ssg76
g1285
sg69
(lp1297
S':'
asbag62
(g83
g64
NtRp1298
(dp1299
g67
(dp1300
sg76
g1285
sg69
(lp1301
g62
(g63
g64
NtRp1302
(dp1303
g67
(dp1304
g75
I4
ssg76
g1298
sg69
(lp1305
g62
(g71
g64
NtRp1306
(dp1307
g67
(dp1308
g75
I3
ssg76
Nsg69
(lp1309
sbasbasbasbag62
(g78
g64
NtRp1310
(dp1311
g67
(dp1312
sg76
g1237
sg69
(lp1313
g62
(g83
g64
NtRp1314
(dp1315
g67
(dp1316
g87
g88
ssg76
g1310
sg69
(lp1317
S'cmd_options'
p1318
asbag62
(g83
g64
NtRp1319
(dp1320
g67
(dp1321
g94
g95
ssg76
g1310
sg69
(lp1322
S':'
asbag62
(g83
g64
NtRp1323
(dp1324
g67
(dp1325
sg76
g1310
sg69
(lp1326
g62
(g63
g64
NtRp1327
(dp1328
g67
(dp1329
g75
I4
ssg76
g1323
sg69
(lp1330
S"<Values at 0x2632320: {'verbose': False, 'ip': '127.0.0.1', 'with_scheduler': False, 'ips': ['127.0.1.1'], 'shutdown_timeout': 5, 'taskbar': False, 'port': 8000, 'maxthreads': None, 'softcron': False, 'server_name': 'mayank', 'bpython': False, 'nogui': False, 'nocron': False, 'extcron': False, 'run_system_tests': False, 'test': None, 'folder': '/home/mayank/IIIT/sem 3/SSAD&Project/web2py', 'config': '', 'import_models': False, 'winservice': '', 'shell': None, 'run': '', 'log_filename': 'httpserver.log', 'debuglevel': 30, 'args': [''], 'socket_timeout': 5, 'ssl_ca_certificate': None, 'scheduler': None, 'profiler_filename': None, 'ssl_private_key': '', 'scheduler_groups': None, 'password': '<ask>', 'request_queue_size': 5, 'ssl_certificate': '', 'cronjob': False, 'numthreads': None, 'quiet': False, 'interfaces': None, 'minthreads': None, 'timeout': 10, 'plain': False, 'nobanner': False, 'pid_filename': 'httpserver.pid'}>"
p1331
asbasbasbag62
(g78
g64
NtRp1332
(dp1333
g67
(dp1334
sg76
g1237
sg69
(lp1335
g62
(g83
g64
NtRp1336
(dp1337
g67
(dp1338
g87
g88
ssg76
g1332
sg69
(lp1339
S'db_sessions'
p1340
asbag62
(g83
g64
NtRp1341
(dp1342
g67
(dp1343
g94
g95
ssg76
g1332
sg69
(lp1344
S':'
asbag62
(g83
g64
NtRp1345
(dp1346
g67
(dp1347
sg76
g1332
sg69
(lp1348
g62
(g63
g64
NtRp1349
(dp1350
g67
(dp1351
g75
I4
ssg76
g1345
sg69
(lp1352
S'set([])'
p1353
asbasbasbag62
(g78
g64
NtRp1354
(dp1355
g67
(dp1356
sg76
g1237
sg69
(lp1357
g62
(g83
g64
NtRp1358
(dp1359
g67
(dp1360
g87
g88
ssg76
g1354
sg69
(lp1361
S'debugging'
p1362
asbag62
(g83
g64
NtRp1363
(dp1364
g67
(dp1365
g94
g95
ssg76
g1354
sg69
(lp1366
S':'
asbag62
(g83
g64
NtRp1367
(dp1368
g67
(dp1369
sg76
g1354
sg69
(lp1370
g62
(g63
g64
NtRp1371
(dp1372
g67
(dp1373
g75
I4
ssg76
g1367
sg69
(lp1374
g105
asbasbasbag62
(g78
g64
NtRp1375
(dp1376
g67
(dp1377
sg76
g1237
sg69
(lp1378
g62
(g83
g64
NtRp1379
(dp1380
g67
(dp1381
g87
g88
ssg76
g1375
sg69
(lp1382
S'gluon_parent'
p1383
asbag62
(g83
g64
NtRp1384
(dp1385
g67
(dp1386
g94
g95
ssg76
g1375
sg69
(lp1387
S':'
asbag62
(g83
g64
NtRp1388
(dp1389
g67
(dp1390
sg76
g1375
sg69
(lp1391
g62
(g63
g64
NtRp1392
(dp1393
g67
(dp1394
g75
I4
ssg76
g1388
sg69
(lp1395
S'/home/mayank/IIIT/sem 3/SSAD&Project/web2py'
p1396
asbasbasbag62
(g78
g64
NtRp1397
(dp1398
g67
(dp1399
sg76
g1237
sg69
(lp1400
g62
(g83
g64
NtRp1401
(dp1402
g67
(dp1403
g87
g88
ssg76
g1397
sg69
(lp1404
S'http_accept'
p1405
asbag62
(g83
g64
NtRp1406
(dp1407
g67
(dp1408
g94
g95
ssg76
g1397
sg69
(lp1409
S':'
asbag62
(g83
g64
NtRp1410
(dp1411
g67
(dp1412
sg76
g1397
sg69
(lp1413
g62
(g63
g64
NtRp1414
(dp1415
g67
(dp1416
g75
I4
ssg76
g1410
sg69
(lp1417
S'text/html,application/xhtml+xml,application/xml;q=0.9,*/*;q=0.8'
p1418
asbasbasbag62
(g78
g64
NtRp1419
(dp1420
g67
(dp1421
sg76
g1237
sg69
(lp1422
g62
(g83
g64
NtRp1423
(dp1424
g67
(dp1425
g87
g88
ssg76
g1419
sg69
(lp1426
S'http_accept_encoding'
p1427
asbag62
(g83
g64
NtRp1428
(dp1429
g67
(dp1430
g94
g95
ssg76
g1419
sg69
(lp1431
S':'
asbag62
(g83
g64
NtRp1432
(dp1433
g67
(dp1434
sg76
g1419
sg69
(lp1435
g62
(g63
g64
NtRp1436
(dp1437
g67
(dp1438
g75
I4
ssg76
g1432
sg69
(lp1439
S'gzip, deflate'
p1440
asbasbasbag62
(g78
g64
NtRp1441
(dp1442
g67
(dp1443
sg76
g1237
sg69
(lp1444
g62
(g83
g64
NtRp1445
(dp1446
g67
(dp1447
g87
g88
ssg76
g1441
sg69
(lp1448
S'http_accept_language'
p1449
asbag62
(g83
g64
NtRp1450
(dp1451
g67
(dp1452
g94
g95
ssg76
g1441
sg69
(lp1453
S':'
asbag62
(g83
g64
NtRp1454
(dp1455
g67
(dp1456
sg76
g1441
sg69
(lp1457
g62
(g63
g64
NtRp1458
(dp1459
g67
(dp1460
g75
I4
ssg76
g1454
sg69
(lp1461
S'en-US,en;q=0.5'
p1462
asbasbasbag62
(g78
g64
NtRp1463
(dp1464
g67
(dp1465
sg76
g1237
sg69
(lp1466
g62
(g83
g64
NtRp1467
(dp1468
g67
(dp1469
g87
g88
ssg76
g1463
sg69
(lp1470
S'http_connection'
p1471
asbag62
(g83
g64
NtRp1472
(dp1473
g67
(dp1474
g94
g95
ssg76
g1463
sg69
(lp1475
S':'
asbag62
(g83
g64
NtRp1476
(dp1477
g67
(dp1478
sg76
g1463
sg69
(lp1479
g62
(g63
g64
NtRp1480
(dp1481
g67
(dp1482
g75
I4
ssg76
g1476
sg69
(lp1483
S'keep-alive'
p1484
asbasbasbag62
(g78
g64
NtRp1485
(dp1486
g67
(dp1487
sg76
g1237
sg69
(lp1488
g62
(g83
g64
NtRp1489
(dp1490
g67
(dp1491
g87
g88
ssg76
g1485
sg69
(lp1492
S'http_cookie'
p1493
asbag62
(g83
g64
NtRp1494
(dp1495
g67
(dp1496
g94
g95
ssg76
g1485
sg69
(lp1497
S':'
asbag62
(g83
g64
NtRp1498
(dp1499
g67
(dp1500
sg76
g1485
sg69
(lp1501
g62
(g63
g64
NtRp1502
(dp1503
g67
(dp1504
g75
I4
ssg76
g1498
sg69
(lp1505
S'session_id_welcome=127.0.0.1-6400ae51-ac88-4bc6-9f1f-4fa750198167; session_id_admin=127.0.0.1-92babadb-20f9-4563-b74c-0a42e07649f1; session_id_taship1=127.0.0.1-59fd082a-fb25-47c8-93db-0de0ab278bfa; session_id_taship=127.0.0.1-38b85c7a-83f7-4964-a858-56db623764a4; session_id_project=127.0.0.1-0f627984-9087-4e8e-90f8-ba516e0a4bcf'
p1506
asbasbasbag62
(g78
g64
NtRp1507
(dp1508
g67
(dp1509
sg76
g1237
sg69
(lp1510
g62
(g83
g64
NtRp1511
(dp1512
g67
(dp1513
g87
g88
ssg76
g1507
sg69
(lp1514
S'http_host'
p1515
asbag62
(g83
g64
NtRp1516
(dp1517
g67
(dp1518
g94
g95
ssg76
g1507
sg69
(lp1519
S':'
asbag62
(g83
g64
NtRp1520
(dp1521
g67
(dp1522
sg76
g1507
sg69
(lp1523
g62
(g63
g64
NtRp1524
(dp1525
g67
(dp1526
g75
I4
ssg76
g1520
sg69
(lp1527
S'127.0.0.1:8000'
p1528
asbasbasbag62
(g78
g64
NtRp1529
(dp1530
g67
(dp1531
sg76
g1237
sg69
(lp1532
g62
(g83
g64
NtRp1533
(dp1534
g67
(dp1535
g87
g88
ssg76
g1529
sg69
(lp1536
S'http_referer'
p1537
asbag62
(g83
g64
NtRp1538
(dp1539
g67
(dp1540
g94
g95
ssg76
g1529
sg69
(lp1541
S':'
asbag62
(g83
g64
NtRp1542
(dp1543
g67
(dp1544
sg76
g1529
sg69
(lp1545
g62
(g63
g64
NtRp1546
(dp1547
g67
(dp1548
g75
I4
ssg76
g1542
sg69
(lp1549
S'http://127.0.0.1:8000/admin/default/site'
p1550
asbasbasbag62
(g78
g64
NtRp1551
(dp1552
g67
(dp1553
sg76
g1237
sg69
(lp1554
g62
(g83
g64
NtRp1555
(dp1556
g67
(dp1557
g87
g88
ssg76
g1551
sg69
(lp1558
S'http_user_agent'
p1559
asbag62
(g83
g64
NtRp1560
(dp1561
g67
(dp1562
g94
g95
ssg76
g1551
sg69
(lp1563
S':'
asbag62
(g83
g64
NtRp1564
(dp1565
g67
(dp1566
sg76
g1551
sg69
(lp1567
g62
(g63
g64
NtRp1568
(dp1569
g67
(dp1570
g75
I4
ssg76
g1564
sg69
(lp1571
S'Mozilla/5.0 (X11; Ubuntu; Linux x86_64; rv:16.0) Gecko/20100101 Firefox/16.0'
p1572
asbasbasbag62
(g78
g64
NtRp1573
(dp1574
g67
(dp1575
sg76
g1237
sg69
(lp1576
g62
(g83
g64
NtRp1577
(dp1578
g67
(dp1579
g87
g88
ssg76
g1573
sg69
(lp1580
S'is_jython'
p1581
asbag62
(g83
g64
NtRp1582
(dp1583
g67
(dp1584
g94
g95
ssg76
g1573
sg69
(lp1585
S':'
asbag62
(g83
g64
NtRp1586
(dp1587
g67
(dp1588
sg76
g1573
sg69
(lp1589
g62
(g63
g64
NtRp1590
(dp1591
g67
(dp1592
g75
I4
ssg76
g1586
sg69
(lp1593
g105
asbasbasbag62
(g78
g64
NtRp1594
(dp1595
g67
(dp1596
sg76
g1237
sg69
(lp1597
g62
(g83
g64
NtRp1598
(dp1599
g67
(dp1600
g87
g88
ssg76
g1594
sg69
(lp1601
S'is_pypy'
p1602
asbag62
(g83
g64
NtRp1603
(dp1604
g67
(dp1605
g94
g95
ssg76
g1594
sg69
(lp1606
S':'
asbag62
(g83
g64
NtRp1607
(dp1608
g67
(dp1609
sg76
g1594
sg69
(lp1610
g62
(g63
g64
NtRp1611
(dp1612
g67
(dp1613
g75
I4
ssg76
g1607
sg69
(lp1614
g105
asbasbasbag62
(g78
g64
NtRp1615
(dp1616
g67
(dp1617
sg76
g1237
sg69
(lp1618
g62
(g83
g64
NtRp1619
(dp1620
g67
(dp1621
g87
g88
ssg76
g1615
sg69
(lp1622
S'path_info'
p1623
asbag62
(g83
g64
NtRp1624
(dp1625
g67
(dp1626
g94
g95
ssg76
g1615
sg69
(lp1627
S':'
asbag62
(g83
g64
NtRp1628
(dp1629
g67
(dp1630
sg76
g1615
sg69
(lp1631
g62
(g63
g64
NtRp1632
(dp1633
g67
(dp1634
g75
I4
ssg76
g1628
sg69
(lp1635
S'/admin/default/design/project'
p1636
asbasbasbag62
(g78
g64
NtRp1637
(dp1638
g67
(dp1639
sg76
g1237
sg69
(lp1640
g62
(g83
g64
NtRp1641
(dp1642
g67
(dp1643
g87
g88
ssg76
g1637
sg69
(lp1644
S'query_string'
p1645
asbag62
(g83
g64
NtRp1646
(dp1647
g67
(dp1648
g94
g95
ssg76
g1637
sg69
(lp1649
S':'
asbag62
(g83
g64
NtRp1650
(dp1651
g67
(dp1652
sg76
g1637
sg69
(lp1653
g62
(g63
g64
NtRp1654
(dp1655
g67
(dp1656
g75
I4
ssg76
g1650
sg69
(lp1657
S''
asbasbasbag62
(g78
g64
NtRp1658
(dp1659
g67
(dp1660
sg76
g1237
sg69
(lp1661
g62
(g83
g64
NtRp1662
(dp1663
g67
(dp1664
g87
g88
ssg76
g1658
sg69
(lp1665
S'remote_addr'
p1666
asbag62
(g83
g64
NtRp1667
(dp1668
g67
(dp1669
g94
g95
ssg76
g1658
sg69
(lp1670
S':'
asbag62
(g83
g64
NtRp1671
(dp1672
g67
(dp1673
sg76
g1658
sg69
(lp1674
g62
(g63
g64
NtRp1675
(dp1676
g67
(dp1677
g75
I4
ssg76
g1671
sg69
(lp1678
g230
asbasbasbag62
(g78
g64
NtRp1679
(dp1680
g67
(dp1681
sg76
g1237
sg69
(lp1682
g62
(g83
g64
NtRp1683
(dp1684
g67
(dp1685
g87
g88
ssg76
g1679
sg69
(lp1686
S'remote_port'
p1687
asbag62
(g83
g64
NtRp1688
(dp1689
g67
(dp1690
g94
g95
ssg76
g1679
sg69
(lp1691
S':'
asbag62
(g83
g64
NtRp1692
(dp1693
g67
(dp1694
sg76
g1679
sg69
(lp1695
g62
(g63
g64
NtRp1696
(dp1697
g67
(dp1698
g75
I4
ssg76
g1692
sg69
(lp1699
S'48361'
p1700
asbasbasbag62
(g78
g64
NtRp1701
(dp1702
g67
(dp1703
sg76
g1237
sg69
(lp1704
g62
(g83
g64
NtRp1705
(dp1706
g67
(dp1707
g87
g88
ssg76
g1701
sg69
(lp1708
S'request_method'
p1709
asbag62
(g83
g64
NtRp1710
(dp1711
g67
(dp1712
g94
g95
ssg76
g1701
sg69
(lp1713
S':'
asbag62
(g83
g64
NtRp1714
(dp1715
g67
(dp1716
sg76
g1701
sg69
(lp1717
g62
(g63
g64
NtRp1718
(dp1719
g67
(dp1720
g75
I4
ssg76
g1714
sg69
(lp1721
S'GET'
p1722
asbasbasbag62
(g78
g64
NtRp1723
(dp1724
g67
(dp1725
sg76
g1237
sg69
(lp1726
g62
(g83
g64
NtRp1727
(dp1728
g67
(dp1729
g87
g88
ssg76
g1723
sg69
(lp1730
S'request_uri'
p1731
asbag62
(g83
g64
NtRp1732
(dp1733
g67
(dp1734
g94
g95
ssg76
g1723
sg69
(lp1735
S':'
asbag62
(g83
g64
NtRp1736
(dp1737
g67
(dp1738
sg76
g1723
sg69
(lp1739
g62
(g63
g64
NtRp1740
(dp1741
g67
(dp1742
g75
I4
ssg76
g1736
sg69
(lp1743
g1636
asbasbasbag62
(g78
g64
NtRp1744
(dp1745
g67
(dp1746
sg76
g1237
sg69
(lp1747
g62
(g83
g64
NtRp1748
(dp1749
g67
(dp1750
g87
g88
ssg76
g1744
sg69
(lp1751
S'script_name'
p1752
asbag62
(g83
g64
NtRp1753
(dp1754
g67
(dp1755
g94
g95
ssg76
g1744
sg69
(lp1756
S':'
asbag62
(g83
g64
NtRp1757
(dp1758
g67
(dp1759
sg76
g1744
sg69
(lp1760
g62
(g63
g64
NtRp1761
(dp1762
g67
(dp1763
g75
I4
ssg76
g1757
sg69
(lp1764
S''
asbasbasbag62
(g78
g64
NtRp1765
(dp1766
g67
(dp1767
sg76
g1237
sg69
(lp1768
g62
(g83
g64
NtRp1769
(dp1770
g67
(dp1771
g87
g88
ssg76
g1765
sg69
(lp1772
S'server_name'
p1773
asbag62
(g83
g64
NtRp1774
(dp1775
g67
(dp1776
g94
g95
ssg76
g1765
sg69
(lp1777
S':'
asbag62
(g83
g64
NtRp1778
(dp1779
g67
(dp1780
sg76
g1765
sg69
(lp1781
g62
(g63
g64
NtRp1782
(dp1783
g67
(dp1784
g75
I4
ssg76
g1778
sg69
(lp1785
S'mayank'
p1786
asbasbasbag62
(g78
g64
NtRp1787
(dp1788
g67
(dp1789
sg76
g1237
sg69
(lp1790
g62
(g83
g64
NtRp1791
(dp1792
g67
(dp1793
g87
g88
ssg76
g1787
sg69
(lp1794
S'server_port'
p1795
asbag62
(g83
g64
NtRp1796
(dp1797
g67
(dp1798
g94
g95
ssg76
g1787
sg69
(lp1799
S':'
asbag62
(g83
g64
NtRp1800
(dp1801
g67
(dp1802
sg76
g1787
sg69
(lp1803
g62
(g63
g64
NtRp1804
(dp1805
g67
(dp1806
g75
I4
ssg76
g1800
sg69
(lp1807
S'8000'
p1808
asbasbasbag62
(g78
g64
NtRp1809
(dp1810
g67
(dp1811
sg76
g1237
sg69
(lp1812
g62
(g83
g64
NtRp1813
(dp1814
g67
(dp1815
g87
g88
ssg76
g1809
sg69
(lp1816
S'server_protocol'
p1817
asbag62
(g83
g64
NtRp1818
(dp1819
g67
(dp1820
g94
g95
ssg76
g1809
sg69
(lp1821
S':'
asbag62
(g83
g64
NtRp1822
(dp1823
g67
(dp1824
sg76
g1809
sg69
(lp1825
g62
(g63
g64
NtRp1826
(dp1827
g67
(dp1828
g75
I4
ssg76
g1822
sg69
(lp1829
S'HTTP/1.1'
p1830
asbasbasbag62
(g78
g64
NtRp1831
(dp1832
g67
(dp1833
sg76
g1237
sg69
(lp1834
g62
(g83
g64
NtRp1835
(dp1836
g67
(dp1837
g87
g88
ssg76
g1831
sg69
(lp1838
S'server_software'
p1839
asbag62
(g83
g64
NtRp1840
(dp1841
g67
(dp1842
g94
g95
ssg76
g1831
sg69
(lp1843
S':'
asbag62
(g83
g64
NtRp1844
(dp1845
g67
(dp1846
sg76
g1831
sg69
(lp1847
g62
(g63
g64
NtRp1848
(dp1849
g67
(dp1850
g75
I4
ssg76
g1844
sg69
(lp1851
S'Rocket 1.2.4'
p1852
asbasbasbag62
(g78
g64
NtRp1853
(dp1854
g67
(dp1855
sg76
g1237
sg69
(lp1856
g62
(g83
g64
NtRp1857
(dp1858
g67
(dp1859
g87
g88
ssg76
g1853
sg69
(lp1860
S'web2py_crontype'
p1861
asbag62
(g83
g64
NtRp1862
(dp1863
g67
(dp1864
g94
g95
ssg76
g1853
sg69
(lp1865
S':'
asbag62
(g83
g64
NtRp1866
(dp1867
g67
(dp1868
sg76
g1853
sg69
(lp1869
g62
(g63
g64
NtRp1870
(dp1871
g67
(dp1872
g75
I4
ssg76
g1866
sg69
(lp1873
S'hard'
p1874
asbasbasbag62
(g78
g64
NtRp1875
(dp1876
g67
(dp1877
sg76
g1237
sg69
(lp1878
g62
(g83
g64
NtRp1879
(dp1880
g67
(dp1881
g87
g88
ssg76
g1875
sg69
(lp1882
S'web2py_path'
p1883
asbag62
(g83
g64
NtRp1884
(dp1885
g67
(dp1886
g94
g95
ssg76
g1875
sg69
(lp1887
S':'
asbag62
(g83
g64
NtRp1888
(dp1889
g67
(dp1890
sg76
g1875
sg69
(lp1891
g62
(g63
g64
NtRp1892
(dp1893
g67
(dp1894
g75
I4
ssg76
g1888
sg69
(lp1895
g1284
asbasbasbag62
(g78
g64
NtRp1896
(dp1897
g67
(dp1898
sg76
g1237
sg69
(lp1899
g62
(g83
g64
NtRp1900
(dp1901
g67
(dp1902
g87
g88
ssg76
g1896
sg69
(lp1903
S'web2py_version'
p1904
asbag62
(g83
g64
NtRp1905
(dp1906
g67
(dp1907
g94
g95
ssg76
g1896
sg69
(lp1908
S':'
asbag62
(g83
g64
NtRp1909
(dp1910
g67
(dp1911
sg76
g1896
sg69
(lp1912
g62
(g63
g64
NtRp1913
(dp1914
g67
(dp1915
g75
I4
ssg76
g1909
sg69
(lp1916
g62
(g71
g64
NtRp1917
(dp1918
g67
(dp1919
g75
I3
ssg76
Nsg69
(lp1920
g62
(g78
g64
NtRp1921
(dp1922
g67
(dp1923
sg76
g1917
sg69
(lp1924
g62
(g83
g64
NtRp1925
(dp1926
g67
(dp1927
sg76
g1921
sg69
(lp1928
g62
(g63
g64
NtRp1929
(dp1930
g67
(dp1931
g75
I3
ssg76
g1925
sg69
(lp1932
S'2'
asbasbasbag62
(g78
g64
NtRp1933
(dp1934
g67
(dp1935
sg76
g1917
sg69
(lp1936
g62
(g83
g64
NtRp1937
(dp1938
g67
(dp1939
sg76
g1933
sg69
(lp1940
g62
(g63
g64
NtRp1941
(dp1942
g67
(dp1943
g75
I3
ssg76
g1937
sg69
(lp1944
S'0'
asbasbasbag62
(g78
g64
NtRp1945
(dp1946
g67
(dp1947
sg76
g1917
sg69
(lp1948
g62
(g83
g64
NtRp1949
(dp1950
g67
(dp1951
sg76
g1945
sg69
(lp1952
g62
(g63
g64
NtRp1953
(dp1954
g67
(dp1955
g75
I3
ssg76
g1949
sg69
(lp1956
S'8'
asbasbasbag62
(g78
g64
NtRp1957
(dp1958
g67
(dp1959
sg76
g1917
sg69
(lp1960
g62
(g83
g64
NtRp1961
(dp1962
g67
(dp1963
sg76
g1957
sg69
(lp1964
g62
(g63
g64
NtRp1965
(dp1966
g67
(dp1967
g75
I3
ssg76
g1961
sg69
(lp1968
S'datetime.datetime(2012, 9, 7, 3, 47, 51)'
p1969
asbasbasbag62
(g78
g64
NtRp1970
(dp1971
g67
(dp1972
sg76
g1917
sg69
(lp1973
g62
(g83
g64
NtRp1974
(dp1975
g67
(dp1976
sg76
g1970
sg69
(lp1977
g62
(g63
g64
NtRp1978
(dp1979
g67
(dp1980
g75
I3
ssg76
g1974
sg69
(lp1981
S'stable'
p1982
asbasbasbasbasbasbasbag62
(g78
g64
NtRp1983
(dp1984
g67
(dp1985
sg76
g1237
sg69
(lp1986
g62
(g83
g64
NtRp1987
(dp1988
g67
(dp1989
g87
g88
ssg76
g1983
sg69
(lp1990
S'wsgi_errors'
p1991
asbag62
(g83
g64
NtRp1992
(dp1993
g67
(dp1994
g94
g95
ssg76
g1983
sg69
(lp1995
S':'
asbag62
(g83
g64
NtRp1996
(dp1997
g67
(dp1998
sg76
g1983
sg69
(lp1999
g62
(g63
g64
NtRp2000
(dp2001
g67
(dp2002
g75
I4
ssg76
g1996
sg69
(lp2003
S"<open file '<stderr>', mode 'w' at 0x7ffba3228270>"
p2004
asbasbasbag62
(g78
g64
NtRp2005
(dp2006
g67
(dp2007
sg76
g1237
sg69
(lp2008
g62
(g83
g64
NtRp2009
(dp2010
g67
(dp2011
g87
g88
ssg76
g2005
sg69
(lp2012
S'wsgi_file_wrapper'
p2013
asbag62
(g83
g64
NtRp2014
(dp2015
g67
(dp2016
g94
g95
ssg76
g2005
sg69
(lp2017
S':'
asbag62
(g83
g64
NtRp2018
(dp2019
g67
(dp2020
sg76
g2005
sg69
(lp2021
g62
(g63
g64
NtRp2022
(dp2023
g67
(dp2024
g75
I4
ssg76
g2018
sg69
(lp2025
S'<class wsgiref.util.FileWrapper at 0x25bf120>'
p2026
asbasbasbag62
(g78
g64
NtRp2027
(dp2028
g67
(dp2029
sg76
g1237
sg69
(lp2030
g62
(g83
g64
NtRp2031
(dp2032
g67
(dp2033
g87
g88
ssg76
g2027
sg69
(lp2034
S'wsgi_input'
p2035
asbag62
(g83
g64
NtRp2036
(dp2037
g67
(dp2038
g94
g95
ssg76
g2027
sg69
(lp2039
S':'
asbag62
(g83
g64
NtRp2040
(dp2041
g67
(dp2042
sg76
g2027
sg69
(lp2043
g62
(g63
g64
NtRp2044
(dp2045
g67
(dp2046
g75
I4
ssg76
g2040
sg69
(lp2047
S'<socket._fileobject object at 0x7ffb846636d0>'
p2048
asbasbasbag62
(g78
g64
NtRp2049
(dp2050
g67
(dp2051
sg76
g1237
sg69
(lp2052
g62
(g83
g64
NtRp2053
(dp2054
g67
(dp2055
g87
g88
ssg76
g2049
sg69
(lp2056
S'wsgi_multiprocess'
p2057
asbag62
(g83
g64
NtRp2058
(dp2059
g67
(dp2060
g94
g95
ssg76
g2049
sg69
(lp2061
S':'
asbag62
(g83
g64
NtRp2062
(dp2063
g67
(dp2064
sg76
g2049
sg69
(lp2065
g62
(g63
g64
NtRp2066
(dp2067
g67
(dp2068
g75
I4
ssg76
g2062
sg69
(lp2069
g105
asbasbasbag62
(g78
g64
NtRp2070
(dp2071
g67
(dp2072
sg76
g1237
sg69
(lp2073
g62
(g83
g64
NtRp2074
(dp2075
g67
(dp2076
g87
g88
ssg76
g2070
sg69
(lp2077
S'wsgi_multithread'
p2078
asbag62
(g83
g64
NtRp2079
(dp2080
g67
(dp2081
g94
g95
ssg76
g2070
sg69
(lp2082
S':'
asbag62
(g83
g64
NtRp2083
(dp2084
g67
(dp2085
sg76
g2070
sg69
(lp2086
g62
(g63
g64
NtRp2087
(dp2088
g67
(dp2089
g75
I4
ssg76
g2083
sg69
(lp2090
S'True'
p2091
asbasbasbag62
(g78
g64
NtRp2092
(dp2093
g67
(dp2094
sg76
g1237
sg69
(lp2095
g62
(g83
g64
NtRp2096
(dp2097
g67
(dp2098
g87
g88
ssg76
g2092
sg69
(lp2099
S'wsgi_run_once'
p2100
asbag62
(g83
g64
NtRp2101
(dp2102
g67
(dp2103
g94
g95
ssg76
g2092
sg69
(lp2104
S':'
asbag62
(g83
g64
NtRp2105
(dp2106
g67
(dp2107
sg76
g2092
sg69
(lp2108
g62
(g63
g64
NtRp2109
(dp2110
g67
(dp2111
g75
I4
ssg76
g2105
sg69
(lp2112
g105
asbasbasbag62
(g78
g64
NtRp2113
(dp2114
g67
(dp2115
sg76
g1237
sg69
(lp2116
g62
(g83
g64
NtRp2117
(dp2118
g67
(dp2119
g87
g88
ssg76
g2113
sg69
(lp2120
S'wsgi_url_scheme'
p2121
asbag62
(g83
g64
NtRp2122
(dp2123
g67
(dp2124
g94
g95
ssg76
g2113
sg69
(lp2125
S':'
asbag62
(g83
g64
NtRp2126
(dp2127
g67
(dp2128
sg76
g2113
sg69
(lp2129
g62
(g63
g64
NtRp2130
(dp2131
g67
(dp2132
g75
I4
ssg76
g2126
sg69
(lp2133
S'http'
p2134
asbasbasbag62
(g78
g64
NtRp2135
(dp2136
g67
(dp2137
sg76
g1237
sg69
(lp2138
g62
(g83
g64
NtRp2139
(dp2140
g67
(dp2141
g87
g88
ssg76
g2135
sg69
(lp2142
S'wsgi_version'
p2143
asbag62
(g83
g64
NtRp2144
(dp2145
g67
(dp2146
g94
g95
ssg76
g2135
sg69
(lp2147
S':'
asbag62
(g83
g64
NtRp2148
(dp2149
g67
(dp2150
sg76
g2135
sg69
(lp2151
g62
(g63
g64
NtRp2152
(dp2153
g67
(dp2154
g75
I4
ssg76
g2148
sg69
(lp2155
g62
(g71
g64
NtRp2156
(dp2157
g67
(dp2158
g75
I3
ssg76
Nsg69
(lp2159
g62
(g78
g64
NtRp2160
(dp2161
g67
(dp2162
sg76
g2156
sg69
(lp2163
g62
(g83
g64
NtRp2164
(dp2165
g67
(dp2166
sg76
g2160
sg69
(lp2167
g62
(g63
g64
NtRp2168
(dp2169
g67
(dp2170
g75
I3
ssg76
g2164
sg69
(lp2171
S'1'
asbasbasbag62
(g78
g64
NtRp2172
(dp2173
g67
(dp2174
sg76
g2156
sg69
(lp2175
g62
(g83
g64
NtRp2176
(dp2177
g67
(dp2178
sg76
g2172
sg69
(lp2179
g62
(g63
g64
NtRp2180
(dp2181
g67
(dp2182
g75
I3
ssg76
g2176
sg69
(lp2183
S'0'
asbasbasbasbasbasbasbasbasbasbasbag62
(g78
g64
NtRp2184
(dp2185
g67
(dp2186
sg76
g72
sg69
(lp2187
g62
(g83
g64
NtRp2188
(dp2189
g67
(dp2190
g87
g88
ssg76
g2184
sg69
(lp2191
S'extension'
p2192
asbag62
(g83
g64
NtRp2193
(dp2194
g67
(dp2195
g94
g95
ssg76
g2184
sg69
(lp2196
S':'
asbag62
(g83
g64
NtRp2197
(dp2198
g67
(dp2199
sg76
g2184
sg69
(lp2200
g62
(g63
g64
NtRp2201
(dp2202
g67
(dp2203
g75
I5
ssg76
g2197
sg69
(lp2204
S'html'
p2205
asbasbasbag62
(g78
g64
NtRp2206
(dp2207
g67
(dp2208
sg76
g72
sg69
(lp2209
g62
(g83
g64
NtRp2210
(dp2211
g67
(dp2212
g87
g88
ssg76
g2206
sg69
(lp2213
S'folder'
p2214
asbag62
(g83
g64
NtRp2215
(dp2216
g67
(dp2217
g94
g95
ssg76
g2206
sg69
(lp2218
S':'
asbag62
(g83
g64
NtRp2219
(dp2220
g67
(dp2221
sg76
g2206
sg69
(lp2222
g62
(g63
g64
NtRp2223
(dp2224
g67
(dp2225
g75
I5
ssg76
g2219
sg69
(lp2226
S'/home/mayank/IIIT/sem 3/SSAD&Project/web2py/applications/admin/'
p2227
asbasbasbag62
(g78
g64
NtRp2228
(dp2229
g67
(dp2230
sg76
g72
sg69
(lp2231
g62
(g83
g64
NtRp2232
(dp2233
g67
(dp2234
g87
g88
ssg76
g2228
sg69
(lp2235
S'function'
p2236
asbag62
(g83
g64
NtRp2237
(dp2238
g67
(dp2239
g94
g95
ssg76
g2228
sg69
(lp2240
S':'
asbag62
(g83
g64
NtRp2241
(dp2242
g67
(dp2243
sg76
g2228
sg69
(lp2244
g62
(g63
g64
NtRp2245
(dp2246
g67
(dp2247
g75
I5
ssg76
g2241
sg69
(lp2248
S'design'
p2249
asbasbasbag62
(g78
g64
NtRp2250
(dp2251
g67
(dp2252
sg76
g72
sg69
(lp2253
g62
(g83
g64
NtRp2254
(dp2255
g67
(dp2256
g87
g88
ssg76
g2250
sg69
(lp2257
S'get_vars'
p2258
asbag62
(g83
g64
NtRp2259
(dp2260
g67
(dp2261
g94
g95
ssg76
g2250
sg69
(lp2262
S':'
asbag62
(g83
g64
NtRp2263
(dp2264
g67
(dp2265
sg76
g2250
sg69
(lp2266
g62
(g63
g64
NtRp2267
(dp2268
g67
(dp2269
g75
I5
ssg76
g2263
sg69
(lp2270
g62
(g71
g64
NtRp2271
(dp2272
g67
(dp2273
g75
I4
ssg76
Nsg69
(lp2274
sbasbasbasbag62
(g78
g64
NtRp2275
(dp2276
g67
(dp2277
sg76
g72
sg69
(lp2278
g62
(g83
g64
NtRp2279
(dp2280
g67
(dp2281
g87
g88
ssg76
g2275
sg69
(lp2282
S'global_settings'
p2283
asbag62
(g83
g64
NtRp2284
(dp2285
g67
(dp2286
g94
g95
ssg76
g2275
sg69
(lp2287
S':'
asbag62
(g83
g64
NtRp2288
(dp2289
g67
(dp2290
sg76
g2275
sg69
(lp2291
g62
(g63
g64
NtRp2292
(dp2293
g67
(dp2294
g75
I5
ssg76
g2288
sg69
(lp2295
g62
(g71
g64
NtRp2296
(dp2297
g67
(dp2298
g75
I4
ssg76
Nsg69
(lp2299
g62
(g78
g64
NtRp2300
(dp2301
g67
(dp2302
sg76
g2296
sg69
(lp2303
g62
(g83
g64
NtRp2304
(dp2305
g67
(dp2306
g87
g88
ssg76
g2300
sg69
(lp2307
g1249
asbag62
(g83
g64
NtRp2308
(dp2309
g67
(dp2310
g94
g95
ssg76
g2300
sg69
(lp2311
S':'
asbag62
(g83
g64
NtRp2312
(dp2313
g67
(dp2314
sg76
g2300
sg69
(lp2315
g62
(g63
g64
NtRp2316
(dp2317
g67
(dp2318
g75
I4
ssg76
g2312
sg69
(lp2319
S"set(['/home/mayank/IIIT/sem 3/SSAD&Project/web2py/applications/project/', '/home/mayank/IIIT/sem 3/SSAD&Project/web2py/applications/taship1/', '/home/mayank/IIIT/sem 3/SSAD&Project/web2py/applications/taship/', '/home/mayank/IIIT/sem 3/SSAD&Project/web2py/applications/admin/', '/home/mayank/IIIT/sem 3/SSAD&Project/web2py/applications/welcome/'])"
p2320
asbasbasbag62
(g78
g64
NtRp2321
(dp2322
g67
(dp2323
sg76
g2296
sg69
(lp2324
g62
(g83
g64
NtRp2325
(dp2326
g67
(dp2327
g87
g88
ssg76
g2321
sg69
(lp2328
g1271
asbag62
(g83
g64
NtRp2329
(dp2330
g67
(dp2331
g94
g95
ssg76
g2321
sg69
(lp2332
S':'
asbag62
(g83
g64
NtRp2333
(dp2334
g67
(dp2335
sg76
g2321
sg69
(lp2336
g62
(g63
g64
NtRp2337
(dp2338
g67
(dp2339
g75
I4
ssg76
g2333
sg69
(lp2340
g1284
asbasbasbag62
(g78
g64
NtRp2341
(dp2342
g67
(dp2343
sg76
g2296
sg69
(lp2344
g62
(g83
g64
NtRp2345
(dp2346
g67
(dp2347
g87
g88
ssg76
g2341
sg69
(lp2348
g1293
asbag62
(g83
g64
NtRp2349
(dp2350
g67
(dp2351
g94
g95
ssg76
g2341
sg69
(lp2352
S':'
asbag62
(g83
g64
NtRp2353
(dp2354
g67
(dp2355
sg76
g2341
sg69
(lp2356
g62
(g63
g64
NtRp2357
(dp2358
g67
(dp2359
g75
I4
ssg76
g2353
sg69
(lp2360
g62
(g71
g64
NtRp2361
(dp2362
g67
(dp2363
g75
I3
ssg76
Nsg69
(lp2364
sbasbasbasbag62
(g78
g64
NtRp2365
(dp2366
g67
(dp2367
sg76
g2296
sg69
(lp2368
g62
(g83
g64
NtRp2369
(dp2370
g67
(dp2371
g87
g88
ssg76
g2365
sg69
(lp2372
g1318
asbag62
(g83
g64
NtRp2373
(dp2374
g67
(dp2375
g94
g95
ssg76
g2365
sg69
(lp2376
S':'
asbag62
(g83
g64
NtRp2377
(dp2378
g67
(dp2379
sg76
g2365
sg69
(lp2380
g62
(g63
g64
NtRp2381
(dp2382
g67
(dp2383
g75
I4
ssg76
g2377
sg69
(lp2384
S"<Values at 0x2632320: {'verbose': False, 'ip': '127.0.0.1', 'with_scheduler': False, 'ips': ['127.0.1.1'], 'shutdown_timeout': 5, 'taskbar': False, 'port': 8000, 'maxthreads': None, 'softcron': False, 'server_name': 'mayank', 'bpython': False, 'nogui': False, 'nocron': False, 'extcron': False, 'run_system_tests': False, 'test': None, 'folder': '/home/mayank/IIIT/sem 3/SSAD&Project/web2py', 'config': '', 'import_models': False, 'winservice': '', 'shell': None, 'run': '', 'log_filename': 'httpserver.log', 'debuglevel': 30, 'args': [''], 'socket_timeout': 5, 'ssl_ca_certificate': None, 'scheduler': None, 'profiler_filename': None, 'ssl_private_key': '', 'scheduler_groups': None, 'password': '<ask>', 'request_queue_size': 5, 'ssl_certificate': '', 'cronjob': False, 'numthreads': None, 'quiet': False, 'interfaces': None, 'minthreads': None, 'timeout': 10, 'plain': False, 'nobanner': False, 'pid_filename': 'httpserver.pid'}>"
p2385
asbasbasbag62
(g78
g64
NtRp2386
(dp2387
g67
(dp2388
sg76
g2296
sg69
(lp2389
g62
(g83
g64
NtRp2390
(dp2391
g67
(dp2392
g87
g88
ssg76
g2386
sg69
(lp2393
g1340
asbag62
(g83
g64
NtRp2394
(dp2395
g67
(dp2396
g94
g95
ssg76
g2386
sg69
(lp2397
S':'
asbag62
(g83
g64
NtRp2398
(dp2399
g67
(dp2400
sg76
g2386
sg69
(lp2401
g62
(g63
g64
NtRp2402
(dp2403
g67
(dp2404
g75
I4
ssg76
g2398
sg69
(lp2405
S'set([])'
p2406
asbasbasbag62
(g78
g64
NtRp2407
(dp2408
g67
(dp2409
sg76
g2296
sg69
(lp2410
g62
(g83
g64
NtRp2411
(dp2412
g67
(dp2413
g87
g88
ssg76
g2407
sg69
(lp2414
g1362
asbag62
(g83
g64
NtRp2415
(dp2416
g67
(dp2417
g94
g95
ssg76
g2407
sg69
(lp2418
S':'
asbag62
(g83
g64
NtRp2419
(dp2420
g67
(dp2421
sg76
g2407
sg69
(lp2422
g62
(g63
g64
NtRp2423
(dp2424
g67
(dp2425
g75
I4
ssg76
g2419
sg69
(lp2426
g105
asbasbasbag62
(g78
g64
NtRp2427
(dp2428
g67
(dp2429
sg76
g2296
sg69
(lp2430
g62
(g83
g64
NtRp2431
(dp2432
g67
(dp2433
g87
g88
ssg76
g2427
sg69
(lp2434
g1383
asbag62
(g83
g64
NtRp2435
(dp2436
g67
(dp2437
g94
g95
ssg76
g2427
sg69
(lp2438
S':'
asbag62
(g83
g64
NtRp2439
(dp2440
g67
(dp2441
sg76
g2427
sg69
(lp2442
g62
(g63
g64
NtRp2443
(dp2444
g67
(dp2445
g75
I4
ssg76
g2439
sg69
(lp2446
g1396
asbasbasbag62
(g78
g64
NtRp2447
(dp2448
g67
(dp2449
sg76
g2296
sg69
(lp2450
g62
(g83
g64
NtRp2451
(dp2452
g67
(dp2453
g87
g88
ssg76
g2447
sg69
(lp2454
g1581
asbag62
(g83
g64
NtRp2455
(dp2456
g67
(dp2457
g94
g95
ssg76
g2447
sg69
(lp2458
S':'
asbag62
(g83
g64
NtRp2459
(dp2460
g67
(dp2461
sg76
g2447
sg69
(lp2462
g62
(g63
g64
NtRp2463
(dp2464
g67
(dp2465
g75
I4
ssg76
g2459
sg69
(lp2466
g105
asbasbasbag62
(g78
g64
NtRp2467
(dp2468
g67
(dp2469
sg76
g2296
sg69
(lp2470
g62
(g83
g64
NtRp2471
(dp2472
g67
(dp2473
g87
g88
ssg76
g2467
sg69
(lp2474
g1602
asbag62
(g83
g64
NtRp2475
(dp2476
g67
(dp2477
g94
g95
ssg76
g2467
sg69
(lp2478
S':'
asbag62
(g83
g64
NtRp2479
(dp2480
g67
(dp2481
sg76
g2467
sg69
(lp2482
g62
(g63
g64
NtRp2483
(dp2484
g67
(dp2485
g75
I4
ssg76
g2479
sg69
(lp2486
g105
asbasbasbag62
(g78
g64
NtRp2487
(dp2488
g67
(dp2489
sg76
g2296
sg69
(lp2490
g62
(g83
g64
NtRp2491
(dp2492
g67
(dp2493
g87
g88
ssg76
g2487
sg69
(lp2494
g1861
asbag62
(g83
g64
NtRp2495
(dp2496
g67
(dp2497
g94
g95
ssg76
g2487
sg69
(lp2498
S':'
asbag62
(g83
g64
NtRp2499
(dp2500
g67
(dp2501
sg76
g2487
sg69
(lp2502
g62
(g63
g64
NtRp2503
(dp2504
g67
(dp2505
g75
I4
ssg76
g2499
sg69
(lp2506
g1874
asbasbasbag62
(g78
g64
NtRp2507
(dp2508
g67
(dp2509
sg76
g2296
sg69
(lp2510
g62
(g83
g64
NtRp2511
(dp2512
g67
(dp2513
g87
g88
ssg76
g2507
sg69
(lp2514
g1904
asbag62
(g83
g64
NtRp2515
(dp2516
g67
(dp2517
g94
g95
ssg76
g2507
sg69
(lp2518
S':'
asbag62
(g83
g64
NtRp2519
(dp2520
g67
(dp2521
sg76
g2507
sg69
(lp2522
g62
(g63
g64
NtRp2523
(dp2524
g67
(dp2525
g75
I4
ssg76
g2519
sg69
(lp2526
g62
(g71
g64
NtRp2527
(dp2528
g67
(dp2529
g75
I3
ssg76
Nsg69
(lp2530
g62
(g78
g64
NtRp2531
(dp2532
g67
(dp2533
sg76
g2527
sg69
(lp2534
g62
(g83
g64
NtRp2535
(dp2536
g67
(dp2537
sg76
g2531
sg69
(lp2538
g62
(g63
g64
NtRp2539
(dp2540
g67
(dp2541
g75
I3
ssg76
g2535
sg69
(lp2542
S'2'
asbasbasbag62
(g78
g64
NtRp2543
(dp2544
g67
(dp2545
sg76
g2527
sg69
(lp2546
g62
(g83
g64
NtRp2547
(dp2548
g67
(dp2549
sg76
g2543
sg69
(lp2550
g62
(g63
g64
NtRp2551
(dp2552
g67
(dp2553
g75
I3
ssg76
g2547
sg69
(lp2554
S'0'
asbasbasbag62
(g78
g64
NtRp2555
(dp2556
g67
(dp2557
sg76
g2527
sg69
(lp2558
g62
(g83
g64
NtRp2559
(dp2560
g67
(dp2561
sg76
g2555
sg69
(lp2562
g62
(g63
g64
NtRp2563
(dp2564
g67
(dp2565
g75
I3
ssg76
g2559
sg69
(lp2566
S'8'
asbasbasbag62
(g78
g64
NtRp2567
(dp2568
g67
(dp2569
sg76
g2527
sg69
(lp2570
g62
(g83
g64
NtRp2571
(dp2572
g67
(dp2573
sg76
g2567
sg69
(lp2574
g62
(g63
g64
NtRp2575
(dp2576
g67
(dp2577
g75
I3
ssg76
g2571
sg69
(lp2578
S'datetime.datetime(2012, 9, 7, 3, 47, 51)'
p2579
asbasbasbag62
(g78
g64
NtRp2580
(dp2581
g67
(dp2582
sg76
g2527
sg69
(lp2583
g62
(g83
g64
NtRp2584
(dp2585
g67
(dp2586
sg76
g2580
sg69
(lp2587
g62
(g63
g64
NtRp2588
(dp2589
g67
(dp2590
g75
I3
ssg76
g2584
sg69
(lp2591
g1982
asbasbasbasbasbasbasbasbasbasbasbag62
(g78
g64
NtRp2592
(dp2593
g67
(dp2594
sg76
g72
sg69
(lp2595
g62
(g83
g64
NtRp2596
(dp2597
g67
(dp2598
g87
g88
ssg76
g2592
sg69
(lp2599
S'is_https'
p2600
asbag62
(g83
g64
NtRp2601
(dp2602
g67
(dp2603
g94
g95
ssg76
g2592
sg69
(lp2604
S':'
asbag62
(g83
g64
NtRp2605
(dp2606
g67
(dp2607
sg76
g2592
sg69
(lp2608
g62
(g63
g64
NtRp2609
(dp2610
g67
(dp2611
g75
I5
ssg76
g2605
sg69
(lp2612
g105
asbasbasbag62
(g78
g64
NtRp2613
(dp2614
g67
(dp2615
sg76
g72
sg69
(lp2616
g62
(g83
g64
NtRp2617
(dp2618
g67
(dp2619
g87
g88
ssg76
g2613
sg69
(lp2620
S'is_local'
p2621
asbag62
(g83
g64
NtRp2622
(dp2623
g67
(dp2624
g94
g95
ssg76
g2613
sg69
(lp2625
S':'
asbag62
(g83
g64
NtRp2626
(dp2627
g67
(dp2628
sg76
g2613
sg69
(lp2629
g62
(g63
g64
NtRp2630
(dp2631
g67
(dp2632
g75
I5
ssg76
g2626
sg69
(lp2633
g2091
asbasbasbag62
(g78
g64
NtRp2634
(dp2635
g67
(dp2636
sg76
g72
sg69
(lp2637
g62
(g83
g64
NtRp2638
(dp2639
g67
(dp2640
g87
g88
ssg76
g2634
sg69
(lp2641
S'is_restful'
p2642
asbag62
(g83
g64
NtRp2643
(dp2644
g67
(dp2645
g94
g95
ssg76
g2634
sg69
(lp2646
S':'
asbag62
(g83
g64
NtRp2647
(dp2648
g67
(dp2649
sg76
g2634
sg69
(lp2650
g62
(g63
g64
NtRp2651
(dp2652
g67
(dp2653
g75
I5
ssg76
g2647
sg69
(lp2654
g105
asbasbasbag62
(g78
g64
NtRp2655
(dp2656
g67
(dp2657
sg76
g72
sg69
(lp2658
g62
(g83
g64
NtRp2659
(dp2660
g67
(dp2661
g87
g88
ssg76
g2655
sg69
(lp2662
S'now'
p2663
asbag62
(g83
g64
NtRp2664
(dp2665
g67
(dp2666
g94
g95
ssg76
g2655
sg69
(lp2667
S':'
asbag62
(g83
g64
NtRp2668
(dp2669
g67
(dp2670
sg76
g2655
sg69
(lp2671
g62
(g63
g64
NtRp2672
(dp2673
g67
(dp2674
g75
I5
ssg76
g2668
sg69
(lp2675
S'datetime.datetime(2012, 10, 12, 14, 47, 53, 976502)'
p2676
asbasbasbag62
(g78
g64
NtRp2677
(dp2678
g67
(dp2679
sg76
g72
sg69
(lp2680
g62
(g83
g64
NtRp2681
(dp2682
g67
(dp2683
g87
g88
ssg76
g2677
sg69
(lp2684
S'post_vars'
p2685
asbag62
(g83
g64
NtRp2686
(dp2687
g67
(dp2688
g94
g95
ssg76
g2677
sg69
(lp2689
S':'
asbag62
(g83
g64
NtRp2690
(dp2691
g67
(dp2692
sg76
g2677
sg69
(lp2693
g62
(g63
g64
NtRp2694
(dp2695
g67
(dp2696
g75
I5
ssg76
g2690
sg69
(lp2697
g62
(g71
g64
NtRp2698
(dp2699
g67
(dp2700
g75
I4
ssg76
Nsg69
(lp2701
sbasbasbasbag62
(g78
g64
NtRp2702
(dp2703
g67
(dp2704
sg76
g72
sg69
(lp2705
g62
(g83
g64
NtRp2706
(dp2707
g67
(dp2708
g87
g88
ssg76
g2702
sg69
(lp2709
S'raw_args'
p2710
asbag62
(g83
g64
NtRp2711
(dp2712
g67
(dp2713
g94
g95
ssg76
g2702
sg69
(lp2714
S':'
asbag62
(g83
g64
NtRp2715
(dp2716
g67
(dp2717
sg76
g2702
sg69
(lp2718
g62
(g63
g64
NtRp2719
(dp2720
g67
(dp2721
g75
I5
ssg76
g2715
sg69
(lp2722
g164
asbasbasbag62
(g78
g64
NtRp2723
(dp2724
g67
(dp2725
sg76
g72
sg69
(lp2726
g62
(g83
g64
NtRp2727
(dp2728
g67
(dp2729
g87
g88
ssg76
g2723
sg69
(lp2730
S'raw_extension'
p2731
asbag62
(g83
g64
NtRp2732
(dp2733
g67
(dp2734
g94
g95
ssg76
g2723
sg69
(lp2735
S':'
asbag62
(g83
g64
NtRp2736
(dp2737
g67
(dp2738
sg76
g2723
sg69
(lp2739
g62
(g63
g64
NtRp2740
(dp2741
g67
(dp2742
g75
I5
ssg76
g2736
sg69
(lp2743
S'None'
p2744
asbasbasbag62
(g78
g64
NtRp2745
(dp2746
g67
(dp2747
sg76
g72
sg69
(lp2748
g62
(g83
g64
NtRp2749
(dp2750
g67
(dp2751
g87
g88
ssg76
g2745
sg69
(lp2752
S'url'
p2753
asbag62
(g83
g64
NtRp2754
(dp2755
g67
(dp2756
g94
g95
ssg76
g2745
sg69
(lp2757
S':'
asbag62
(g83
g64
NtRp2758
(dp2759
g67
(dp2760
sg76
g2745
sg69
(lp2761
g62
(g63
g64
NtRp2762
(dp2763
g67
(dp2764
g75
I5
ssg76
g2758
sg69
(lp2765
g1636
asbasbasbag62
(g78
g64
NtRp2766
(dp2767
g67
(dp2768
sg76
g72
sg69
(lp2769
g62
(g83
g64
NtRp2770
(dp2771
g67
(dp2772
g87
g88
ssg76
g2766
sg69
(lp2773
S'utcnow'
p2774
asbag62
(g83
g64
NtRp2775
(dp2776
g67
(dp2777
g94
g95
ssg76
g2766
sg69
(lp2778
S':'
asbag62
(g83
g64
NtRp2779
(dp2780
g67
(dp2781
sg76
g2766
sg69
(lp2782
g62
(g63
g64
NtRp2783
(dp2784
g67
(dp2785
g75
I5
ssg76
g2779
sg69
(lp2786
S'datetime.datetime(2012, 10, 12, 9, 17, 53, 976540)'
p2787
asbasbasbag62
(g78
g64
NtRp2788
(dp2789
g67
(dp2790
sg76
g72
sg69
(lp2791
g62
(g83
g64
NtRp2792
(dp2793
g67
(dp2794
g87
g88
ssg76
g2788
sg69
(lp2795
S'uuid'
p2796
asbag62
(g83
g64
NtRp2797
(dp2798
g67
(dp2799
g94
g95
ssg76
g2788
sg69
(lp2800
S':'
asbag62
(g83
g64
NtRp2801
(dp2802
g67
(dp2803
sg76
g2788
sg69
(lp2804
g62
(g63
g64
NtRp2805
(dp2806
g67
(dp2807
g75
I5
ssg76
g2801
sg69
(lp2808
S'admin/127.0.0.1.2012-10-12.14-47-53.fe2f7096-6e39-4807-9e4d-7ba8cd468cb8'
p2809
asbasbasbag62
(g78
g64
NtRp2810
(dp2811
g67
(dp2812
sg76
g72
sg69
(lp2813
g62
(g83
g64
NtRp2814
(dp2815
g67
(dp2816
g87
g88
ssg76
g2810
sg69
(lp2817
S'vars'
p2818
asbag62
(g83
g64
NtRp2819
(dp2820
g67
(dp2821
g94
g95
ssg76
g2810
sg69
(lp2822
S':'
asbag62
(g83
g64
NtRp2823
(dp2824
g67
(dp2825
sg76
g2810
sg69
(lp2826
g62
(g63
g64
NtRp2827
(dp2828
g67
(dp2829
g75
I5
ssg76
g2823
sg69
(lp2830
g62
(g71
g64
NtRp2831
(dp2832
g67
(dp2833
g75
I4
ssg76
Nsg69
(lp2834
sbasbasbasbag62
(g78
g64
NtRp2835
(dp2836
g67
(dp2837
sg76
g72
sg69
(lp2838
g62
(g83
g64
NtRp2839
(dp2840
g67
(dp2841
g87
g88
ssg76
g2835
sg69
(lp2842
S'wsgi'
p2843
asbag62
(g83
g64
NtRp2844
(dp2845
g67
(dp2846
g94
g95
ssg76
g2835
sg69
(lp2847
S':'
asbag62
(g83
g64
NtRp2848
(dp2849
g67
(dp2850
sg76
g2835
sg69
(lp2851
g62
(g63
g64
NtRp2852
(dp2853
g67
(dp2854
g75
I5
ssg76
g2848
sg69
(lp2855
g62
(g71
g64
NtRp2856
(dp2857
g67
(dp2858
g75
I4
ssg76
Nsg69
(lp2859
g62
(g78
g64
NtRp2860
(dp2861
g67
(dp2862
sg76
g2856
sg69
(lp2863
g62
(g83
g64
NtRp2864
(dp2865
g67
(dp2866
g87
g88
ssg76
g2860
sg69
(lp2867
S'environ'
p2868
asbag62
(g83
g64
NtRp2869
(dp2870
g67
(dp2871
g94
g95
ssg76
g2860
sg69
(lp2872
S':'
asbag62
(g83
g64
NtRp2873
(dp2874
g67
(dp2875
sg76
g2860
sg69
(lp2876
g62
(g63
g64
NtRp2877
(dp2878
g67
(dp2879
g75
I4
ssg76
g2873
sg69
(lp2880
g62
(g71
g64
NtRp2881
(dp2882
g67
(dp2883
g75
I3
ssg76
Nsg69
(lp2884
g62
(g78
g64
NtRp2885
(dp2886
g67
(dp2887
sg76
g2881
sg69
(lp2888
g62
(g83
g64
NtRp2889
(dp2890
g67
(dp2891
g87
g88
ssg76
g2885
sg69
(lp2892
S'HTTP_ACCEPT'
p2893
asbag62
(g83
g64
NtRp2894
(dp2895
g67
(dp2896
g94
g95
ssg76
g2885
sg69
(lp2897
S':'
asbag62
(g83
g64
NtRp2898
(dp2899
g67
(dp2900
sg76
g2885
sg69
(lp2901
g62
(g63
g64
NtRp2902
(dp2903
g67
(dp2904
g75
I3
ssg76
g2898
sg69
(lp2905
g1418
asbasbasbag62
(g78
g64
NtRp2906
(dp2907
g67
(dp2908
sg76
g2881
sg69
(lp2909
g62
(g83
g64
NtRp2910
(dp2911
g67
(dp2912
g87
g88
ssg76
g2906
sg69
(lp2913
S'HTTP_ACCEPT_ENCODING'
p2914
asbag62
(g83
g64
NtRp2915
(dp2916
g67
(dp2917
g94
g95
ssg76
g2906
sg69
(lp2918
S':'
asbag62
(g83
g64
NtRp2919
(dp2920
g67
(dp2921
sg76
g2906
sg69
(lp2922
g62
(g63
g64
NtRp2923
(dp2924
g67
(dp2925
g75
I3
ssg76
g2919
sg69
(lp2926
g1440
asbasbasbag62
(g78
g64
NtRp2927
(dp2928
g67
(dp2929
sg76
g2881
sg69
(lp2930
g62
(g83
g64
NtRp2931
(dp2932
g67
(dp2933
g87
g88
ssg76
g2927
sg69
(lp2934
S'HTTP_ACCEPT_LANGUAGE'
p2935
asbag62
(g83
g64
NtRp2936
(dp2937
g67
(dp2938
g94
g95
ssg76
g2927
sg69
(lp2939
S':'
asbag62
(g83
g64
NtRp2940
(dp2941
g67
(dp2942
sg76
g2927
sg69
(lp2943
g62
(g63
g64
NtRp2944
(dp2945
g67
(dp2946
g75
I3
ssg76
g2940
sg69
(lp2947
g1462
asbasbasbag62
(g78
g64
NtRp2948
(dp2949
g67
(dp2950
sg76
g2881
sg69
(lp2951
g62
(g83
g64
NtRp2952
(dp2953
g67
(dp2954
g87
g88
ssg76
g2948
sg69
(lp2955
S'HTTP_CONNECTION'
p2956
asbag62
(g83
g64
NtRp2957
(dp2958
g67
(dp2959
g94
g95
ssg76
g2948
sg69
(lp2960
S':'
asbag62
(g83
g64
NtRp2961
(dp2962
g67
(dp2963
sg76
g2948
sg69
(lp2964
g62
(g63
g64
NtRp2965
(dp2966
g67
(dp2967
g75
I3
ssg76
g2961
sg69
(lp2968
g1484
asbasbasbag62
(g78
g64
NtRp2969
(dp2970
g67
(dp2971
sg76
g2881
sg69
(lp2972
g62
(g83
g64
NtRp2973
(dp2974
g67
(dp2975
g87
g88
ssg76
g2969
sg69
(lp2976
S'HTTP_COOKIE'
p2977
asbag62
(g83
g64
NtRp2978
(dp2979
g67
(dp2980
g94
g95
ssg76
g2969
sg69
(lp2981
S':'
asbag62
(g83
g64
NtRp2982
(dp2983
g67
(dp2984
sg76
g2969
sg69
(lp2985
g62
(g63
g64
NtRp2986
(dp2987
g67
(dp2988
g75
I3
ssg76
g2982
sg69
(lp2989
g1506
asbasbasbag62
(g78
g64
NtRp2990
(dp2991
g67
(dp2992
sg76
g2881
sg69
(lp2993
g62
(g83
g64
NtRp2994
(dp2995
g67
(dp2996
g87
g88
ssg76
g2990
sg69
(lp2997
S'HTTP_HOST'
p2998
asbag62
(g83
g64
NtRp2999
(dp3000
g67
(dp3001
g94
g95
ssg76
g2990
sg69
(lp3002
S':'
asbag62
(g83
g64
NtRp3003
(dp3004
g67
(dp3005
sg76
g2990
sg69
(lp3006
g62
(g63
g64
NtRp3007
(dp3008
g67
(dp3009
g75
I3
ssg76
g3003
sg69
(lp3010
g1528
asbasbasbag62
(g78
g64
NtRp3011
(dp3012
g67
(dp3013
sg76
g2881
sg69
(lp3014
g62
(g83
g64
NtRp3015
(dp3016
g67
(dp3017
g87
g88
ssg76
g3011
sg69
(lp3018
S'HTTP_REFERER'
p3019
asbag62
(g83
g64
NtRp3020
(dp3021
g67
(dp3022
g94
g95
ssg76
g3011
sg69
(lp3023
S':'
asbag62
(g83
g64
NtRp3024
(dp3025
g67
(dp3026
sg76
g3011
sg69
(lp3027
g62
(g63
g64
NtRp3028
(dp3029
g67
(dp3030
g75
I3
ssg76
g3024
sg69
(lp3031
g1550
asbasbasbag62
(g78
g64
NtRp3032
(dp3033
g67
(dp3034
sg76
g2881
sg69
(lp3035
g62
(g83
g64
NtRp3036
(dp3037
g67
(dp3038
g87
g88
ssg76
g3032
sg69
(lp3039
S'HTTP_USER_AGENT'
p3040
asbag62
(g83
g64
NtRp3041
(dp3042
g67
(dp3043
g94
g95
ssg76
g3032
sg69
(lp3044
S':'
asbag62
(g83
g64
NtRp3045
(dp3046
g67
(dp3047
sg76
g3032
sg69
(lp3048
g62
(g63
g64
NtRp3049
(dp3050
g67
(dp3051
g75
I3
ssg76
g3045
sg69
(lp3052
g1572
asbasbasbag62
(g78
g64
NtRp3053
(dp3054
g67
(dp3055
sg76
g2881
sg69
(lp3056
g62
(g83
g64
NtRp3057
(dp3058
g67
(dp3059
g87
g88
ssg76
g3053
sg69
(lp3060
S'PATH_INFO'
p3061
asbag62
(g83
g64
NtRp3062
(dp3063
g67
(dp3064
g94
g95
ssg76
g3053
sg69
(lp3065
S':'
asbag62
(g83
g64
NtRp3066
(dp3067
g67
(dp3068
sg76
g3053
sg69
(lp3069
g62
(g63
g64
NtRp3070
(dp3071
g67
(dp3072
g75
I3
ssg76
g3066
sg69
(lp3073
g1636
asbasbasbag62
(g78
g64
NtRp3074
(dp3075
g67
(dp3076
sg76
g2881
sg69
(lp3077
g62
(g83
g64
NtRp3078
(dp3079
g67
(dp3080
g87
g88
ssg76
g3074
sg69
(lp3081
S'QUERY_STRING'
p3082
asbag62
(g83
g64
NtRp3083
(dp3084
g67
(dp3085
g94
g95
ssg76
g3074
sg69
(lp3086
S':'
asbag62
(g83
g64
NtRp3087
(dp3088
g67
(dp3089
sg76
g3074
sg69
(lp3090
g62
(g63
g64
NtRp3091
(dp3092
g67
(dp3093
g75
I3
ssg76
g3087
sg69
(lp3094
S''
asbasbasbag62
(g78
g64
NtRp3095
(dp3096
g67
(dp3097
sg76
g2881
sg69
(lp3098
g62
(g83
g64
NtRp3099
(dp3100
g67
(dp3101
g87
g88
ssg76
g3095
sg69
(lp3102
S'REMOTE_ADDR'
p3103
asbag62
(g83
g64
NtRp3104
(dp3105
g67
(dp3106
g94
g95
ssg76
g3095
sg69
(lp3107
S':'
asbag62
(g83
g64
NtRp3108
(dp3109
g67
(dp3110
sg76
g3095
sg69
(lp3111
g62
(g63
g64
NtRp3112
(dp3113
g67
(dp3114
g75
I3
ssg76
g3108
sg69
(lp3115
g230
asbasbasbag62
(g78
g64
NtRp3116
(dp3117
g67
(dp3118
sg76
g2881
sg69
(lp3119
g62
(g83
g64
NtRp3120
(dp3121
g67
(dp3122
g87
g88
ssg76
g3116
sg69
(lp3123
S'REMOTE_PORT'
p3124
asbag62
(g83
g64
NtRp3125
(dp3126
g67
(dp3127
g94
g95
ssg76
g3116
sg69
(lp3128
S':'
asbag62
(g83
g64
NtRp3129
(dp3130
g67
(dp3131
sg76
g3116
sg69
(lp3132
g62
(g63
g64
NtRp3133
(dp3134
g67
(dp3135
g75
I3
ssg76
g3129
sg69
(lp3136
g1700
asbasbasbag62
(g78
g64
NtRp3137
(dp3138
g67
(dp3139
sg76
g2881
sg69
(lp3140
g62
(g83
g64
NtRp3141
(dp3142
g67
(dp3143
g87
g88
ssg76
g3137
sg69
(lp3144
S'REQUEST_METHOD'
p3145
asbag62
(g83
g64
NtRp3146
(dp3147
g67
(dp3148
g94
g95
ssg76
g3137
sg69
(lp3149
S':'
asbag62
(g83
g64
NtRp3150
(dp3151
g67
(dp3152
sg76
g3137
sg69
(lp3153
g62
(g63
g64
NtRp3154
(dp3155
g67
(dp3156
g75
I3
ssg76
g3150
sg69
(lp3157
g1722
asbasbasbag62
(g78
g64
NtRp3158
(dp3159
g67
(dp3160
sg76
g2881
sg69
(lp3161
g62
(g83
g64
NtRp3162
(dp3163
g67
(dp3164
g87
g88
ssg76
g3158
sg69
(lp3165
S'REQUEST_URI'
p3166
asbag62
(g83
g64
NtRp3167
(dp3168
g67
(dp3169
g94
g95
ssg76
g3158
sg69
(lp3170
S':'
asbag62
(g83
g64
NtRp3171
(dp3172
g67
(dp3173
sg76
g3158
sg69
(lp3174
g62
(g63
g64
NtRp3175
(dp3176
g67
(dp3177
g75
I3
ssg76
g3171
sg69
(lp3178
g1636
asbasbasbag62
(g78
g64
NtRp3179
(dp3180
g67
(dp3181
sg76
g2881
sg69
(lp3182
g62
(g83
g64
NtRp3183
(dp3184
g67
(dp3185
g87
g88
ssg76
g3179
sg69
(lp3186
S'SCRIPT_NAME'
p3187
asbag62
(g83
g64
NtRp3188
(dp3189
g67
(dp3190
g94
g95
ssg76
g3179
sg69
(lp3191
S':'
asbag62
(g83
g64
NtRp3192
(dp3193
g67
(dp3194
sg76
g3179
sg69
(lp3195
g62
(g63
g64
NtRp3196
(dp3197
g67
(dp3198
g75
I3
ssg76
g3192
sg69
(lp3199
S''
asbasbasbag62
(g78
g64
NtRp3200
(dp3201
g67
(dp3202
sg76
g2881
sg69
(lp3203
g62
(g83
g64
NtRp3204
(dp3205
g67
(dp3206
g87
g88
ssg76
g3200
sg69
(lp3207
S'SERVER_NAME'
p3208
asbag62
(g83
g64
NtRp3209
(dp3210
g67
(dp3211
g94
g95
ssg76
g3200
sg69
(lp3212
S':'
asbag62
(g83
g64
NtRp3213
(dp3214
g67
(dp3215
sg76
g3200
sg69
(lp3216
g62
(g63
g64
NtRp3217
(dp3218
g67
(dp3219
g75
I3
ssg76
g3213
sg69
(lp3220
g1786
asbasbasbag62
(g78
g64
NtRp3221
(dp3222
g67
(dp3223
sg76
g2881
sg69
(lp3224
g62
(g83
g64
NtRp3225
(dp3226
g67
(dp3227
g87
g88
ssg76
g3221
sg69
(lp3228
S'SERVER_PORT'
p3229
asbag62
(g83
g64
NtRp3230
(dp3231
g67
(dp3232
g94
g95
ssg76
g3221
sg69
(lp3233
S':'
asbag62
(g83
g64
NtRp3234
(dp3235
g67
(dp3236
sg76
g3221
sg69
(lp3237
g62
(g63
g64
NtRp3238
(dp3239
g67
(dp3240
g75
I3
ssg76
g3234
sg69
(lp3241
g1808
asbasbasbag62
(g78
g64
NtRp3242
(dp3243
g67
(dp3244
sg76
g2881
sg69
(lp3245
g62
(g83
g64
NtRp3246
(dp3247
g67
(dp3248
g87
g88
ssg76
g3242
sg69
(lp3249
S'SERVER_PROTOCOL'
p3250
asbag62
(g83
g64
NtRp3251
(dp3252
g67
(dp3253
g94
g95
ssg76
g3242
sg69
(lp3254
S':'
asbag62
(g83
g64
NtRp3255
(dp3256
g67
(dp3257
sg76
g3242
sg69
(lp3258
g62
(g63
g64
NtRp3259
(dp3260
g67
(dp3261
g75
I3
ssg76
g3255
sg69
(lp3262
g1830
asbasbasbag62
(g78
g64
NtRp3263
(dp3264
g67
(dp3265
sg76
g2881
sg69
(lp3266
g62
(g83
g64
NtRp3267
(dp3268
g67
(dp3269
g87
g88
ssg76
g3263
sg69
(lp3270
S'SERVER_SOFTWARE'
p3271
asbag62
(g83
g64
NtRp3272
(dp3273
g67
(dp3274
g94
g95
ssg76
g3263
sg69
(lp3275
S':'
asbag62
(g83
g64
NtRp3276
(dp3277
g67
(dp3278
sg76
g3263
sg69
(lp3279
g62
(g63
g64
NtRp3280
(dp3281
g67
(dp3282
g75
I3
ssg76
g3276
sg69
(lp3283
g1852
asbasbasbag62
(g78
g64
NtRp3284
(dp3285
g67
(dp3286
sg76
g2881
sg69
(lp3287
g62
(g83
g64
NtRp3288
(dp3289
g67
(dp3290
g87
g88
ssg76
g3284
sg69
(lp3291
S'wsgi.errors'
p3292
asbag62
(g83
g64
NtRp3293
(dp3294
g67
(dp3295
g94
g95
ssg76
g3284
sg69
(lp3296
S':'
asbag62
(g83
g64
NtRp3297
(dp3298
g67
(dp3299
sg76
g3284
sg69
(lp3300
g62
(g63
g64
NtRp3301
(dp3302
g67
(dp3303
g75
I3
ssg76
g3297
sg69
(lp3304
S"<open file '<stderr>', mode 'w' at 0x7ffba3228270>"
p3305
asbasbasbag62
(g78
g64
NtRp3306
(dp3307
g67
(dp3308
sg76
g2881
sg69
(lp3309
g62
(g83
g64
NtRp3310
(dp3311
g67
(dp3312
g87
g88
ssg76
g3306
sg69
(lp3313
S'wsgi.file_wrapper'
p3314
asbag62
(g83
g64
NtRp3315
(dp3316
g67
(dp3317
g94
g95
ssg76
g3306
sg69
(lp3318
S':'
asbag62
(g83
g64
NtRp3319
(dp3320
g67
(dp3321
sg76
g3306
sg69
(lp3322
g62
(g63
g64
NtRp3323
(dp3324
g67
(dp3325
g75
I3
ssg76
g3319
sg69
(lp3326
S'<class wsgiref.util.FileWrapper at 0x25bf120>'
p3327
asbasbasbag62
(g78
g64
NtRp3328
(dp3329
g67
(dp3330
sg76
g2881
sg69
(lp3331
g62
(g83
g64
NtRp3332
(dp3333
g67
(dp3334
g87
g88
ssg76
g3328
sg69
(lp3335
S'wsgi.input'
p3336
asbag62
(g83
g64
NtRp3337
(dp3338
g67
(dp3339
g94
g95
ssg76
g3328
sg69
(lp3340
S':'
asbag62
(g83
g64
NtRp3341
(dp3342
g67
(dp3343
sg76
g3328
sg69
(lp3344
g62
(g63
g64
NtRp3345
(dp3346
g67
(dp3347
g75
I3
ssg76
g3341
sg69
(lp3348
S'<cStringIO.StringO object at 0x7ffb5c266fb8>'
p3349
asbasbasbag62
(g78
g64
NtRp3350
(dp3351
g67
(dp3352
sg76
g2881
sg69
(lp3353
g62
(g83
g64
NtRp3354
(dp3355
g67
(dp3356
g87
g88
ssg76
g3350
sg69
(lp3357
S'wsgi.multiprocess'
p3358
asbag62
(g83
g64
NtRp3359
(dp3360
g67
(dp3361
g94
g95
ssg76
g3350
sg69
(lp3362
S':'
asbag62
(g83
g64
NtRp3363
(dp3364
g67
(dp3365
sg76
g3350
sg69
(lp3366
g62
(g63
g64
NtRp3367
(dp3368
g67
(dp3369
g75
I3
ssg76
g3363
sg69
(lp3370
g105
asbasbasbag62
(g78
g64
NtRp3371
(dp3372
g67
(dp3373
sg76
g2881
sg69
(lp3374
g62
(g83
g64
NtRp3375
(dp3376
g67
(dp3377
g87
g88
ssg76
g3371
sg69
(lp3378
S'wsgi.multithread'
p3379
asbag62
(g83
g64
NtRp3380
(dp3381
g67
(dp3382
g94
g95
ssg76
g3371
sg69
(lp3383
S':'
asbag62
(g83
g64
NtRp3384
(dp3385
g67
(dp3386
sg76
g3371
sg69
(lp3387
g62
(g63
g64
NtRp3388
(dp3389
g67
(dp3390
g75
I3
ssg76
g3384
sg69
(lp3391
g2091
asbasbasbag62
(g78
g64
NtRp3392
(dp3393
g67
(dp3394
sg76
g2881
sg69
(lp3395
g62
(g83
g64
NtRp3396
(dp3397
g67
(dp3398
g87
g88
ssg76
g3392
sg69
(lp3399
S'wsgi.run_once'
p3400
asbag62
(g83
g64
NtRp3401
(dp3402
g67
(dp3403
g94
g95
ssg76
g3392
sg69
(lp3404
S':'
asbag62
(g83
g64
NtRp3405
(dp3406
g67
(dp3407
sg76
g3392
sg69
(lp3408
g62
(g63
g64
NtRp3409
(dp3410
g67
(dp3411
g75
I3
ssg76
g3405
sg69
(lp3412
g105
asbasbasbag62
(g78
g64
NtRp3413
(dp3414
g67
(dp3415
sg76
g2881
sg69
(lp3416
g62
(g83
g64
NtRp3417
(dp3418
g67
(dp3419
g87
g88
ssg76
g3413
sg69
(lp3420
S'wsgi.url_scheme'
p3421
asbag62
(g83
g64
NtRp3422
(dp3423
g67
(dp3424
g94
g95
ssg76
g3413
sg69
(lp3425
S':'
asbag62
(g83
g64
NtRp3426
(dp3427
g67
(dp3428
sg76
g3413
sg69
(lp3429
g62
(g63
g64
NtRp3430
(dp3431
g67
(dp3432
g75
I3
ssg76
g3426
sg69
(lp3433
g2134
asbasbasbag62
(g78
g64
NtRp3434
(dp3435
g67
(dp3436
sg76
g2881
sg69
(lp3437
g62
(g83
g64
NtRp3438
(dp3439
g67
(dp3440
g87
g88
ssg76
g3434
sg69
(lp3441
S'wsgi.version'
p3442
asbag62
(g83
g64
NtRp3443
(dp3444
g67
(dp3445
g94
g95
ssg76
g3434
sg69
(lp3446
S':'
asbag62
(g83
g64
NtRp3447
(dp3448
g67
(dp3449
sg76
g3434
sg69
(lp3450
g62
(g63
g64
NtRp3451
(dp3452
g67
(dp3453
g75
I3
ssg76
g3447
sg69
(lp3454
S'1'
asbasbasbasbasbasbasbasbasbasbasbasbasbsS'frames'
p3455
(lp3456
(dp3457
S'file'
p3458
S'/home/mayank/IIIT/sem 3/SSAD&Project/web2py/gluon/restricted.py'
p3459
sS'dump'
p3460
(dp3461
S'environment'
p3462
S"{'A': <class 'gluon.html.A'>, 'ALLOW_TOGGLE': 'true', 'A_button': <function A_button>, 'B': <class 'gluon.html.B'>, 'BEAUTIFY': <class 'gluon.html.BEAUTIFY'>, 'BODY': <class 'gluon.html.BODY'>, 'BR': <class 'gluon.html.BR'>, 'BUTTON': <class 'gluon.html.BUTTON'>, 'CAT': <class 'gluon.html.CAT'>, 'CENTER': <class 'gluon.html.CENTER'>, ...}"
p3463
sS'ccode'
p3464
S'<code object <module> at 0x7ffb702d2230, file "/...plications/admin/controllers/default.py", line 3>'
p3465
ssS'lnum'
p3466
I209
sS'lines'
p3467
(dp3468
I204
S'    try:'
p3469
sI205
S'        if type(code) == types.CodeType:'
p3470
sI206
S'            ccode = code'
p3471
sI207
S'        else:'
p3472
sI208
S'            ccode = compile2(code,layer)'
p3473
sI209
S'        exec ccode in environment'
p3474
sI210
S'    except HTTP:'
p3475
sI211
S'        raise'
p3476
sI212
S'    except RestrictedError:'
p3477
sI213
S'        # do not encapsulate (obfuscate) the original RestrictedError'
p3478
ssS'call'
p3479
S"(code='# coding: utf8\\n\\nEXPERIMENTAL_STUFF = True\\n\\nif EX...=form)\\n\\n\\nresponse._vars=response._caller(design)\\n', environment={'A': <class 'gluon.html.A'>, 'ALLOW_TOGGLE': 'true', 'A_button': <function A_button>, 'B': <class 'gluon.html.B'>, 'BEAUTIFY': <class 'gluon.html.BEAUTIFY'>, 'BODY': <class 'gluon.html.BODY'>, 'BR': <class 'gluon.html.BR'>, 'BUTTON': <class 'gluon.html.BUTTON'>, 'CAT': <class 'gluon.html.CAT'>, 'CENTER': <class 'gluon.html.CENTER'>, ...}, layer='/home/mayank/IIIT/sem 3/SSAD&Project/web2py/applications/admin/controllers/default.py')"
p3480
sS'func'
p3481
S'restricted'
p3482
sa(dp3483
g3458
S'/home/mayank/IIIT/sem 3/SSAD&Project/web2py/applications/admin/controllers/default.py'
p3484
sg3460
(dp3485
sg3466
I1726
sg3467
(dp3486
I1715
S"            redirect(URL('site'))"
p3487
sI1716
S'        except UnmergedEntriesError:'
p3488
sI1717
S'            session.flash = T("Push failed, there are unmerged entries in the cache. Resolve merge issues manually and try again.")'
p3489
sI1718
S"            redirect(URL('site'))"
p3490
sI1719
S'        except Exception, e:'
p3491
sI1720
S'            logging.error("Unexpected error:", sys.exc_info()[0])'
p3492
sI1721
S'            session.flash = T("Push failed, git exited abnormally. See logs for details.")'
p3493
sI1722
S"            redirect(URL('site'))"
p3494
sI1723
S'    return dict(app=app,form=form)'
p3495
sI1724
S''
ssg3479
S'()'
p3496
sg3481
S'<module>'
p3497
sa(dp3498
g3458
S'/home/mayank/IIIT/sem 3/SSAD&Project/web2py/gluon/globals.py'
p3499
sg3460
(dp3500
S'self'
p3501
S'undefined'
p3502
sS'f'
S'<function design>'
p3503
ssg3466
I185
sg3467
(dp3504
I180
S'        self.menu = []             # used by the default view layout'
p3505
sI181
S'        self.files = []            # used by web2py_ajax.html'
p3506
sI182
S'        self.generic_patterns = [] # patterns to allow generic views'
p3507
sI183
S"        self.delimiters = ('{{','}}')"
p3508
sI184
S'        self._vars = None'
p3509
sI185
S'        self._caller = lambda f: f()'
p3510
sI186
S'        self._view_environment = None'
p3511
sI187
S'        self._custom_commit = None'
p3512
sI188
S'        self._custom_rollback = None'
p3513
sI189
S''
ssg3479
S'(f=<function design>)'
p3514
sg3481
S'<lambda>'
p3515
sa(dp3516
g3458
S'/home/mayank/IIIT/sem 3/SSAD&Project/web2py/applications/admin/controllers/default.py'
p3517
sg3460
(dp3518
S'global request'
p3519
S"<Storage {'function': 'design', 'body': <cString...applications/admin/', 'post_vars': <Storage {}>}>"
p3520
sS'global read_possible_languages'
p3521
S'<function read_possible_languages>'
p3522
sS'app'
p3523
S"'project'"
p3524
sS'r'
g3502
sS'global apath'
p3525
S'<function apath>'
p3526
sS').iteritems'
p3527
S'<built-in method iteritems of Request object>'
p3528
ssg3466
I953
sg3467
(dp3529
I948
S"    statics = [x.replace('\\\\','/') for x in statics]"
p3530
sI949
S'    statics.sort()'
p3531
sI950
S''
sI951
S'    # Get all languages'
p3532
sI952
S"    all_languages=dict([(lang+'.py',info[0]) for lang,info"
p3533
sI953
S'                        in read_possible_languages(apath(app, r=request)).iteritems()'
p3534
sI954
S'                        if info[2]!=0]) # info[2] is langfile_mtime:'
p3535
sI955
S'                                        # get only existed files'
p3536
sI956
S'    languages = sorted(all_languages)'
p3537
sI957
S''
ssg3479
S'()'
p3538
sg3481
S'design'
p3539
sa(dp3540
g3458
S'/home/mayank/IIIT/sem 3/SSAD&Project/web2py/gluon/languages.py'
p3541
sg3460
(dp3542
S'os.listdir'
p3543
S'<built-in function listdir>'
p3544
sS'global os'
p3545
S"<module 'os' from '/usr/lib/python2.7/os.pyc'>"
p3546
sS'langdir'
p3547
S"'/home/mayank/IIIT/sem 3/SSAD&Project/web2py/applications/project/languages'"
p3548
sS'filename'
p3549
g3502
ssg3466
I209
sg3467
(dp3550
I204
S''
sI205
S'def read_possible_languages(appdir):'
p3551
sI206
S'    langs = {}'
p3552
sI207
S'    # scan languages directory for langfiles:'
p3553
sI208
S"    langdir = ospath.join(appdir,'languages')"
p3554
sI209
S'    for filename in os.listdir(langdir):'
p3555
sI210
S"        if regex_langfile.match(filename) or filename=='default.py':"
p3556
sI211
S'            lang = filename[:-3]'
p3557
sI212
S'            langs[lang] = get_lang_info(lang, langdir)'
p3558
sI213
S"    if not 'en' in langs:"
p3559
ssg3479
S"(appdir='/home/mayank/IIIT/sem 3/SSAD&Project/web2py/applications/project')"
p3560
sg3481
S'read_possible_languages'
p3561
sasS'pyver'
p3562
S'Python 2.7.3: /usr/bin/python'
p3563
sS'session'
p3564
g62
(g63
g64
NtRp3565
(dp3566
g67
(dp3567
sg69
(lp3568
g62
(g71
g64
NtRp3569
(dp3570
g67
(dp3571
g75
I5
ssg76
Nsg69
(lp3572
g62
(g78
g64
NtRp3573
(dp3574
g67
(dp3575
sg76
g3569
sg69
(lp3576
g62
(g83
g64
NtRp3577
(dp3578
g67
(dp3579
g87
g88
ssg76
g3573
sg69
(lp3580
S'authorized'
p3581
asbag62
(g83
g64
NtRp3582
(dp3583
g67
(dp3584
g94
g95
ssg76
g3573
sg69
(lp3585
S':'
asbag62
(g83
g64
NtRp3586
(dp3587
g67
(dp3588
sg76
g3573
sg69
(lp3589
g62
(g63
g64
NtRp3590
(dp3591
g67
(dp3592
g75
I5
ssg76
g3586
sg69
(lp3593
g2091
asbasbasbag62
(g78
g64
NtRp3594
(dp3595
g67
(dp3596
sg76
g3569
sg69
(lp3597
g62
(g83
g64
NtRp3598
(dp3599
g67
(dp3600
g87
g88
ssg76
g3594
sg69
(lp3601
S'check_version'
p3602
asbag62
(g83
g64
NtRp3603
(dp3604
g67
(dp3605
g94
g95
ssg76
g3594
sg69
(lp3606
S':'
asbag62
(g83
g64
NtRp3607
(dp3608
g67
(dp3609
sg76
g3594
sg69
(lp3610
g62
(g63
g64
NtRp3611
(dp3612
g67
(dp3613
g75
I5
ssg76
g3607
sg69
(lp3614
g105
asbasbasbag62
(g78
g64
NtRp3615
(dp3616
g67
(dp3617
sg76
g3569
sg69
(lp3618
g62
(g83
g64
NtRp3619
(dp3620
g67
(dp3621
g87
g88
ssg76
g3615
sg69
(lp3622
S'flash'
p3623
asbag62
(g83
g64
NtRp3624
(dp3625
g67
(dp3626
g94
g95
ssg76
g3615
sg69
(lp3627
S':'
asbag62
(g83
g64
NtRp3628
(dp3629
g67
(dp3630
sg76
g3615
sg69
(lp3631
g62
(g63
g64
NtRp3632
(dp3633
g67
(dp3634
g75
I5
ssg76
g3628
sg69
(lp3635
S'None'
p3636
asbasbasbag62
(g78
g64
NtRp3637
(dp3638
g67
(dp3639
sg76
g3569
sg69
(lp3640
g62
(g83
g64
NtRp3641
(dp3642
g67
(dp3643
g87
g88
ssg76
g3637
sg69
(lp3644
S'last_time'
p3645
asbag62
(g83
g64
NtRp3646
(dp3647
g67
(dp3648
g94
g95
ssg76
g3637
sg69
(lp3649
S':'
asbag62
(g83
g64
NtRp3650
(dp3651
g67
(dp3652
sg76
g3637
sg69
(lp3653
g62
(g63
g64
NtRp3654
(dp3655
g67
(dp3656
g75
I5
ssg76
g3650
sg69
(lp3657
S'1350033473.983932'
p3658
asbasbasbag62
(g78
g64
NtRp3659
(dp3660
g67
(dp3661
sg76
g3569
sg69
(lp3662
g62
(g83
g64
NtRp3663
(dp3664
g67
(dp3665
g87
g88
ssg76
g3659
sg69
(lp3666
S'pam_user'
p3667
asbag62
(g83
g64
NtRp3668
(dp3669
g67
(dp3670
g94
g95
ssg76
g3659
sg69
(lp3671
S':'
asbag62
(g83
g64
NtRp3672
(dp3673
g67
(dp3674
sg76
g3659
sg69
(lp3675
g62
(g63
g64
NtRp3676
(dp3677
g67
(dp3678
g75
I5
ssg76
g3672
sg69
(lp3679
S'None'
p3680
asbasbasbag62
(g78
g64
NtRp3681
(dp3682
g67
(dp3683
sg76
g3569
sg69
(lp3684
g62
(g83
g64
NtRp3685
(dp3686
g67
(dp3687
g87
g88
ssg76
g3681
sg69
(lp3688
S'token'
p3689
asbag62
(g83
g64
NtRp3690
(dp3691
g67
(dp3692
g94
g95
ssg76
g3681
sg69
(lp3693
S':'
asbag62
(g83
g64
NtRp3694
(dp3695
g67
(dp3696
sg76
g3681
sg69
(lp3697
g62
(g63
g64
NtRp3698
(dp3699
g67
(dp3700
g75
I5
ssg76
g3694
sg69
(lp3701
S'36b2d4e1-1d00-4699-a259-ae21aea31ddf'
p3702
asbasbasbasbasbsS'etype'
p3703
S"<type 'exceptions.OSError'>"
p3704
sS'date'
p3705
S'Fri Oct 12 14:47:54 2012'
p3706
sS'response'
p3707
g62
(g63
g64
NtRp3708
(dp3709
g67
(dp3710
sg69
(lp3711
g62
(g71
g64
NtRp3712
(dp3713
g67
(dp3714
g75
I5
ssg76
Nsg69
(lp3715
g62
(g78
g64
NtRp3716
(dp3717
g67
(dp3718
sg76
g3712
sg69
(lp3719
g62
(g83
g64
NtRp3720
(dp3721
g67
(dp3722
g87
g88
ssg76
g3716
sg69
(lp3723
g173
asbag62
(g83
g64
NtRp3724
(dp3725
g67
(dp3726
g94
g95
ssg76
g3716
sg69
(lp3727
S':'
asbag62
(g83
g64
NtRp3728
(dp3729
g67
(dp3730
sg76
g3716
sg69
(lp3731
g62
(g63
g64
NtRp3732
(dp3733
g67
(dp3734
g75
I5
ssg76
g3728
sg69
(lp3735
S'<cStringIO.StringO object at 0x7ffb84194f10>'
p3736
asbasbasbag62
(g78
g64
NtRp3737
(dp3738
g67
(dp3739
sg76
g3712
sg69
(lp3740
g62
(g83
g64
NtRp3741
(dp3742
g67
(dp3743
g87
g88
ssg76
g3737
sg69
(lp3744
g261
asbag62
(g83
g64
NtRp3745
(dp3746
g67
(dp3747
g94
g95
ssg76
g3737
sg69
(lp3748
S':'
asbag62
(g83
g64
NtRp3749
(dp3750
g67
(dp3751
sg76
g3737
sg69
(lp3752
g62
(g63
g64
NtRp3753
(dp3754
g67
(dp3755
g75
I5
ssg76
g3749
sg69
(lp3756
g62
(g71
g64
NtRp3757
(dp3758
g67
(dp3759
g75
I4
ssg76
Nsg69
(lp3760
g62
(g78
g64
NtRp3761
(dp3762
g67
(dp3763
sg76
g3757
sg69
(lp3764
g62
(g83
g64
NtRp3765
(dp3766
g67
(dp3767
g87
g88
ssg76
g3761
sg69
(lp3768
S'session_id_admin'
p3769
asbag62
(g83
g64
NtRp3770
(dp3771
g67
(dp3772
g94
g95
ssg76
g3761
sg69
(lp3773
S':'
asbag62
(g83
g64
NtRp3774
(dp3775
g67
(dp3776
sg76
g3761
sg69
(lp3777
g62
(g63
g64
NtRp3778
(dp3779
g67
(dp3780
g75
I4
ssg76
g3774
sg69
(lp3781
g299
ag62
(g71
g64
NtRp3782
(dp3783
g67
(dp3784
g75
I3
ssg76
Nsg69
(lp3785
g62
(g78
g64
NtRp3786
(dp3787
g67
(dp3788
sg76
g3782
sg69
(lp3789
g62
(g83
g64
NtRp3790
(dp3791
g67
(dp3792
g87
g88
ssg76
g3786
sg69
(lp3793
g312
asbag62
(g83
g64
NtRp3794
(dp3795
g67
(dp3796
g94
g95
ssg76
g3786
sg69
(lp3797
S':'
asbag62
(g83
g64
NtRp3798
(dp3799
g67
(dp3800
sg76
g3786
sg69
(lp3801
g62
(g63
g64
NtRp3802
(dp3803
g67
(dp3804
g75
I3
ssg76
g3798
sg69
(lp3805
S''
asbasbasbag62
(g78
g64
NtRp3806
(dp3807
g67
(dp3808
sg76
g3782
sg69
(lp3809
g62
(g83
g64
NtRp3810
(dp3811
g67
(dp3812
g87
g88
ssg76
g3806
sg69
(lp3813
g333
asbag62
(g83
g64
NtRp3814
(dp3815
g67
(dp3816
g94
g95
ssg76
g3806
sg69
(lp3817
S':'
asbag62
(g83
g64
NtRp3818
(dp3819
g67
(dp3820
sg76
g3806
sg69
(lp3821
g62
(g63
g64
NtRp3822
(dp3823
g67
(dp3824
g75
I3
ssg76
g3818
sg69
(lp3825
S''
asbasbasbag62
(g78
g64
NtRp3826
(dp3827
g67
(dp3828
sg76
g3782
sg69
(lp3829
g62
(g83
g64
NtRp3830
(dp3831
g67
(dp3832
g87
g88
ssg76
g3826
sg69
(lp3833
g354
asbag62
(g83
g64
NtRp3834
(dp3835
g67
(dp3836
g94
g95
ssg76
g3826
sg69
(lp3837
S':'
asbag62
(g83
g64
NtRp3838
(dp3839
g67
(dp3840
sg76
g3826
sg69
(lp3841
g62
(g63
g64
NtRp3842
(dp3843
g67
(dp3844
g75
I3
ssg76
g3838
sg69
(lp3845
S''
asbasbasbag62
(g78
g64
NtRp3846
(dp3847
g67
(dp3848
sg76
g3782
sg69
(lp3849
g62
(g83
g64
NtRp3850
(dp3851
g67
(dp3852
g87
g88
ssg76
g3846
sg69
(lp3853
g375
asbag62
(g83
g64
NtRp3854
(dp3855
g67
(dp3856
g94
g95
ssg76
g3846
sg69
(lp3857
S':'
asbag62
(g83
g64
NtRp3858
(dp3859
g67
(dp3860
sg76
g3846
sg69
(lp3861
g62
(g63
g64
NtRp3862
(dp3863
g67
(dp3864
g75
I3
ssg76
g3858
sg69
(lp3865
S''
asbasbasbag62
(g78
g64
NtRp3866
(dp3867
g67
(dp3868
sg76
g3782
sg69
(lp3869
g62
(g83
g64
NtRp3870
(dp3871
g67
(dp3872
g87
g88
ssg76
g3866
sg69
(lp3873
g396
asbag62
(g83
g64
NtRp3874
(dp3875
g67
(dp3876
g94
g95
ssg76
g3866
sg69
(lp3877
S':'
asbag62
(g83
g64
NtRp3878
(dp3879
g67
(dp3880
sg76
g3866
sg69
(lp3881
g62
(g63
g64
NtRp3882
(dp3883
g67
(dp3884
g75
I3
ssg76
g3878
sg69
(lp3885
S''
asbasbasbag62
(g78
g64
NtRp3886
(dp3887
g67
(dp3888
sg76
g3782
sg69
(lp3889
g62
(g83
g64
NtRp3890
(dp3891
g67
(dp3892
g87
g88
ssg76
g3886
sg69
(lp3893
g417
asbag62
(g83
g64
NtRp3894
(dp3895
g67
(dp3896
g94
g95
ssg76
g3886
sg69
(lp3897
S':'
asbag62
(g83
g64
NtRp3898
(dp3899
g67
(dp3900
sg76
g3886
sg69
(lp3901
g62
(g63
g64
NtRp3902
(dp3903
g67
(dp3904
g75
I3
ssg76
g3898
sg69
(lp3905
S'/'
asbasbasbag62
(g78
g64
NtRp3906
(dp3907
g67
(dp3908
sg76
g3782
sg69
(lp3909
g62
(g83
g64
NtRp3910
(dp3911
g67
(dp3912
g87
g88
ssg76
g3906
sg69
(lp3913
g438
asbag62
(g83
g64
NtRp3914
(dp3915
g67
(dp3916
g94
g95
ssg76
g3906
sg69
(lp3917
S':'
asbag62
(g83
g64
NtRp3918
(dp3919
g67
(dp3920
sg76
g3906
sg69
(lp3921
g62
(g63
g64
NtRp3922
(dp3923
g67
(dp3924
g75
I3
ssg76
g3918
sg69
(lp3925
S''
asbasbasbag62
(g78
g64
NtRp3926
(dp3927
g67
(dp3928
sg76
g3782
sg69
(lp3929
g62
(g83
g64
NtRp3930
(dp3931
g67
(dp3932
g87
g88
ssg76
g3926
sg69
(lp3933
g459
asbag62
(g83
g64
NtRp3934
(dp3935
g67
(dp3936
g94
g95
ssg76
g3926
sg69
(lp3937
S':'
asbag62
(g83
g64
NtRp3938
(dp3939
g67
(dp3940
sg76
g3926
sg69
(lp3941
g62
(g63
g64
NtRp3942
(dp3943
g67
(dp3944
g75
I3
ssg76
g3938
sg69
(lp3945
S''
asbasbasbasbasbasbasbasbasbasbasbag62
(g78
g64
NtRp3946
(dp3947
g67
(dp3948
sg76
g3712
sg69
(lp3949
g62
(g83
g64
NtRp3950
(dp3951
g67
(dp3952
g87
g88
ssg76
g3946
sg69
(lp3953
S'delimiters'
p3954
asbag62
(g83
g64
NtRp3955
(dp3956
g67
(dp3957
g94
g95
ssg76
g3946
sg69
(lp3958
S':'
asbag62
(g83
g64
NtRp3959
(dp3960
g67
(dp3961
sg76
g3946
sg69
(lp3962
g62
(g63
g64
NtRp3963
(dp3964
g67
(dp3965
g75
I5
ssg76
g3959
sg69
(lp3966
g62
(g71
g64
NtRp3967
(dp3968
g67
(dp3969
g75
I4
ssg76
Nsg69
(lp3970
g62
(g78
g64
NtRp3971
(dp3972
g67
(dp3973
sg76
g3967
sg69
(lp3974
g62
(g83
g64
NtRp3975
(dp3976
g67
(dp3977
sg76
g3971
sg69
(lp3978
g62
(g63
g64
NtRp3979
(dp3980
g67
(dp3981
g75
I4
ssg76
g3975
sg69
(lp3982
S'{{'
p3983
asbasbasbag62
(g78
g64
NtRp3984
(dp3985
g67
(dp3986
sg76
g3967
sg69
(lp3987
g62
(g83
g64
NtRp3988
(dp3989
g67
(dp3990
sg76
g3984
sg69
(lp3991
g62
(g63
g64
NtRp3992
(dp3993
g67
(dp3994
g75
I4
ssg76
g3988
sg69
(lp3995
S'}}'
p3996
asbasbasbasbasbasbasbag62
(g78
g64
NtRp3997
(dp3998
g67
(dp3999
sg76
g3712
sg69
(lp4000
g62
(g83
g64
NtRp4001
(dp4002
g67
(dp4003
g87
g88
ssg76
g3997
sg69
(lp4004
S'files'
p4005
asbag62
(g83
g64
NtRp4006
(dp4007
g67
(dp4008
g94
g95
ssg76
g3997
sg69
(lp4009
S':'
asbag62
(g83
g64
NtRp4010
(dp4011
g67
(dp4012
sg76
g3997
sg69
(lp4013
g62
(g63
g64
NtRp4014
(dp4015
g67
(dp4016
g75
I5
ssg76
g4010
sg69
(lp4017
g62
(g71
g64
NtRp4018
(dp4019
g67
(dp4020
g75
I4
ssg76
Nsg69
(lp4021
g62
(g78
g64
NtRp4022
(dp4023
g67
(dp4024
sg76
g4018
sg69
(lp4025
g62
(g83
g64
NtRp4026
(dp4027
g67
(dp4028
sg76
g4022
sg69
(lp4029
g62
(g63
g64
NtRp4030
(dp4031
g67
(dp4032
g75
I4
ssg76
g4026
sg69
(lp4033
S'/admin/static/plugin_multiselect/jquery.dimensions.js'
p4034
asbasbasbag62
(g78
g64
NtRp4035
(dp4036
g67
(dp4037
sg76
g4018
sg69
(lp4038
g62
(g83
g64
NtRp4039
(dp4040
g67
(dp4041
sg76
g4035
sg69
(lp4042
g62
(g63
g64
NtRp4043
(dp4044
g67
(dp4045
g75
I4
ssg76
g4039
sg69
(lp4046
S'/admin/static/plugin_multiselect/jquery.multiselect.js'
p4047
asbasbasbag62
(g78
g64
NtRp4048
(dp4049
g67
(dp4050
sg76
g4018
sg69
(lp4051
g62
(g83
g64
NtRp4052
(dp4053
g67
(dp4054
sg76
g4048
sg69
(lp4055
g62
(g63
g64
NtRp4056
(dp4057
g67
(dp4058
g75
I4
ssg76
g4052
sg69
(lp4059
S'/admin/static/plugin_multiselect/jquery.multiselect.css'
p4060
asbasbasbag62
(g78
g64
NtRp4061
(dp4062
g67
(dp4063
sg76
g4018
sg69
(lp4064
g62
(g83
g64
NtRp4065
(dp4066
g67
(dp4067
sg76
g4061
sg69
(lp4068
g62
(g63
g64
NtRp4069
(dp4070
g67
(dp4071
g75
I4
ssg76
g4065
sg69
(lp4072
S'/admin/static/plugin_multiselect/start.js'
p4073
asbasbasbasbasbasbasbag62
(g78
g64
NtRp4074
(dp4075
g67
(dp4076
sg76
g3712
sg69
(lp4077
g62
(g83
g64
NtRp4078
(dp4079
g67
(dp4080
g87
g88
ssg76
g4074
sg69
(lp4081
S'flash'
p4082
asbag62
(g83
g64
NtRp4083
(dp4084
g67
(dp4085
g94
g95
ssg76
g4074
sg69
(lp4086
S':'
asbag62
(g83
g64
NtRp4087
(dp4088
g67
(dp4089
sg76
g4074
sg69
(lp4090
g62
(g63
g64
NtRp4091
(dp4092
g67
(dp4093
g75
I5
ssg76
g4087
sg69
(lp4094
S''
asbasbasbag62
(g78
g64
NtRp4095
(dp4096
g67
(dp4097
sg76
g3712
sg69
(lp4098
g62
(g83
g64
NtRp4099
(dp4100
g67
(dp4101
g87
g88
ssg76
g4095
sg69
(lp4102
S'generic_patterns'
p4103
asbag62
(g83
g64
NtRp4104
(dp4105
g67
(dp4106
g94
g95
ssg76
g4095
sg69
(lp4107
S':'
asbag62
(g83
g64
NtRp4108
(dp4109
g67
(dp4110
sg76
g4095
sg69
(lp4111
g62
(g63
g64
NtRp4112
(dp4113
g67
(dp4114
g75
I5
ssg76
g4108
sg69
(lp4115
g62
(g71
g64
NtRp4116
(dp4117
g67
(dp4118
g75
I4
ssg76
Nsg69
(lp4119
sbasbasbasbag62
(g78
g64
NtRp4120
(dp4121
g67
(dp4122
sg76
g3712
sg69
(lp4123
g62
(g83
g64
NtRp4124
(dp4125
g67
(dp4126
g87
g88
ssg76
g4120
sg69
(lp4127
S'headers'
p4128
asbag62
(g83
g64
NtRp4129
(dp4130
g67
(dp4131
g94
g95
ssg76
g4120
sg69
(lp4132
S':'
asbag62
(g83
g64
NtRp4133
(dp4134
g67
(dp4135
sg76
g4120
sg69
(lp4136
g62
(g63
g64
NtRp4137
(dp4138
g67
(dp4139
g75
I5
ssg76
g4133
sg69
(lp4140
g62
(g71
g64
NtRp4141
(dp4142
g67
(dp4143
g75
I4
ssg76
Nsg69
(lp4144
g62
(g78
g64
NtRp4145
(dp4146
g67
(dp4147
sg76
g4141
sg69
(lp4148
g62
(g83
g64
NtRp4149
(dp4150
g67
(dp4151
g87
g88
ssg76
g4145
sg69
(lp4152
S'Cache-Control'
p4153
asbag62
(g83
g64
NtRp4154
(dp4155
g67
(dp4156
g94
g95
ssg76
g4145
sg69
(lp4157
S':'
asbag62
(g83
g64
NtRp4158
(dp4159
g67
(dp4160
sg76
g4145
sg69
(lp4161
g62
(g63
g64
NtRp4162
(dp4163
g67
(dp4164
g75
I4
ssg76
g4158
sg69
(lp4165
S'no-store, no-cache, must-revalidate, post-check=0, pre-check=0'
p4166
asbasbasbag62
(g78
g64
NtRp4167
(dp4168
g67
(dp4169
sg76
g4141
sg69
(lp4170
g62
(g83
g64
NtRp4171
(dp4172
g67
(dp4173
g87
g88
ssg76
g4167
sg69
(lp4174
S'Content-Type'
p4175
asbag62
(g83
g64
NtRp4176
(dp4177
g67
(dp4178
g94
g95
ssg76
g4167
sg69
(lp4179
S':'
asbag62
(g83
g64
NtRp4180
(dp4181
g67
(dp4182
sg76
g4167
sg69
(lp4183
g62
(g63
g64
NtRp4184
(dp4185
g67
(dp4186
g75
I4
ssg76
g4180
sg69
(lp4187
S'text/html; charset=utf-8'
p4188
asbasbasbag62
(g78
g64
NtRp4189
(dp4190
g67
(dp4191
sg76
g4141
sg69
(lp4192
g62
(g83
g64
NtRp4193
(dp4194
g67
(dp4195
g87
g88
ssg76
g4189
sg69
(lp4196
S'Expires'
p4197
asbag62
(g83
g64
NtRp4198
(dp4199
g67
(dp4200
g94
g95
ssg76
g4189
sg69
(lp4201
S':'
asbag62
(g83
g64
NtRp4202
(dp4203
g67
(dp4204
sg76
g4189
sg69
(lp4205
g62
(g63
g64
NtRp4206
(dp4207
g67
(dp4208
g75
I4
ssg76
g4202
sg69
(lp4209
S'Fri, 12 Oct 2012 09:17:53 GMT'
p4210
asbasbasbag62
(g78
g64
NtRp4211
(dp4212
g67
(dp4213
sg76
g4141
sg69
(lp4214
g62
(g83
g64
NtRp4215
(dp4216
g67
(dp4217
g87
g88
ssg76
g4211
sg69
(lp4218
S'Pragma'
p4219
asbag62
(g83
g64
NtRp4220
(dp4221
g67
(dp4222
g94
g95
ssg76
g4211
sg69
(lp4223
S':'
asbag62
(g83
g64
NtRp4224
(dp4225
g67
(dp4226
sg76
g4211
sg69
(lp4227
g62
(g63
g64
NtRp4228
(dp4229
g67
(dp4230
g75
I4
ssg76
g4224
sg69
(lp4231
S'no-cache'
p4232
asbasbasbag62
(g78
g64
NtRp4233
(dp4234
g67
(dp4235
sg76
g4141
sg69
(lp4236
g62
(g83
g64
NtRp4237
(dp4238
g67
(dp4239
g87
g88
ssg76
g4233
sg69
(lp4240
S'X-Powered-By'
p4241
asbag62
(g83
g64
NtRp4242
(dp4243
g67
(dp4244
g94
g95
ssg76
g4233
sg69
(lp4245
S':'
asbag62
(g83
g64
NtRp4246
(dp4247
g67
(dp4248
sg76
g4233
sg69
(lp4249
g62
(g63
g64
NtRp4250
(dp4251
g67
(dp4252
g75
I4
ssg76
g4246
sg69
(lp4253
S'web2py'
p4254
asbasbasbasbasbasbasbag62
(g78
g64
NtRp4255
(dp4256
g67
(dp4257
sg76
g3712
sg69
(lp4258
g62
(g83
g64
NtRp4259
(dp4260
g67
(dp4261
g87
g88
ssg76
g4255
sg69
(lp4262
S'menu'
p4263
asbag62
(g83
g64
NtRp4264
(dp4265
g67
(dp4266
g94
g95
ssg76
g4255
sg69
(lp4267
S':'
asbag62
(g83
g64
NtRp4268
(dp4269
g67
(dp4270
sg76
g4255
sg69
(lp4271
g62
(g63
g64
NtRp4272
(dp4273
g67
(dp4274
g75
I5
ssg76
g4268
sg69
(lp4275
g62
(g71
g64
NtRp4276
(dp4277
g67
(dp4278
g75
I4
ssg76
Nsg69
(lp4279
g62
(g78
g64
NtRp4280
(dp4281
g67
(dp4282
sg76
g4276
sg69
(lp4283
g62
(g83
g64
NtRp4284
(dp4285
g67
(dp4286
sg76
g4280
sg69
(lp4287
g62
(g63
g64
NtRp4288
(dp4289
g67
(dp4290
g75
I4
ssg76
g4284
sg69
(lp4291
g62
(g71
g64
NtRp4292
(dp4293
g67
(dp4294
g75
I3
ssg76
Nsg69
(lp4295
g62
(g78
g64
NtRp4296
(dp4297
g67
(dp4298
sg76
g4292
sg69
(lp4299
g62
(g83
g64
NtRp4300
(dp4301
g67
(dp4302
sg76
g4296
sg69
(lp4303
g62
(g63
g64
NtRp4304
(dp4305
g67
(dp4306
g75
I3
ssg76
g4300
sg69
(lp4307
cgluon.languages
lazyT_unpickle
p4308
(S's\x04\x00\x00\x00Site'
tRp4309
asbasbasbag62
(g78
g64
NtRp4310
(dp4311
g67
(dp4312
sg76
g4292
sg69
(lp4313
g62
(g83
g64
NtRp4314
(dp4315
g67
(dp4316
sg76
g4310
sg69
(lp4317
g62
(g63
g64
NtRp4318
(dp4319
g67
(dp4320
g75
I3
ssg76
g4314
sg69
(lp4321
g105
asbasbasbag62
(g78
g64
NtRp4322
(dp4323
g67
(dp4324
sg76
g4292
sg69
(lp4325
g62
(g83
g64
NtRp4326
(dp4327
g67
(dp4328
sg76
g4322
sg69
(lp4329
g62
(g63
g64
NtRp4330
(dp4331
g67
(dp4332
g75
I3
ssg76
g4326
sg69
(lp4333
S'/admin/default/site'
p4334
asbasbasbasbasbasbasbag62
(g78
g64
NtRp4335
(dp4336
g67
(dp4337
sg76
g4276
sg69
(lp4338
g62
(g83
g64
NtRp4339
(dp4340
g67
(dp4341
sg76
g4335
sg69
(lp4342
g62
(g63
g64
NtRp4343
(dp4344
g67
(dp4345
g75
I4
ssg76
g4339
sg69
(lp4346
g62
(g71
g64
NtRp4347
(dp4348
g67
(dp4349
g75
I3
ssg76
Nsg69
(lp4350
g62
(g78
g64
NtRp4351
(dp4352
g67
(dp4353
sg76
g4347
sg69
(lp4354
g62
(g83
g64
NtRp4355
(dp4356
g67
(dp4357
sg76
g4351
sg69
(lp4358
g62
(g63
g64
NtRp4359
(dp4360
g67
(dp4361
g75
I3
ssg76
g4355
sg69
(lp4362
g4308
(S's\x04\x00\x00\x00Edit'
tRp4363
asbasbasbag62
(g78
g64
NtRp4364
(dp4365
g67
(dp4366
sg76
g4347
sg69
(lp4367
g62
(g83
g64
NtRp4368
(dp4369
g67
(dp4370
sg76
g4364
sg69
(lp4371
g62
(g63
g64
NtRp4372
(dp4373
g67
(dp4374
g75
I3
ssg76
g4368
sg69
(lp4375
g2091
asbasbasbag62
(g78
g64
NtRp4376
(dp4377
g67
(dp4378
sg76
g4347
sg69
(lp4379
g62
(g83
g64
NtRp4380
(dp4381
g67
(dp4382
sg76
g4376
sg69
(lp4383
g62
(g63
g64
NtRp4384
(dp4385
g67
(dp4386
g75
I3
ssg76
g4380
sg69
(lp4387
S'/admin/default/design/project'
p4388
asbasbasbasbasbasbasbag62
(g78
g64
NtRp4389
(dp4390
g67
(dp4391
sg76
g4276
sg69
(lp4392
g62
(g83
g64
NtRp4393
(dp4394
g67
(dp4395
sg76
g4389
sg69
(lp4396
g62
(g63
g64
NtRp4397
(dp4398
g67
(dp4399
g75
I4
ssg76
g4393
sg69
(lp4400
g62
(g71
g64
NtRp4401
(dp4402
g67
(dp4403
g75
I3
ssg76
Nsg69
(lp4404
g62
(g78
g64
NtRp4405
(dp4406
g67
(dp4407
sg76
g4401
sg69
(lp4408
g62
(g83
g64
NtRp4409
(dp4410
g67
(dp4411
sg76
g4405
sg69
(lp4412
g62
(g63
g64
NtRp4413
(dp4414
g67
(dp4415
g75
I3
ssg76
g4409
sg69
(lp4416
g4308
(S's\x05\x00\x00\x00About'
tRp4417
asbasbasbag62
(g78
g64
NtRp4418
(dp4419
g67
(dp4420
sg76
g4401
sg69
(lp4421
g62
(g83
g64
NtRp4422
(dp4423
g67
(dp4424
sg76
g4418
sg69
(lp4425
g62
(g63
g64
NtRp4426
(dp4427
g67
(dp4428
g75
I3
ssg76
g4422
sg69
(lp4429
g105
asbasbasbag62
(g78
g64
NtRp4430
(dp4431
g67
(dp4432
sg76
g4401
sg69
(lp4433
g62
(g83
g64
NtRp4434
(dp4435
g67
(dp4436
sg76
g4430
sg69
(lp4437
g62
(g63
g64
NtRp4438
(dp4439
g67
(dp4440
g75
I3
ssg76
g4434
sg69
(lp4441
S'/admin/default/about/project'
p4442
asbasbasbasbasbasbasbag62
(g78
g64
NtRp4443
(dp4444
g67
(dp4445
sg76
g4276
sg69
(lp4446
g62
(g83
g64
NtRp4447
(dp4448
g67
(dp4449
sg76
g4443
sg69
(lp4450
g62
(g63
g64
NtRp4451
(dp4452
g67
(dp4453
g75
I4
ssg76
g4447
sg69
(lp4454
g62
(g71
g64
NtRp4455
(dp4456
g67
(dp4457
g75
I3
ssg76
Nsg69
(lp4458
g62
(g78
g64
NtRp4459
(dp4460
g67
(dp4461
sg76
g4455
sg69
(lp4462
g62
(g83
g64
NtRp4463
(dp4464
g67
(dp4465
sg76
g4459
sg69
(lp4466
g62
(g63
g64
NtRp4467
(dp4468
g67
(dp4469
g75
I3
ssg76
g4463
sg69
(lp4470
g4308
(S's\x06\x00\x00\x00Errors'
tRp4471
asbasbasbag62
(g78
g64
NtRp4472
(dp4473
g67
(dp4474
sg76
g4455
sg69
(lp4475
g62
(g83
g64
NtRp4476
(dp4477
g67
(dp4478
sg76
g4472
sg69
(lp4479
g62
(g63
g64
NtRp4480
(dp4481
g67
(dp4482
g75
I3
ssg76
g4476
sg69
(lp4483
g105
asbasbasbag62
(g78
g64
NtRp4484
(dp4485
g67
(dp4486
sg76
g4455
sg69
(lp4487
g62
(g83
g64
NtRp4488
(dp4489
g67
(dp4490
sg76
g4484
sg69
(lp4491
g62
(g63
g64
NtRp4492
(dp4493
g67
(dp4494
g75
I3
ssg76
g4488
sg69
(lp4495
S'/admin/default/errors/project'
p4496
asbasbasbasbasbasbasbag62
(g78
g64
NtRp4497
(dp4498
g67
(dp4499
sg76
g4276
sg69
(lp4500
g62
(g83
g64
NtRp4501
(dp4502
g67
(dp4503
sg76
g4497
sg69
(lp4504
g62
(g63
g64
NtRp4505
(dp4506
g67
(dp4507
g75
I4
ssg76
g4501
sg69
(lp4508
g62
(g71
g64
NtRp4509
(dp4510
g67
(dp4511
g75
I3
ssg76
Nsg69
(lp4512
g62
(g78
g64
NtRp4513
(dp4514
g67
(dp4515
sg76
g4509
sg69
(lp4516
g62
(g83
g64
NtRp4517
(dp4518
g67
(dp4519
sg76
g4513
sg69
(lp4520
g62
(g63
g64
NtRp4521
(dp4522
g67
(dp4523
g75
I3
ssg76
g4517
sg69
(lp4524
g4308
(S's\n\x00\x00\x00Versioning'
tRp4525
asbasbasbag62
(g78
g64
NtRp4526
(dp4527
g67
(dp4528
sg76
g4509
sg69
(lp4529
g62
(g83
g64
NtRp4530
(dp4531
g67
(dp4532
sg76
g4526
sg69
(lp4533
g62
(g63
g64
NtRp4534
(dp4535
g67
(dp4536
g75
I3
ssg76
g4530
sg69
(lp4537
g105
asbasbasbag62
(g78
g64
NtRp4538
(dp4539
g67
(dp4540
sg76
g4509
sg69
(lp4541
g62
(g83
g64
NtRp4542
(dp4543
g67
(dp4544
sg76
g4538
sg69
(lp4545
g62
(g63
g64
NtRp4546
(dp4547
g67
(dp4548
g75
I3
ssg76
g4542
sg69
(lp4549
S'/admin/mercurial/commit/project'
p4550
asbasbasbasbasbasbasbag62
(g78
g64
NtRp4551
(dp4552
g67
(dp4553
sg76
g4276
sg69
(lp4554
g62
(g83
g64
NtRp4555
(dp4556
g67
(dp4557
sg76
g4551
sg69
(lp4558
g62
(g63
g64
NtRp4559
(dp4560
g67
(dp4561
g75
I4
ssg76
g4555
sg69
(lp4562
g62
(g71
g64
NtRp4563
(dp4564
g67
(dp4565
g75
I3
ssg76
Nsg69
(lp4566
g62
(g78
g64
NtRp4567
(dp4568
g67
(dp4569
sg76
g4563
sg69
(lp4570
g62
(g83
g64
NtRp4571
(dp4572
g67
(dp4573
sg76
g4567
sg69
(lp4574
g62
(g63
g64
NtRp4575
(dp4576
g67
(dp4577
g75
I3
ssg76
g4571
sg69
(lp4578
g4308
(S's\x06\x00\x00\x00Logout'
tRp4579
asbasbasbag62
(g78
g64
NtRp4580
(dp4581
g67
(dp4582
sg76
g4563
sg69
(lp4583
g62
(g83
g64
NtRp4584
(dp4585
g67
(dp4586
sg76
g4580
sg69
(lp4587
g62
(g63
g64
NtRp4588
(dp4589
g67
(dp4590
g75
I3
ssg76
g4584
sg69
(lp4591
g105
asbasbasbag62
(g78
g64
NtRp4592
(dp4593
g67
(dp4594
sg76
g4563
sg69
(lp4595
g62
(g83
g64
NtRp4596
(dp4597
g67
(dp4598
sg76
g4592
sg69
(lp4599
g62
(g63
g64
NtRp4600
(dp4601
g67
(dp4602
g75
I3
ssg76
g4596
sg69
(lp4603
S'/admin/default/logout'
p4604
asbasbasbasbasbasbasbag62
(g78
g64
NtRp4605
(dp4606
g67
(dp4607
sg76
g4276
sg69
(lp4608
g62
(g83
g64
NtRp4609
(dp4610
g67
(dp4611
sg76
g4605
sg69
(lp4612
g62
(g63
g64
NtRp4613
(dp4614
g67
(dp4615
g75
I4
ssg76
g4609
sg69
(lp4616
g62
(g71
g64
NtRp4617
(dp4618
g67
(dp4619
g75
I3
ssg76
Nsg69
(lp4620
g62
(g78
g64
NtRp4621
(dp4622
g67
(dp4623
sg76
g4617
sg69
(lp4624
g62
(g83
g64
NtRp4625
(dp4626
g67
(dp4627
sg76
g4621
sg69
(lp4628
g62
(g63
g64
NtRp4629
(dp4630
g67
(dp4631
g75
I3
ssg76
g4625
sg69
(lp4632
g4308
(S's\x05\x00\x00\x00Debug'
tRp4633
asbasbasbag62
(g78
g64
NtRp4634
(dp4635
g67
(dp4636
sg76
g4617
sg69
(lp4637
g62
(g83
g64
NtRp4638
(dp4639
g67
(dp4640
sg76
g4634
sg69
(lp4641
g62
(g63
g64
NtRp4642
(dp4643
g67
(dp4644
g75
I3
ssg76
g4638
sg69
(lp4645
g105
asbasbasbag62
(g78
g64
NtRp4646
(dp4647
g67
(dp4648
sg76
g4617
sg69
(lp4649
g62
(g83
g64
NtRp4650
(dp4651
g67
(dp4652
sg76
g4646
sg69
(lp4653
g62
(g63
g64
NtRp4654
(dp4655
g67
(dp4656
g75
I3
ssg76
g4650
sg69
(lp4657
S'/admin/debug/interact'
p4658
asbasbasbasbasbasbasbag62
(g78
g64
NtRp4659
(dp4660
g67
(dp4661
sg76
g4276
sg69
(lp4662
g62
(g83
g64
NtRp4663
(dp4664
g67
(dp4665
sg76
g4659
sg69
(lp4666
g62
(g63
g64
NtRp4667
(dp4668
g67
(dp4669
g75
I4
ssg76
g4663
sg69
(lp4670
g62
(g71
g64
NtRp4671
(dp4672
g67
(dp4673
g75
I3
ssg76
Nsg69
(lp4674
g62
(g78
g64
NtRp4675
(dp4676
g67
(dp4677
sg76
g4671
sg69
(lp4678
g62
(g83
g64
NtRp4679
(dp4680
g67
(dp4681
sg76
g4675
sg69
(lp4682
g62
(g63
g64
NtRp4683
(dp4684
g67
(dp4685
g75
I3
ssg76
g4679
sg69
(lp4686
g4308
(S's\x04\x00\x00\x00Help'
tRp4687
asbasbasbag62
(g78
g64
NtRp4688
(dp4689
g67
(dp4690
sg76
g4671
sg69
(lp4691
g62
(g83
g64
NtRp4692
(dp4693
g67
(dp4694
sg76
g4688
sg69
(lp4695
g62
(g63
g64
NtRp4696
(dp4697
g67
(dp4698
g75
I3
ssg76
g4692
sg69
(lp4699
g105
asbasbasbag62
(g78
g64
NtRp4700
(dp4701
g67
(dp4702
sg76
g4671
sg69
(lp4703
g62
(g83
g64
NtRp4704
(dp4705
g67
(dp4706
sg76
g4700
sg69
(lp4707
g62
(g63
g64
NtRp4708
(dp4709
g67
(dp4710
g75
I3
ssg76
g4704
sg69
(lp4711
S'/examples/default/index'
p4712
asbasbasbasbasbasbasbasbasbasbasbag62
(g78
g64
NtRp4713
(dp4714
g67
(dp4715
sg76
g3712
sg69
(lp4716
g62
(g83
g64
NtRp4717
(dp4718
g67
(dp4719
g87
g88
ssg76
g4713
sg69
(lp4720
S'meta'
p4721
asbag62
(g83
g64
NtRp4722
(dp4723
g67
(dp4724
g94
g95
ssg76
g4713
sg69
(lp4725
S':'
asbag62
(g83
g64
NtRp4726
(dp4727
g67
(dp4728
sg76
g4713
sg69
(lp4729
g62
(g63
g64
NtRp4730
(dp4731
g67
(dp4732
g75
I5
ssg76
g4726
sg69
(lp4733
g62
(g71
g64
NtRp4734
(dp4735
g67
(dp4736
g75
I4
ssg76
Nsg69
(lp4737
sbasbasbasbag62
(g78
g64
NtRp4738
(dp4739
g67
(dp4740
sg76
g3712
sg69
(lp4741
g62
(g83
g64
NtRp4742
(dp4743
g67
(dp4744
g87
g88
ssg76
g4738
sg69
(lp4745
S'models_to_run'
p4746
asbag62
(g83
g64
NtRp4747
(dp4748
g67
(dp4749
g94
g95
ssg76
g4738
sg69
(lp4750
S':'
asbag62
(g83
g64
NtRp4751
(dp4752
g67
(dp4753
sg76
g4738
sg69
(lp4754
g62
(g63
g64
NtRp4755
(dp4756
g67
(dp4757
g75
I5
ssg76
g4751
sg69
(lp4758
g62
(g71
g64
NtRp4759
(dp4760
g67
(dp4761
g75
I4
ssg76
Nsg69
(lp4762
g62
(g78
g64
NtRp4763
(dp4764
g67
(dp4765
sg76
g4759
sg69
(lp4766
g62
(g83
g64
NtRp4767
(dp4768
g67
(dp4769
sg76
g4763
sg69
(lp4770
g62
(g63
g64
NtRp4771
(dp4772
g67
(dp4773
g75
I4
ssg76
g4767
sg69
(lp4774
S'^\\w+\\.py$'
p4775
asbasbasbag62
(g78
g64
NtRp4776
(dp4777
g67
(dp4778
sg76
g4759
sg69
(lp4779
g62
(g83
g64
NtRp4780
(dp4781
g67
(dp4782
sg76
g4776
sg69
(lp4783
g62
(g63
g64
NtRp4784
(dp4785
g67
(dp4786
g75
I4
ssg76
g4780
sg69
(lp4787
S'^default/\\w+\\.py$'
p4788
asbasbasbag62
(g78
g64
NtRp4789
(dp4790
g67
(dp4791
sg76
g4759
sg69
(lp4792
g62
(g83
g64
NtRp4793
(dp4794
g67
(dp4795
sg76
g4789
sg69
(lp4796
g62
(g63
g64
NtRp4797
(dp4798
g67
(dp4799
g75
I4
ssg76
g4793
sg69
(lp4800
S'^default/design/\\w+\\.py$'
p4801
asbasbasbasbasbasbasbag62
(g78
g64
NtRp4802
(dp4803
g67
(dp4804
sg76
g3712
sg69
(lp4805
g62
(g83
g64
NtRp4806
(dp4807
g67
(dp4808
g87
g88
ssg76
g4802
sg69
(lp4809
S'postprocessing'
p4810
asbag62
(g83
g64
NtRp4811
(dp4812
g67
(dp4813
g94
g95
ssg76
g4802
sg69
(lp4814
S':'
asbag62
(g83
g64
NtRp4815
(dp4816
g67
(dp4817
sg76
g4802
sg69
(lp4818
g62
(g63
g64
NtRp4819
(dp4820
g67
(dp4821
g75
I5
ssg76
g4815
sg69
(lp4822
g62
(g71
g64
NtRp4823
(dp4824
g67
(dp4825
g75
I4
ssg76
Nsg69
(lp4826
sbasbasbasbag62
(g78
g64
NtRp4827
(dp4828
g67
(dp4829
sg76
g3712
sg69
(lp4830
g62
(g83
g64
NtRp4831
(dp4832
g67
(dp4833
g87
g88
ssg76
g4827
sg69
(lp4834
S'session_file'
p4835
asbag62
(g83
g64
NtRp4836
(dp4837
g67
(dp4838
g94
g95
ssg76
g4827
sg69
(lp4839
S':'
asbag62
(g83
g64
NtRp4840
(dp4841
g67
(dp4842
sg76
g4827
sg69
(lp4843
g62
(g63
g64
NtRp4844
(dp4845
g67
(dp4846
g75
I5
ssg76
g4840
sg69
(lp4847
S"<open file '/home/mayank/IIIT/sem 3/SSAD&Project/web2py/applications/admin/sessions/127.0.0.1-92babadb-20f9-4563-b74c-0a42e07649f1', mode 'rb+' at 0x7ffb845f9f60>"
p4848
asbasbasbag62
(g78
g64
NtRp4849
(dp4850
g67
(dp4851
sg76
g3712
sg69
(lp4852
g62
(g83
g64
NtRp4853
(dp4854
g67
(dp4855
g87
g88
ssg76
g4849
sg69
(lp4856
S'session_filename'
p4857
asbag62
(g83
g64
NtRp4858
(dp4859
g67
(dp4860
g94
g95
ssg76
g4849
sg69
(lp4861
S':'
asbag62
(g83
g64
NtRp4862
(dp4863
g67
(dp4864
sg76
g4849
sg69
(lp4865
g62
(g63
g64
NtRp4866
(dp4867
g67
(dp4868
g75
I5
ssg76
g4862
sg69
(lp4869
S'/home/mayank/IIIT/sem 3/SSAD&Project/web2py/applications/admin/sessions/127.0.0.1-92babadb-20f9-4563-b74c-0a42e07649f1'
p4870
asbasbasbag62
(g78
g64
NtRp4871
(dp4872
g67
(dp4873
sg76
g3712
sg69
(lp4874
g62
(g83
g64
NtRp4875
(dp4876
g67
(dp4877
g87
g88
ssg76
g4871
sg69
(lp4878
S'session_id'
p4879
asbag62
(g83
g64
NtRp4880
(dp4881
g67
(dp4882
g94
g95
ssg76
g4871
sg69
(lp4883
S':'
asbag62
(g83
g64
NtRp4884
(dp4885
g67
(dp4886
sg76
g4871
sg69
(lp4887
g62
(g63
g64
NtRp4888
(dp4889
g67
(dp4890
g75
I5
ssg76
g4884
sg69
(lp4891
g299
asbasbasbag62
(g78
g64
NtRp4892
(dp4893
g67
(dp4894
sg76
g3712
sg69
(lp4895
g62
(g83
g64
NtRp4896
(dp4897
g67
(dp4898
g87
g88
ssg76
g4892
sg69
(lp4899
S'session_id_name'
p4900
asbag62
(g83
g64
NtRp4901
(dp4902
g67
(dp4903
g94
g95
ssg76
g4892
sg69
(lp4904
S':'
asbag62
(g83
g64
NtRp4905
(dp4906
g67
(dp4907
sg76
g4892
sg69
(lp4908
g62
(g63
g64
NtRp4909
(dp4910
g67
(dp4911
g75
I5
ssg76
g4905
sg69
(lp4912
g3769
asbasbasbag62
(g78
g64
NtRp4913
(dp4914
g67
(dp4915
sg76
g3712
sg69
(lp4916
g62
(g83
g64
NtRp4917
(dp4918
g67
(dp4919
g87
g88
ssg76
g4913
sg69
(lp4920
S'session_locked'
p4921
asbag62
(g83
g64
NtRp4922
(dp4923
g67
(dp4924
g94
g95
ssg76
g4913
sg69
(lp4925
S':'
asbag62
(g83
g64
NtRp4926
(dp4927
g67
(dp4928
sg76
g4913
sg69
(lp4929
g62
(g63
g64
NtRp4930
(dp4931
g67
(dp4932
g75
I5
ssg76
g4926
sg69
(lp4933
g2091
asbasbasbag62
(g78
g64
NtRp4934
(dp4935
g67
(dp4936
sg76
g3712
sg69
(lp4937
g62
(g83
g64
NtRp4938
(dp4939
g67
(dp4940
g87
g88
ssg76
g4934
sg69
(lp4941
S'session_new'
p4942
asbag62
(g83
g64
NtRp4943
(dp4944
g67
(dp4945
g94
g95
ssg76
g4934
sg69
(lp4946
S':'
asbag62
(g83
g64
NtRp4947
(dp4948
g67
(dp4949
sg76
g4934
sg69
(lp4950
g62
(g63
g64
NtRp4951
(dp4952
g67
(dp4953
g75
I5
ssg76
g4947
sg69
(lp4954
g105
asbasbasbag62
(g78
g64
NtRp4955
(dp4956
g67
(dp4957
sg76
g3712
sg69
(lp4958
g62
(g83
g64
NtRp4959
(dp4960
g67
(dp4961
g87
g88
ssg76
g4955
sg69
(lp4962
S'status'
p4963
asbag62
(g83
g64
NtRp4964
(dp4965
g67
(dp4966
g94
g95
ssg76
g4955
sg69
(lp4967
S':'
asbag62
(g83
g64
NtRp4968
(dp4969
g67
(dp4970
sg76
g4955
sg69
(lp4971
g62
(g63
g64
NtRp4972
(dp4973
g67
(dp4974
g75
I5
ssg76
g4968
sg69
(lp4975
S'200'
p4976
asbasbasbag62
(g78
g64
NtRp4977
(dp4978
g67
(dp4979
sg76
g3712
sg69
(lp4980
g62
(g83
g64
NtRp4981
(dp4982
g67
(dp4983
g87
g88
ssg76
g4977
sg69
(lp4984
S'subtitle'
p4985
asbag62
(g83
g64
NtRp4986
(dp4987
g67
(dp4988
g94
g95
ssg76
g4977
sg69
(lp4989
S':'
asbag62
(g83
g64
NtRp4990
(dp4991
g67
(dp4992
sg76
g4977
sg69
(lp4993
g62
(g63
g64
NtRp4994
(dp4995
g67
(dp4996
g75
I5
ssg76
g4990
sg69
(lp4997
S'admin'
p4998
asbasbasbag62
(g78
g64
NtRp4999
(dp5000
g67
(dp5001
sg76
g3712
sg69
(lp5002
g62
(g83
g64
NtRp5003
(dp5004
g67
(dp5005
g87
g88
ssg76
g4999
sg69
(lp5006
S'title'
p5007
asbag62
(g83
g64
NtRp5008
(dp5009
g67
(dp5010
g94
g95
ssg76
g4999
sg69
(lp5011
S':'
asbag62
(g83
g64
NtRp5012
(dp5013
g67
(dp5014
sg76
g4999
sg69
(lp5015
g62
(g63
g64
NtRp5016
(dp5017
g67
(dp5018
g75
I5
ssg76
g5012
sg69
(lp5019
S'design project'
p5020
asbasbasbag62
(g78
g64
NtRp5021
(dp5022
g67
(dp5023
sg76
g3712
sg69
(lp5024
g62
(g83
g64
NtRp5025
(dp5026
g67
(dp5027
g87
g88
ssg76
g5021
sg69
(lp5028
S'view'
p5029
asbag62
(g83
g64
NtRp5030
(dp5031
g67
(dp5032
g94
g95
ssg76
g5021
sg69
(lp5033
S':'
asbag62
(g83
g64
NtRp5034
(dp5035
g67
(dp5036
sg76
g5021
sg69
(lp5037
g62
(g63
g64
NtRp5038
(dp5039
g67
(dp5040
g75
I5
ssg76
g5034
sg69
(lp5041
S'default/design.html'
p5042
asbasbasbasbasbsS'locals'
p5043
(dp5044
S'appdir'
p5045
S"'/home/mayank/IIIT/sem 3/SSAD&Project/web2py/applications/project'"
p5046
sS'langs'
p5047
g19
sS'langdir'
p5048
S"'/home/mayank/IIIT/sem 3/SSAD&Project/web2py/applications/project/languages'"
p5049
sssS'traceback'
p5050
S'Traceback (most recent call last):\n  File "/home/mayank/IIIT/sem 3/SSAD&Project/web2py/gluon/restricted.py", line 209, in restricted\n    exec ccode in environment\n  File "/home/mayank/IIIT/sem 3/SSAD&Project/web2py/applications/admin/controllers/default.py", line 1726, in <module>\n  File "/home/mayank/IIIT/sem 3/SSAD&Project/web2py/gluon/globals.py", line 185, in <lambda>\n    self._caller = lambda f: f()\n  File "/home/mayank/IIIT/sem 3/SSAD&Project/web2py/applications/admin/controllers/default.py", line 953, in design\n    in read_possible_languages(apath(app, r=request)).iteritems()\n  File "/home/mayank/IIIT/sem 3/SSAD&Project/web2py/gluon/languages.py", line 209, in read_possible_languages\n    for filename in os.listdir(langdir):\nOSError: [Errno 2] No such file or directory: \'/home/mayank/IIIT/sem 3/SSAD&Project/web2py/applications/project/languages\'\n'
p5051
s.