(dp1
S'output'
p2
S"<type 'exceptions.NameError'> name 'host' is not defined"
p3
sS'layer'
p4
S'/home/mayank/gitrepo/Twitter-Sentiment-Analysis/front-end/web2py/applications/FunkLoad/models/db.py'
p5
sS'code'
p6
S"# -*- coding: utf-8 -*-\n#########################################################################\n## This scaffolding model makes your app work on Google App Engine too\n## File is released under public domain and you can use without limitations\n#########################################################################\n\n## if SSL/HTTPS is properly configured and you want all HTTP requests to\n## be redirected to HTTPS, uncomment the line below:\n# request.requires_https()\n\nif not request.env.web2py_runtime_gae:\n    ## if NOT running on Google App Engine use SQLite or other DB\n    db = DAL('sqlite://storage.sqlite')\n    #db = DAL('mysql://'+mysqlUser+':'+mysqlPass+'@'+mysqlHost+'/'+mysqlDB)\nelse:\n    ## connect to Google BigTable (optional 'google:datastore://namespace')\n    db = DAL('google:datastore')\n    ## store sessions and tickets there\n    session.connect(request, response, db = db)\n    ## or store session in Memcache, Redis, etc.\n    ## from gluon.contrib.memdb import MEMDB\n    ## from google.appengine.api.memcache import Client\n    ## session.connect(request, response, db = MEMDB(Client()))\n\n## by default give a view/generic.extension to all actions from localhost\n## none otherwise. a pattern can be 'controller/function.extension'\nresponse.generic_patterns = ['*'] if request.is_local else []\n## (optional) optimize handling of static files\n# response.optimize_css = 'concat,minify,inline'\n# response.optimize_js = 'concat,minify,inline'\n\n#########################################################################\n## Here is sample code if you need for\n## - email capabilities\n## - authentication (registration, login, logout, ... )\n## - authorization (role based authorization)\n## - services (xml, csv, json, xmlrpc, jsonrpc, amf, rss)\n## - old style crud actions\n## (more options discussed in gluon/tools.py)\n#########################################################################\n\nfrom gluon.tools import Auth, Crud, Service, PluginManager, prettydate\nauth = Auth(db)\ncrud, service, plugins = Crud(db), Service(), PluginManager()\n\n## create all tables needed by auth if not custom tables\nauth.define_tables(username=False, signature=False)\n\n## configure email\nmail=auth.settings.mailer\nmail.settings.server = 'smtp.gmail.com:587'\nmail.settings.sender = 'wrumf93@gmail.com'\nmail.settings.login = 'wrumf93:!wrumf!123!'\n\n## configure auth policy\nauth.settings.registration_requires_verification = True\nauth.messages.verify_email = 'Click on the link '+ host + URL(r=request,c='default',f='user',args=['verify_email'])+'/%(key)s to verify your email'\nauth.settings.registration_requires_approval = False\nauth.settings.reset_password_requires_verification = True\nauth.messages.reset_password = 'Click on the link '+ host + URL(r=request,c='default',f='user',args=['reset_password']) +'/%(key)s to change password'\n\n## if you need to use OpenID, Facebook, MySpace, Twitter, Linkedin, etc.\n## register with janrain.com, write your domain:api_key in private/janrain.key\nfrom gluon.contrib.login_methods.rpx_account import use_janrain\nuse_janrain(auth,filename='private/janrain.key')\n\n#########################################################################\n## Define your tables below (or better in another model file) for example\n##\n## >>> db.define_table('mytable',Field('myfield','string'))\n##\n## Fields can be 'string','text','password','integer','double','boolean'\n##       'date','time','datetime','blob','upload', 'reference TABLENAME'\n## There is an implicit 'id integer autoincrement' field\n## Consult manual for more options, validators, etc.\n##\n## More API examples for controllers:\n##\n## >>> db.mytable.insert(myfield='value')\n## >>> rows=db(db.mytable.myfield=='value').select(db.mytable.ALL)\n## >>> for row in rows: print row.id, row.myfield\n#########################################################################\n\n\ndb.define_table(\n\t'SentTrainDetails',\n\tField('Tweet','text',required=True),\n\tField('Label','string',required=True),\n\tField('Token','text',required=True)\n\t)\n\ndb.define_table(\n\t'SentTestDetails',\n\tField('TestName','string',required=True),\n\tField('Tweet','text',required=True),\n\tField('PredictedLabel','string'),\n\tField('ActualLabel','string'),\n\tField('Token','text'),\n\tField('UserEmail','string',required=True),\n\tField('Status','string',default='0')\n\t)\ndb.define_table(\n\t'PhraseTrainDetails',\n\tField('Tweet','text',required=True),\n\tField('Phrase','text',required=True),\n\tField('Label','string',required=True),\n\tField('Token','text',required=True)\n\t)\n\ndb.define_table(\n\t'PhraseTestDetails',\n\tField('TestName','string',required=True),\n\tField('Tweet','text',required=True),\n\tField('Phrase','text',required=True),\n\tField('PredictedLabel','string'),\n\tField('ActualLabel','string'),\n\tField('Token','text'),\n\tField('UserEmail','string',required=True),\n\tField('Status','string',default='0')\n\t)\n\n## after defining tables, uncomment below to enable auditing\n# auth.enable_record_versioning(db)\n"
p7
sS'snapshot'
p8
(dp9
S'exception'
p10
(dp11
S'__hash__'
p12
S"<method-wrapper '__hash__' of exceptions.NameError object>"
p13
sS'__setattr__'
p14
S"<method-wrapper '__setattr__' of exceptions.NameError object>"
p15
sS'__reduce_ex__'
p16
S'<built-in method __reduce_ex__ of exceptions.NameError object>'
p17
sS'__getslice__'
p18
S"<method-wrapper '__getslice__' of exceptions.NameError object>"
p19
sS'__getitem__'
p20
S"<method-wrapper '__getitem__' of exceptions.NameError object>"
p21
sS'__setstate__'
p22
S'<built-in method __setstate__ of exceptions.NameError object>'
p23
sS'args'
p24
S'("name \'host\' is not defined",)'
p25
sS'__reduce__'
p26
S'<built-in method __reduce__ of exceptions.NameError object>'
p27
sS'__str__'
p28
S"<method-wrapper '__str__' of exceptions.NameError object>"
p29
sS'__format__'
p30
S'<built-in method __format__ of exceptions.NameError object>'
p31
sS'__getattribute__'
p32
S"<method-wrapper '__getattribute__' of exceptions.NameError object>"
p33
sS'__class__'
p34
S"<type 'exceptions.NameError'>"
p35
sS'__unicode__'
p36
S'<built-in method __unicode__ of exceptions.NameError object>'
p37
sS'__delattr__'
p38
S"<method-wrapper '__delattr__' of exceptions.NameError object>"
p39
sS'__subclasshook__'
p40
S'<built-in method __subclasshook__ of type object>'
p41
sS'__repr__'
p42
S"<method-wrapper '__repr__' of exceptions.NameError object>"
p43
sS'__dict__'
p44
S'{}'
p45
sS'__sizeof__'
p46
S'<built-in method __sizeof__ of exceptions.NameError object>'
p47
sS'__doc__'
p48
S"'Name not found globally.'"
p49
sS'__init__'
p50
S"<method-wrapper '__init__' of exceptions.NameError object>"
p51
sS'__new__'
p52
S'<built-in method __new__ of type object>'
p53
ssS'evalue'
p54
S"name 'host' is not defined"
p55
sS'request'
p56
ccopy_reg
_reconstructor
p57
(cgluon.html
BEAUTIFY
p58
c__builtin__
object
p59
NtRp60
(dp61
S'attributes'
p62
(dp63
sS'components'
p64
(lp65
g57
(cgluon.html
TABLE
p66
g59
NtRp67
(dp68
g62
(dp69
S'level'
p70
I5
ssS'parent'
p71
Nsg64
(lp72
g57
(cgluon.html
TR
p73
g59
NtRp74
(dp75
g62
(dp76
sg71
g67
sg64
(lp77
g57
(cgluon.html
TD
p78
g59
NtRp79
(dp80
g62
(dp81
S'_style'
p82
S'font-weight:bold;vertical-align:top'
p83
ssg71
g74
sg64
(lp84
S'ajax'
p85
asbag57
(g78
g59
NtRp86
(dp87
g62
(dp88
S'_valign'
p89
S'top'
p90
ssg71
g74
sg64
(lp91
S':'
asbag57
(g78
g59
NtRp92
(dp93
g62
(dp94
sg71
g74
sg64
(lp95
g57
(g58
g59
NtRp96
(dp97
g62
(dp98
g70
I5
ssg71
g92
sg64
(lp99
S'False'
p100
asbasbasbag57
(g73
g59
NtRp101
(dp102
g62
(dp103
sg71
g67
sg64
(lp104
g57
(g78
g59
NtRp105
(dp106
g62
(dp107
g82
g83
ssg71
g101
sg64
(lp108
S'application'
p109
asbag57
(g78
g59
NtRp110
(dp111
g62
(dp112
g89
g90
ssg71
g101
sg64
(lp113
S':'
asbag57
(g78
g59
NtRp114
(dp115
g62
(dp116
sg71
g101
sg64
(lp117
g57
(g58
g59
NtRp118
(dp119
g62
(dp120
g70
I5
ssg71
g114
sg64
(lp121
S'FunkLoad'
p122
asbasbasbag57
(g73
g59
NtRp123
(dp124
g62
(dp125
sg71
g67
sg64
(lp126
g57
(g78
g59
NtRp127
(dp128
g62
(dp129
g82
g83
ssg71
g123
sg64
(lp130
g24
asbag57
(g78
g59
NtRp131
(dp132
g62
(dp133
g89
g90
ssg71
g123
sg64
(lp134
S':'
asbag57
(g78
g59
NtRp135
(dp136
g62
(dp137
sg71
g123
sg64
(lp138
g57
(g58
g59
NtRp139
(dp140
g62
(dp141
g70
I5
ssg71
g135
sg64
(lp142
g57
(g66
g59
NtRp143
(dp144
g62
(dp145
g70
I4
ssg71
Nsg64
(lp146
sbasbasbasbag57
(g73
g59
NtRp147
(dp148
g62
(dp149
sg71
g67
sg64
(lp150
g57
(g78
g59
NtRp151
(dp152
g62
(dp153
g82
g83
ssg71
g147
sg64
(lp154
S'body'
p155
asbag57
(g78
g59
NtRp156
(dp157
g62
(dp158
g89
g90
ssg71
g147
sg64
(lp159
S':'
asbag57
(g78
g59
NtRp160
(dp161
g62
(dp162
sg71
g147
sg64
(lp163
g57
(g58
g59
NtRp164
(dp165
g62
(dp166
g70
I5
ssg71
g160
sg64
(lp167
S'<cStringIO.StringO object at 0x7fe1bc59fae8>'
p168
asbasbasbag57
(g73
g59
NtRp169
(dp170
g62
(dp171
sg71
g67
sg64
(lp172
g57
(g78
g59
NtRp173
(dp174
g62
(dp175
g82
g83
ssg71
g169
sg64
(lp176
S'cid'
p177
asbag57
(g78
g59
NtRp178
(dp179
g62
(dp180
g89
g90
ssg71
g169
sg64
(lp181
S':'
asbag57
(g78
g59
NtRp182
(dp183
g62
(dp184
sg71
g169
sg64
(lp185
g57
(g58
g59
NtRp186
(dp187
g62
(dp188
g70
I5
ssg71
g182
sg64
(lp189
S'None'
p190
asbasbasbag57
(g73
g59
NtRp191
(dp192
g62
(dp193
sg71
g67
sg64
(lp194
g57
(g78
g59
NtRp195
(dp196
g62
(dp197
g82
g83
ssg71
g191
sg64
(lp198
S'client'
p199
asbag57
(g78
g59
NtRp200
(dp201
g62
(dp202
g89
g90
ssg71
g191
sg64
(lp203
S':'
asbag57
(g78
g59
NtRp204
(dp205
g62
(dp206
sg71
g191
sg64
(lp207
g57
(g58
g59
NtRp208
(dp209
g62
(dp210
g70
I5
ssg71
g204
sg64
(lp211
S'127.0.0.1'
p212
asbasbasbag57
(g73
g59
NtRp213
(dp214
g62
(dp215
sg71
g67
sg64
(lp216
g57
(g78
g59
NtRp217
(dp218
g62
(dp219
g82
g83
ssg71
g213
sg64
(lp220
S'controller'
p221
asbag57
(g78
g59
NtRp222
(dp223
g62
(dp224
g89
g90
ssg71
g213
sg64
(lp225
S':'
asbag57
(g78
g59
NtRp226
(dp227
g62
(dp228
sg71
g213
sg64
(lp229
g57
(g58
g59
NtRp230
(dp231
g62
(dp232
g70
I5
ssg71
g226
sg64
(lp233
S'default'
p234
asbasbasbag57
(g73
g59
NtRp235
(dp236
g62
(dp237
sg71
g67
sg64
(lp238
g57
(g78
g59
NtRp239
(dp240
g62
(dp241
g82
g83
ssg71
g235
sg64
(lp242
S'cookies'
p243
asbag57
(g78
g59
NtRp244
(dp245
g62
(dp246
g89
g90
ssg71
g235
sg64
(lp247
S':'
asbag57
(g78
g59
NtRp248
(dp249
g62
(dp250
sg71
g235
sg64
(lp251
g57
(g58
g59
NtRp252
(dp253
g62
(dp254
g70
I5
ssg71
g248
sg64
(lp255
g57
(g66
g59
NtRp256
(dp257
g62
(dp258
g70
I4
ssg71
Nsg64
(lp259
g57
(g73
g59
NtRp260
(dp261
g62
(dp262
sg71
g256
sg64
(lp263
g57
(g78
g59
NtRp264
(dp265
g62
(dp266
g82
g83
ssg71
g260
sg64
(lp267
S'session_id_admin'
p268
asbag57
(g78
g59
NtRp269
(dp270
g62
(dp271
g89
g90
ssg71
g260
sg64
(lp272
S':'
asbag57
(g78
g59
NtRp273
(dp274
g62
(dp275
sg71
g260
sg64
(lp276
g57
(g58
g59
NtRp277
(dp278
g62
(dp279
g70
I4
ssg71
g273
sg64
(lp280
S'127.0.0.1-554f35e1-d9e6-4af1-a80d-537fcac15f96'
p281
ag57
(g66
g59
NtRp282
(dp283
g62
(dp284
g70
I3
ssg71
Nsg64
(lp285
g57
(g73
g59
NtRp286
(dp287
g62
(dp288
sg71
g282
sg64
(lp289
g57
(g78
g59
NtRp290
(dp291
g62
(dp292
g82
g83
ssg71
g286
sg64
(lp293
S'comment'
p294
asbag57
(g78
g59
NtRp295
(dp296
g62
(dp297
g89
g90
ssg71
g286
sg64
(lp298
S':'
asbag57
(g78
g59
NtRp299
(dp300
g62
(dp301
sg71
g286
sg64
(lp302
g57
(g58
g59
NtRp303
(dp304
g62
(dp305
g70
I3
ssg71
g299
sg64
(lp306
S''
asbasbasbag57
(g73
g59
NtRp307
(dp308
g62
(dp309
sg71
g282
sg64
(lp310
g57
(g78
g59
NtRp311
(dp312
g62
(dp313
g82
g83
ssg71
g307
sg64
(lp314
S'domain'
p315
asbag57
(g78
g59
NtRp316
(dp317
g62
(dp318
g89
g90
ssg71
g307
sg64
(lp319
S':'
asbag57
(g78
g59
NtRp320
(dp321
g62
(dp322
sg71
g307
sg64
(lp323
g57
(g58
g59
NtRp324
(dp325
g62
(dp326
g70
I3
ssg71
g320
sg64
(lp327
S''
asbasbasbag57
(g73
g59
NtRp328
(dp329
g62
(dp330
sg71
g282
sg64
(lp331
g57
(g78
g59
NtRp332
(dp333
g62
(dp334
g82
g83
ssg71
g328
sg64
(lp335
S'expires'
p336
asbag57
(g78
g59
NtRp337
(dp338
g62
(dp339
g89
g90
ssg71
g328
sg64
(lp340
S':'
asbag57
(g78
g59
NtRp341
(dp342
g62
(dp343
sg71
g328
sg64
(lp344
g57
(g58
g59
NtRp345
(dp346
g62
(dp347
g70
I3
ssg71
g341
sg64
(lp348
S''
asbasbasbag57
(g73
g59
NtRp349
(dp350
g62
(dp351
sg71
g282
sg64
(lp352
g57
(g78
g59
NtRp353
(dp354
g62
(dp355
g82
g83
ssg71
g349
sg64
(lp356
S'httponly'
p357
asbag57
(g78
g59
NtRp358
(dp359
g62
(dp360
g89
g90
ssg71
g349
sg64
(lp361
S':'
asbag57
(g78
g59
NtRp362
(dp363
g62
(dp364
sg71
g349
sg64
(lp365
g57
(g58
g59
NtRp366
(dp367
g62
(dp368
g70
I3
ssg71
g362
sg64
(lp369
S''
asbasbasbag57
(g73
g59
NtRp370
(dp371
g62
(dp372
sg71
g282
sg64
(lp373
g57
(g78
g59
NtRp374
(dp375
g62
(dp376
g82
g83
ssg71
g370
sg64
(lp377
S'max-age'
p378
asbag57
(g78
g59
NtRp379
(dp380
g62
(dp381
g89
g90
ssg71
g370
sg64
(lp382
S':'
asbag57
(g78
g59
NtRp383
(dp384
g62
(dp385
sg71
g370
sg64
(lp386
g57
(g58
g59
NtRp387
(dp388
g62
(dp389
g70
I3
ssg71
g383
sg64
(lp390
S''
asbasbasbag57
(g73
g59
NtRp391
(dp392
g62
(dp393
sg71
g282
sg64
(lp394
g57
(g78
g59
NtRp395
(dp396
g62
(dp397
g82
g83
ssg71
g391
sg64
(lp398
S'path'
p399
asbag57
(g78
g59
NtRp400
(dp401
g62
(dp402
g89
g90
ssg71
g391
sg64
(lp403
S':'
asbag57
(g78
g59
NtRp404
(dp405
g62
(dp406
sg71
g391
sg64
(lp407
g57
(g58
g59
NtRp408
(dp409
g62
(dp410
g70
I3
ssg71
g404
sg64
(lp411
S''
asbasbasbag57
(g73
g59
NtRp412
(dp413
g62
(dp414
sg71
g282
sg64
(lp415
g57
(g78
g59
NtRp416
(dp417
g62
(dp418
g82
g83
ssg71
g412
sg64
(lp419
S'secure'
p420
asbag57
(g78
g59
NtRp421
(dp422
g62
(dp423
g89
g90
ssg71
g412
sg64
(lp424
S':'
asbag57
(g78
g59
NtRp425
(dp426
g62
(dp427
sg71
g412
sg64
(lp428
g57
(g58
g59
NtRp429
(dp430
g62
(dp431
g70
I3
ssg71
g425
sg64
(lp432
S''
asbasbasbag57
(g73
g59
NtRp433
(dp434
g62
(dp435
sg71
g282
sg64
(lp436
g57
(g78
g59
NtRp437
(dp438
g62
(dp439
g82
g83
ssg71
g433
sg64
(lp440
S'version'
p441
asbag57
(g78
g59
NtRp442
(dp443
g62
(dp444
g89
g90
ssg71
g433
sg64
(lp445
S':'
asbag57
(g78
g59
NtRp446
(dp447
g62
(dp448
sg71
g433
sg64
(lp449
g57
(g58
g59
NtRp450
(dp451
g62
(dp452
g70
I3
ssg71
g446
sg64
(lp453
S''
asbasbasbasbasbasbasbag57
(g73
g59
NtRp454
(dp455
g62
(dp456
sg71
g256
sg64
(lp457
g57
(g78
g59
NtRp458
(dp459
g62
(dp460
g82
g83
ssg71
g454
sg64
(lp461
S'session_id_funkload'
p462
asbag57
(g78
g59
NtRp463
(dp464
g62
(dp465
g89
g90
ssg71
g454
sg64
(lp466
S':'
asbag57
(g78
g59
NtRp467
(dp468
g62
(dp469
sg71
g454
sg64
(lp470
g57
(g58
g59
NtRp471
(dp472
g62
(dp473
g70
I4
ssg71
g467
sg64
(lp474
S'127.0.0.1-a98b320f-b070-488d-ad40-6bbec9939460'
p475
ag57
(g66
g59
NtRp476
(dp477
g62
(dp478
g70
I3
ssg71
Nsg64
(lp479
g57
(g73
g59
NtRp480
(dp481
g62
(dp482
sg71
g476
sg64
(lp483
g57
(g78
g59
NtRp484
(dp485
g62
(dp486
g82
g83
ssg71
g480
sg64
(lp487
g294
asbag57
(g78
g59
NtRp488
(dp489
g62
(dp490
g89
g90
ssg71
g480
sg64
(lp491
S':'
asbag57
(g78
g59
NtRp492
(dp493
g62
(dp494
sg71
g480
sg64
(lp495
g57
(g58
g59
NtRp496
(dp497
g62
(dp498
g70
I3
ssg71
g492
sg64
(lp499
S''
asbasbasbag57
(g73
g59
NtRp500
(dp501
g62
(dp502
sg71
g476
sg64
(lp503
g57
(g78
g59
NtRp504
(dp505
g62
(dp506
g82
g83
ssg71
g500
sg64
(lp507
g315
asbag57
(g78
g59
NtRp508
(dp509
g62
(dp510
g89
g90
ssg71
g500
sg64
(lp511
S':'
asbag57
(g78
g59
NtRp512
(dp513
g62
(dp514
sg71
g500
sg64
(lp515
g57
(g58
g59
NtRp516
(dp517
g62
(dp518
g70
I3
ssg71
g512
sg64
(lp519
S''
asbasbasbag57
(g73
g59
NtRp520
(dp521
g62
(dp522
sg71
g476
sg64
(lp523
g57
(g78
g59
NtRp524
(dp525
g62
(dp526
g82
g83
ssg71
g520
sg64
(lp527
g336
asbag57
(g78
g59
NtRp528
(dp529
g62
(dp530
g89
g90
ssg71
g520
sg64
(lp531
S':'
asbag57
(g78
g59
NtRp532
(dp533
g62
(dp534
sg71
g520
sg64
(lp535
g57
(g58
g59
NtRp536
(dp537
g62
(dp538
g70
I3
ssg71
g532
sg64
(lp539
S''
asbasbasbag57
(g73
g59
NtRp540
(dp541
g62
(dp542
sg71
g476
sg64
(lp543
g57
(g78
g59
NtRp544
(dp545
g62
(dp546
g82
g83
ssg71
g540
sg64
(lp547
g357
asbag57
(g78
g59
NtRp548
(dp549
g62
(dp550
g89
g90
ssg71
g540
sg64
(lp551
S':'
asbag57
(g78
g59
NtRp552
(dp553
g62
(dp554
sg71
g540
sg64
(lp555
g57
(g58
g59
NtRp556
(dp557
g62
(dp558
g70
I3
ssg71
g552
sg64
(lp559
S''
asbasbasbag57
(g73
g59
NtRp560
(dp561
g62
(dp562
sg71
g476
sg64
(lp563
g57
(g78
g59
NtRp564
(dp565
g62
(dp566
g82
g83
ssg71
g560
sg64
(lp567
g378
asbag57
(g78
g59
NtRp568
(dp569
g62
(dp570
g89
g90
ssg71
g560
sg64
(lp571
S':'
asbag57
(g78
g59
NtRp572
(dp573
g62
(dp574
sg71
g560
sg64
(lp575
g57
(g58
g59
NtRp576
(dp577
g62
(dp578
g70
I3
ssg71
g572
sg64
(lp579
S''
asbasbasbag57
(g73
g59
NtRp580
(dp581
g62
(dp582
sg71
g476
sg64
(lp583
g57
(g78
g59
NtRp584
(dp585
g62
(dp586
g82
g83
ssg71
g580
sg64
(lp587
g399
asbag57
(g78
g59
NtRp588
(dp589
g62
(dp590
g89
g90
ssg71
g580
sg64
(lp591
S':'
asbag57
(g78
g59
NtRp592
(dp593
g62
(dp594
sg71
g580
sg64
(lp595
g57
(g58
g59
NtRp596
(dp597
g62
(dp598
g70
I3
ssg71
g592
sg64
(lp599
S''
asbasbasbag57
(g73
g59
NtRp600
(dp601
g62
(dp602
sg71
g476
sg64
(lp603
g57
(g78
g59
NtRp604
(dp605
g62
(dp606
g82
g83
ssg71
g600
sg64
(lp607
g420
asbag57
(g78
g59
NtRp608
(dp609
g62
(dp610
g89
g90
ssg71
g600
sg64
(lp611
S':'
asbag57
(g78
g59
NtRp612
(dp613
g62
(dp614
sg71
g600
sg64
(lp615
g57
(g58
g59
NtRp616
(dp617
g62
(dp618
g70
I3
ssg71
g612
sg64
(lp619
S''
asbasbasbag57
(g73
g59
NtRp620
(dp621
g62
(dp622
sg71
g476
sg64
(lp623
g57
(g78
g59
NtRp624
(dp625
g62
(dp626
g82
g83
ssg71
g620
sg64
(lp627
g441
asbag57
(g78
g59
NtRp628
(dp629
g62
(dp630
g89
g90
ssg71
g620
sg64
(lp631
S':'
asbag57
(g78
g59
NtRp632
(dp633
g62
(dp634
sg71
g620
sg64
(lp635
g57
(g58
g59
NtRp636
(dp637
g62
(dp638
g70
I3
ssg71
g632
sg64
(lp639
S''
asbasbasbasbasbasbasbag57
(g73
g59
NtRp640
(dp641
g62
(dp642
sg71
g256
sg64
(lp643
g57
(g78
g59
NtRp644
(dp645
g62
(dp646
g82
g83
ssg71
g640
sg64
(lp647
S'session_id_photo_uploader'
p648
asbag57
(g78
g59
NtRp649
(dp650
g62
(dp651
g89
g90
ssg71
g640
sg64
(lp652
S':'
asbag57
(g78
g59
NtRp653
(dp654
g62
(dp655
sg71
g640
sg64
(lp656
g57
(g58
g59
NtRp657
(dp658
g62
(dp659
g70
I4
ssg71
g653
sg64
(lp660
S'127.0.0.1-cbc8ab18-0caf-4e95-89b6-df04f5fef73b'
p661
ag57
(g66
g59
NtRp662
(dp663
g62
(dp664
g70
I3
ssg71
Nsg64
(lp665
g57
(g73
g59
NtRp666
(dp667
g62
(dp668
sg71
g662
sg64
(lp669
g57
(g78
g59
NtRp670
(dp671
g62
(dp672
g82
g83
ssg71
g666
sg64
(lp673
g294
asbag57
(g78
g59
NtRp674
(dp675
g62
(dp676
g89
g90
ssg71
g666
sg64
(lp677
S':'
asbag57
(g78
g59
NtRp678
(dp679
g62
(dp680
sg71
g666
sg64
(lp681
g57
(g58
g59
NtRp682
(dp683
g62
(dp684
g70
I3
ssg71
g678
sg64
(lp685
S''
asbasbasbag57
(g73
g59
NtRp686
(dp687
g62
(dp688
sg71
g662
sg64
(lp689
g57
(g78
g59
NtRp690
(dp691
g62
(dp692
g82
g83
ssg71
g686
sg64
(lp693
g315
asbag57
(g78
g59
NtRp694
(dp695
g62
(dp696
g89
g90
ssg71
g686
sg64
(lp697
S':'
asbag57
(g78
g59
NtRp698
(dp699
g62
(dp700
sg71
g686
sg64
(lp701
g57
(g58
g59
NtRp702
(dp703
g62
(dp704
g70
I3
ssg71
g698
sg64
(lp705
S''
asbasbasbag57
(g73
g59
NtRp706
(dp707
g62
(dp708
sg71
g662
sg64
(lp709
g57
(g78
g59
NtRp710
(dp711
g62
(dp712
g82
g83
ssg71
g706
sg64
(lp713
g336
asbag57
(g78
g59
NtRp714
(dp715
g62
(dp716
g89
g90
ssg71
g706
sg64
(lp717
S':'
asbag57
(g78
g59
NtRp718
(dp719
g62
(dp720
sg71
g706
sg64
(lp721
g57
(g58
g59
NtRp722
(dp723
g62
(dp724
g70
I3
ssg71
g718
sg64
(lp725
S''
asbasbasbag57
(g73
g59
NtRp726
(dp727
g62
(dp728
sg71
g662
sg64
(lp729
g57
(g78
g59
NtRp730
(dp731
g62
(dp732
g82
g83
ssg71
g726
sg64
(lp733
g357
asbag57
(g78
g59
NtRp734
(dp735
g62
(dp736
g89
g90
ssg71
g726
sg64
(lp737
S':'
asbag57
(g78
g59
NtRp738
(dp739
g62
(dp740
sg71
g726
sg64
(lp741
g57
(g58
g59
NtRp742
(dp743
g62
(dp744
g70
I3
ssg71
g738
sg64
(lp745
S''
asbasbasbag57
(g73
g59
NtRp746
(dp747
g62
(dp748
sg71
g662
sg64
(lp749
g57
(g78
g59
NtRp750
(dp751
g62
(dp752
g82
g83
ssg71
g746
sg64
(lp753
g378
asbag57
(g78
g59
NtRp754
(dp755
g62
(dp756
g89
g90
ssg71
g746
sg64
(lp757
S':'
asbag57
(g78
g59
NtRp758
(dp759
g62
(dp760
sg71
g746
sg64
(lp761
g57
(g58
g59
NtRp762
(dp763
g62
(dp764
g70
I3
ssg71
g758
sg64
(lp765
S''
asbasbasbag57
(g73
g59
NtRp766
(dp767
g62
(dp768
sg71
g662
sg64
(lp769
g57
(g78
g59
NtRp770
(dp771
g62
(dp772
g82
g83
ssg71
g766
sg64
(lp773
g399
asbag57
(g78
g59
NtRp774
(dp775
g62
(dp776
g89
g90
ssg71
g766
sg64
(lp777
S':'
asbag57
(g78
g59
NtRp778
(dp779
g62
(dp780
sg71
g766
sg64
(lp781
g57
(g58
g59
NtRp782
(dp783
g62
(dp784
g70
I3
ssg71
g778
sg64
(lp785
S''
asbasbasbag57
(g73
g59
NtRp786
(dp787
g62
(dp788
sg71
g662
sg64
(lp789
g57
(g78
g59
NtRp790
(dp791
g62
(dp792
g82
g83
ssg71
g786
sg64
(lp793
g420
asbag57
(g78
g59
NtRp794
(dp795
g62
(dp796
g89
g90
ssg71
g786
sg64
(lp797
S':'
asbag57
(g78
g59
NtRp798
(dp799
g62
(dp800
sg71
g786
sg64
(lp801
g57
(g58
g59
NtRp802
(dp803
g62
(dp804
g70
I3
ssg71
g798
sg64
(lp805
S''
asbasbasbag57
(g73
g59
NtRp806
(dp807
g62
(dp808
sg71
g662
sg64
(lp809
g57
(g78
g59
NtRp810
(dp811
g62
(dp812
g82
g83
ssg71
g806
sg64
(lp813
g441
asbag57
(g78
g59
NtRp814
(dp815
g62
(dp816
g89
g90
ssg71
g806
sg64
(lp817
S':'
asbag57
(g78
g59
NtRp818
(dp819
g62
(dp820
sg71
g806
sg64
(lp821
g57
(g58
g59
NtRp822
(dp823
g62
(dp824
g70
I3
ssg71
g818
sg64
(lp825
S''
asbasbasbasbasbasbasbag57
(g73
g59
NtRp826
(dp827
g62
(dp828
sg71
g256
sg64
(lp829
g57
(g78
g59
NtRp830
(dp831
g62
(dp832
g82
g83
ssg71
g826
sg64
(lp833
S'session_id_proj'
p834
asbag57
(g78
g59
NtRp835
(dp836
g62
(dp837
g89
g90
ssg71
g826
sg64
(lp838
S':'
asbag57
(g78
g59
NtRp839
(dp840
g62
(dp841
sg71
g826
sg64
(lp842
g57
(g58
g59
NtRp843
(dp844
g62
(dp845
g70
I4
ssg71
g839
sg64
(lp846
S'127.0.0.1-635e16ea-0665-4048-b6b4-5dedee647613'
p847
ag57
(g66
g59
NtRp848
(dp849
g62
(dp850
g70
I3
ssg71
Nsg64
(lp851
g57
(g73
g59
NtRp852
(dp853
g62
(dp854
sg71
g848
sg64
(lp855
g57
(g78
g59
NtRp856
(dp857
g62
(dp858
g82
g83
ssg71
g852
sg64
(lp859
g294
asbag57
(g78
g59
NtRp860
(dp861
g62
(dp862
g89
g90
ssg71
g852
sg64
(lp863
S':'
asbag57
(g78
g59
NtRp864
(dp865
g62
(dp866
sg71
g852
sg64
(lp867
g57
(g58
g59
NtRp868
(dp869
g62
(dp870
g70
I3
ssg71
g864
sg64
(lp871
S''
asbasbasbag57
(g73
g59
NtRp872
(dp873
g62
(dp874
sg71
g848
sg64
(lp875
g57
(g78
g59
NtRp876
(dp877
g62
(dp878
g82
g83
ssg71
g872
sg64
(lp879
g315
asbag57
(g78
g59
NtRp880
(dp881
g62
(dp882
g89
g90
ssg71
g872
sg64
(lp883
S':'
asbag57
(g78
g59
NtRp884
(dp885
g62
(dp886
sg71
g872
sg64
(lp887
g57
(g58
g59
NtRp888
(dp889
g62
(dp890
g70
I3
ssg71
g884
sg64
(lp891
S''
asbasbasbag57
(g73
g59
NtRp892
(dp893
g62
(dp894
sg71
g848
sg64
(lp895
g57
(g78
g59
NtRp896
(dp897
g62
(dp898
g82
g83
ssg71
g892
sg64
(lp899
g336
asbag57
(g78
g59
NtRp900
(dp901
g62
(dp902
g89
g90
ssg71
g892
sg64
(lp903
S':'
asbag57
(g78
g59
NtRp904
(dp905
g62
(dp906
sg71
g892
sg64
(lp907
g57
(g58
g59
NtRp908
(dp909
g62
(dp910
g70
I3
ssg71
g904
sg64
(lp911
S''
asbasbasbag57
(g73
g59
NtRp912
(dp913
g62
(dp914
sg71
g848
sg64
(lp915
g57
(g78
g59
NtRp916
(dp917
g62
(dp918
g82
g83
ssg71
g912
sg64
(lp919
g357
asbag57
(g78
g59
NtRp920
(dp921
g62
(dp922
g89
g90
ssg71
g912
sg64
(lp923
S':'
asbag57
(g78
g59
NtRp924
(dp925
g62
(dp926
sg71
g912
sg64
(lp927
g57
(g58
g59
NtRp928
(dp929
g62
(dp930
g70
I3
ssg71
g924
sg64
(lp931
S''
asbasbasbag57
(g73
g59
NtRp932
(dp933
g62
(dp934
sg71
g848
sg64
(lp935
g57
(g78
g59
NtRp936
(dp937
g62
(dp938
g82
g83
ssg71
g932
sg64
(lp939
g378
asbag57
(g78
g59
NtRp940
(dp941
g62
(dp942
g89
g90
ssg71
g932
sg64
(lp943
S':'
asbag57
(g78
g59
NtRp944
(dp945
g62
(dp946
sg71
g932
sg64
(lp947
g57
(g58
g59
NtRp948
(dp949
g62
(dp950
g70
I3
ssg71
g944
sg64
(lp951
S''
asbasbasbag57
(g73
g59
NtRp952
(dp953
g62
(dp954
sg71
g848
sg64
(lp955
g57
(g78
g59
NtRp956
(dp957
g62
(dp958
g82
g83
ssg71
g952
sg64
(lp959
g399
asbag57
(g78
g59
NtRp960
(dp961
g62
(dp962
g89
g90
ssg71
g952
sg64
(lp963
S':'
asbag57
(g78
g59
NtRp964
(dp965
g62
(dp966
sg71
g952
sg64
(lp967
g57
(g58
g59
NtRp968
(dp969
g62
(dp970
g70
I3
ssg71
g964
sg64
(lp971
S''
asbasbasbag57
(g73
g59
NtRp972
(dp973
g62
(dp974
sg71
g848
sg64
(lp975
g57
(g78
g59
NtRp976
(dp977
g62
(dp978
g82
g83
ssg71
g972
sg64
(lp979
g420
asbag57
(g78
g59
NtRp980
(dp981
g62
(dp982
g89
g90
ssg71
g972
sg64
(lp983
S':'
asbag57
(g78
g59
NtRp984
(dp985
g62
(dp986
sg71
g972
sg64
(lp987
g57
(g58
g59
NtRp988
(dp989
g62
(dp990
g70
I3
ssg71
g984
sg64
(lp991
S''
asbasbasbag57
(g73
g59
NtRp992
(dp993
g62
(dp994
sg71
g848
sg64
(lp995
g57
(g78
g59
NtRp996
(dp997
g62
(dp998
g82
g83
ssg71
g992
sg64
(lp999
g441
asbag57
(g78
g59
NtRp1000
(dp1001
g62
(dp1002
g89
g90
ssg71
g992
sg64
(lp1003
S':'
asbag57
(g78
g59
NtRp1004
(dp1005
g62
(dp1006
sg71
g992
sg64
(lp1007
g57
(g58
g59
NtRp1008
(dp1009
g62
(dp1010
g70
I3
ssg71
g1004
sg64
(lp1011
S''
asbasbasbasbasbasbasbag57
(g73
g59
NtRp1012
(dp1013
g62
(dp1014
sg71
g256
sg64
(lp1015
g57
(g78
g59
NtRp1016
(dp1017
g62
(dp1018
g82
g83
ssg71
g1012
sg64
(lp1019
S'session_id_welcome'
p1020
asbag57
(g78
g59
NtRp1021
(dp1022
g62
(dp1023
g89
g90
ssg71
g1012
sg64
(lp1024
S':'
asbag57
(g78
g59
NtRp1025
(dp1026
g62
(dp1027
sg71
g1012
sg64
(lp1028
g57
(g58
g59
NtRp1029
(dp1030
g62
(dp1031
g70
I4
ssg71
g1025
sg64
(lp1032
S'127.0.0.1-6025786b-dfc4-4072-8989-30cc0d295efc'
p1033
ag57
(g66
g59
NtRp1034
(dp1035
g62
(dp1036
g70
I3
ssg71
Nsg64
(lp1037
g57
(g73
g59
NtRp1038
(dp1039
g62
(dp1040
sg71
g1034
sg64
(lp1041
g57
(g78
g59
NtRp1042
(dp1043
g62
(dp1044
g82
g83
ssg71
g1038
sg64
(lp1045
g294
asbag57
(g78
g59
NtRp1046
(dp1047
g62
(dp1048
g89
g90
ssg71
g1038
sg64
(lp1049
S':'
asbag57
(g78
g59
NtRp1050
(dp1051
g62
(dp1052
sg71
g1038
sg64
(lp1053
g57
(g58
g59
NtRp1054
(dp1055
g62
(dp1056
g70
I3
ssg71
g1050
sg64
(lp1057
S''
asbasbasbag57
(g73
g59
NtRp1058
(dp1059
g62
(dp1060
sg71
g1034
sg64
(lp1061
g57
(g78
g59
NtRp1062
(dp1063
g62
(dp1064
g82
g83
ssg71
g1058
sg64
(lp1065
g315
asbag57
(g78
g59
NtRp1066
(dp1067
g62
(dp1068
g89
g90
ssg71
g1058
sg64
(lp1069
S':'
asbag57
(g78
g59
NtRp1070
(dp1071
g62
(dp1072
sg71
g1058
sg64
(lp1073
g57
(g58
g59
NtRp1074
(dp1075
g62
(dp1076
g70
I3
ssg71
g1070
sg64
(lp1077
S''
asbasbasbag57
(g73
g59
NtRp1078
(dp1079
g62
(dp1080
sg71
g1034
sg64
(lp1081
g57
(g78
g59
NtRp1082
(dp1083
g62
(dp1084
g82
g83
ssg71
g1078
sg64
(lp1085
g336
asbag57
(g78
g59
NtRp1086
(dp1087
g62
(dp1088
g89
g90
ssg71
g1078
sg64
(lp1089
S':'
asbag57
(g78
g59
NtRp1090
(dp1091
g62
(dp1092
sg71
g1078
sg64
(lp1093
g57
(g58
g59
NtRp1094
(dp1095
g62
(dp1096
g70
I3
ssg71
g1090
sg64
(lp1097
S''
asbasbasbag57
(g73
g59
NtRp1098
(dp1099
g62
(dp1100
sg71
g1034
sg64
(lp1101
g57
(g78
g59
NtRp1102
(dp1103
g62
(dp1104
g82
g83
ssg71
g1098
sg64
(lp1105
g357
asbag57
(g78
g59
NtRp1106
(dp1107
g62
(dp1108
g89
g90
ssg71
g1098
sg64
(lp1109
S':'
asbag57
(g78
g59
NtRp1110
(dp1111
g62
(dp1112
sg71
g1098
sg64
(lp1113
g57
(g58
g59
NtRp1114
(dp1115
g62
(dp1116
g70
I3
ssg71
g1110
sg64
(lp1117
S''
asbasbasbag57
(g73
g59
NtRp1118
(dp1119
g62
(dp1120
sg71
g1034
sg64
(lp1121
g57
(g78
g59
NtRp1122
(dp1123
g62
(dp1124
g82
g83
ssg71
g1118
sg64
(lp1125
g378
asbag57
(g78
g59
NtRp1126
(dp1127
g62
(dp1128
g89
g90
ssg71
g1118
sg64
(lp1129
S':'
asbag57
(g78
g59
NtRp1130
(dp1131
g62
(dp1132
sg71
g1118
sg64
(lp1133
g57
(g58
g59
NtRp1134
(dp1135
g62
(dp1136
g70
I3
ssg71
g1130
sg64
(lp1137
S''
asbasbasbag57
(g73
g59
NtRp1138
(dp1139
g62
(dp1140
sg71
g1034
sg64
(lp1141
g57
(g78
g59
NtRp1142
(dp1143
g62
(dp1144
g82
g83
ssg71
g1138
sg64
(lp1145
g399
asbag57
(g78
g59
NtRp1146
(dp1147
g62
(dp1148
g89
g90
ssg71
g1138
sg64
(lp1149
S':'
asbag57
(g78
g59
NtRp1150
(dp1151
g62
(dp1152
sg71
g1138
sg64
(lp1153
g57
(g58
g59
NtRp1154
(dp1155
g62
(dp1156
g70
I3
ssg71
g1150
sg64
(lp1157
S''
asbasbasbag57
(g73
g59
NtRp1158
(dp1159
g62
(dp1160
sg71
g1034
sg64
(lp1161
g57
(g78
g59
NtRp1162
(dp1163
g62
(dp1164
g82
g83
ssg71
g1158
sg64
(lp1165
g420
asbag57
(g78
g59
NtRp1166
(dp1167
g62
(dp1168
g89
g90
ssg71
g1158
sg64
(lp1169
S':'
asbag57
(g78
g59
NtRp1170
(dp1171
g62
(dp1172
sg71
g1158
sg64
(lp1173
g57
(g58
g59
NtRp1174
(dp1175
g62
(dp1176
g70
I3
ssg71
g1170
sg64
(lp1177
S''
asbasbasbag57
(g73
g59
NtRp1178
(dp1179
g62
(dp1180
sg71
g1034
sg64
(lp1181
g57
(g78
g59
NtRp1182
(dp1183
g62
(dp1184
g82
g83
ssg71
g1178
sg64
(lp1185
g441
asbag57
(g78
g59
NtRp1186
(dp1187
g62
(dp1188
g89
g90
ssg71
g1178
sg64
(lp1189
S':'
asbag57
(g78
g59
NtRp1190
(dp1191
g62
(dp1192
sg71
g1178
sg64
(lp1193
g57
(g58
g59
NtRp1194
(dp1195
g62
(dp1196
g70
I3
ssg71
g1190
sg64
(lp1197
S''
asbasbasbasbasbasbasbag57
(g73
g59
NtRp1198
(dp1199
g62
(dp1200
sg71
g256
sg64
(lp1201
g57
(g78
g59
NtRp1202
(dp1203
g62
(dp1204
g82
g83
ssg71
g1198
sg64
(lp1205
S'session_id_worldquant'
p1206
asbag57
(g78
g59
NtRp1207
(dp1208
g62
(dp1209
g89
g90
ssg71
g1198
sg64
(lp1210
S':'
asbag57
(g78
g59
NtRp1211
(dp1212
g62
(dp1213
sg71
g1198
sg64
(lp1214
g57
(g58
g59
NtRp1215
(dp1216
g62
(dp1217
g70
I4
ssg71
g1211
sg64
(lp1218
S'127.0.0.1-ac577e6b-de07-464b-94ad-b0bc6e115852'
p1219
ag57
(g66
g59
NtRp1220
(dp1221
g62
(dp1222
g70
I3
ssg71
Nsg64
(lp1223
g57
(g73
g59
NtRp1224
(dp1225
g62
(dp1226
sg71
g1220
sg64
(lp1227
g57
(g78
g59
NtRp1228
(dp1229
g62
(dp1230
g82
g83
ssg71
g1224
sg64
(lp1231
g294
asbag57
(g78
g59
NtRp1232
(dp1233
g62
(dp1234
g89
g90
ssg71
g1224
sg64
(lp1235
S':'
asbag57
(g78
g59
NtRp1236
(dp1237
g62
(dp1238
sg71
g1224
sg64
(lp1239
g57
(g58
g59
NtRp1240
(dp1241
g62
(dp1242
g70
I3
ssg71
g1236
sg64
(lp1243
S''
asbasbasbag57
(g73
g59
NtRp1244
(dp1245
g62
(dp1246
sg71
g1220
sg64
(lp1247
g57
(g78
g59
NtRp1248
(dp1249
g62
(dp1250
g82
g83
ssg71
g1244
sg64
(lp1251
g315
asbag57
(g78
g59
NtRp1252
(dp1253
g62
(dp1254
g89
g90
ssg71
g1244
sg64
(lp1255
S':'
asbag57
(g78
g59
NtRp1256
(dp1257
g62
(dp1258
sg71
g1244
sg64
(lp1259
g57
(g58
g59
NtRp1260
(dp1261
g62
(dp1262
g70
I3
ssg71
g1256
sg64
(lp1263
S''
asbasbasbag57
(g73
g59
NtRp1264
(dp1265
g62
(dp1266
sg71
g1220
sg64
(lp1267
g57
(g78
g59
NtRp1268
(dp1269
g62
(dp1270
g82
g83
ssg71
g1264
sg64
(lp1271
g336
asbag57
(g78
g59
NtRp1272
(dp1273
g62
(dp1274
g89
g90
ssg71
g1264
sg64
(lp1275
S':'
asbag57
(g78
g59
NtRp1276
(dp1277
g62
(dp1278
sg71
g1264
sg64
(lp1279
g57
(g58
g59
NtRp1280
(dp1281
g62
(dp1282
g70
I3
ssg71
g1276
sg64
(lp1283
S''
asbasbasbag57
(g73
g59
NtRp1284
(dp1285
g62
(dp1286
sg71
g1220
sg64
(lp1287
g57
(g78
g59
NtRp1288
(dp1289
g62
(dp1290
g82
g83
ssg71
g1284
sg64
(lp1291
g357
asbag57
(g78
g59
NtRp1292
(dp1293
g62
(dp1294
g89
g90
ssg71
g1284
sg64
(lp1295
S':'
asbag57
(g78
g59
NtRp1296
(dp1297
g62
(dp1298
sg71
g1284
sg64
(lp1299
g57
(g58
g59
NtRp1300
(dp1301
g62
(dp1302
g70
I3
ssg71
g1296
sg64
(lp1303
S''
asbasbasbag57
(g73
g59
NtRp1304
(dp1305
g62
(dp1306
sg71
g1220
sg64
(lp1307
g57
(g78
g59
NtRp1308
(dp1309
g62
(dp1310
g82
g83
ssg71
g1304
sg64
(lp1311
g378
asbag57
(g78
g59
NtRp1312
(dp1313
g62
(dp1314
g89
g90
ssg71
g1304
sg64
(lp1315
S':'
asbag57
(g78
g59
NtRp1316
(dp1317
g62
(dp1318
sg71
g1304
sg64
(lp1319
g57
(g58
g59
NtRp1320
(dp1321
g62
(dp1322
g70
I3
ssg71
g1316
sg64
(lp1323
S''
asbasbasbag57
(g73
g59
NtRp1324
(dp1325
g62
(dp1326
sg71
g1220
sg64
(lp1327
g57
(g78
g59
NtRp1328
(dp1329
g62
(dp1330
g82
g83
ssg71
g1324
sg64
(lp1331
g399
asbag57
(g78
g59
NtRp1332
(dp1333
g62
(dp1334
g89
g90
ssg71
g1324
sg64
(lp1335
S':'
asbag57
(g78
g59
NtRp1336
(dp1337
g62
(dp1338
sg71
g1324
sg64
(lp1339
g57
(g58
g59
NtRp1340
(dp1341
g62
(dp1342
g70
I3
ssg71
g1336
sg64
(lp1343
S''
asbasbasbag57
(g73
g59
NtRp1344
(dp1345
g62
(dp1346
sg71
g1220
sg64
(lp1347
g57
(g78
g59
NtRp1348
(dp1349
g62
(dp1350
g82
g83
ssg71
g1344
sg64
(lp1351
g420
asbag57
(g78
g59
NtRp1352
(dp1353
g62
(dp1354
g89
g90
ssg71
g1344
sg64
(lp1355
S':'
asbag57
(g78
g59
NtRp1356
(dp1357
g62
(dp1358
sg71
g1344
sg64
(lp1359
g57
(g58
g59
NtRp1360
(dp1361
g62
(dp1362
g70
I3
ssg71
g1356
sg64
(lp1363
S''
asbasbasbag57
(g73
g59
NtRp1364
(dp1365
g62
(dp1366
sg71
g1220
sg64
(lp1367
g57
(g78
g59
NtRp1368
(dp1369
g62
(dp1370
g82
g83
ssg71
g1364
sg64
(lp1371
g441
asbag57
(g78
g59
NtRp1372
(dp1373
g62
(dp1374
g89
g90
ssg71
g1364
sg64
(lp1375
S':'
asbag57
(g78
g59
NtRp1376
(dp1377
g62
(dp1378
sg71
g1364
sg64
(lp1379
g57
(g58
g59
NtRp1380
(dp1381
g62
(dp1382
g70
I3
ssg71
g1376
sg64
(lp1383
S''
asbasbasbasbasbasbasbasbasbasbasbag57
(g73
g59
NtRp1384
(dp1385
g62
(dp1386
sg71
g67
sg64
(lp1387
g57
(g78
g59
NtRp1388
(dp1389
g62
(dp1390
g82
g83
ssg71
g1384
sg64
(lp1391
S'env'
p1392
asbag57
(g78
g59
NtRp1393
(dp1394
g62
(dp1395
g89
g90
ssg71
g1384
sg64
(lp1396
S':'
asbag57
(g78
g59
NtRp1397
(dp1398
g62
(dp1399
sg71
g1384
sg64
(lp1400
g57
(g58
g59
NtRp1401
(dp1402
g62
(dp1403
g70
I5
ssg71
g1397
sg64
(lp1404
g57
(g66
g59
NtRp1405
(dp1406
g62
(dp1407
g70
I4
ssg71
Nsg64
(lp1408
g57
(g73
g59
NtRp1409
(dp1410
g62
(dp1411
sg71
g1405
sg64
(lp1412
g57
(g78
g59
NtRp1413
(dp1414
g62
(dp1415
g82
g83
ssg71
g1409
sg64
(lp1416
S'app_folders'
p1417
asbag57
(g78
g59
NtRp1418
(dp1419
g62
(dp1420
g89
g90
ssg71
g1409
sg64
(lp1421
S':'
asbag57
(g78
g59
NtRp1422
(dp1423
g62
(dp1424
sg71
g1409
sg64
(lp1425
g57
(g58
g59
NtRp1426
(dp1427
g62
(dp1428
g70
I4
ssg71
g1422
sg64
(lp1429
S"set(['/home/mayank/gitrepo/Twitter-Sentiment-Analysis/front-end/web2py/applications/admin/', '/home/mayank/gitrepo/Twitter-Sentiment-Analysis/front-end/web2py/applications/FunkLoad/', '/home/mayank/gitrepo/Twitter-Sentiment-Analysis/front-end/web2py/applications/welcome/'])"
p1430
asbasbasbag57
(g73
g59
NtRp1431
(dp1432
g62
(dp1433
sg71
g1405
sg64
(lp1434
g57
(g78
g59
NtRp1435
(dp1436
g62
(dp1437
g82
g83
ssg71
g1431
sg64
(lp1438
S'applications_parent'
p1439
asbag57
(g78
g59
NtRp1440
(dp1441
g62
(dp1442
g89
g90
ssg71
g1431
sg64
(lp1443
S':'
asbag57
(g78
g59
NtRp1444
(dp1445
g62
(dp1446
sg71
g1431
sg64
(lp1447
g57
(g58
g59
NtRp1448
(dp1449
g62
(dp1450
g70
I4
ssg71
g1444
sg64
(lp1451
S'/home/mayank/gitrepo/Twitter-Sentiment-Analysis/front-end/web2py'
p1452
asbasbasbag57
(g73
g59
NtRp1453
(dp1454
g62
(dp1455
sg71
g1405
sg64
(lp1456
g57
(g78
g59
NtRp1457
(dp1458
g62
(dp1459
g82
g83
ssg71
g1453
sg64
(lp1460
S'cmd_args'
p1461
asbag57
(g78
g59
NtRp1462
(dp1463
g62
(dp1464
g89
g90
ssg71
g1453
sg64
(lp1465
S':'
asbag57
(g78
g59
NtRp1466
(dp1467
g62
(dp1468
sg71
g1453
sg64
(lp1469
g57
(g58
g59
NtRp1470
(dp1471
g62
(dp1472
g70
I4
ssg71
g1466
sg64
(lp1473
g57
(g66
g59
NtRp1474
(dp1475
g62
(dp1476
g70
I3
ssg71
Nsg64
(lp1477
sbasbasbasbag57
(g73
g59
NtRp1478
(dp1479
g62
(dp1480
sg71
g1405
sg64
(lp1481
g57
(g78
g59
NtRp1482
(dp1483
g62
(dp1484
g82
g83
ssg71
g1478
sg64
(lp1485
S'cmd_options'
p1486
asbag57
(g78
g59
NtRp1487
(dp1488
g62
(dp1489
g89
g90
ssg71
g1478
sg64
(lp1490
S':'
asbag57
(g78
g59
NtRp1491
(dp1492
g62
(dp1493
sg71
g1478
sg64
(lp1494
g57
(g58
g59
NtRp1495
(dp1496
g62
(dp1497
g70
I4
ssg71
g1491
sg64
(lp1498
S"<Values at 0x2820560: {'verbose': False, 'ip': '127.0.0.1', 'with_scheduler': False, 'ips': ['127.0.1.1', '10.1.33.121'], 'shutdown_timeout': 5, 'taskbar': False, 'port': 8000, 'maxthreads': None, 'softcron': False, 'server_name': 'mayank', 'bpython': False, 'nogui': False, 'nocron': False, 'extcron': False, 'run_system_tests': False, 'test': None, 'folder': '/home/mayank/gitrepo/Twitter-Sentiment-Analysis/front-end/web2py', 'config': '', 'import_models': False, 'winservice': '', 'shell': None, 'run': '', 'log_filename': 'httpserver.log', 'debuglevel': 30, 'args': [''], 'socket_timeout': 5, 'ssl_ca_certificate': None, 'scheduler': None, 'profiler_filename': None, 'ssl_private_key': '', 'scheduler_groups': None, 'password': '<ask>', 'request_queue_size': 5, 'ssl_certificate': '', 'cronjob': False, 'numthreads': None, 'quiet': False, 'interfaces': None, 'minthreads': None, 'timeout': 10, 'plain': False, 'nobanner': False, 'pid_filename': 'httpserver.pid'}>"
p1499
asbasbasbag57
(g73
g59
NtRp1500
(dp1501
g62
(dp1502
sg71
g1405
sg64
(lp1503
g57
(g78
g59
NtRp1504
(dp1505
g62
(dp1506
g82
g83
ssg71
g1500
sg64
(lp1507
S'db_sessions'
p1508
asbag57
(g78
g59
NtRp1509
(dp1510
g62
(dp1511
g89
g90
ssg71
g1500
sg64
(lp1512
S':'
asbag57
(g78
g59
NtRp1513
(dp1514
g62
(dp1515
sg71
g1500
sg64
(lp1516
g57
(g58
g59
NtRp1517
(dp1518
g62
(dp1519
g70
I4
ssg71
g1513
sg64
(lp1520
S'set([])'
p1521
asbasbasbag57
(g73
g59
NtRp1522
(dp1523
g62
(dp1524
sg71
g1405
sg64
(lp1525
g57
(g78
g59
NtRp1526
(dp1527
g62
(dp1528
g82
g83
ssg71
g1522
sg64
(lp1529
S'debugging'
p1530
asbag57
(g78
g59
NtRp1531
(dp1532
g62
(dp1533
g89
g90
ssg71
g1522
sg64
(lp1534
S':'
asbag57
(g78
g59
NtRp1535
(dp1536
g62
(dp1537
sg71
g1522
sg64
(lp1538
g57
(g58
g59
NtRp1539
(dp1540
g62
(dp1541
g70
I4
ssg71
g1535
sg64
(lp1542
g100
asbasbasbag57
(g73
g59
NtRp1543
(dp1544
g62
(dp1545
sg71
g1405
sg64
(lp1546
g57
(g78
g59
NtRp1547
(dp1548
g62
(dp1549
g82
g83
ssg71
g1543
sg64
(lp1550
S'gluon_parent'
p1551
asbag57
(g78
g59
NtRp1552
(dp1553
g62
(dp1554
g89
g90
ssg71
g1543
sg64
(lp1555
S':'
asbag57
(g78
g59
NtRp1556
(dp1557
g62
(dp1558
sg71
g1543
sg64
(lp1559
g57
(g58
g59
NtRp1560
(dp1561
g62
(dp1562
g70
I4
ssg71
g1556
sg64
(lp1563
S'/home/mayank/gitrepo/Twitter-Sentiment-Analysis/front-end/web2py'
p1564
asbasbasbag57
(g73
g59
NtRp1565
(dp1566
g62
(dp1567
sg71
g1405
sg64
(lp1568
g57
(g78
g59
NtRp1569
(dp1570
g62
(dp1571
g82
g83
ssg71
g1565
sg64
(lp1572
S'http_accept'
p1573
asbag57
(g78
g59
NtRp1574
(dp1575
g62
(dp1576
g89
g90
ssg71
g1565
sg64
(lp1577
S':'
asbag57
(g78
g59
NtRp1578
(dp1579
g62
(dp1580
sg71
g1565
sg64
(lp1581
g57
(g58
g59
NtRp1582
(dp1583
g62
(dp1584
g70
I4
ssg71
g1578
sg64
(lp1585
S'text/html,application/xhtml+xml,application/xml;q=0.9,*/*;q=0.8'
p1586
asbasbasbag57
(g73
g59
NtRp1587
(dp1588
g62
(dp1589
sg71
g1405
sg64
(lp1590
g57
(g78
g59
NtRp1591
(dp1592
g62
(dp1593
g82
g83
ssg71
g1587
sg64
(lp1594
S'http_accept_encoding'
p1595
asbag57
(g78
g59
NtRp1596
(dp1597
g62
(dp1598
g89
g90
ssg71
g1587
sg64
(lp1599
S':'
asbag57
(g78
g59
NtRp1600
(dp1601
g62
(dp1602
sg71
g1587
sg64
(lp1603
g57
(g58
g59
NtRp1604
(dp1605
g62
(dp1606
g70
I4
ssg71
g1600
sg64
(lp1607
S'gzip, deflate'
p1608
asbasbasbag57
(g73
g59
NtRp1609
(dp1610
g62
(dp1611
sg71
g1405
sg64
(lp1612
g57
(g78
g59
NtRp1613
(dp1614
g62
(dp1615
g82
g83
ssg71
g1609
sg64
(lp1616
S'http_accept_language'
p1617
asbag57
(g78
g59
NtRp1618
(dp1619
g62
(dp1620
g89
g90
ssg71
g1609
sg64
(lp1621
S':'
asbag57
(g78
g59
NtRp1622
(dp1623
g62
(dp1624
sg71
g1609
sg64
(lp1625
g57
(g58
g59
NtRp1626
(dp1627
g62
(dp1628
g70
I4
ssg71
g1622
sg64
(lp1629
S'en-US,en;q=0.5'
p1630
asbasbasbag57
(g73
g59
NtRp1631
(dp1632
g62
(dp1633
sg71
g1405
sg64
(lp1634
g57
(g78
g59
NtRp1635
(dp1636
g62
(dp1637
g82
g83
ssg71
g1631
sg64
(lp1638
S'http_connection'
p1639
asbag57
(g78
g59
NtRp1640
(dp1641
g62
(dp1642
g89
g90
ssg71
g1631
sg64
(lp1643
S':'
asbag57
(g78
g59
NtRp1644
(dp1645
g62
(dp1646
sg71
g1631
sg64
(lp1647
g57
(g58
g59
NtRp1648
(dp1649
g62
(dp1650
g70
I4
ssg71
g1644
sg64
(lp1651
S'keep-alive'
p1652
asbasbasbag57
(g73
g59
NtRp1653
(dp1654
g62
(dp1655
sg71
g1405
sg64
(lp1656
g57
(g78
g59
NtRp1657
(dp1658
g62
(dp1659
g82
g83
ssg71
g1653
sg64
(lp1660
S'http_cookie'
p1661
asbag57
(g78
g59
NtRp1662
(dp1663
g62
(dp1664
g89
g90
ssg71
g1653
sg64
(lp1665
S':'
asbag57
(g78
g59
NtRp1666
(dp1667
g62
(dp1668
sg71
g1653
sg64
(lp1669
g57
(g58
g59
NtRp1670
(dp1671
g62
(dp1672
g70
I4
ssg71
g1666
sg64
(lp1673
S'session_id_welcome=127.0.0.1-6025786b-dfc4-4072-8989-30cc0d295efc; session_id_admin=127.0.0.1-554f35e1-d9e6-4af1-a80d-537fcac15f96; session_id_worldquant=127.0.0.1-ac577e6b-de07-464b-94ad-b0bc6e115852; session_id_photo_uploader=127.0.0.1-cbc8ab18-0caf-4e95-89b6-df04f5fef73b; session_id_proj=127.0.0.1-635e16ea-0665-4048-b6b4-5dedee647613; session_id_funkload=127.0.0.1-a98b320f-b070-488d-ad40-6bbec9939460'
p1674
asbasbasbag57
(g73
g59
NtRp1675
(dp1676
g62
(dp1677
sg71
g1405
sg64
(lp1678
g57
(g78
g59
NtRp1679
(dp1680
g62
(dp1681
g82
g83
ssg71
g1675
sg64
(lp1682
S'http_host'
p1683
asbag57
(g78
g59
NtRp1684
(dp1685
g62
(dp1686
g89
g90
ssg71
g1675
sg64
(lp1687
S':'
asbag57
(g78
g59
NtRp1688
(dp1689
g62
(dp1690
sg71
g1675
sg64
(lp1691
g57
(g58
g59
NtRp1692
(dp1693
g62
(dp1694
g70
I4
ssg71
g1688
sg64
(lp1695
S'127.0.0.1:8000'
p1696
asbasbasbag57
(g73
g59
NtRp1697
(dp1698
g62
(dp1699
sg71
g1405
sg64
(lp1700
g57
(g78
g59
NtRp1701
(dp1702
g62
(dp1703
g82
g83
ssg71
g1697
sg64
(lp1704
S'http_referer'
p1705
asbag57
(g78
g59
NtRp1706
(dp1707
g62
(dp1708
g89
g90
ssg71
g1697
sg64
(lp1709
S':'
asbag57
(g78
g59
NtRp1710
(dp1711
g62
(dp1712
sg71
g1697
sg64
(lp1713
g57
(g58
g59
NtRp1714
(dp1715
g62
(dp1716
g70
I4
ssg71
g1710
sg64
(lp1717
S'http://127.0.0.1:8000/admin/default/design/FunkLoad'
p1718
asbasbasbag57
(g73
g59
NtRp1719
(dp1720
g62
(dp1721
sg71
g1405
sg64
(lp1722
g57
(g78
g59
NtRp1723
(dp1724
g62
(dp1725
g82
g83
ssg71
g1719
sg64
(lp1726
S'http_user_agent'
p1727
asbag57
(g78
g59
NtRp1728
(dp1729
g62
(dp1730
g89
g90
ssg71
g1719
sg64
(lp1731
S':'
asbag57
(g78
g59
NtRp1732
(dp1733
g62
(dp1734
sg71
g1719
sg64
(lp1735
g57
(g58
g59
NtRp1736
(dp1737
g62
(dp1738
g70
I4
ssg71
g1732
sg64
(lp1739
S'Mozilla/5.0 (X11; Ubuntu; Linux x86_64; rv:26.0) Gecko/20100101 Firefox/26.0'
p1740
asbasbasbag57
(g73
g59
NtRp1741
(dp1742
g62
(dp1743
sg71
g1405
sg64
(lp1744
g57
(g78
g59
NtRp1745
(dp1746
g62
(dp1747
g82
g83
ssg71
g1741
sg64
(lp1748
S'is_jython'
p1749
asbag57
(g78
g59
NtRp1750
(dp1751
g62
(dp1752
g89
g90
ssg71
g1741
sg64
(lp1753
S':'
asbag57
(g78
g59
NtRp1754
(dp1755
g62
(dp1756
sg71
g1741
sg64
(lp1757
g57
(g58
g59
NtRp1758
(dp1759
g62
(dp1760
g70
I4
ssg71
g1754
sg64
(lp1761
g100
asbasbasbag57
(g73
g59
NtRp1762
(dp1763
g62
(dp1764
sg71
g1405
sg64
(lp1765
g57
(g78
g59
NtRp1766
(dp1767
g62
(dp1768
g82
g83
ssg71
g1762
sg64
(lp1769
S'is_pypy'
p1770
asbag57
(g78
g59
NtRp1771
(dp1772
g62
(dp1773
g89
g90
ssg71
g1762
sg64
(lp1774
S':'
asbag57
(g78
g59
NtRp1775
(dp1776
g62
(dp1777
sg71
g1762
sg64
(lp1778
g57
(g58
g59
NtRp1779
(dp1780
g62
(dp1781
g70
I4
ssg71
g1775
sg64
(lp1782
g100
asbasbasbag57
(g73
g59
NtRp1783
(dp1784
g62
(dp1785
sg71
g1405
sg64
(lp1786
g57
(g78
g59
NtRp1787
(dp1788
g62
(dp1789
g82
g83
ssg71
g1783
sg64
(lp1790
S'path_info'
p1791
asbag57
(g78
g59
NtRp1792
(dp1793
g62
(dp1794
g89
g90
ssg71
g1783
sg64
(lp1795
S':'
asbag57
(g78
g59
NtRp1796
(dp1797
g62
(dp1798
sg71
g1783
sg64
(lp1799
g57
(g58
g59
NtRp1800
(dp1801
g62
(dp1802
g70
I4
ssg71
g1796
sg64
(lp1803
S'/FunkLoad/default/index'
p1804
asbasbasbag57
(g73
g59
NtRp1805
(dp1806
g62
(dp1807
sg71
g1405
sg64
(lp1808
g57
(g78
g59
NtRp1809
(dp1810
g62
(dp1811
g82
g83
ssg71
g1805
sg64
(lp1812
S'query_string'
p1813
asbag57
(g78
g59
NtRp1814
(dp1815
g62
(dp1816
g89
g90
ssg71
g1805
sg64
(lp1817
S':'
asbag57
(g78
g59
NtRp1818
(dp1819
g62
(dp1820
sg71
g1805
sg64
(lp1821
g57
(g58
g59
NtRp1822
(dp1823
g62
(dp1824
g70
I4
ssg71
g1818
sg64
(lp1825
S''
asbasbasbag57
(g73
g59
NtRp1826
(dp1827
g62
(dp1828
sg71
g1405
sg64
(lp1829
g57
(g78
g59
NtRp1830
(dp1831
g62
(dp1832
g82
g83
ssg71
g1826
sg64
(lp1833
S'remote_addr'
p1834
asbag57
(g78
g59
NtRp1835
(dp1836
g62
(dp1837
g89
g90
ssg71
g1826
sg64
(lp1838
S':'
asbag57
(g78
g59
NtRp1839
(dp1840
g62
(dp1841
sg71
g1826
sg64
(lp1842
g57
(g58
g59
NtRp1843
(dp1844
g62
(dp1845
g70
I4
ssg71
g1839
sg64
(lp1846
g212
asbasbasbag57
(g73
g59
NtRp1847
(dp1848
g62
(dp1849
sg71
g1405
sg64
(lp1850
g57
(g78
g59
NtRp1851
(dp1852
g62
(dp1853
g82
g83
ssg71
g1847
sg64
(lp1854
S'remote_port'
p1855
asbag57
(g78
g59
NtRp1856
(dp1857
g62
(dp1858
g89
g90
ssg71
g1847
sg64
(lp1859
S':'
asbag57
(g78
g59
NtRp1860
(dp1861
g62
(dp1862
sg71
g1847
sg64
(lp1863
g57
(g58
g59
NtRp1864
(dp1865
g62
(dp1866
g70
I4
ssg71
g1860
sg64
(lp1867
S'60035'
p1868
asbasbasbag57
(g73
g59
NtRp1869
(dp1870
g62
(dp1871
sg71
g1405
sg64
(lp1872
g57
(g78
g59
NtRp1873
(dp1874
g62
(dp1875
g82
g83
ssg71
g1869
sg64
(lp1876
S'request_method'
p1877
asbag57
(g78
g59
NtRp1878
(dp1879
g62
(dp1880
g89
g90
ssg71
g1869
sg64
(lp1881
S':'
asbag57
(g78
g59
NtRp1882
(dp1883
g62
(dp1884
sg71
g1869
sg64
(lp1885
g57
(g58
g59
NtRp1886
(dp1887
g62
(dp1888
g70
I4
ssg71
g1882
sg64
(lp1889
S'GET'
p1890
asbasbasbag57
(g73
g59
NtRp1891
(dp1892
g62
(dp1893
sg71
g1405
sg64
(lp1894
g57
(g78
g59
NtRp1895
(dp1896
g62
(dp1897
g82
g83
ssg71
g1891
sg64
(lp1898
S'request_uri'
p1899
asbag57
(g78
g59
NtRp1900
(dp1901
g62
(dp1902
g89
g90
ssg71
g1891
sg64
(lp1903
S':'
asbag57
(g78
g59
NtRp1904
(dp1905
g62
(dp1906
sg71
g1891
sg64
(lp1907
g57
(g58
g59
NtRp1908
(dp1909
g62
(dp1910
g70
I4
ssg71
g1904
sg64
(lp1911
g1804
asbasbasbag57
(g73
g59
NtRp1912
(dp1913
g62
(dp1914
sg71
g1405
sg64
(lp1915
g57
(g78
g59
NtRp1916
(dp1917
g62
(dp1918
g82
g83
ssg71
g1912
sg64
(lp1919
S'script_name'
p1920
asbag57
(g78
g59
NtRp1921
(dp1922
g62
(dp1923
g89
g90
ssg71
g1912
sg64
(lp1924
S':'
asbag57
(g78
g59
NtRp1925
(dp1926
g62
(dp1927
sg71
g1912
sg64
(lp1928
g57
(g58
g59
NtRp1929
(dp1930
g62
(dp1931
g70
I4
ssg71
g1925
sg64
(lp1932
S''
asbasbasbag57
(g73
g59
NtRp1933
(dp1934
g62
(dp1935
sg71
g1405
sg64
(lp1936
g57
(g78
g59
NtRp1937
(dp1938
g62
(dp1939
g82
g83
ssg71
g1933
sg64
(lp1940
S'server_name'
p1941
asbag57
(g78
g59
NtRp1942
(dp1943
g62
(dp1944
g89
g90
ssg71
g1933
sg64
(lp1945
S':'
asbag57
(g78
g59
NtRp1946
(dp1947
g62
(dp1948
sg71
g1933
sg64
(lp1949
g57
(g58
g59
NtRp1950
(dp1951
g62
(dp1952
g70
I4
ssg71
g1946
sg64
(lp1953
S'mayank'
p1954
asbasbasbag57
(g73
g59
NtRp1955
(dp1956
g62
(dp1957
sg71
g1405
sg64
(lp1958
g57
(g78
g59
NtRp1959
(dp1960
g62
(dp1961
g82
g83
ssg71
g1955
sg64
(lp1962
S'server_port'
p1963
asbag57
(g78
g59
NtRp1964
(dp1965
g62
(dp1966
g89
g90
ssg71
g1955
sg64
(lp1967
S':'
asbag57
(g78
g59
NtRp1968
(dp1969
g62
(dp1970
sg71
g1955
sg64
(lp1971
g57
(g58
g59
NtRp1972
(dp1973
g62
(dp1974
g70
I4
ssg71
g1968
sg64
(lp1975
S'8000'
p1976
asbasbasbag57
(g73
g59
NtRp1977
(dp1978
g62
(dp1979
sg71
g1405
sg64
(lp1980
g57
(g78
g59
NtRp1981
(dp1982
g62
(dp1983
g82
g83
ssg71
g1977
sg64
(lp1984
S'server_protocol'
p1985
asbag57
(g78
g59
NtRp1986
(dp1987
g62
(dp1988
g89
g90
ssg71
g1977
sg64
(lp1989
S':'
asbag57
(g78
g59
NtRp1990
(dp1991
g62
(dp1992
sg71
g1977
sg64
(lp1993
g57
(g58
g59
NtRp1994
(dp1995
g62
(dp1996
g70
I4
ssg71
g1990
sg64
(lp1997
S'HTTP/1.1'
p1998
asbasbasbag57
(g73
g59
NtRp1999
(dp2000
g62
(dp2001
sg71
g1405
sg64
(lp2002
g57
(g78
g59
NtRp2003
(dp2004
g62
(dp2005
g82
g83
ssg71
g1999
sg64
(lp2006
S'server_software'
p2007
asbag57
(g78
g59
NtRp2008
(dp2009
g62
(dp2010
g89
g90
ssg71
g1999
sg64
(lp2011
S':'
asbag57
(g78
g59
NtRp2012
(dp2013
g62
(dp2014
sg71
g1999
sg64
(lp2015
g57
(g58
g59
NtRp2016
(dp2017
g62
(dp2018
g70
I4
ssg71
g2012
sg64
(lp2019
S'Rocket 1.2.4'
p2020
asbasbasbag57
(g73
g59
NtRp2021
(dp2022
g62
(dp2023
sg71
g1405
sg64
(lp2024
g57
(g78
g59
NtRp2025
(dp2026
g62
(dp2027
g82
g83
ssg71
g2021
sg64
(lp2028
S'web2py_crontype'
p2029
asbag57
(g78
g59
NtRp2030
(dp2031
g62
(dp2032
g89
g90
ssg71
g2021
sg64
(lp2033
S':'
asbag57
(g78
g59
NtRp2034
(dp2035
g62
(dp2036
sg71
g2021
sg64
(lp2037
g57
(g58
g59
NtRp2038
(dp2039
g62
(dp2040
g70
I4
ssg71
g2034
sg64
(lp2041
S'hard'
p2042
asbasbasbag57
(g73
g59
NtRp2043
(dp2044
g62
(dp2045
sg71
g1405
sg64
(lp2046
g57
(g78
g59
NtRp2047
(dp2048
g62
(dp2049
g82
g83
ssg71
g2043
sg64
(lp2050
S'web2py_path'
p2051
asbag57
(g78
g59
NtRp2052
(dp2053
g62
(dp2054
g89
g90
ssg71
g2043
sg64
(lp2055
S':'
asbag57
(g78
g59
NtRp2056
(dp2057
g62
(dp2058
sg71
g2043
sg64
(lp2059
g57
(g58
g59
NtRp2060
(dp2061
g62
(dp2062
g70
I4
ssg71
g2056
sg64
(lp2063
g1452
asbasbasbag57
(g73
g59
NtRp2064
(dp2065
g62
(dp2066
sg71
g1405
sg64
(lp2067
g57
(g78
g59
NtRp2068
(dp2069
g62
(dp2070
g82
g83
ssg71
g2064
sg64
(lp2071
S'web2py_version'
p2072
asbag57
(g78
g59
NtRp2073
(dp2074
g62
(dp2075
g89
g90
ssg71
g2064
sg64
(lp2076
S':'
asbag57
(g78
g59
NtRp2077
(dp2078
g62
(dp2079
sg71
g2064
sg64
(lp2080
g57
(g58
g59
NtRp2081
(dp2082
g62
(dp2083
g70
I4
ssg71
g2077
sg64
(lp2084
g57
(g66
g59
NtRp2085
(dp2086
g62
(dp2087
g70
I3
ssg71
Nsg64
(lp2088
g57
(g73
g59
NtRp2089
(dp2090
g62
(dp2091
sg71
g2085
sg64
(lp2092
g57
(g78
g59
NtRp2093
(dp2094
g62
(dp2095
sg71
g2089
sg64
(lp2096
g57
(g58
g59
NtRp2097
(dp2098
g62
(dp2099
g70
I3
ssg71
g2093
sg64
(lp2100
S'2'
asbasbasbag57
(g73
g59
NtRp2101
(dp2102
g62
(dp2103
sg71
g2085
sg64
(lp2104
g57
(g78
g59
NtRp2105
(dp2106
g62
(dp2107
sg71
g2101
sg64
(lp2108
g57
(g58
g59
NtRp2109
(dp2110
g62
(dp2111
g70
I3
ssg71
g2105
sg64
(lp2112
S'0'
asbasbasbag57
(g73
g59
NtRp2113
(dp2114
g62
(dp2115
sg71
g2085
sg64
(lp2116
g57
(g78
g59
NtRp2117
(dp2118
g62
(dp2119
sg71
g2113
sg64
(lp2120
g57
(g58
g59
NtRp2121
(dp2122
g62
(dp2123
g70
I3
ssg71
g2117
sg64
(lp2124
S'8'
asbasbasbag57
(g73
g59
NtRp2125
(dp2126
g62
(dp2127
sg71
g2085
sg64
(lp2128
g57
(g78
g59
NtRp2129
(dp2130
g62
(dp2131
sg71
g2125
sg64
(lp2132
g57
(g58
g59
NtRp2133
(dp2134
g62
(dp2135
g70
I3
ssg71
g2129
sg64
(lp2136
S'datetime.datetime(2012, 9, 7, 3, 47, 51)'
p2137
asbasbasbag57
(g73
g59
NtRp2138
(dp2139
g62
(dp2140
sg71
g2085
sg64
(lp2141
g57
(g78
g59
NtRp2142
(dp2143
g62
(dp2144
sg71
g2138
sg64
(lp2145
g57
(g58
g59
NtRp2146
(dp2147
g62
(dp2148
g70
I3
ssg71
g2142
sg64
(lp2149
S'stable'
p2150
asbasbasbasbasbasbasbag57
(g73
g59
NtRp2151
(dp2152
g62
(dp2153
sg71
g1405
sg64
(lp2154
g57
(g78
g59
NtRp2155
(dp2156
g62
(dp2157
g82
g83
ssg71
g2151
sg64
(lp2158
S'wsgi_errors'
p2159
asbag57
(g78
g59
NtRp2160
(dp2161
g62
(dp2162
g89
g90
ssg71
g2151
sg64
(lp2163
S':'
asbag57
(g78
g59
NtRp2164
(dp2165
g62
(dp2166
sg71
g2151
sg64
(lp2167
g57
(g58
g59
NtRp2168
(dp2169
g62
(dp2170
g70
I4
ssg71
g2164
sg64
(lp2171
S"<open file '<stderr>', mode 'w' at 0x7fe1ee8a81e0>"
p2172
asbasbasbag57
(g73
g59
NtRp2173
(dp2174
g62
(dp2175
sg71
g1405
sg64
(lp2176
g57
(g78
g59
NtRp2177
(dp2178
g62
(dp2179
g82
g83
ssg71
g2173
sg64
(lp2180
S'wsgi_file_wrapper'
p2181
asbag57
(g78
g59
NtRp2182
(dp2183
g62
(dp2184
g89
g90
ssg71
g2173
sg64
(lp2185
S':'
asbag57
(g78
g59
NtRp2186
(dp2187
g62
(dp2188
sg71
g2173
sg64
(lp2189
g57
(g58
g59
NtRp2190
(dp2191
g62
(dp2192
g70
I4
ssg71
g2186
sg64
(lp2193
S'<class wsgiref.util.FileWrapper at 0x236cc80>'
p2194
asbasbasbag57
(g73
g59
NtRp2195
(dp2196
g62
(dp2197
sg71
g1405
sg64
(lp2198
g57
(g78
g59
NtRp2199
(dp2200
g62
(dp2201
g82
g83
ssg71
g2195
sg64
(lp2202
S'wsgi_input'
p2203
asbag57
(g78
g59
NtRp2204
(dp2205
g62
(dp2206
g89
g90
ssg71
g2195
sg64
(lp2207
S':'
asbag57
(g78
g59
NtRp2208
(dp2209
g62
(dp2210
sg71
g2195
sg64
(lp2211
g57
(g58
g59
NtRp2212
(dp2213
g62
(dp2214
g70
I4
ssg71
g2208
sg64
(lp2215
S'<socket._fileobject object at 0x7fe1d015d1d0>'
p2216
asbasbasbag57
(g73
g59
NtRp2217
(dp2218
g62
(dp2219
sg71
g1405
sg64
(lp2220
g57
(g78
g59
NtRp2221
(dp2222
g62
(dp2223
g82
g83
ssg71
g2217
sg64
(lp2224
S'wsgi_multiprocess'
p2225
asbag57
(g78
g59
NtRp2226
(dp2227
g62
(dp2228
g89
g90
ssg71
g2217
sg64
(lp2229
S':'
asbag57
(g78
g59
NtRp2230
(dp2231
g62
(dp2232
sg71
g2217
sg64
(lp2233
g57
(g58
g59
NtRp2234
(dp2235
g62
(dp2236
g70
I4
ssg71
g2230
sg64
(lp2237
g100
asbasbasbag57
(g73
g59
NtRp2238
(dp2239
g62
(dp2240
sg71
g1405
sg64
(lp2241
g57
(g78
g59
NtRp2242
(dp2243
g62
(dp2244
g82
g83
ssg71
g2238
sg64
(lp2245
S'wsgi_multithread'
p2246
asbag57
(g78
g59
NtRp2247
(dp2248
g62
(dp2249
g89
g90
ssg71
g2238
sg64
(lp2250
S':'
asbag57
(g78
g59
NtRp2251
(dp2252
g62
(dp2253
sg71
g2238
sg64
(lp2254
g57
(g58
g59
NtRp2255
(dp2256
g62
(dp2257
g70
I4
ssg71
g2251
sg64
(lp2258
S'True'
p2259
asbasbasbag57
(g73
g59
NtRp2260
(dp2261
g62
(dp2262
sg71
g1405
sg64
(lp2263
g57
(g78
g59
NtRp2264
(dp2265
g62
(dp2266
g82
g83
ssg71
g2260
sg64
(lp2267
S'wsgi_run_once'
p2268
asbag57
(g78
g59
NtRp2269
(dp2270
g62
(dp2271
g89
g90
ssg71
g2260
sg64
(lp2272
S':'
asbag57
(g78
g59
NtRp2273
(dp2274
g62
(dp2275
sg71
g2260
sg64
(lp2276
g57
(g58
g59
NtRp2277
(dp2278
g62
(dp2279
g70
I4
ssg71
g2273
sg64
(lp2280
g100
asbasbasbag57
(g73
g59
NtRp2281
(dp2282
g62
(dp2283
sg71
g1405
sg64
(lp2284
g57
(g78
g59
NtRp2285
(dp2286
g62
(dp2287
g82
g83
ssg71
g2281
sg64
(lp2288
S'wsgi_url_scheme'
p2289
asbag57
(g78
g59
NtRp2290
(dp2291
g62
(dp2292
g89
g90
ssg71
g2281
sg64
(lp2293
S':'
asbag57
(g78
g59
NtRp2294
(dp2295
g62
(dp2296
sg71
g2281
sg64
(lp2297
g57
(g58
g59
NtRp2298
(dp2299
g62
(dp2300
g70
I4
ssg71
g2294
sg64
(lp2301
S'http'
p2302
asbasbasbag57
(g73
g59
NtRp2303
(dp2304
g62
(dp2305
sg71
g1405
sg64
(lp2306
g57
(g78
g59
NtRp2307
(dp2308
g62
(dp2309
g82
g83
ssg71
g2303
sg64
(lp2310
S'wsgi_version'
p2311
asbag57
(g78
g59
NtRp2312
(dp2313
g62
(dp2314
g89
g90
ssg71
g2303
sg64
(lp2315
S':'
asbag57
(g78
g59
NtRp2316
(dp2317
g62
(dp2318
sg71
g2303
sg64
(lp2319
g57
(g58
g59
NtRp2320
(dp2321
g62
(dp2322
g70
I4
ssg71
g2316
sg64
(lp2323
g57
(g66
g59
NtRp2324
(dp2325
g62
(dp2326
g70
I3
ssg71
Nsg64
(lp2327
g57
(g73
g59
NtRp2328
(dp2329
g62
(dp2330
sg71
g2324
sg64
(lp2331
g57
(g78
g59
NtRp2332
(dp2333
g62
(dp2334
sg71
g2328
sg64
(lp2335
g57
(g58
g59
NtRp2336
(dp2337
g62
(dp2338
g70
I3
ssg71
g2332
sg64
(lp2339
S'1'
asbasbasbag57
(g73
g59
NtRp2340
(dp2341
g62
(dp2342
sg71
g2324
sg64
(lp2343
g57
(g78
g59
NtRp2344
(dp2345
g62
(dp2346
sg71
g2340
sg64
(lp2347
g57
(g58
g59
NtRp2348
(dp2349
g62
(dp2350
g70
I3
ssg71
g2344
sg64
(lp2351
S'0'
asbasbasbasbasbasbasbasbasbasbasbag57
(g73
g59
NtRp2352
(dp2353
g62
(dp2354
sg71
g67
sg64
(lp2355
g57
(g78
g59
NtRp2356
(dp2357
g62
(dp2358
g82
g83
ssg71
g2352
sg64
(lp2359
S'extension'
p2360
asbag57
(g78
g59
NtRp2361
(dp2362
g62
(dp2363
g89
g90
ssg71
g2352
sg64
(lp2364
S':'
asbag57
(g78
g59
NtRp2365
(dp2366
g62
(dp2367
sg71
g2352
sg64
(lp2368
g57
(g58
g59
NtRp2369
(dp2370
g62
(dp2371
g70
I5
ssg71
g2365
sg64
(lp2372
S'html'
p2373
asbasbasbag57
(g73
g59
NtRp2374
(dp2375
g62
(dp2376
sg71
g67
sg64
(lp2377
g57
(g78
g59
NtRp2378
(dp2379
g62
(dp2380
g82
g83
ssg71
g2374
sg64
(lp2381
S'folder'
p2382
asbag57
(g78
g59
NtRp2383
(dp2384
g62
(dp2385
g89
g90
ssg71
g2374
sg64
(lp2386
S':'
asbag57
(g78
g59
NtRp2387
(dp2388
g62
(dp2389
sg71
g2374
sg64
(lp2390
g57
(g58
g59
NtRp2391
(dp2392
g62
(dp2393
g70
I5
ssg71
g2387
sg64
(lp2394
S'/home/mayank/gitrepo/Twitter-Sentiment-Analysis/front-end/web2py/applications/FunkLoad/'
p2395
asbasbasbag57
(g73
g59
NtRp2396
(dp2397
g62
(dp2398
sg71
g67
sg64
(lp2399
g57
(g78
g59
NtRp2400
(dp2401
g62
(dp2402
g82
g83
ssg71
g2396
sg64
(lp2403
S'function'
p2404
asbag57
(g78
g59
NtRp2405
(dp2406
g62
(dp2407
g89
g90
ssg71
g2396
sg64
(lp2408
S':'
asbag57
(g78
g59
NtRp2409
(dp2410
g62
(dp2411
sg71
g2396
sg64
(lp2412
g57
(g58
g59
NtRp2413
(dp2414
g62
(dp2415
g70
I5
ssg71
g2409
sg64
(lp2416
S'index'
p2417
asbasbasbag57
(g73
g59
NtRp2418
(dp2419
g62
(dp2420
sg71
g67
sg64
(lp2421
g57
(g78
g59
NtRp2422
(dp2423
g62
(dp2424
g82
g83
ssg71
g2418
sg64
(lp2425
S'get_vars'
p2426
asbag57
(g78
g59
NtRp2427
(dp2428
g62
(dp2429
g89
g90
ssg71
g2418
sg64
(lp2430
S':'
asbag57
(g78
g59
NtRp2431
(dp2432
g62
(dp2433
sg71
g2418
sg64
(lp2434
g57
(g58
g59
NtRp2435
(dp2436
g62
(dp2437
g70
I5
ssg71
g2431
sg64
(lp2438
g57
(g66
g59
NtRp2439
(dp2440
g62
(dp2441
g70
I4
ssg71
Nsg64
(lp2442
sbasbasbasbag57
(g73
g59
NtRp2443
(dp2444
g62
(dp2445
sg71
g67
sg64
(lp2446
g57
(g78
g59
NtRp2447
(dp2448
g62
(dp2449
g82
g83
ssg71
g2443
sg64
(lp2450
S'global_settings'
p2451
asbag57
(g78
g59
NtRp2452
(dp2453
g62
(dp2454
g89
g90
ssg71
g2443
sg64
(lp2455
S':'
asbag57
(g78
g59
NtRp2456
(dp2457
g62
(dp2458
sg71
g2443
sg64
(lp2459
g57
(g58
g59
NtRp2460
(dp2461
g62
(dp2462
g70
I5
ssg71
g2456
sg64
(lp2463
g57
(g66
g59
NtRp2464
(dp2465
g62
(dp2466
g70
I4
ssg71
Nsg64
(lp2467
g57
(g73
g59
NtRp2468
(dp2469
g62
(dp2470
sg71
g2464
sg64
(lp2471
g57
(g78
g59
NtRp2472
(dp2473
g62
(dp2474
g82
g83
ssg71
g2468
sg64
(lp2475
g1417
asbag57
(g78
g59
NtRp2476
(dp2477
g62
(dp2478
g89
g90
ssg71
g2468
sg64
(lp2479
S':'
asbag57
(g78
g59
NtRp2480
(dp2481
g62
(dp2482
sg71
g2468
sg64
(lp2483
g57
(g58
g59
NtRp2484
(dp2485
g62
(dp2486
g70
I4
ssg71
g2480
sg64
(lp2487
S"set(['/home/mayank/gitrepo/Twitter-Sentiment-Analysis/front-end/web2py/applications/admin/', '/home/mayank/gitrepo/Twitter-Sentiment-Analysis/front-end/web2py/applications/FunkLoad/', '/home/mayank/gitrepo/Twitter-Sentiment-Analysis/front-end/web2py/applications/welcome/'])"
p2488
asbasbasbag57
(g73
g59
NtRp2489
(dp2490
g62
(dp2491
sg71
g2464
sg64
(lp2492
g57
(g78
g59
NtRp2493
(dp2494
g62
(dp2495
g82
g83
ssg71
g2489
sg64
(lp2496
g1439
asbag57
(g78
g59
NtRp2497
(dp2498
g62
(dp2499
g89
g90
ssg71
g2489
sg64
(lp2500
S':'
asbag57
(g78
g59
NtRp2501
(dp2502
g62
(dp2503
sg71
g2489
sg64
(lp2504
g57
(g58
g59
NtRp2505
(dp2506
g62
(dp2507
g70
I4
ssg71
g2501
sg64
(lp2508
g1452
asbasbasbag57
(g73
g59
NtRp2509
(dp2510
g62
(dp2511
sg71
g2464
sg64
(lp2512
g57
(g78
g59
NtRp2513
(dp2514
g62
(dp2515
g82
g83
ssg71
g2509
sg64
(lp2516
g1461
asbag57
(g78
g59
NtRp2517
(dp2518
g62
(dp2519
g89
g90
ssg71
g2509
sg64
(lp2520
S':'
asbag57
(g78
g59
NtRp2521
(dp2522
g62
(dp2523
sg71
g2509
sg64
(lp2524
g57
(g58
g59
NtRp2525
(dp2526
g62
(dp2527
g70
I4
ssg71
g2521
sg64
(lp2528
g57
(g66
g59
NtRp2529
(dp2530
g62
(dp2531
g70
I3
ssg71
Nsg64
(lp2532
sbasbasbasbag57
(g73
g59
NtRp2533
(dp2534
g62
(dp2535
sg71
g2464
sg64
(lp2536
g57
(g78
g59
NtRp2537
(dp2538
g62
(dp2539
g82
g83
ssg71
g2533
sg64
(lp2540
g1486
asbag57
(g78
g59
NtRp2541
(dp2542
g62
(dp2543
g89
g90
ssg71
g2533
sg64
(lp2544
S':'
asbag57
(g78
g59
NtRp2545
(dp2546
g62
(dp2547
sg71
g2533
sg64
(lp2548
g57
(g58
g59
NtRp2549
(dp2550
g62
(dp2551
g70
I4
ssg71
g2545
sg64
(lp2552
S"<Values at 0x2820560: {'verbose': False, 'ip': '127.0.0.1', 'with_scheduler': False, 'ips': ['127.0.1.1', '10.1.33.121'], 'shutdown_timeout': 5, 'taskbar': False, 'port': 8000, 'maxthreads': None, 'softcron': False, 'server_name': 'mayank', 'bpython': False, 'nogui': False, 'nocron': False, 'extcron': False, 'run_system_tests': False, 'test': None, 'folder': '/home/mayank/gitrepo/Twitter-Sentiment-Analysis/front-end/web2py', 'config': '', 'import_models': False, 'winservice': '', 'shell': None, 'run': '', 'log_filename': 'httpserver.log', 'debuglevel': 30, 'args': [''], 'socket_timeout': 5, 'ssl_ca_certificate': None, 'scheduler': None, 'profiler_filename': None, 'ssl_private_key': '', 'scheduler_groups': None, 'password': '<ask>', 'request_queue_size': 5, 'ssl_certificate': '', 'cronjob': False, 'numthreads': None, 'quiet': False, 'interfaces': None, 'minthreads': None, 'timeout': 10, 'plain': False, 'nobanner': False, 'pid_filename': 'httpserver.pid'}>"
p2553
asbasbasbag57
(g73
g59
NtRp2554
(dp2555
g62
(dp2556
sg71
g2464
sg64
(lp2557
g57
(g78
g59
NtRp2558
(dp2559
g62
(dp2560
g82
g83
ssg71
g2554
sg64
(lp2561
g1508
asbag57
(g78
g59
NtRp2562
(dp2563
g62
(dp2564
g89
g90
ssg71
g2554
sg64
(lp2565
S':'
asbag57
(g78
g59
NtRp2566
(dp2567
g62
(dp2568
sg71
g2554
sg64
(lp2569
g57
(g58
g59
NtRp2570
(dp2571
g62
(dp2572
g70
I4
ssg71
g2566
sg64
(lp2573
S'set([])'
p2574
asbasbasbag57
(g73
g59
NtRp2575
(dp2576
g62
(dp2577
sg71
g2464
sg64
(lp2578
g57
(g78
g59
NtRp2579
(dp2580
g62
(dp2581
g82
g83
ssg71
g2575
sg64
(lp2582
g1530
asbag57
(g78
g59
NtRp2583
(dp2584
g62
(dp2585
g89
g90
ssg71
g2575
sg64
(lp2586
S':'
asbag57
(g78
g59
NtRp2587
(dp2588
g62
(dp2589
sg71
g2575
sg64
(lp2590
g57
(g58
g59
NtRp2591
(dp2592
g62
(dp2593
g70
I4
ssg71
g2587
sg64
(lp2594
g100
asbasbasbag57
(g73
g59
NtRp2595
(dp2596
g62
(dp2597
sg71
g2464
sg64
(lp2598
g57
(g78
g59
NtRp2599
(dp2600
g62
(dp2601
g82
g83
ssg71
g2595
sg64
(lp2602
g1551
asbag57
(g78
g59
NtRp2603
(dp2604
g62
(dp2605
g89
g90
ssg71
g2595
sg64
(lp2606
S':'
asbag57
(g78
g59
NtRp2607
(dp2608
g62
(dp2609
sg71
g2595
sg64
(lp2610
g57
(g58
g59
NtRp2611
(dp2612
g62
(dp2613
g70
I4
ssg71
g2607
sg64
(lp2614
g1564
asbasbasbag57
(g73
g59
NtRp2615
(dp2616
g62
(dp2617
sg71
g2464
sg64
(lp2618
g57
(g78
g59
NtRp2619
(dp2620
g62
(dp2621
g82
g83
ssg71
g2615
sg64
(lp2622
g1749
asbag57
(g78
g59
NtRp2623
(dp2624
g62
(dp2625
g89
g90
ssg71
g2615
sg64
(lp2626
S':'
asbag57
(g78
g59
NtRp2627
(dp2628
g62
(dp2629
sg71
g2615
sg64
(lp2630
g57
(g58
g59
NtRp2631
(dp2632
g62
(dp2633
g70
I4
ssg71
g2627
sg64
(lp2634
g100
asbasbasbag57
(g73
g59
NtRp2635
(dp2636
g62
(dp2637
sg71
g2464
sg64
(lp2638
g57
(g78
g59
NtRp2639
(dp2640
g62
(dp2641
g82
g83
ssg71
g2635
sg64
(lp2642
g1770
asbag57
(g78
g59
NtRp2643
(dp2644
g62
(dp2645
g89
g90
ssg71
g2635
sg64
(lp2646
S':'
asbag57
(g78
g59
NtRp2647
(dp2648
g62
(dp2649
sg71
g2635
sg64
(lp2650
g57
(g58
g59
NtRp2651
(dp2652
g62
(dp2653
g70
I4
ssg71
g2647
sg64
(lp2654
g100
asbasbasbag57
(g73
g59
NtRp2655
(dp2656
g62
(dp2657
sg71
g2464
sg64
(lp2658
g57
(g78
g59
NtRp2659
(dp2660
g62
(dp2661
g82
g83
ssg71
g2655
sg64
(lp2662
g2029
asbag57
(g78
g59
NtRp2663
(dp2664
g62
(dp2665
g89
g90
ssg71
g2655
sg64
(lp2666
S':'
asbag57
(g78
g59
NtRp2667
(dp2668
g62
(dp2669
sg71
g2655
sg64
(lp2670
g57
(g58
g59
NtRp2671
(dp2672
g62
(dp2673
g70
I4
ssg71
g2667
sg64
(lp2674
g2042
asbasbasbag57
(g73
g59
NtRp2675
(dp2676
g62
(dp2677
sg71
g2464
sg64
(lp2678
g57
(g78
g59
NtRp2679
(dp2680
g62
(dp2681
g82
g83
ssg71
g2675
sg64
(lp2682
g2072
asbag57
(g78
g59
NtRp2683
(dp2684
g62
(dp2685
g89
g90
ssg71
g2675
sg64
(lp2686
S':'
asbag57
(g78
g59
NtRp2687
(dp2688
g62
(dp2689
sg71
g2675
sg64
(lp2690
g57
(g58
g59
NtRp2691
(dp2692
g62
(dp2693
g70
I4
ssg71
g2687
sg64
(lp2694
g57
(g66
g59
NtRp2695
(dp2696
g62
(dp2697
g70
I3
ssg71
Nsg64
(lp2698
g57
(g73
g59
NtRp2699
(dp2700
g62
(dp2701
sg71
g2695
sg64
(lp2702
g57
(g78
g59
NtRp2703
(dp2704
g62
(dp2705
sg71
g2699
sg64
(lp2706
g57
(g58
g59
NtRp2707
(dp2708
g62
(dp2709
g70
I3
ssg71
g2703
sg64
(lp2710
S'2'
asbasbasbag57
(g73
g59
NtRp2711
(dp2712
g62
(dp2713
sg71
g2695
sg64
(lp2714
g57
(g78
g59
NtRp2715
(dp2716
g62
(dp2717
sg71
g2711
sg64
(lp2718
g57
(g58
g59
NtRp2719
(dp2720
g62
(dp2721
g70
I3
ssg71
g2715
sg64
(lp2722
S'0'
asbasbasbag57
(g73
g59
NtRp2723
(dp2724
g62
(dp2725
sg71
g2695
sg64
(lp2726
g57
(g78
g59
NtRp2727
(dp2728
g62
(dp2729
sg71
g2723
sg64
(lp2730
g57
(g58
g59
NtRp2731
(dp2732
g62
(dp2733
g70
I3
ssg71
g2727
sg64
(lp2734
S'8'
asbasbasbag57
(g73
g59
NtRp2735
(dp2736
g62
(dp2737
sg71
g2695
sg64
(lp2738
g57
(g78
g59
NtRp2739
(dp2740
g62
(dp2741
sg71
g2735
sg64
(lp2742
g57
(g58
g59
NtRp2743
(dp2744
g62
(dp2745
g70
I3
ssg71
g2739
sg64
(lp2746
S'datetime.datetime(2012, 9, 7, 3, 47, 51)'
p2747
asbasbasbag57
(g73
g59
NtRp2748
(dp2749
g62
(dp2750
sg71
g2695
sg64
(lp2751
g57
(g78
g59
NtRp2752
(dp2753
g62
(dp2754
sg71
g2748
sg64
(lp2755
g57
(g58
g59
NtRp2756
(dp2757
g62
(dp2758
g70
I3
ssg71
g2752
sg64
(lp2759
g2150
asbasbasbasbasbasbasbasbasbasbasbag57
(g73
g59
NtRp2760
(dp2761
g62
(dp2762
sg71
g67
sg64
(lp2763
g57
(g78
g59
NtRp2764
(dp2765
g62
(dp2766
g82
g83
ssg71
g2760
sg64
(lp2767
S'is_https'
p2768
asbag57
(g78
g59
NtRp2769
(dp2770
g62
(dp2771
g89
g90
ssg71
g2760
sg64
(lp2772
S':'
asbag57
(g78
g59
NtRp2773
(dp2774
g62
(dp2775
sg71
g2760
sg64
(lp2776
g57
(g58
g59
NtRp2777
(dp2778
g62
(dp2779
g70
I5
ssg71
g2773
sg64
(lp2780
g100
asbasbasbag57
(g73
g59
NtRp2781
(dp2782
g62
(dp2783
sg71
g67
sg64
(lp2784
g57
(g78
g59
NtRp2785
(dp2786
g62
(dp2787
g82
g83
ssg71
g2781
sg64
(lp2788
S'is_local'
p2789
asbag57
(g78
g59
NtRp2790
(dp2791
g62
(dp2792
g89
g90
ssg71
g2781
sg64
(lp2793
S':'
asbag57
(g78
g59
NtRp2794
(dp2795
g62
(dp2796
sg71
g2781
sg64
(lp2797
g57
(g58
g59
NtRp2798
(dp2799
g62
(dp2800
g70
I5
ssg71
g2794
sg64
(lp2801
g2259
asbasbasbag57
(g73
g59
NtRp2802
(dp2803
g62
(dp2804
sg71
g67
sg64
(lp2805
g57
(g78
g59
NtRp2806
(dp2807
g62
(dp2808
g82
g83
ssg71
g2802
sg64
(lp2809
S'is_restful'
p2810
asbag57
(g78
g59
NtRp2811
(dp2812
g62
(dp2813
g89
g90
ssg71
g2802
sg64
(lp2814
S':'
asbag57
(g78
g59
NtRp2815
(dp2816
g62
(dp2817
sg71
g2802
sg64
(lp2818
g57
(g58
g59
NtRp2819
(dp2820
g62
(dp2821
g70
I5
ssg71
g2815
sg64
(lp2822
g100
asbasbasbag57
(g73
g59
NtRp2823
(dp2824
g62
(dp2825
sg71
g67
sg64
(lp2826
g57
(g78
g59
NtRp2827
(dp2828
g62
(dp2829
g82
g83
ssg71
g2823
sg64
(lp2830
S'now'
p2831
asbag57
(g78
g59
NtRp2832
(dp2833
g62
(dp2834
g89
g90
ssg71
g2823
sg64
(lp2835
S':'
asbag57
(g78
g59
NtRp2836
(dp2837
g62
(dp2838
sg71
g2823
sg64
(lp2839
g57
(g58
g59
NtRp2840
(dp2841
g62
(dp2842
g70
I5
ssg71
g2836
sg64
(lp2843
S'datetime.datetime(2014, 4, 1, 23, 6, 17, 924796)'
p2844
asbasbasbag57
(g73
g59
NtRp2845
(dp2846
g62
(dp2847
sg71
g67
sg64
(lp2848
g57
(g78
g59
NtRp2849
(dp2850
g62
(dp2851
g82
g83
ssg71
g2845
sg64
(lp2852
S'post_vars'
p2853
asbag57
(g78
g59
NtRp2854
(dp2855
g62
(dp2856
g89
g90
ssg71
g2845
sg64
(lp2857
S':'
asbag57
(g78
g59
NtRp2858
(dp2859
g62
(dp2860
sg71
g2845
sg64
(lp2861
g57
(g58
g59
NtRp2862
(dp2863
g62
(dp2864
g70
I5
ssg71
g2858
sg64
(lp2865
g57
(g66
g59
NtRp2866
(dp2867
g62
(dp2868
g70
I4
ssg71
Nsg64
(lp2869
sbasbasbasbag57
(g73
g59
NtRp2870
(dp2871
g62
(dp2872
sg71
g67
sg64
(lp2873
g57
(g78
g59
NtRp2874
(dp2875
g62
(dp2876
g82
g83
ssg71
g2870
sg64
(lp2877
S'raw_args'
p2878
asbag57
(g78
g59
NtRp2879
(dp2880
g62
(dp2881
g89
g90
ssg71
g2870
sg64
(lp2882
S':'
asbag57
(g78
g59
NtRp2883
(dp2884
g62
(dp2885
sg71
g2870
sg64
(lp2886
g57
(g58
g59
NtRp2887
(dp2888
g62
(dp2889
g70
I5
ssg71
g2883
sg64
(lp2890
S'None'
p2891
asbasbasbag57
(g73
g59
NtRp2892
(dp2893
g62
(dp2894
sg71
g67
sg64
(lp2895
g57
(g78
g59
NtRp2896
(dp2897
g62
(dp2898
g82
g83
ssg71
g2892
sg64
(lp2899
S'raw_extension'
p2900
asbag57
(g78
g59
NtRp2901
(dp2902
g62
(dp2903
g89
g90
ssg71
g2892
sg64
(lp2904
S':'
asbag57
(g78
g59
NtRp2905
(dp2906
g62
(dp2907
sg71
g2892
sg64
(lp2908
g57
(g58
g59
NtRp2909
(dp2910
g62
(dp2911
g70
I5
ssg71
g2905
sg64
(lp2912
S'None'
p2913
asbasbasbag57
(g73
g59
NtRp2914
(dp2915
g62
(dp2916
sg71
g67
sg64
(lp2917
g57
(g78
g59
NtRp2918
(dp2919
g62
(dp2920
g82
g83
ssg71
g2914
sg64
(lp2921
S'url'
p2922
asbag57
(g78
g59
NtRp2923
(dp2924
g62
(dp2925
g89
g90
ssg71
g2914
sg64
(lp2926
S':'
asbag57
(g78
g59
NtRp2927
(dp2928
g62
(dp2929
sg71
g2914
sg64
(lp2930
g57
(g58
g59
NtRp2931
(dp2932
g62
(dp2933
g70
I5
ssg71
g2927
sg64
(lp2934
g1804
asbasbasbag57
(g73
g59
NtRp2935
(dp2936
g62
(dp2937
sg71
g67
sg64
(lp2938
g57
(g78
g59
NtRp2939
(dp2940
g62
(dp2941
g82
g83
ssg71
g2935
sg64
(lp2942
S'utcnow'
p2943
asbag57
(g78
g59
NtRp2944
(dp2945
g62
(dp2946
g89
g90
ssg71
g2935
sg64
(lp2947
S':'
asbag57
(g78
g59
NtRp2948
(dp2949
g62
(dp2950
sg71
g2935
sg64
(lp2951
g57
(g58
g59
NtRp2952
(dp2953
g62
(dp2954
g70
I5
ssg71
g2948
sg64
(lp2955
S'datetime.datetime(2014, 4, 1, 17, 36, 17, 924818)'
p2956
asbasbasbag57
(g73
g59
NtRp2957
(dp2958
g62
(dp2959
sg71
g67
sg64
(lp2960
g57
(g78
g59
NtRp2961
(dp2962
g62
(dp2963
g82
g83
ssg71
g2957
sg64
(lp2964
S'uuid'
p2965
asbag57
(g78
g59
NtRp2966
(dp2967
g62
(dp2968
g89
g90
ssg71
g2957
sg64
(lp2969
S':'
asbag57
(g78
g59
NtRp2970
(dp2971
g62
(dp2972
sg71
g2957
sg64
(lp2973
g57
(g58
g59
NtRp2974
(dp2975
g62
(dp2976
g70
I5
ssg71
g2970
sg64
(lp2977
S'FunkLoad/127.0.0.1.2014-04-01.23-06-17.f5fcfa06-d04a-4020-a71d-92769cab3354'
p2978
asbasbasbag57
(g73
g59
NtRp2979
(dp2980
g62
(dp2981
sg71
g67
sg64
(lp2982
g57
(g78
g59
NtRp2983
(dp2984
g62
(dp2985
g82
g83
ssg71
g2979
sg64
(lp2986
S'vars'
p2987
asbag57
(g78
g59
NtRp2988
(dp2989
g62
(dp2990
g89
g90
ssg71
g2979
sg64
(lp2991
S':'
asbag57
(g78
g59
NtRp2992
(dp2993
g62
(dp2994
sg71
g2979
sg64
(lp2995
g57
(g58
g59
NtRp2996
(dp2997
g62
(dp2998
g70
I5
ssg71
g2992
sg64
(lp2999
g57
(g66
g59
NtRp3000
(dp3001
g62
(dp3002
g70
I4
ssg71
Nsg64
(lp3003
sbasbasbasbag57
(g73
g59
NtRp3004
(dp3005
g62
(dp3006
sg71
g67
sg64
(lp3007
g57
(g78
g59
NtRp3008
(dp3009
g62
(dp3010
g82
g83
ssg71
g3004
sg64
(lp3011
S'wsgi'
p3012
asbag57
(g78
g59
NtRp3013
(dp3014
g62
(dp3015
g89
g90
ssg71
g3004
sg64
(lp3016
S':'
asbag57
(g78
g59
NtRp3017
(dp3018
g62
(dp3019
sg71
g3004
sg64
(lp3020
g57
(g58
g59
NtRp3021
(dp3022
g62
(dp3023
g70
I5
ssg71
g3017
sg64
(lp3024
g57
(g66
g59
NtRp3025
(dp3026
g62
(dp3027
g70
I4
ssg71
Nsg64
(lp3028
g57
(g73
g59
NtRp3029
(dp3030
g62
(dp3031
sg71
g3025
sg64
(lp3032
g57
(g78
g59
NtRp3033
(dp3034
g62
(dp3035
g82
g83
ssg71
g3029
sg64
(lp3036
S'environ'
p3037
asbag57
(g78
g59
NtRp3038
(dp3039
g62
(dp3040
g89
g90
ssg71
g3029
sg64
(lp3041
S':'
asbag57
(g78
g59
NtRp3042
(dp3043
g62
(dp3044
sg71
g3029
sg64
(lp3045
g57
(g58
g59
NtRp3046
(dp3047
g62
(dp3048
g70
I4
ssg71
g3042
sg64
(lp3049
g57
(g66
g59
NtRp3050
(dp3051
g62
(dp3052
g70
I3
ssg71
Nsg64
(lp3053
g57
(g73
g59
NtRp3054
(dp3055
g62
(dp3056
sg71
g3050
sg64
(lp3057
g57
(g78
g59
NtRp3058
(dp3059
g62
(dp3060
g82
g83
ssg71
g3054
sg64
(lp3061
S'HTTP_ACCEPT'
p3062
asbag57
(g78
g59
NtRp3063
(dp3064
g62
(dp3065
g89
g90
ssg71
g3054
sg64
(lp3066
S':'
asbag57
(g78
g59
NtRp3067
(dp3068
g62
(dp3069
sg71
g3054
sg64
(lp3070
g57
(g58
g59
NtRp3071
(dp3072
g62
(dp3073
g70
I3
ssg71
g3067
sg64
(lp3074
g1586
asbasbasbag57
(g73
g59
NtRp3075
(dp3076
g62
(dp3077
sg71
g3050
sg64
(lp3078
g57
(g78
g59
NtRp3079
(dp3080
g62
(dp3081
g82
g83
ssg71
g3075
sg64
(lp3082
S'HTTP_ACCEPT_ENCODING'
p3083
asbag57
(g78
g59
NtRp3084
(dp3085
g62
(dp3086
g89
g90
ssg71
g3075
sg64
(lp3087
S':'
asbag57
(g78
g59
NtRp3088
(dp3089
g62
(dp3090
sg71
g3075
sg64
(lp3091
g57
(g58
g59
NtRp3092
(dp3093
g62
(dp3094
g70
I3
ssg71
g3088
sg64
(lp3095
g1608
asbasbasbag57
(g73
g59
NtRp3096
(dp3097
g62
(dp3098
sg71
g3050
sg64
(lp3099
g57
(g78
g59
NtRp3100
(dp3101
g62
(dp3102
g82
g83
ssg71
g3096
sg64
(lp3103
S'HTTP_ACCEPT_LANGUAGE'
p3104
asbag57
(g78
g59
NtRp3105
(dp3106
g62
(dp3107
g89
g90
ssg71
g3096
sg64
(lp3108
S':'
asbag57
(g78
g59
NtRp3109
(dp3110
g62
(dp3111
sg71
g3096
sg64
(lp3112
g57
(g58
g59
NtRp3113
(dp3114
g62
(dp3115
g70
I3
ssg71
g3109
sg64
(lp3116
g1630
asbasbasbag57
(g73
g59
NtRp3117
(dp3118
g62
(dp3119
sg71
g3050
sg64
(lp3120
g57
(g78
g59
NtRp3121
(dp3122
g62
(dp3123
g82
g83
ssg71
g3117
sg64
(lp3124
S'HTTP_CONNECTION'
p3125
asbag57
(g78
g59
NtRp3126
(dp3127
g62
(dp3128
g89
g90
ssg71
g3117
sg64
(lp3129
S':'
asbag57
(g78
g59
NtRp3130
(dp3131
g62
(dp3132
sg71
g3117
sg64
(lp3133
g57
(g58
g59
NtRp3134
(dp3135
g62
(dp3136
g70
I3
ssg71
g3130
sg64
(lp3137
g1652
asbasbasbag57
(g73
g59
NtRp3138
(dp3139
g62
(dp3140
sg71
g3050
sg64
(lp3141
g57
(g78
g59
NtRp3142
(dp3143
g62
(dp3144
g82
g83
ssg71
g3138
sg64
(lp3145
S'HTTP_COOKIE'
p3146
asbag57
(g78
g59
NtRp3147
(dp3148
g62
(dp3149
g89
g90
ssg71
g3138
sg64
(lp3150
S':'
asbag57
(g78
g59
NtRp3151
(dp3152
g62
(dp3153
sg71
g3138
sg64
(lp3154
g57
(g58
g59
NtRp3155
(dp3156
g62
(dp3157
g70
I3
ssg71
g3151
sg64
(lp3158
g1674
asbasbasbag57
(g73
g59
NtRp3159
(dp3160
g62
(dp3161
sg71
g3050
sg64
(lp3162
g57
(g78
g59
NtRp3163
(dp3164
g62
(dp3165
g82
g83
ssg71
g3159
sg64
(lp3166
S'HTTP_HOST'
p3167
asbag57
(g78
g59
NtRp3168
(dp3169
g62
(dp3170
g89
g90
ssg71
g3159
sg64
(lp3171
S':'
asbag57
(g78
g59
NtRp3172
(dp3173
g62
(dp3174
sg71
g3159
sg64
(lp3175
g57
(g58
g59
NtRp3176
(dp3177
g62
(dp3178
g70
I3
ssg71
g3172
sg64
(lp3179
g1696
asbasbasbag57
(g73
g59
NtRp3180
(dp3181
g62
(dp3182
sg71
g3050
sg64
(lp3183
g57
(g78
g59
NtRp3184
(dp3185
g62
(dp3186
g82
g83
ssg71
g3180
sg64
(lp3187
S'HTTP_REFERER'
p3188
asbag57
(g78
g59
NtRp3189
(dp3190
g62
(dp3191
g89
g90
ssg71
g3180
sg64
(lp3192
S':'
asbag57
(g78
g59
NtRp3193
(dp3194
g62
(dp3195
sg71
g3180
sg64
(lp3196
g57
(g58
g59
NtRp3197
(dp3198
g62
(dp3199
g70
I3
ssg71
g3193
sg64
(lp3200
g1718
asbasbasbag57
(g73
g59
NtRp3201
(dp3202
g62
(dp3203
sg71
g3050
sg64
(lp3204
g57
(g78
g59
NtRp3205
(dp3206
g62
(dp3207
g82
g83
ssg71
g3201
sg64
(lp3208
S'HTTP_USER_AGENT'
p3209
asbag57
(g78
g59
NtRp3210
(dp3211
g62
(dp3212
g89
g90
ssg71
g3201
sg64
(lp3213
S':'
asbag57
(g78
g59
NtRp3214
(dp3215
g62
(dp3216
sg71
g3201
sg64
(lp3217
g57
(g58
g59
NtRp3218
(dp3219
g62
(dp3220
g70
I3
ssg71
g3214
sg64
(lp3221
g1740
asbasbasbag57
(g73
g59
NtRp3222
(dp3223
g62
(dp3224
sg71
g3050
sg64
(lp3225
g57
(g78
g59
NtRp3226
(dp3227
g62
(dp3228
g82
g83
ssg71
g3222
sg64
(lp3229
S'PATH_INFO'
p3230
asbag57
(g78
g59
NtRp3231
(dp3232
g62
(dp3233
g89
g90
ssg71
g3222
sg64
(lp3234
S':'
asbag57
(g78
g59
NtRp3235
(dp3236
g62
(dp3237
sg71
g3222
sg64
(lp3238
g57
(g58
g59
NtRp3239
(dp3240
g62
(dp3241
g70
I3
ssg71
g3235
sg64
(lp3242
g1804
asbasbasbag57
(g73
g59
NtRp3243
(dp3244
g62
(dp3245
sg71
g3050
sg64
(lp3246
g57
(g78
g59
NtRp3247
(dp3248
g62
(dp3249
g82
g83
ssg71
g3243
sg64
(lp3250
S'QUERY_STRING'
p3251
asbag57
(g78
g59
NtRp3252
(dp3253
g62
(dp3254
g89
g90
ssg71
g3243
sg64
(lp3255
S':'
asbag57
(g78
g59
NtRp3256
(dp3257
g62
(dp3258
sg71
g3243
sg64
(lp3259
g57
(g58
g59
NtRp3260
(dp3261
g62
(dp3262
g70
I3
ssg71
g3256
sg64
(lp3263
S''
asbasbasbag57
(g73
g59
NtRp3264
(dp3265
g62
(dp3266
sg71
g3050
sg64
(lp3267
g57
(g78
g59
NtRp3268
(dp3269
g62
(dp3270
g82
g83
ssg71
g3264
sg64
(lp3271
S'REMOTE_ADDR'
p3272
asbag57
(g78
g59
NtRp3273
(dp3274
g62
(dp3275
g89
g90
ssg71
g3264
sg64
(lp3276
S':'
asbag57
(g78
g59
NtRp3277
(dp3278
g62
(dp3279
sg71
g3264
sg64
(lp3280
g57
(g58
g59
NtRp3281
(dp3282
g62
(dp3283
g70
I3
ssg71
g3277
sg64
(lp3284
g212
asbasbasbag57
(g73
g59
NtRp3285
(dp3286
g62
(dp3287
sg71
g3050
sg64
(lp3288
g57
(g78
g59
NtRp3289
(dp3290
g62
(dp3291
g82
g83
ssg71
g3285
sg64
(lp3292
S'REMOTE_PORT'
p3293
asbag57
(g78
g59
NtRp3294
(dp3295
g62
(dp3296
g89
g90
ssg71
g3285
sg64
(lp3297
S':'
asbag57
(g78
g59
NtRp3298
(dp3299
g62
(dp3300
sg71
g3285
sg64
(lp3301
g57
(g58
g59
NtRp3302
(dp3303
g62
(dp3304
g70
I3
ssg71
g3298
sg64
(lp3305
g1868
asbasbasbag57
(g73
g59
NtRp3306
(dp3307
g62
(dp3308
sg71
g3050
sg64
(lp3309
g57
(g78
g59
NtRp3310
(dp3311
g62
(dp3312
g82
g83
ssg71
g3306
sg64
(lp3313
S'REQUEST_METHOD'
p3314
asbag57
(g78
g59
NtRp3315
(dp3316
g62
(dp3317
g89
g90
ssg71
g3306
sg64
(lp3318
S':'
asbag57
(g78
g59
NtRp3319
(dp3320
g62
(dp3321
sg71
g3306
sg64
(lp3322
g57
(g58
g59
NtRp3323
(dp3324
g62
(dp3325
g70
I3
ssg71
g3319
sg64
(lp3326
g1890
asbasbasbag57
(g73
g59
NtRp3327
(dp3328
g62
(dp3329
sg71
g3050
sg64
(lp3330
g57
(g78
g59
NtRp3331
(dp3332
g62
(dp3333
g82
g83
ssg71
g3327
sg64
(lp3334
S'REQUEST_URI'
p3335
asbag57
(g78
g59
NtRp3336
(dp3337
g62
(dp3338
g89
g90
ssg71
g3327
sg64
(lp3339
S':'
asbag57
(g78
g59
NtRp3340
(dp3341
g62
(dp3342
sg71
g3327
sg64
(lp3343
g57
(g58
g59
NtRp3344
(dp3345
g62
(dp3346
g70
I3
ssg71
g3340
sg64
(lp3347
g1804
asbasbasbag57
(g73
g59
NtRp3348
(dp3349
g62
(dp3350
sg71
g3050
sg64
(lp3351
g57
(g78
g59
NtRp3352
(dp3353
g62
(dp3354
g82
g83
ssg71
g3348
sg64
(lp3355
S'SCRIPT_NAME'
p3356
asbag57
(g78
g59
NtRp3357
(dp3358
g62
(dp3359
g89
g90
ssg71
g3348
sg64
(lp3360
S':'
asbag57
(g78
g59
NtRp3361
(dp3362
g62
(dp3363
sg71
g3348
sg64
(lp3364
g57
(g58
g59
NtRp3365
(dp3366
g62
(dp3367
g70
I3
ssg71
g3361
sg64
(lp3368
S''
asbasbasbag57
(g73
g59
NtRp3369
(dp3370
g62
(dp3371
sg71
g3050
sg64
(lp3372
g57
(g78
g59
NtRp3373
(dp3374
g62
(dp3375
g82
g83
ssg71
g3369
sg64
(lp3376
S'SERVER_NAME'
p3377
asbag57
(g78
g59
NtRp3378
(dp3379
g62
(dp3380
g89
g90
ssg71
g3369
sg64
(lp3381
S':'
asbag57
(g78
g59
NtRp3382
(dp3383
g62
(dp3384
sg71
g3369
sg64
(lp3385
g57
(g58
g59
NtRp3386
(dp3387
g62
(dp3388
g70
I3
ssg71
g3382
sg64
(lp3389
g1954
asbasbasbag57
(g73
g59
NtRp3390
(dp3391
g62
(dp3392
sg71
g3050
sg64
(lp3393
g57
(g78
g59
NtRp3394
(dp3395
g62
(dp3396
g82
g83
ssg71
g3390
sg64
(lp3397
S'SERVER_PORT'
p3398
asbag57
(g78
g59
NtRp3399
(dp3400
g62
(dp3401
g89
g90
ssg71
g3390
sg64
(lp3402
S':'
asbag57
(g78
g59
NtRp3403
(dp3404
g62
(dp3405
sg71
g3390
sg64
(lp3406
g57
(g58
g59
NtRp3407
(dp3408
g62
(dp3409
g70
I3
ssg71
g3403
sg64
(lp3410
g1976
asbasbasbag57
(g73
g59
NtRp3411
(dp3412
g62
(dp3413
sg71
g3050
sg64
(lp3414
g57
(g78
g59
NtRp3415
(dp3416
g62
(dp3417
g82
g83
ssg71
g3411
sg64
(lp3418
S'SERVER_PROTOCOL'
p3419
asbag57
(g78
g59
NtRp3420
(dp3421
g62
(dp3422
g89
g90
ssg71
g3411
sg64
(lp3423
S':'
asbag57
(g78
g59
NtRp3424
(dp3425
g62
(dp3426
sg71
g3411
sg64
(lp3427
g57
(g58
g59
NtRp3428
(dp3429
g62
(dp3430
g70
I3
ssg71
g3424
sg64
(lp3431
g1998
asbasbasbag57
(g73
g59
NtRp3432
(dp3433
g62
(dp3434
sg71
g3050
sg64
(lp3435
g57
(g78
g59
NtRp3436
(dp3437
g62
(dp3438
g82
g83
ssg71
g3432
sg64
(lp3439
S'SERVER_SOFTWARE'
p3440
asbag57
(g78
g59
NtRp3441
(dp3442
g62
(dp3443
g89
g90
ssg71
g3432
sg64
(lp3444
S':'
asbag57
(g78
g59
NtRp3445
(dp3446
g62
(dp3447
sg71
g3432
sg64
(lp3448
g57
(g58
g59
NtRp3449
(dp3450
g62
(dp3451
g70
I3
ssg71
g3445
sg64
(lp3452
g2020
asbasbasbag57
(g73
g59
NtRp3453
(dp3454
g62
(dp3455
sg71
g3050
sg64
(lp3456
g57
(g78
g59
NtRp3457
(dp3458
g62
(dp3459
g82
g83
ssg71
g3453
sg64
(lp3460
S'wsgi.errors'
p3461
asbag57
(g78
g59
NtRp3462
(dp3463
g62
(dp3464
g89
g90
ssg71
g3453
sg64
(lp3465
S':'
asbag57
(g78
g59
NtRp3466
(dp3467
g62
(dp3468
sg71
g3453
sg64
(lp3469
g57
(g58
g59
NtRp3470
(dp3471
g62
(dp3472
g70
I3
ssg71
g3466
sg64
(lp3473
S"<open file '<stderr>', mode 'w' at 0x7fe1ee8a81e0>"
p3474
asbasbasbag57
(g73
g59
NtRp3475
(dp3476
g62
(dp3477
sg71
g3050
sg64
(lp3478
g57
(g78
g59
NtRp3479
(dp3480
g62
(dp3481
g82
g83
ssg71
g3475
sg64
(lp3482
S'wsgi.file_wrapper'
p3483
asbag57
(g78
g59
NtRp3484
(dp3485
g62
(dp3486
g89
g90
ssg71
g3475
sg64
(lp3487
S':'
asbag57
(g78
g59
NtRp3488
(dp3489
g62
(dp3490
sg71
g3475
sg64
(lp3491
g57
(g58
g59
NtRp3492
(dp3493
g62
(dp3494
g70
I3
ssg71
g3488
sg64
(lp3495
S'<class wsgiref.util.FileWrapper at 0x236cc80>'
p3496
asbasbasbag57
(g73
g59
NtRp3497
(dp3498
g62
(dp3499
sg71
g3050
sg64
(lp3500
g57
(g78
g59
NtRp3501
(dp3502
g62
(dp3503
g82
g83
ssg71
g3497
sg64
(lp3504
S'wsgi.input'
p3505
asbag57
(g78
g59
NtRp3506
(dp3507
g62
(dp3508
g89
g90
ssg71
g3497
sg64
(lp3509
S':'
asbag57
(g78
g59
NtRp3510
(dp3511
g62
(dp3512
sg71
g3497
sg64
(lp3513
g57
(g58
g59
NtRp3514
(dp3515
g62
(dp3516
g70
I3
ssg71
g3510
sg64
(lp3517
S'<cStringIO.StringO object at 0x7fe1bc59fae8>'
p3518
asbasbasbag57
(g73
g59
NtRp3519
(dp3520
g62
(dp3521
sg71
g3050
sg64
(lp3522
g57
(g78
g59
NtRp3523
(dp3524
g62
(dp3525
g82
g83
ssg71
g3519
sg64
(lp3526
S'wsgi.multiprocess'
p3527
asbag57
(g78
g59
NtRp3528
(dp3529
g62
(dp3530
g89
g90
ssg71
g3519
sg64
(lp3531
S':'
asbag57
(g78
g59
NtRp3532
(dp3533
g62
(dp3534
sg71
g3519
sg64
(lp3535
g57
(g58
g59
NtRp3536
(dp3537
g62
(dp3538
g70
I3
ssg71
g3532
sg64
(lp3539
g100
asbasbasbag57
(g73
g59
NtRp3540
(dp3541
g62
(dp3542
sg71
g3050
sg64
(lp3543
g57
(g78
g59
NtRp3544
(dp3545
g62
(dp3546
g82
g83
ssg71
g3540
sg64
(lp3547
S'wsgi.multithread'
p3548
asbag57
(g78
g59
NtRp3549
(dp3550
g62
(dp3551
g89
g90
ssg71
g3540
sg64
(lp3552
S':'
asbag57
(g78
g59
NtRp3553
(dp3554
g62
(dp3555
sg71
g3540
sg64
(lp3556
g57
(g58
g59
NtRp3557
(dp3558
g62
(dp3559
g70
I3
ssg71
g3553
sg64
(lp3560
g2259
asbasbasbag57
(g73
g59
NtRp3561
(dp3562
g62
(dp3563
sg71
g3050
sg64
(lp3564
g57
(g78
g59
NtRp3565
(dp3566
g62
(dp3567
g82
g83
ssg71
g3561
sg64
(lp3568
S'wsgi.run_once'
p3569
asbag57
(g78
g59
NtRp3570
(dp3571
g62
(dp3572
g89
g90
ssg71
g3561
sg64
(lp3573
S':'
asbag57
(g78
g59
NtRp3574
(dp3575
g62
(dp3576
sg71
g3561
sg64
(lp3577
g57
(g58
g59
NtRp3578
(dp3579
g62
(dp3580
g70
I3
ssg71
g3574
sg64
(lp3581
g100
asbasbasbag57
(g73
g59
NtRp3582
(dp3583
g62
(dp3584
sg71
g3050
sg64
(lp3585
g57
(g78
g59
NtRp3586
(dp3587
g62
(dp3588
g82
g83
ssg71
g3582
sg64
(lp3589
S'wsgi.url_scheme'
p3590
asbag57
(g78
g59
NtRp3591
(dp3592
g62
(dp3593
g89
g90
ssg71
g3582
sg64
(lp3594
S':'
asbag57
(g78
g59
NtRp3595
(dp3596
g62
(dp3597
sg71
g3582
sg64
(lp3598
g57
(g58
g59
NtRp3599
(dp3600
g62
(dp3601
g70
I3
ssg71
g3595
sg64
(lp3602
g2302
asbasbasbag57
(g73
g59
NtRp3603
(dp3604
g62
(dp3605
sg71
g3050
sg64
(lp3606
g57
(g78
g59
NtRp3607
(dp3608
g62
(dp3609
g82
g83
ssg71
g3603
sg64
(lp3610
S'wsgi.version'
p3611
asbag57
(g78
g59
NtRp3612
(dp3613
g62
(dp3614
g89
g90
ssg71
g3603
sg64
(lp3615
S':'
asbag57
(g78
g59
NtRp3616
(dp3617
g62
(dp3618
sg71
g3603
sg64
(lp3619
g57
(g58
g59
NtRp3620
(dp3621
g62
(dp3622
g70
I3
ssg71
g3616
sg64
(lp3623
S'1'
asbasbasbasbasbasbasbasbasbasbasbasbasbsS'frames'
p3624
(lp3625
(dp3626
S'file'
p3627
S'/home/mayank/gitrepo/Twitter-Sentiment-Analysis/front-end/web2py/gluon/restricted.py'
p3628
sS'dump'
p3629
(dp3630
S'environment'
p3631
S"{'A': <class 'gluon.html.A'>, 'Auth': <class 'gluon.tools.Auth'>, 'B': <class 'gluon.html.B'>, 'BEAUTIFY': <class 'gluon.html.BEAUTIFY'>, 'BODY': <class 'gluon.html.BODY'>, 'BR': <class 'gluon.html.BR'>, 'BUTTON': <class 'gluon.html.BUTTON'>, 'CAT': <class 'gluon.html.CAT'>, 'CENTER': <class 'gluon.html.CENTER'>, 'CLEANUP': <class 'gluon.validators.CLEANUP'>, ...}"
p3632
sS'ccode'
p3633
S'<code object <module> at 0x7fe1d0245a30, file "/...2py/applications/FunkLoad/models/db.py", line 11>'
p3634
ssS'lnum'
p3635
I209
sS'lines'
p3636
(dp3637
I204
S'    try:'
p3638
sI205
S'        if type(code) == types.CodeType:'
p3639
sI206
S'            ccode = code'
p3640
sI207
S'        else:'
p3641
sI208
S'            ccode = compile2(code,layer)'
p3642
sI209
S'        exec ccode in environment'
p3643
sI210
S'    except HTTP:'
p3644
sI211
S'        raise'
p3645
sI212
S'    except RestrictedError:'
p3646
sI213
S'        # do not encapsulate (obfuscate) the original RestrictedError'
p3647
ssS'call'
p3648
S"(code='# -*- coding: utf-8 -*-\\n########################...ble auditing\\n# auth.enable_record_versioning(db)\\n', environment={'A': <class 'gluon.html.A'>, 'Auth': <class 'gluon.tools.Auth'>, 'B': <class 'gluon.html.B'>, 'BEAUTIFY': <class 'gluon.html.BEAUTIFY'>, 'BODY': <class 'gluon.html.BODY'>, 'BR': <class 'gluon.html.BR'>, 'BUTTON': <class 'gluon.html.BUTTON'>, 'CAT': <class 'gluon.html.CAT'>, 'CENTER': <class 'gluon.html.CENTER'>, 'CLEANUP': <class 'gluon.validators.CLEANUP'>, ...}, layer='/home/mayank/gitrepo/Twitter-Sentiment-Analysis/front-end/web2py/applications/FunkLoad/models/db.py')"
p3649
sS'func'
p3650
S'restricted'
p3651
sa(dp3652
g3627
S'/home/mayank/gitrepo/Twitter-Sentiment-Analysis/front-end/web2py/applications/FunkLoad/models/db.py'
p3653
sg3629
(dp3654
S'c'
S'undefined'
p3655
sS'f'
g3655
sS'URL'
p3656
S'<function URL>'
p3657
sS'auth.messages.verify_email'
p3658
S"'Click on the link %(link)s to verify your email'"
p3659
sS'args'
p3660
g3655
sS'request'
p3661
S"<Storage {'function': 'index', 'body': <cStringI...lications/FunkLoad/', 'post_vars': <Storage {}>}>"
p3662
sS'auth'
p3663
S'<gluon.tools.Auth object>'
p3664
sS'host'
p3665
g3655
sS'r'
g3655
sS'auth.messages'
p3666
S"<Storage {'invalid_email': 'Invalid email', 'ver...': 'Old password', 'label_username': 'Username'}>"
p3667
ssg3635
I57
sg3636
(dp3668
I52
S"mail.settings.sender = 'wrumf93@gmail.com'"
p3669
sI53
S"mail.settings.login = 'wrumf93:!wrumf!123!'"
p3670
sI54
S''
sI55
S'## configure auth policy'
p3671
sI56
S'auth.settings.registration_requires_verification = True'
p3672
sI57
S"auth.messages.verify_email = 'Click on the link '+ host + URL(r=request,c='default',f='user',args=['verify_email'])+'/%(key)s to verify your email'"
p3673
sI58
S'auth.settings.registration_requires_approval = False'
p3674
sI59
S'auth.settings.reset_password_requires_verification = True'
p3675
sI60
S"auth.messages.reset_password = 'Click on the link '+ host + URL(r=request,c='default',f='user',args=['reset_password']) +'/%(key)s to change password'"
p3676
sI61
S''
ssg3648
S'()'
p3677
sg3650
S'<module>'
p3678
sasS'pyver'
p3679
S'Python 2.7.4: /usr/bin/python'
p3680
sS'session'
p3681
g57
(g58
g59
NtRp3682
(dp3683
g62
(dp3684
sg64
(lp3685
g57
(g66
g59
NtRp3686
(dp3687
g62
(dp3688
g70
I5
ssg71
Nsg64
(lp3689
g57
(g73
g59
NtRp3690
(dp3691
g62
(dp3692
sg71
g3686
sg64
(lp3693
g57
(g78
g59
NtRp3694
(dp3695
g62
(dp3696
g82
g83
ssg71
g3690
sg64
(lp3697
S'auth'
p3698
asbag57
(g78
g59
NtRp3699
(dp3700
g62
(dp3701
g89
g90
ssg71
g3690
sg64
(lp3702
S':'
asbag57
(g78
g59
NtRp3703
(dp3704
g62
(dp3705
sg71
g3690
sg64
(lp3706
g57
(g58
g59
NtRp3707
(dp3708
g62
(dp3709
g70
I5
ssg71
g3703
sg64
(lp3710
S'None'
p3711
asbasbasbag57
(g73
g59
NtRp3712
(dp3713
g62
(dp3714
sg71
g3686
sg64
(lp3715
g57
(g78
g59
NtRp3716
(dp3717
g62
(dp3718
g82
g83
ssg71
g3712
sg64
(lp3719
S'flash'
p3720
asbag57
(g78
g59
NtRp3721
(dp3722
g62
(dp3723
g89
g90
ssg71
g3712
sg64
(lp3724
S':'
asbag57
(g78
g59
NtRp3725
(dp3726
g62
(dp3727
sg71
g3712
sg64
(lp3728
g57
(g58
g59
NtRp3729
(dp3730
g62
(dp3731
g70
I5
ssg71
g3725
sg64
(lp3732
S'None'
p3733
asbasbasbasbasbsS'etype'
p3734
S"<type 'exceptions.NameError'>"
p3735
sS'date'
p3736
S'Tue Apr  1 23:06:18 2014'
p3737
sS'response'
p3738
g57
(g58
g59
NtRp3739
(dp3740
g62
(dp3741
sg64
(lp3742
g57
(g66
g59
NtRp3743
(dp3744
g62
(dp3745
g70
I5
ssg71
Nsg64
(lp3746
g57
(g73
g59
NtRp3747
(dp3748
g62
(dp3749
sg71
g3743
sg64
(lp3750
g57
(g78
g59
NtRp3751
(dp3752
g62
(dp3753
g82
g83
ssg71
g3747
sg64
(lp3754
g155
asbag57
(g78
g59
NtRp3755
(dp3756
g62
(dp3757
g89
g90
ssg71
g3747
sg64
(lp3758
S':'
asbag57
(g78
g59
NtRp3759
(dp3760
g62
(dp3761
sg71
g3747
sg64
(lp3762
g57
(g58
g59
NtRp3763
(dp3764
g62
(dp3765
g70
I5
ssg71
g3759
sg64
(lp3766
S'<cStringIO.StringO object at 0x7fe1bc3835a8>'
p3767
asbasbasbag57
(g73
g59
NtRp3768
(dp3769
g62
(dp3770
sg71
g3743
sg64
(lp3771
g57
(g78
g59
NtRp3772
(dp3773
g62
(dp3774
g82
g83
ssg71
g3768
sg64
(lp3775
g243
asbag57
(g78
g59
NtRp3776
(dp3777
g62
(dp3778
g89
g90
ssg71
g3768
sg64
(lp3779
S':'
asbag57
(g78
g59
NtRp3780
(dp3781
g62
(dp3782
sg71
g3768
sg64
(lp3783
g57
(g58
g59
NtRp3784
(dp3785
g62
(dp3786
g70
I5
ssg71
g3780
sg64
(lp3787
g57
(g66
g59
NtRp3788
(dp3789
g62
(dp3790
g70
I4
ssg71
Nsg64
(lp3791
g57
(g73
g59
NtRp3792
(dp3793
g62
(dp3794
sg71
g3788
sg64
(lp3795
g57
(g78
g59
NtRp3796
(dp3797
g62
(dp3798
g82
g83
ssg71
g3792
sg64
(lp3799
S'session_id_funkload'
p3800
asbag57
(g78
g59
NtRp3801
(dp3802
g62
(dp3803
g89
g90
ssg71
g3792
sg64
(lp3804
S':'
asbag57
(g78
g59
NtRp3805
(dp3806
g62
(dp3807
sg71
g3792
sg64
(lp3808
g57
(g58
g59
NtRp3809
(dp3810
g62
(dp3811
g70
I4
ssg71
g3805
sg64
(lp3812
g475
ag57
(g66
g59
NtRp3813
(dp3814
g62
(dp3815
g70
I3
ssg71
Nsg64
(lp3816
g57
(g73
g59
NtRp3817
(dp3818
g62
(dp3819
sg71
g3813
sg64
(lp3820
g57
(g78
g59
NtRp3821
(dp3822
g62
(dp3823
g82
g83
ssg71
g3817
sg64
(lp3824
g294
asbag57
(g78
g59
NtRp3825
(dp3826
g62
(dp3827
g89
g90
ssg71
g3817
sg64
(lp3828
S':'
asbag57
(g78
g59
NtRp3829
(dp3830
g62
(dp3831
sg71
g3817
sg64
(lp3832
g57
(g58
g59
NtRp3833
(dp3834
g62
(dp3835
g70
I3
ssg71
g3829
sg64
(lp3836
S''
asbasbasbag57
(g73
g59
NtRp3837
(dp3838
g62
(dp3839
sg71
g3813
sg64
(lp3840
g57
(g78
g59
NtRp3841
(dp3842
g62
(dp3843
g82
g83
ssg71
g3837
sg64
(lp3844
g315
asbag57
(g78
g59
NtRp3845
(dp3846
g62
(dp3847
g89
g90
ssg71
g3837
sg64
(lp3848
S':'
asbag57
(g78
g59
NtRp3849
(dp3850
g62
(dp3851
sg71
g3837
sg64
(lp3852
g57
(g58
g59
NtRp3853
(dp3854
g62
(dp3855
g70
I3
ssg71
g3849
sg64
(lp3856
S''
asbasbasbag57
(g73
g59
NtRp3857
(dp3858
g62
(dp3859
sg71
g3813
sg64
(lp3860
g57
(g78
g59
NtRp3861
(dp3862
g62
(dp3863
g82
g83
ssg71
g3857
sg64
(lp3864
g336
asbag57
(g78
g59
NtRp3865
(dp3866
g62
(dp3867
g89
g90
ssg71
g3857
sg64
(lp3868
S':'
asbag57
(g78
g59
NtRp3869
(dp3870
g62
(dp3871
sg71
g3857
sg64
(lp3872
g57
(g58
g59
NtRp3873
(dp3874
g62
(dp3875
g70
I3
ssg71
g3869
sg64
(lp3876
S''
asbasbasbag57
(g73
g59
NtRp3877
(dp3878
g62
(dp3879
sg71
g3813
sg64
(lp3880
g57
(g78
g59
NtRp3881
(dp3882
g62
(dp3883
g82
g83
ssg71
g3877
sg64
(lp3884
g357
asbag57
(g78
g59
NtRp3885
(dp3886
g62
(dp3887
g89
g90
ssg71
g3877
sg64
(lp3888
S':'
asbag57
(g78
g59
NtRp3889
(dp3890
g62
(dp3891
sg71
g3877
sg64
(lp3892
g57
(g58
g59
NtRp3893
(dp3894
g62
(dp3895
g70
I3
ssg71
g3889
sg64
(lp3896
S''
asbasbasbag57
(g73
g59
NtRp3897
(dp3898
g62
(dp3899
sg71
g3813
sg64
(lp3900
g57
(g78
g59
NtRp3901
(dp3902
g62
(dp3903
g82
g83
ssg71
g3897
sg64
(lp3904
g378
asbag57
(g78
g59
NtRp3905
(dp3906
g62
(dp3907
g89
g90
ssg71
g3897
sg64
(lp3908
S':'
asbag57
(g78
g59
NtRp3909
(dp3910
g62
(dp3911
sg71
g3897
sg64
(lp3912
g57
(g58
g59
NtRp3913
(dp3914
g62
(dp3915
g70
I3
ssg71
g3909
sg64
(lp3916
S''
asbasbasbag57
(g73
g59
NtRp3917
(dp3918
g62
(dp3919
sg71
g3813
sg64
(lp3920
g57
(g78
g59
NtRp3921
(dp3922
g62
(dp3923
g82
g83
ssg71
g3917
sg64
(lp3924
g399
asbag57
(g78
g59
NtRp3925
(dp3926
g62
(dp3927
g89
g90
ssg71
g3917
sg64
(lp3928
S':'
asbag57
(g78
g59
NtRp3929
(dp3930
g62
(dp3931
sg71
g3917
sg64
(lp3932
g57
(g58
g59
NtRp3933
(dp3934
g62
(dp3935
g70
I3
ssg71
g3929
sg64
(lp3936
S'/'
asbasbasbag57
(g73
g59
NtRp3937
(dp3938
g62
(dp3939
sg71
g3813
sg64
(lp3940
g57
(g78
g59
NtRp3941
(dp3942
g62
(dp3943
g82
g83
ssg71
g3937
sg64
(lp3944
g420
asbag57
(g78
g59
NtRp3945
(dp3946
g62
(dp3947
g89
g90
ssg71
g3937
sg64
(lp3948
S':'
asbag57
(g78
g59
NtRp3949
(dp3950
g62
(dp3951
sg71
g3937
sg64
(lp3952
g57
(g58
g59
NtRp3953
(dp3954
g62
(dp3955
g70
I3
ssg71
g3949
sg64
(lp3956
S''
asbasbasbag57
(g73
g59
NtRp3957
(dp3958
g62
(dp3959
sg71
g3813
sg64
(lp3960
g57
(g78
g59
NtRp3961
(dp3962
g62
(dp3963
g82
g83
ssg71
g3957
sg64
(lp3964
g441
asbag57
(g78
g59
NtRp3965
(dp3966
g62
(dp3967
g89
g90
ssg71
g3957
sg64
(lp3968
S':'
asbag57
(g78
g59
NtRp3969
(dp3970
g62
(dp3971
sg71
g3957
sg64
(lp3972
g57
(g58
g59
NtRp3973
(dp3974
g62
(dp3975
g70
I3
ssg71
g3969
sg64
(lp3976
S''
asbasbasbasbasbasbasbasbasbasbasbag57
(g73
g59
NtRp3977
(dp3978
g62
(dp3979
sg71
g3743
sg64
(lp3980
g57
(g78
g59
NtRp3981
(dp3982
g62
(dp3983
g82
g83
ssg71
g3977
sg64
(lp3984
S'delimiters'
p3985
asbag57
(g78
g59
NtRp3986
(dp3987
g62
(dp3988
g89
g90
ssg71
g3977
sg64
(lp3989
S':'
asbag57
(g78
g59
NtRp3990
(dp3991
g62
(dp3992
sg71
g3977
sg64
(lp3993
g57
(g58
g59
NtRp3994
(dp3995
g62
(dp3996
g70
I5
ssg71
g3990
sg64
(lp3997
g57
(g66
g59
NtRp3998
(dp3999
g62
(dp4000
g70
I4
ssg71
Nsg64
(lp4001
g57
(g73
g59
NtRp4002
(dp4003
g62
(dp4004
sg71
g3998
sg64
(lp4005
g57
(g78
g59
NtRp4006
(dp4007
g62
(dp4008
sg71
g4002
sg64
(lp4009
g57
(g58
g59
NtRp4010
(dp4011
g62
(dp4012
g70
I4
ssg71
g4006
sg64
(lp4013
S'{{'
p4014
asbasbasbag57
(g73
g59
NtRp4015
(dp4016
g62
(dp4017
sg71
g3998
sg64
(lp4018
g57
(g78
g59
NtRp4019
(dp4020
g62
(dp4021
sg71
g4015
sg64
(lp4022
g57
(g58
g59
NtRp4023
(dp4024
g62
(dp4025
g70
I4
ssg71
g4019
sg64
(lp4026
S'}}'
p4027
asbasbasbasbasbasbasbag57
(g73
g59
NtRp4028
(dp4029
g62
(dp4030
sg71
g3743
sg64
(lp4031
g57
(g78
g59
NtRp4032
(dp4033
g62
(dp4034
g82
g83
ssg71
g4028
sg64
(lp4035
S'files'
p4036
asbag57
(g78
g59
NtRp4037
(dp4038
g62
(dp4039
g89
g90
ssg71
g4028
sg64
(lp4040
S':'
asbag57
(g78
g59
NtRp4041
(dp4042
g62
(dp4043
sg71
g4028
sg64
(lp4044
g57
(g58
g59
NtRp4045
(dp4046
g62
(dp4047
g70
I5
ssg71
g4041
sg64
(lp4048
g57
(g66
g59
NtRp4049
(dp4050
g62
(dp4051
g70
I4
ssg71
Nsg64
(lp4052
sbasbasbasbag57
(g73
g59
NtRp4053
(dp4054
g62
(dp4055
sg71
g3743
sg64
(lp4056
g57
(g78
g59
NtRp4057
(dp4058
g62
(dp4059
g82
g83
ssg71
g4053
sg64
(lp4060
S'flash'
p4061
asbag57
(g78
g59
NtRp4062
(dp4063
g62
(dp4064
g89
g90
ssg71
g4053
sg64
(lp4065
S':'
asbag57
(g78
g59
NtRp4066
(dp4067
g62
(dp4068
sg71
g4053
sg64
(lp4069
g57
(g58
g59
NtRp4070
(dp4071
g62
(dp4072
g70
I5
ssg71
g4066
sg64
(lp4073
S''
asbasbasbag57
(g73
g59
NtRp4074
(dp4075
g62
(dp4076
sg71
g3743
sg64
(lp4077
g57
(g78
g59
NtRp4078
(dp4079
g62
(dp4080
g82
g83
ssg71
g4074
sg64
(lp4081
S'generic_patterns'
p4082
asbag57
(g78
g59
NtRp4083
(dp4084
g62
(dp4085
g89
g90
ssg71
g4074
sg64
(lp4086
S':'
asbag57
(g78
g59
NtRp4087
(dp4088
g62
(dp4089
sg71
g4074
sg64
(lp4090
g57
(g58
g59
NtRp4091
(dp4092
g62
(dp4093
g70
I5
ssg71
g4087
sg64
(lp4094
g57
(g66
g59
NtRp4095
(dp4096
g62
(dp4097
g70
I4
ssg71
Nsg64
(lp4098
g57
(g73
g59
NtRp4099
(dp4100
g62
(dp4101
sg71
g4095
sg64
(lp4102
g57
(g78
g59
NtRp4103
(dp4104
g62
(dp4105
sg71
g4099
sg64
(lp4106
g57
(g58
g59
NtRp4107
(dp4108
g62
(dp4109
g70
I4
ssg71
g4103
sg64
(lp4110
S'*'
asbasbasbasbasbasbasbag57
(g73
g59
NtRp4111
(dp4112
g62
(dp4113
sg71
g3743
sg64
(lp4114
g57
(g78
g59
NtRp4115
(dp4116
g62
(dp4117
g82
g83
ssg71
g4111
sg64
(lp4118
S'headers'
p4119
asbag57
(g78
g59
NtRp4120
(dp4121
g62
(dp4122
g89
g90
ssg71
g4111
sg64
(lp4123
S':'
asbag57
(g78
g59
NtRp4124
(dp4125
g62
(dp4126
sg71
g4111
sg64
(lp4127
g57
(g58
g59
NtRp4128
(dp4129
g62
(dp4130
g70
I5
ssg71
g4124
sg64
(lp4131
g57
(g66
g59
NtRp4132
(dp4133
g62
(dp4134
g70
I4
ssg71
Nsg64
(lp4135
g57
(g73
g59
NtRp4136
(dp4137
g62
(dp4138
sg71
g4132
sg64
(lp4139
g57
(g78
g59
NtRp4140
(dp4141
g62
(dp4142
g82
g83
ssg71
g4136
sg64
(lp4143
S'Cache-Control'
p4144
asbag57
(g78
g59
NtRp4145
(dp4146
g62
(dp4147
g89
g90
ssg71
g4136
sg64
(lp4148
S':'
asbag57
(g78
g59
NtRp4149
(dp4150
g62
(dp4151
sg71
g4136
sg64
(lp4152
g57
(g58
g59
NtRp4153
(dp4154
g62
(dp4155
g70
I4
ssg71
g4149
sg64
(lp4156
S'no-store, no-cache, must-revalidate, post-check=0, pre-check=0'
p4157
asbasbasbag57
(g73
g59
NtRp4158
(dp4159
g62
(dp4160
sg71
g4132
sg64
(lp4161
g57
(g78
g59
NtRp4162
(dp4163
g62
(dp4164
g82
g83
ssg71
g4158
sg64
(lp4165
S'Content-Type'
p4166
asbag57
(g78
g59
NtRp4167
(dp4168
g62
(dp4169
g89
g90
ssg71
g4158
sg64
(lp4170
S':'
asbag57
(g78
g59
NtRp4171
(dp4172
g62
(dp4173
sg71
g4158
sg64
(lp4174
g57
(g58
g59
NtRp4175
(dp4176
g62
(dp4177
g70
I4
ssg71
g4171
sg64
(lp4178
S'text/html; charset=utf-8'
p4179
asbasbasbag57
(g73
g59
NtRp4180
(dp4181
g62
(dp4182
sg71
g4132
sg64
(lp4183
g57
(g78
g59
NtRp4184
(dp4185
g62
(dp4186
g82
g83
ssg71
g4180
sg64
(lp4187
S'Expires'
p4188
asbag57
(g78
g59
NtRp4189
(dp4190
g62
(dp4191
g89
g90
ssg71
g4180
sg64
(lp4192
S':'
asbag57
(g78
g59
NtRp4193
(dp4194
g62
(dp4195
sg71
g4180
sg64
(lp4196
g57
(g58
g59
NtRp4197
(dp4198
g62
(dp4199
g70
I4
ssg71
g4193
sg64
(lp4200
S'Tue, 01 Apr 2014 17:36:17 GMT'
p4201
asbasbasbag57
(g73
g59
NtRp4202
(dp4203
g62
(dp4204
sg71
g4132
sg64
(lp4205
g57
(g78
g59
NtRp4206
(dp4207
g62
(dp4208
g82
g83
ssg71
g4202
sg64
(lp4209
S'Pragma'
p4210
asbag57
(g78
g59
NtRp4211
(dp4212
g62
(dp4213
g89
g90
ssg71
g4202
sg64
(lp4214
S':'
asbag57
(g78
g59
NtRp4215
(dp4216
g62
(dp4217
sg71
g4202
sg64
(lp4218
g57
(g58
g59
NtRp4219
(dp4220
g62
(dp4221
g70
I4
ssg71
g4215
sg64
(lp4222
S'no-cache'
p4223
asbasbasbag57
(g73
g59
NtRp4224
(dp4225
g62
(dp4226
sg71
g4132
sg64
(lp4227
g57
(g78
g59
NtRp4228
(dp4229
g62
(dp4230
g82
g83
ssg71
g4224
sg64
(lp4231
S'X-Powered-By'
p4232
asbag57
(g78
g59
NtRp4233
(dp4234
g62
(dp4235
g89
g90
ssg71
g4224
sg64
(lp4236
S':'
asbag57
(g78
g59
NtRp4237
(dp4238
g62
(dp4239
sg71
g4224
sg64
(lp4240
g57
(g58
g59
NtRp4241
(dp4242
g62
(dp4243
g70
I4
ssg71
g4237
sg64
(lp4244
S'web2py'
p4245
asbasbasbasbasbasbasbag57
(g73
g59
NtRp4246
(dp4247
g62
(dp4248
sg71
g3743
sg64
(lp4249
g57
(g78
g59
NtRp4250
(dp4251
g62
(dp4252
g82
g83
ssg71
g4246
sg64
(lp4253
S'menu'
p4254
asbag57
(g78
g59
NtRp4255
(dp4256
g62
(dp4257
g89
g90
ssg71
g4246
sg64
(lp4258
S':'
asbag57
(g78
g59
NtRp4259
(dp4260
g62
(dp4261
sg71
g4246
sg64
(lp4262
g57
(g58
g59
NtRp4263
(dp4264
g62
(dp4265
g70
I5
ssg71
g4259
sg64
(lp4266
g57
(g66
g59
NtRp4267
(dp4268
g62
(dp4269
g70
I4
ssg71
Nsg64
(lp4270
sbasbasbasbag57
(g73
g59
NtRp4271
(dp4272
g62
(dp4273
sg71
g3743
sg64
(lp4274
g57
(g78
g59
NtRp4275
(dp4276
g62
(dp4277
g82
g83
ssg71
g4271
sg64
(lp4278
S'meta'
p4279
asbag57
(g78
g59
NtRp4280
(dp4281
g62
(dp4282
g89
g90
ssg71
g4271
sg64
(lp4283
S':'
asbag57
(g78
g59
NtRp4284
(dp4285
g62
(dp4286
sg71
g4271
sg64
(lp4287
g57
(g58
g59
NtRp4288
(dp4289
g62
(dp4290
g70
I5
ssg71
g4284
sg64
(lp4291
g57
(g66
g59
NtRp4292
(dp4293
g62
(dp4294
g70
I4
ssg71
Nsg64
(lp4295
sbasbasbasbag57
(g73
g59
NtRp4296
(dp4297
g62
(dp4298
sg71
g3743
sg64
(lp4299
g57
(g78
g59
NtRp4300
(dp4301
g62
(dp4302
g82
g83
ssg71
g4296
sg64
(lp4303
S'models_to_run'
p4304
asbag57
(g78
g59
NtRp4305
(dp4306
g62
(dp4307
g89
g90
ssg71
g4296
sg64
(lp4308
S':'
asbag57
(g78
g59
NtRp4309
(dp4310
g62
(dp4311
sg71
g4296
sg64
(lp4312
g57
(g58
g59
NtRp4313
(dp4314
g62
(dp4315
g70
I5
ssg71
g4309
sg64
(lp4316
g57
(g66
g59
NtRp4317
(dp4318
g62
(dp4319
g70
I4
ssg71
Nsg64
(lp4320
g57
(g73
g59
NtRp4321
(dp4322
g62
(dp4323
sg71
g4317
sg64
(lp4324
g57
(g78
g59
NtRp4325
(dp4326
g62
(dp4327
sg71
g4321
sg64
(lp4328
g57
(g58
g59
NtRp4329
(dp4330
g62
(dp4331
g70
I4
ssg71
g4325
sg64
(lp4332
S'^\\w+\\.py$'
p4333
asbasbasbag57
(g73
g59
NtRp4334
(dp4335
g62
(dp4336
sg71
g4317
sg64
(lp4337
g57
(g78
g59
NtRp4338
(dp4339
g62
(dp4340
sg71
g4334
sg64
(lp4341
g57
(g58
g59
NtRp4342
(dp4343
g62
(dp4344
g70
I4
ssg71
g4338
sg64
(lp4345
S'^default/\\w+\\.py$'
p4346
asbasbasbag57
(g73
g59
NtRp4347
(dp4348
g62
(dp4349
sg71
g4317
sg64
(lp4350
g57
(g78
g59
NtRp4351
(dp4352
g62
(dp4353
sg71
g4347
sg64
(lp4354
g57
(g58
g59
NtRp4355
(dp4356
g62
(dp4357
g70
I4
ssg71
g4351
sg64
(lp4358
S'^default/index/\\w+\\.py$'
p4359
asbasbasbasbasbasbasbag57
(g73
g59
NtRp4360
(dp4361
g62
(dp4362
sg71
g3743
sg64
(lp4363
g57
(g78
g59
NtRp4364
(dp4365
g62
(dp4366
g82
g83
ssg71
g4360
sg64
(lp4367
S'postprocessing'
p4368
asbag57
(g78
g59
NtRp4369
(dp4370
g62
(dp4371
g89
g90
ssg71
g4360
sg64
(lp4372
S':'
asbag57
(g78
g59
NtRp4373
(dp4374
g62
(dp4375
sg71
g4360
sg64
(lp4376
g57
(g58
g59
NtRp4377
(dp4378
g62
(dp4379
g70
I5
ssg71
g4373
sg64
(lp4380
g57
(g66
g59
NtRp4381
(dp4382
g62
(dp4383
g70
I4
ssg71
Nsg64
(lp4384
sbasbasbasbag57
(g73
g59
NtRp4385
(dp4386
g62
(dp4387
sg71
g3743
sg64
(lp4388
g57
(g78
g59
NtRp4389
(dp4390
g62
(dp4391
g82
g83
ssg71
g4385
sg64
(lp4392
S'session_file'
p4393
asbag57
(g78
g59
NtRp4394
(dp4395
g62
(dp4396
g89
g90
ssg71
g4385
sg64
(lp4397
S':'
asbag57
(g78
g59
NtRp4398
(dp4399
g62
(dp4400
sg71
g4385
sg64
(lp4401
g57
(g58
g59
NtRp4402
(dp4403
g62
(dp4404
g70
I5
ssg71
g4398
sg64
(lp4405
S"<open file '/home/mayank/gitrepo/Twitter-Sentiment-Analysis/front-end/web2py/applications/FunkLoad/sessions/127.0.0.1-a98b320f-b070-488d-ad40-6bbec9939460', mode 'rb+' at 0x7fe1bc3c41e0>"
p4406
asbasbasbag57
(g73
g59
NtRp4407
(dp4408
g62
(dp4409
sg71
g3743
sg64
(lp4410
g57
(g78
g59
NtRp4411
(dp4412
g62
(dp4413
g82
g83
ssg71
g4407
sg64
(lp4414
S'session_filename'
p4415
asbag57
(g78
g59
NtRp4416
(dp4417
g62
(dp4418
g89
g90
ssg71
g4407
sg64
(lp4419
S':'
asbag57
(g78
g59
NtRp4420
(dp4421
g62
(dp4422
sg71
g4407
sg64
(lp4423
g57
(g58
g59
NtRp4424
(dp4425
g62
(dp4426
g70
I5
ssg71
g4420
sg64
(lp4427
S'/home/mayank/gitrepo/Twitter-Sentiment-Analysis/front-end/web2py/applications/FunkLoad/sessions/127.0.0.1-a98b320f-b070-488d-ad40-6bbec9939460'
p4428
asbasbasbag57
(g73
g59
NtRp4429
(dp4430
g62
(dp4431
sg71
g3743
sg64
(lp4432
g57
(g78
g59
NtRp4433
(dp4434
g62
(dp4435
g82
g83
ssg71
g4429
sg64
(lp4436
S'session_id'
p4437
asbag57
(g78
g59
NtRp4438
(dp4439
g62
(dp4440
g89
g90
ssg71
g4429
sg64
(lp4441
S':'
asbag57
(g78
g59
NtRp4442
(dp4443
g62
(dp4444
sg71
g4429
sg64
(lp4445
g57
(g58
g59
NtRp4446
(dp4447
g62
(dp4448
g70
I5
ssg71
g4442
sg64
(lp4449
g475
asbasbasbag57
(g73
g59
NtRp4450
(dp4451
g62
(dp4452
sg71
g3743
sg64
(lp4453
g57
(g78
g59
NtRp4454
(dp4455
g62
(dp4456
g82
g83
ssg71
g4450
sg64
(lp4457
S'session_id_name'
p4458
asbag57
(g78
g59
NtRp4459
(dp4460
g62
(dp4461
g89
g90
ssg71
g4450
sg64
(lp4462
S':'
asbag57
(g78
g59
NtRp4463
(dp4464
g62
(dp4465
sg71
g4450
sg64
(lp4466
g57
(g58
g59
NtRp4467
(dp4468
g62
(dp4469
g70
I5
ssg71
g4463
sg64
(lp4470
g3800
asbasbasbag57
(g73
g59
NtRp4471
(dp4472
g62
(dp4473
sg71
g3743
sg64
(lp4474
g57
(g78
g59
NtRp4475
(dp4476
g62
(dp4477
g82
g83
ssg71
g4471
sg64
(lp4478
S'session_locked'
p4479
asbag57
(g78
g59
NtRp4480
(dp4481
g62
(dp4482
g89
g90
ssg71
g4471
sg64
(lp4483
S':'
asbag57
(g78
g59
NtRp4484
(dp4485
g62
(dp4486
sg71
g4471
sg64
(lp4487
g57
(g58
g59
NtRp4488
(dp4489
g62
(dp4490
g70
I5
ssg71
g4484
sg64
(lp4491
g2259
asbasbasbag57
(g73
g59
NtRp4492
(dp4493
g62
(dp4494
sg71
g3743
sg64
(lp4495
g57
(g78
g59
NtRp4496
(dp4497
g62
(dp4498
g82
g83
ssg71
g4492
sg64
(lp4499
S'session_new'
p4500
asbag57
(g78
g59
NtRp4501
(dp4502
g62
(dp4503
g89
g90
ssg71
g4492
sg64
(lp4504
S':'
asbag57
(g78
g59
NtRp4505
(dp4506
g62
(dp4507
sg71
g4492
sg64
(lp4508
g57
(g58
g59
NtRp4509
(dp4510
g62
(dp4511
g70
I5
ssg71
g4505
sg64
(lp4512
g100
asbasbasbag57
(g73
g59
NtRp4513
(dp4514
g62
(dp4515
sg71
g3743
sg64
(lp4516
g57
(g78
g59
NtRp4517
(dp4518
g62
(dp4519
g82
g83
ssg71
g4513
sg64
(lp4520
S'status'
p4521
asbag57
(g78
g59
NtRp4522
(dp4523
g62
(dp4524
g89
g90
ssg71
g4513
sg64
(lp4525
S':'
asbag57
(g78
g59
NtRp4526
(dp4527
g62
(dp4528
sg71
g4513
sg64
(lp4529
g57
(g58
g59
NtRp4530
(dp4531
g62
(dp4532
g70
I5
ssg71
g4526
sg64
(lp4533
S'200'
p4534
asbasbasbag57
(g73
g59
NtRp4535
(dp4536
g62
(dp4537
sg71
g3743
sg64
(lp4538
g57
(g78
g59
NtRp4539
(dp4540
g62
(dp4541
g82
g83
ssg71
g4535
sg64
(lp4542
S'view'
p4543
asbag57
(g78
g59
NtRp4544
(dp4545
g62
(dp4546
g89
g90
ssg71
g4535
sg64
(lp4547
S':'
asbag57
(g78
g59
NtRp4548
(dp4549
g62
(dp4550
sg71
g4535
sg64
(lp4551
g57
(g58
g59
NtRp4552
(dp4553
g62
(dp4554
g70
I5
ssg71
g4548
sg64
(lp4555
S'default/index.html'
p4556
asbasbasbasbasbsS'locals'
p4557
(dp4558
S'Service'
p4559
S"<class 'gluon.tools.Service'>"
p4560
sS'OBJECT'
p4561
S"<class 'gluon.html.OBJECT'>"
p4562
sS'SQLDB'
p4563
S"<class 'gluon.dal.DAL'>"
p4564
sg3681
S"<Storage {'_formkey[register]': '0d171321-294f-4...login]': 'cd60a5dc-27d1-4659-93d9-e45bcb0503ef'}>"
p4565
sS'LINK'
p4566
S"<class 'gluon.html.LINK'>"
p4567
sS'BR'
p4568
S"<class 'gluon.html.BR'>"
p4569
sS'local_import'
p4570
S'<function <lambda>>'
p4571
sS'OPTGROUP'
p4572
S"<class 'gluon.html.OPTGROUP'>"
p4573
sS'LI'
p4574
S"<class 'gluon.html.LI'>"
p4575
sS'PRE'
p4576
S"<class 'gluon.html.PRE'>"
p4577
sS'IS_INT_IN_RANGE'
p4578
S"<class 'gluon.validators.IS_INT_IN_RANGE'>"
p4579
sS'IS_LOWER'
p4580
S"<class 'gluon.validators.IS_LOWER'>"
p4581
sS'IS_STRONG'
p4582
S"<class 'gluon.validators.IS_STRONG'>"
p4583
sS'cache'
p4584
S'<gluon.cache.Cache object>'
p4585
sS'IS_IN_DB'
p4586
S"<class 'gluon.validators.IS_IN_DB'>"
p4587
sS'TAG'
p4588
S'<gluon.html.__TAG__ object>'
p4589
sS'SQLField'
p4590
S"<class 'gluon.dal.Field'>"
p4591
sS'mail'
p4592
S'<gluon.tools.Mail object>'
p4593
sS'BODY'
p4594
S"<class 'gluon.html.BODY'>"
p4595
sS'IS_DATE_IN_RANGE'
p4596
S"<class 'gluon.validators.IS_DATE_IN_RANGE'>"
p4597
sS'IFRAME'
p4598
S"<class 'gluon.html.IFRAME'>"
p4599
sS'URL'
p4600
S'<function URL>'
p4601
sS'__file__'
p4602
S"'/home/mayank/gitrepo/Twitter-Sentiment-Analysis/front-end/web2py/applications/FunkLoad/models/db.py'"
p4603
sS'db'
p4604
S'<DAL sqlite://storage.sqlite>'
p4605
sS'auth'
p4606
S'<gluon.tools.Auth object>'
p4607
sS'P'
S"<class 'gluon.html.P'>"
p4608
sS'TFOOT'
p4609
S"<class 'gluon.html.TFOOT'>"
p4610
sS'XHTML'
p4611
S"<class 'gluon.html.XHTML'>"
p4612
sS'ON'
p4613
g2259
sS'OL'
p4614
S"<class 'gluon.html.OL'>"
p4615
sS'TEXTAREA'
p4616
S"<class 'gluon.html.TEXTAREA'>"
p4617
sS'MENU'
p4618
S"<class 'gluon.html.MENU'>"
p4619
sS'EM'
p4620
S"<class 'gluon.html.EM'>"
p4621
sS'CODE'
p4622
S"<class 'gluon.html.CODE'>"
p4623
sS'HTTP'
p4624
S"<class 'gluon.http.HTTP'>"
p4625
sS'HR'
p4626
S"<class 'gluon.html.HR'>"
p4627
sS'IS_DATETIME'
p4628
S"<class 'gluon.validators.IS_DATETIME'>"
p4629
sS'STYLE'
p4630
S"<class 'gluon.html.STYLE'>"
p4631
sS'LABEL'
p4632
S"<class 'gluon.html.LABEL'>"
p4633
sS'META'
p4634
S"<class 'gluon.html.META'>"
p4635
sS'plugins'
p4636
S'<gluon.tools.PluginManager object>'
p4637
sS'SELECT'
p4638
S"<class 'gluon.html.SELECT'>"
p4639
sS'CENTER'
p4640
S"<class 'gluon.html.CENTER'>"
p4641
sS'prettydate'
p4642
S'<function prettydate>'
p4643
sS'Crud'
p4644
S"<class 'gluon.tools.Crud'>"
p4645
sS'Auth'
p4646
S"<class 'gluon.tools.Auth'>"
p4647
sS'__builtins__'
p4648
S"{'ArithmeticError': <type 'exceptions.ArithmeticError'>, 'AssertionError': <type 'exceptions.AssertionError'>, 'AttributeError': <type 'exceptions.AttributeError'>, 'BaseException': <type 'exceptions.BaseException'>, 'BufferError': <type 'exceptions.BufferError'>, 'BytesWarning': <type 'exceptions.BytesWarning'>, 'DeprecationWarning': <type 'exceptions.DeprecationWarning'>, 'EOFError': <type 'exceptions.EOFError'>, 'Ellipsis': Ellipsis, 'EnvironmentError': <type 'exceptions.EnvironmentError'>, ...}"
p4649
sS'HTML'
p4650
S"<class 'gluon.html.HTML'>"
p4651
sS'SQLFORM'
p4652
S"<class 'gluon.sqlhtml.SQLFORM'>"
p4653
sS'LOAD'
p4654
S'<function LOAD>'
p4655
sS'redirect'
p4656
S'<function redirect>'
p4657
sS'FIELDSET'
p4658
S"<class 'gluon.html.FIELDSET'>"
p4659
sS'IS_EQUAL_TO'
p4660
S"<class 'gluon.validators.IS_EQUAL_TO'>"
p4661
sS'embed64'
p4662
S'<function embed64>'
p4663
sS'IS_LIST_OF'
p4664
S"<class 'gluon.validators.IS_LIST_OF'>"
p4665
sS'INPUT'
p4666
S"<class 'gluon.html.INPUT'>"
p4667
sS'EMBED'
p4668
S"<class 'gluon.html.EMBED'>"
p4669
sS'FORM'
p4670
S"<class 'gluon.html.FORM'>"
p4671
sS'H2'
p4672
S"<class 'gluon.html.H2'>"
p4673
sS'H3'
p4674
S"<class 'gluon.html.H3'>"
p4675
sS'BUTTON'
p4676
S"<class 'gluon.html.BUTTON'>"
p4677
sS'H1'
p4678
S"<class 'gluon.html.H1'>"
p4679
sS'H6'
p4680
S"<class 'gluon.html.H6'>"
p4681
sS'H4'
p4682
S"<class 'gluon.html.H4'>"
p4683
sS'H5'
p4684
S"<class 'gluon.html.H5'>"
p4685
sS'UL'
p4686
S"<class 'gluon.html.UL'>"
p4687
sS'IS_UPPER'
p4688
S"<class 'gluon.validators.IS_UPPER'>"
p4689
sS'xmlescape'
p4690
S'<function xmlescape>'
p4691
sS'IS_TIME'
p4692
S"<class 'gluon.validators.IS_TIME'>"
p4693
sS'OPTION'
p4694
S"<class 'gluon.html.OPTION'>"
p4695
sS'TITLE'
p4696
S"<class 'gluon.html.TITLE'>"
p4697
sS'CRYPT'
p4698
S"<class 'gluon.validators.CRYPT'>"
p4699
sS'IS_EMPTY_OR'
p4700
S"<class 'gluon.validators.IS_EMPTY_OR'>"
p4701
sS'MARKMIN'
p4702
S"<class 'gluon.html.MARKMIN'>"
p4703
sS'__name__'
p4704
S"'__restricted__'"
p4705
sS'STRONG'
p4706
S"<class 'gluon.html.STRONG'>"
p4707
sS'COL'
p4708
S"<class 'gluon.html.COL'>"
p4709
sS'service'
p4710
S'<gluon.tools.Service object>'
p4711
sS'SCRIPT'
p4712
S"<class 'gluon.html.SCRIPT'>"
p4713
sS'TABLE'
p4714
S"<class 'gluon.html.TABLE'>"
p4715
sS'IS_IPV4'
p4716
S"<class 'gluon.validators.IS_IPV4'>"
p4717
sS'IS_LENGTH'
p4718
S"<class 'gluon.validators.IS_LENGTH'>"
p4719
sS'XML'
p4720
S"<class 'gluon.html.XML'>"
p4721
sS'B'
S"<class 'gluon.html.B'>"
p4722
sS'IMG'
p4723
S"<class 'gluon.html.IMG'>"
p4724
sS'SQLTABLE'
p4725
S"<class 'gluon.sqlhtml.SQLTABLE'>"
p4726
sS'IS_MATCH'
p4727
S"<class 'gluon.validators.IS_MATCH'>"
p4728
sS'IS_ALPHANUMERIC'
p4729
S"<class 'gluon.validators.IS_ALPHANUMERIC'>"
p4730
sS'SPAN'
p4731
S"<class 'gluon.html.SPAN'>"
p4732
sS'IS_SLUG'
p4733
S"<class 'gluon.validators.IS_SLUG'>"
p4734
sS'CLEANUP'
p4735
S"<class 'gluon.validators.CLEANUP'>"
p4736
sS'IS_DATE'
p4737
S"<class 'gluon.validators.IS_DATE'>"
p4738
sS'IS_EMAIL'
p4739
S"<class 'gluon.validators.IS_EMAIL'>"
p4740
sS'IS_NOT_EMPTY'
p4741
S"<class 'gluon.validators.IS_NOT_EMPTY'>"
p4742
sS'IS_FLOAT_IN_RANGE'
p4743
S"<class 'gluon.validators.IS_FLOAT_IN_RANGE'>"
p4744
sS'BEAUTIFY'
p4745
S"<class 'gluon.html.BEAUTIFY'>"
p4746
sS'TBODY'
p4747
S"<class 'gluon.html.TBODY'>"
p4748
sS'CAT'
p4749
S"<class 'gluon.html.CAT'>"
p4750
sS'Field'
p4751
S"<class 'gluon.dal.Field'>"
p4752
sS'DIV'
p4753
S"<class 'gluon.html.DIV'>"
p4754
sS'LEGEND'
p4755
S"<class 'gluon.html.LEGEND'>"
p4756
sS'COLGROUP'
p4757
S"<class 'gluon.html.COLGROUP'>"
p4758
sS'DAL'
p4759
S"<class 'gluon.dal.DAL'>"
p4760
sS'TT'
p4761
S"<class 'gluon.html.TT'>"
p4762
sS'TR'
p4763
S"<class 'gluon.html.TR'>"
p4764
sS'__package__'
p4765
S'None'
p4766
sS'TH'
p4767
S"<class 'gluon.html.TH'>"
p4768
sS'TD'
p4769
S"<class 'gluon.html.TD'>"
p4770
sS'PluginManager'
p4771
S"<class 'gluon.tools.PluginManager'>"
p4772
sS'IS_URL'
p4773
S"<class 'gluon.validators.IS_URL'>"
p4774
sS'A'
S"<class 'gluon.html.A'>"
p4775
sS'HEAD'
p4776
S"<class 'gluon.html.HEAD'>"
p4777
sS'IS_DATETIME_IN_RANGE'
p4778
S"<class 'gluon.validators.IS_DATETIME_IN_RANGE'>"
p4779
sS'IS_IMAGE'
p4780
S"<class 'gluon.validators.IS_IMAGE'>"
p4781
sS'I'
S"<class 'gluon.html.I'>"
p4782
sS'crud'
p4783
S'<gluon.tools.Crud object>'
p4784
sS'IS_NOT_IN_DB'
p4785
S"<class 'gluon.validators.IS_NOT_IN_DB'>"
p4786
sg3738
S"<Storage {'body': <cStringIO.StringO object at 0...t 0x7fe1bc0dd1b8>, 'view': 'default/index.html'}>"
p4787
sS'THEAD'
p4788
S"<class 'gluon.html.THEAD'>"
p4789
sS'IS_NULL_OR'
p4790
S"<class 'gluon.validators.IS_EMPTY_OR'>"
p4791
sg56
S"<Storage {'function': 'index', 'body': <cStringI...lications/FunkLoad/', 'post_vars': <Storage {}>}>"
p4792
sS'IS_EXPR'
p4793
S"<class 'gluon.validators.IS_EXPR'>"
p4794
sS'IS_IN_SET'
p4795
S"<class 'gluon.validators.IS_IN_SET'>"
p4796
sS'IS_UPLOAD_FILENAME'
p4797
S"<class 'gluon.validators.IS_UPLOAD_FILENAME'>"
p4798
sS'IS_DECIMAL_IN_RANGE'
p4799
S"<class 'gluon.validators.IS_DECIMAL_IN_RANGE'>"
p4800
sS'T'
S'<gluon.languages.translator object>'
p4801
sssS'traceback'
p4802
S'Traceback (most recent call last):\n  File "/home/mayank/gitrepo/Twitter-Sentiment-Analysis/front-end/web2py/gluon/restricted.py", line 209, in restricted\n    exec ccode in environment\n  File "/home/mayank/gitrepo/Twitter-Sentiment-Analysis/front-end/web2py/applications/FunkLoad/models/db.py", line 57, in <module>\n    auth.messages.verify_email = \'Click on the link \'+ host + URL(r=request,c=\'default\',f=\'user\',args=[\'verify_email\'])+\'/%(key)s to verify your email\'\nNameError: name \'host\' is not defined\n'
p4803
s.