(dp1
S'output'
p2
S"<type 'exceptions.SyntaxError'> invalid syntax (default.py, line 72)"
p3
sS'layer'
p4
S'/home/mayank/gitrepo/Twitter-Sentiment-Analysis/front-end/web2py/applications/TSAA/controllers/default.py'
p5
sS'code'
p6
S'# -*- coding: utf-8 -*-\n# this file is released under public domain and you can use without limitations\nimport os\nfrom tokenizer import *\nfrom settings import *\n\n#########################################################################\n## This is a samples controller\n## - index is the default action of any application\n## - user is required for authentication and authorization\n## - download is for downloading files uploaded in the db (does streaming)\n## - call exposes all registered services (none by default)\n#########################################################################\n\n\n#-----------------------Error Page-----------------------------------\n#if java script dissabled\ndef error():\n\t        return dict()\n\n#-----------------------Home Page------------------------------------\n@auth.requires_login()\ndef index():\n\t\n    \tsession.email=auth.user.email\n    \tprint session.email\n    \treturn dict()\n\n\n@auth.requires_login()\ndef test():\n\ttid=request.args[0]\n\ttestType=request.args[1]\n\tprint tid,testType\n        session.email=auth.user.email\n        print session.email\n\tif testType==\'Sentence\':\n\t\tdetails=db(db.SentTestDetails.id == tid).select()[0]\n\telse:\n\t\tdetails=db(db.PhraseTestDetails.id == tid).select()[0]\n\t\t\n\tif request.vars.Submit:\n\t\tif testType==\'Sentence\':\n\t\t\tdb(db.SentTestDetails.id==tid).update(ActualStatus=\'1\', ActualLabel=request.vars.ActualLabel)\n\t\telse:\n\t\t\tdb(db.SentTestDetails.id==tid).update(ActualStatus=\'1\', ActualLabel=request.vars.ActualLabel)\n\t\t\n\t\tprint request.vars\n\tdb.commit()\n\tprint details\n        return dict(details=details,testType=testType)\n\n@auth.requires_login()\ndef testDetails():\n    \tsession.email=auth.user.email\n    \tprint session.email\n\tsentDetails=db(db.SentTestDetails.UserEmail == session.email).select()\n\ttotal=0\n\tcorrect=0\n\tfor row in sentDetails:\n\t\tif(row.PredictedLabel==ActualLabel):\n\t\t\tcorrect+=1\n\t\ttotal+=1\n\taccuracySent=[correct,total,(correct*100.0)/total]\n\tphraseDetails=db(db.PhraseTestDetails.UserEmail == session.email).select() \n\ttotal=0\n\tcorrect=0\n\tfor row in phraseDetails:\n\t\tif(row.PredictedLabel==ActualLabel):\n\t\t\tcorrect+=1\n\t\ttotal+=1\n\tif total=0:\n\t\ttotal=1\n\taccuracyPhrase=[correct,total,(correct*100.0)/total]\n\tprint sentDetails\n\tprint phraseDetailsi\n\treturn dict(sentDetails=sentDetails,phraseDetails=phraseDetails,accuracySent=accuracySent,accuracyPhrase=accuracyPhrase)\n\n@auth.requires_login()\ndef addTest():\n    \tsession.email=auth.user.email\n    \tprint session.email\n\tif request.vars.Submit==\'Submit\' :\n\t\tTestName=\'N/A\'\n\t\tTweet=request.vars.Tweet\n\t\tTestType=request.vars.TestType\n\t\tPhrase=request.vars.Phrase\n\t\tprint TestName\n\t\tprint Tweet\n\t\tprint TestType\n\t\tprint Phrase\n\t\t# tokenizing tweet\n\t\tdata=tokenize(Tweet)\n\t\tdata=data.split(\'\\t\')\n\t\tTokenizedTweet=data[0]\n\t\tToken=data[1]\n\t\tif TestType==\'Sentence\':\n\t\t\ttid=db.SentTestDetails.insert(TestName=TestName,UserEmail=session.email,Tweet=TokenizedTweet,Token=Token)\n\t\telse:\n\t\t\tdata=tokenize(Phrase)\n\t\t\tdata=data.split(\'\\t\')\n\t\t\tTokenizedPhrase=data[0]\n\t\t\tToken=data[1]\n\t\t\ttid=db.PhraseTestDetails.insert(TestName=TestName,UserEmail=session.email,Tweet=TokenizedTweet,Phrase=TokenizedPhrase,Token=Token)\n\t\tdb.commit()\n\t\tredirect(URL(r=request, f=\'testDetails\'))\n\treturn dict()\n\n@auth.requires_login()\ndef upload():\n    print request.vars\n\n    if request.vars.Submit:\n\tdataFile=db.Upload.File.store(request.vars.DataFile.file, request.vars.DataFile.filename)\t\n\tprint dataFile\n\tresponse.flash = \'file uploaded\'\n\tid = db.Upload.insert(DataType=request.vars.DataType,TestType=request.vars.TestType,UserEmail=session.email,File=dataFile)\n\tdb.commit()\n    return dict()\n\n\ndef user():\n    """\n    exposes:\n    http://..../[app]/default/user/login\n    http://..../[app]/default/user/logout\n    http://..../[app]/default/user/register\n    http://..../[app]/default/user/profile\n    http://..../[app]/default/user/retrieve_password\n    http://..../[app]/default/user/change_password\n    use @auth.requires_login()\n        @auth.requires_membership(\'group name\')\n        @auth.requires_permission(\'read\',\'table name\',record_id)\n    to decorate functions that need access control\n    """\n    return dict(form=auth())\n\n\ndef download():\n    """\n    allows downloading of uploaded files\n    http://..../[app]/default/download/[filename]\n    """\n    return response.download(request,db)\n\n\ndef call():\n    """\n    exposes services. for example:\n    http://..../[app]/default/call/jsonrpc\n    decorate with @services.jsonrpc the functions to expose\n    supports xml, json, xmlrpc, jsonrpc, amfrpc, rss, csv\n    """\n    return service()\n\n\n@auth.requires_signature()\ndef data():\n    """\n    http://..../[app]/default/data/tables\n    http://..../[app]/default/data/create/[table]\n    http://..../[app]/default/data/read/[table]/[id]\n    http://..../[app]/default/data/update/[table]/[id]\n    http://..../[app]/default/data/delete/[table]/[id]\n    http://..../[app]/default/data/select/[table]\n    http://..../[app]/default/data/search/[table]\n    but URLs must be signed, i.e. linked with\n      A(\'table\',_href=URL(\'data/tables\',user_signature=True))\n    or with the signed load operator\n      LOAD(\'default\',\'data.load\',args=\'tables\',ajax=True,user_signature=True)\n    """\n    return dict(form=crud())\n\nresponse._vars=response._caller(testDetails)\n'
p7
sS'snapshot'
p8
(dp9
S'exception'
p10
(dp11
S'__getslice__'
p12
S"<method-wrapper '__getslice__' of exceptions.SyntaxError object>"
p13
sS'text'
p14
S"'\\tif total=0:\\n'"
p15
sS'__str__'
p16
S"<method-wrapper '__str__' of exceptions.SyntaxError object>"
p17
sS'__reduce__'
p18
S'<built-in method __reduce__ of exceptions.SyntaxError object>'
p19
sS'__dict__'
p20
S'{}'
p21
sS'__sizeof__'
p22
S'<built-in method __sizeof__ of exceptions.SyntaxError object>'
p23
sS'__init__'
p24
S"<method-wrapper '__init__' of exceptions.SyntaxError object>"
p25
sS'__setattr__'
p26
S"<method-wrapper '__setattr__' of exceptions.SyntaxError object>"
p27
sS'__reduce_ex__'
p28
S'<built-in method __reduce_ex__ of exceptions.SyntaxError object>'
p29
sS'__new__'
p30
S'<built-in method __new__ of type object>'
p31
sS'__format__'
p32
S'<built-in method __format__ of exceptions.SyntaxError object>'
p33
sS'__class__'
p34
S"<type 'exceptions.SyntaxError'>"
p35
sS'filename'
p36
S"'/home/mayank/gitrepo/Twitter-Sentiment-Analysis/...d/web2py/applications/TSAA/controllers/default.py'"
p37
sS'lineno'
p38
S'72'
p39
sS'msg'
p40
S"'invalid syntax'"
p41
sS'__doc__'
p42
S"'Invalid syntax.'"
p43
sS'__getitem__'
p44
S"<method-wrapper '__getitem__' of exceptions.SyntaxError object>"
p45
sS'__setstate__'
p46
S'<built-in method __setstate__ of exceptions.SyntaxError object>'
p47
sS'__getattribute__'
p48
S"<method-wrapper '__getattribute__' of exceptions.SyntaxError object>"
p49
sS'print_file_and_line'
p50
S'None'
p51
sS'args'
p52
S"('invalid syntax', ('/home/mayank/gitrepo/Twitter-Sentiment-Analysis/...d/web2py/applications/TSAA/controllers/default.py', 72, 10, '\\tif total=0:\\n'))"
p53
sS'__subclasshook__'
p54
S'<built-in method __subclasshook__ of type object>'
p55
sS'offset'
p56
S'10'
p57
sS'__unicode__'
p58
S'<built-in method __unicode__ of exceptions.SyntaxError object>'
p59
sS'__delattr__'
p60
S"<method-wrapper '__delattr__' of exceptions.SyntaxError object>"
p61
sS'__repr__'
p62
S"<method-wrapper '__repr__' of exceptions.SyntaxError object>"
p63
sS'__hash__'
p64
S"<method-wrapper '__hash__' of exceptions.SyntaxError object>"
p65
ssS'evalue'
p66
S'invalid syntax (default.py, line 72)'
p67
sS'request'
p68
ccopy_reg
_reconstructor
p69
(cgluon.html
BEAUTIFY
p70
c__builtin__
object
p71
NtRp72
(dp73
S'attributes'
p74
(dp75
sS'components'
p76
(lp77
g69
(cgluon.html
TABLE
p78
g71
NtRp79
(dp80
g74
(dp81
S'level'
p82
I5
ssS'parent'
p83
Nsg76
(lp84
g69
(cgluon.html
TR
p85
g71
NtRp86
(dp87
g74
(dp88
sg83
g79
sg76
(lp89
g69
(cgluon.html
TD
p90
g71
NtRp91
(dp92
g74
(dp93
S'_style'
p94
S'font-weight:bold;vertical-align:top'
p95
ssg83
g86
sg76
(lp96
S'ajax'
p97
asbag69
(g90
g71
NtRp98
(dp99
g74
(dp100
S'_valign'
p101
S'top'
p102
ssg83
g86
sg76
(lp103
S':'
asbag69
(g90
g71
NtRp104
(dp105
g74
(dp106
sg83
g86
sg76
(lp107
g69
(g70
g71
NtRp108
(dp109
g74
(dp110
g82
I5
ssg83
g104
sg76
(lp111
S'False'
p112
asbasbasbag69
(g85
g71
NtRp113
(dp114
g74
(dp115
sg83
g79
sg76
(lp116
g69
(g90
g71
NtRp117
(dp118
g74
(dp119
g94
g95
ssg83
g113
sg76
(lp120
S'application'
p121
asbag69
(g90
g71
NtRp122
(dp123
g74
(dp124
g101
g102
ssg83
g113
sg76
(lp125
S':'
asbag69
(g90
g71
NtRp126
(dp127
g74
(dp128
sg83
g113
sg76
(lp129
g69
(g70
g71
NtRp130
(dp131
g74
(dp132
g82
I5
ssg83
g126
sg76
(lp133
S'TSAA'
p134
asbasbasbag69
(g85
g71
NtRp135
(dp136
g74
(dp137
sg83
g79
sg76
(lp138
g69
(g90
g71
NtRp139
(dp140
g74
(dp141
g94
g95
ssg83
g135
sg76
(lp142
g52
asbag69
(g90
g71
NtRp143
(dp144
g74
(dp145
g101
g102
ssg83
g135
sg76
(lp146
S':'
asbag69
(g90
g71
NtRp147
(dp148
g74
(dp149
sg83
g135
sg76
(lp150
g69
(g70
g71
NtRp151
(dp152
g74
(dp153
g82
I5
ssg83
g147
sg76
(lp154
g69
(g78
g71
NtRp155
(dp156
g74
(dp157
g82
I4
ssg83
Nsg76
(lp158
sbasbasbasbag69
(g85
g71
NtRp159
(dp160
g74
(dp161
sg83
g79
sg76
(lp162
g69
(g90
g71
NtRp163
(dp164
g74
(dp165
g94
g95
ssg83
g159
sg76
(lp166
S'body'
p167
asbag69
(g90
g71
NtRp168
(dp169
g74
(dp170
g101
g102
ssg83
g159
sg76
(lp171
S':'
asbag69
(g90
g71
NtRp172
(dp173
g74
(dp174
sg83
g159
sg76
(lp175
g69
(g70
g71
NtRp176
(dp177
g74
(dp178
g82
I5
ssg83
g172
sg76
(lp179
S'<cStringIO.StringO object at 0x7fc1dc3a2260>'
p180
asbasbasbag69
(g85
g71
NtRp181
(dp182
g74
(dp183
sg83
g79
sg76
(lp184
g69
(g90
g71
NtRp185
(dp186
g74
(dp187
g94
g95
ssg83
g181
sg76
(lp188
S'cid'
p189
asbag69
(g90
g71
NtRp190
(dp191
g74
(dp192
g101
g102
ssg83
g181
sg76
(lp193
S':'
asbag69
(g90
g71
NtRp194
(dp195
g74
(dp196
sg83
g181
sg76
(lp197
g69
(g70
g71
NtRp198
(dp199
g74
(dp200
g82
I5
ssg83
g194
sg76
(lp201
S'None'
p202
asbasbasbag69
(g85
g71
NtRp203
(dp204
g74
(dp205
sg83
g79
sg76
(lp206
g69
(g90
g71
NtRp207
(dp208
g74
(dp209
g94
g95
ssg83
g203
sg76
(lp210
S'client'
p211
asbag69
(g90
g71
NtRp212
(dp213
g74
(dp214
g101
g102
ssg83
g203
sg76
(lp215
S':'
asbag69
(g90
g71
NtRp216
(dp217
g74
(dp218
sg83
g203
sg76
(lp219
g69
(g70
g71
NtRp220
(dp221
g74
(dp222
g82
I5
ssg83
g216
sg76
(lp223
S'127.0.0.1'
p224
asbasbasbag69
(g85
g71
NtRp225
(dp226
g74
(dp227
sg83
g79
sg76
(lp228
g69
(g90
g71
NtRp229
(dp230
g74
(dp231
g94
g95
ssg83
g225
sg76
(lp232
S'controller'
p233
asbag69
(g90
g71
NtRp234
(dp235
g74
(dp236
g101
g102
ssg83
g225
sg76
(lp237
S':'
asbag69
(g90
g71
NtRp238
(dp239
g74
(dp240
sg83
g225
sg76
(lp241
g69
(g70
g71
NtRp242
(dp243
g74
(dp244
g82
I5
ssg83
g238
sg76
(lp245
S'default'
p246
asbasbasbag69
(g85
g71
NtRp247
(dp248
g74
(dp249
sg83
g79
sg76
(lp250
g69
(g90
g71
NtRp251
(dp252
g74
(dp253
g94
g95
ssg83
g247
sg76
(lp254
S'cookies'
p255
asbag69
(g90
g71
NtRp256
(dp257
g74
(dp258
g101
g102
ssg83
g247
sg76
(lp259
S':'
asbag69
(g90
g71
NtRp260
(dp261
g74
(dp262
sg83
g247
sg76
(lp263
g69
(g70
g71
NtRp264
(dp265
g74
(dp266
g82
I5
ssg83
g260
sg76
(lp267
g69
(g78
g71
NtRp268
(dp269
g74
(dp270
g82
I4
ssg83
Nsg76
(lp271
g69
(g85
g71
NtRp272
(dp273
g74
(dp274
sg83
g268
sg76
(lp275
g69
(g90
g71
NtRp276
(dp277
g74
(dp278
g94
g95
ssg83
g272
sg76
(lp279
S'session_id_admin'
p280
asbag69
(g90
g71
NtRp281
(dp282
g74
(dp283
g101
g102
ssg83
g272
sg76
(lp284
S':'
asbag69
(g90
g71
NtRp285
(dp286
g74
(dp287
sg83
g272
sg76
(lp288
g69
(g70
g71
NtRp289
(dp290
g74
(dp291
g82
I4
ssg83
g285
sg76
(lp292
S'127.0.0.1-951dd07b-7f06-44bc-8ee8-cae1a40550c3'
p293
ag69
(g78
g71
NtRp294
(dp295
g74
(dp296
g82
I3
ssg83
Nsg76
(lp297
g69
(g85
g71
NtRp298
(dp299
g74
(dp300
sg83
g294
sg76
(lp301
g69
(g90
g71
NtRp302
(dp303
g74
(dp304
g94
g95
ssg83
g298
sg76
(lp305
S'comment'
p306
asbag69
(g90
g71
NtRp307
(dp308
g74
(dp309
g101
g102
ssg83
g298
sg76
(lp310
S':'
asbag69
(g90
g71
NtRp311
(dp312
g74
(dp313
sg83
g298
sg76
(lp314
g69
(g70
g71
NtRp315
(dp316
g74
(dp317
g82
I3
ssg83
g311
sg76
(lp318
S''
asbasbasbag69
(g85
g71
NtRp319
(dp320
g74
(dp321
sg83
g294
sg76
(lp322
g69
(g90
g71
NtRp323
(dp324
g74
(dp325
g94
g95
ssg83
g319
sg76
(lp326
S'domain'
p327
asbag69
(g90
g71
NtRp328
(dp329
g74
(dp330
g101
g102
ssg83
g319
sg76
(lp331
S':'
asbag69
(g90
g71
NtRp332
(dp333
g74
(dp334
sg83
g319
sg76
(lp335
g69
(g70
g71
NtRp336
(dp337
g74
(dp338
g82
I3
ssg83
g332
sg76
(lp339
S''
asbasbasbag69
(g85
g71
NtRp340
(dp341
g74
(dp342
sg83
g294
sg76
(lp343
g69
(g90
g71
NtRp344
(dp345
g74
(dp346
g94
g95
ssg83
g340
sg76
(lp347
S'expires'
p348
asbag69
(g90
g71
NtRp349
(dp350
g74
(dp351
g101
g102
ssg83
g340
sg76
(lp352
S':'
asbag69
(g90
g71
NtRp353
(dp354
g74
(dp355
sg83
g340
sg76
(lp356
g69
(g70
g71
NtRp357
(dp358
g74
(dp359
g82
I3
ssg83
g353
sg76
(lp360
S''
asbasbasbag69
(g85
g71
NtRp361
(dp362
g74
(dp363
sg83
g294
sg76
(lp364
g69
(g90
g71
NtRp365
(dp366
g74
(dp367
g94
g95
ssg83
g361
sg76
(lp368
S'httponly'
p369
asbag69
(g90
g71
NtRp370
(dp371
g74
(dp372
g101
g102
ssg83
g361
sg76
(lp373
S':'
asbag69
(g90
g71
NtRp374
(dp375
g74
(dp376
sg83
g361
sg76
(lp377
g69
(g70
g71
NtRp378
(dp379
g74
(dp380
g82
I3
ssg83
g374
sg76
(lp381
S''
asbasbasbag69
(g85
g71
NtRp382
(dp383
g74
(dp384
sg83
g294
sg76
(lp385
g69
(g90
g71
NtRp386
(dp387
g74
(dp388
g94
g95
ssg83
g382
sg76
(lp389
S'max-age'
p390
asbag69
(g90
g71
NtRp391
(dp392
g74
(dp393
g101
g102
ssg83
g382
sg76
(lp394
S':'
asbag69
(g90
g71
NtRp395
(dp396
g74
(dp397
sg83
g382
sg76
(lp398
g69
(g70
g71
NtRp399
(dp400
g74
(dp401
g82
I3
ssg83
g395
sg76
(lp402
S''
asbasbasbag69
(g85
g71
NtRp403
(dp404
g74
(dp405
sg83
g294
sg76
(lp406
g69
(g90
g71
NtRp407
(dp408
g74
(dp409
g94
g95
ssg83
g403
sg76
(lp410
S'path'
p411
asbag69
(g90
g71
NtRp412
(dp413
g74
(dp414
g101
g102
ssg83
g403
sg76
(lp415
S':'
asbag69
(g90
g71
NtRp416
(dp417
g74
(dp418
sg83
g403
sg76
(lp419
g69
(g70
g71
NtRp420
(dp421
g74
(dp422
g82
I3
ssg83
g416
sg76
(lp423
S''
asbasbasbag69
(g85
g71
NtRp424
(dp425
g74
(dp426
sg83
g294
sg76
(lp427
g69
(g90
g71
NtRp428
(dp429
g74
(dp430
g94
g95
ssg83
g424
sg76
(lp431
S'secure'
p432
asbag69
(g90
g71
NtRp433
(dp434
g74
(dp435
g101
g102
ssg83
g424
sg76
(lp436
S':'
asbag69
(g90
g71
NtRp437
(dp438
g74
(dp439
sg83
g424
sg76
(lp440
g69
(g70
g71
NtRp441
(dp442
g74
(dp443
g82
I3
ssg83
g437
sg76
(lp444
S''
asbasbasbag69
(g85
g71
NtRp445
(dp446
g74
(dp447
sg83
g294
sg76
(lp448
g69
(g90
g71
NtRp449
(dp450
g74
(dp451
g94
g95
ssg83
g445
sg76
(lp452
S'version'
p453
asbag69
(g90
g71
NtRp454
(dp455
g74
(dp456
g101
g102
ssg83
g445
sg76
(lp457
S':'
asbag69
(g90
g71
NtRp458
(dp459
g74
(dp460
sg83
g445
sg76
(lp461
g69
(g70
g71
NtRp462
(dp463
g74
(dp464
g82
I3
ssg83
g458
sg76
(lp465
S''
asbasbasbasbasbasbasbag69
(g85
g71
NtRp466
(dp467
g74
(dp468
sg83
g268
sg76
(lp469
g69
(g90
g71
NtRp470
(dp471
g74
(dp472
g94
g95
ssg83
g466
sg76
(lp473
S'session_id_funkload'
p474
asbag69
(g90
g71
NtRp475
(dp476
g74
(dp477
g101
g102
ssg83
g466
sg76
(lp478
S':'
asbag69
(g90
g71
NtRp479
(dp480
g74
(dp481
sg83
g466
sg76
(lp482
g69
(g70
g71
NtRp483
(dp484
g74
(dp485
g82
I4
ssg83
g479
sg76
(lp486
S'127.0.0.1-7520ec14-1d29-4409-941d-d72a84f858f2'
p487
ag69
(g78
g71
NtRp488
(dp489
g74
(dp490
g82
I3
ssg83
Nsg76
(lp491
g69
(g85
g71
NtRp492
(dp493
g74
(dp494
sg83
g488
sg76
(lp495
g69
(g90
g71
NtRp496
(dp497
g74
(dp498
g94
g95
ssg83
g492
sg76
(lp499
g306
asbag69
(g90
g71
NtRp500
(dp501
g74
(dp502
g101
g102
ssg83
g492
sg76
(lp503
S':'
asbag69
(g90
g71
NtRp504
(dp505
g74
(dp506
sg83
g492
sg76
(lp507
g69
(g70
g71
NtRp508
(dp509
g74
(dp510
g82
I3
ssg83
g504
sg76
(lp511
S''
asbasbasbag69
(g85
g71
NtRp512
(dp513
g74
(dp514
sg83
g488
sg76
(lp515
g69
(g90
g71
NtRp516
(dp517
g74
(dp518
g94
g95
ssg83
g512
sg76
(lp519
g327
asbag69
(g90
g71
NtRp520
(dp521
g74
(dp522
g101
g102
ssg83
g512
sg76
(lp523
S':'
asbag69
(g90
g71
NtRp524
(dp525
g74
(dp526
sg83
g512
sg76
(lp527
g69
(g70
g71
NtRp528
(dp529
g74
(dp530
g82
I3
ssg83
g524
sg76
(lp531
S''
asbasbasbag69
(g85
g71
NtRp532
(dp533
g74
(dp534
sg83
g488
sg76
(lp535
g69
(g90
g71
NtRp536
(dp537
g74
(dp538
g94
g95
ssg83
g532
sg76
(lp539
g348
asbag69
(g90
g71
NtRp540
(dp541
g74
(dp542
g101
g102
ssg83
g532
sg76
(lp543
S':'
asbag69
(g90
g71
NtRp544
(dp545
g74
(dp546
sg83
g532
sg76
(lp547
g69
(g70
g71
NtRp548
(dp549
g74
(dp550
g82
I3
ssg83
g544
sg76
(lp551
S''
asbasbasbag69
(g85
g71
NtRp552
(dp553
g74
(dp554
sg83
g488
sg76
(lp555
g69
(g90
g71
NtRp556
(dp557
g74
(dp558
g94
g95
ssg83
g552
sg76
(lp559
g369
asbag69
(g90
g71
NtRp560
(dp561
g74
(dp562
g101
g102
ssg83
g552
sg76
(lp563
S':'
asbag69
(g90
g71
NtRp564
(dp565
g74
(dp566
sg83
g552
sg76
(lp567
g69
(g70
g71
NtRp568
(dp569
g74
(dp570
g82
I3
ssg83
g564
sg76
(lp571
S''
asbasbasbag69
(g85
g71
NtRp572
(dp573
g74
(dp574
sg83
g488
sg76
(lp575
g69
(g90
g71
NtRp576
(dp577
g74
(dp578
g94
g95
ssg83
g572
sg76
(lp579
g390
asbag69
(g90
g71
NtRp580
(dp581
g74
(dp582
g101
g102
ssg83
g572
sg76
(lp583
S':'
asbag69
(g90
g71
NtRp584
(dp585
g74
(dp586
sg83
g572
sg76
(lp587
g69
(g70
g71
NtRp588
(dp589
g74
(dp590
g82
I3
ssg83
g584
sg76
(lp591
S''
asbasbasbag69
(g85
g71
NtRp592
(dp593
g74
(dp594
sg83
g488
sg76
(lp595
g69
(g90
g71
NtRp596
(dp597
g74
(dp598
g94
g95
ssg83
g592
sg76
(lp599
g411
asbag69
(g90
g71
NtRp600
(dp601
g74
(dp602
g101
g102
ssg83
g592
sg76
(lp603
S':'
asbag69
(g90
g71
NtRp604
(dp605
g74
(dp606
sg83
g592
sg76
(lp607
g69
(g70
g71
NtRp608
(dp609
g74
(dp610
g82
I3
ssg83
g604
sg76
(lp611
S''
asbasbasbag69
(g85
g71
NtRp612
(dp613
g74
(dp614
sg83
g488
sg76
(lp615
g69
(g90
g71
NtRp616
(dp617
g74
(dp618
g94
g95
ssg83
g612
sg76
(lp619
g432
asbag69
(g90
g71
NtRp620
(dp621
g74
(dp622
g101
g102
ssg83
g612
sg76
(lp623
S':'
asbag69
(g90
g71
NtRp624
(dp625
g74
(dp626
sg83
g612
sg76
(lp627
g69
(g70
g71
NtRp628
(dp629
g74
(dp630
g82
I3
ssg83
g624
sg76
(lp631
S''
asbasbasbag69
(g85
g71
NtRp632
(dp633
g74
(dp634
sg83
g488
sg76
(lp635
g69
(g90
g71
NtRp636
(dp637
g74
(dp638
g94
g95
ssg83
g632
sg76
(lp639
g453
asbag69
(g90
g71
NtRp640
(dp641
g74
(dp642
g101
g102
ssg83
g632
sg76
(lp643
S':'
asbag69
(g90
g71
NtRp644
(dp645
g74
(dp646
sg83
g632
sg76
(lp647
g69
(g70
g71
NtRp648
(dp649
g74
(dp650
g82
I3
ssg83
g644
sg76
(lp651
S''
asbasbasbasbasbasbasbag69
(g85
g71
NtRp652
(dp653
g74
(dp654
sg83
g268
sg76
(lp655
g69
(g90
g71
NtRp656
(dp657
g74
(dp658
g94
g95
ssg83
g652
sg76
(lp659
S'session_id_lateral'
p660
asbag69
(g90
g71
NtRp661
(dp662
g74
(dp663
g101
g102
ssg83
g652
sg76
(lp664
S':'
asbag69
(g90
g71
NtRp665
(dp666
g74
(dp667
sg83
g652
sg76
(lp668
g69
(g70
g71
NtRp669
(dp670
g74
(dp671
g82
I4
ssg83
g665
sg76
(lp672
S'127.0.0.1-b14e5f9a-c97e-4675-8525-96f8e0893425'
p673
ag69
(g78
g71
NtRp674
(dp675
g74
(dp676
g82
I3
ssg83
Nsg76
(lp677
g69
(g85
g71
NtRp678
(dp679
g74
(dp680
sg83
g674
sg76
(lp681
g69
(g90
g71
NtRp682
(dp683
g74
(dp684
g94
g95
ssg83
g678
sg76
(lp685
g306
asbag69
(g90
g71
NtRp686
(dp687
g74
(dp688
g101
g102
ssg83
g678
sg76
(lp689
S':'
asbag69
(g90
g71
NtRp690
(dp691
g74
(dp692
sg83
g678
sg76
(lp693
g69
(g70
g71
NtRp694
(dp695
g74
(dp696
g82
I3
ssg83
g690
sg76
(lp697
S''
asbasbasbag69
(g85
g71
NtRp698
(dp699
g74
(dp700
sg83
g674
sg76
(lp701
g69
(g90
g71
NtRp702
(dp703
g74
(dp704
g94
g95
ssg83
g698
sg76
(lp705
g327
asbag69
(g90
g71
NtRp706
(dp707
g74
(dp708
g101
g102
ssg83
g698
sg76
(lp709
S':'
asbag69
(g90
g71
NtRp710
(dp711
g74
(dp712
sg83
g698
sg76
(lp713
g69
(g70
g71
NtRp714
(dp715
g74
(dp716
g82
I3
ssg83
g710
sg76
(lp717
S''
asbasbasbag69
(g85
g71
NtRp718
(dp719
g74
(dp720
sg83
g674
sg76
(lp721
g69
(g90
g71
NtRp722
(dp723
g74
(dp724
g94
g95
ssg83
g718
sg76
(lp725
g348
asbag69
(g90
g71
NtRp726
(dp727
g74
(dp728
g101
g102
ssg83
g718
sg76
(lp729
S':'
asbag69
(g90
g71
NtRp730
(dp731
g74
(dp732
sg83
g718
sg76
(lp733
g69
(g70
g71
NtRp734
(dp735
g74
(dp736
g82
I3
ssg83
g730
sg76
(lp737
S''
asbasbasbag69
(g85
g71
NtRp738
(dp739
g74
(dp740
sg83
g674
sg76
(lp741
g69
(g90
g71
NtRp742
(dp743
g74
(dp744
g94
g95
ssg83
g738
sg76
(lp745
g369
asbag69
(g90
g71
NtRp746
(dp747
g74
(dp748
g101
g102
ssg83
g738
sg76
(lp749
S':'
asbag69
(g90
g71
NtRp750
(dp751
g74
(dp752
sg83
g738
sg76
(lp753
g69
(g70
g71
NtRp754
(dp755
g74
(dp756
g82
I3
ssg83
g750
sg76
(lp757
S''
asbasbasbag69
(g85
g71
NtRp758
(dp759
g74
(dp760
sg83
g674
sg76
(lp761
g69
(g90
g71
NtRp762
(dp763
g74
(dp764
g94
g95
ssg83
g758
sg76
(lp765
g390
asbag69
(g90
g71
NtRp766
(dp767
g74
(dp768
g101
g102
ssg83
g758
sg76
(lp769
S':'
asbag69
(g90
g71
NtRp770
(dp771
g74
(dp772
sg83
g758
sg76
(lp773
g69
(g70
g71
NtRp774
(dp775
g74
(dp776
g82
I3
ssg83
g770
sg76
(lp777
S''
asbasbasbag69
(g85
g71
NtRp778
(dp779
g74
(dp780
sg83
g674
sg76
(lp781
g69
(g90
g71
NtRp782
(dp783
g74
(dp784
g94
g95
ssg83
g778
sg76
(lp785
g411
asbag69
(g90
g71
NtRp786
(dp787
g74
(dp788
g101
g102
ssg83
g778
sg76
(lp789
S':'
asbag69
(g90
g71
NtRp790
(dp791
g74
(dp792
sg83
g778
sg76
(lp793
g69
(g70
g71
NtRp794
(dp795
g74
(dp796
g82
I3
ssg83
g790
sg76
(lp797
S''
asbasbasbag69
(g85
g71
NtRp798
(dp799
g74
(dp800
sg83
g674
sg76
(lp801
g69
(g90
g71
NtRp802
(dp803
g74
(dp804
g94
g95
ssg83
g798
sg76
(lp805
g432
asbag69
(g90
g71
NtRp806
(dp807
g74
(dp808
g101
g102
ssg83
g798
sg76
(lp809
S':'
asbag69
(g90
g71
NtRp810
(dp811
g74
(dp812
sg83
g798
sg76
(lp813
g69
(g70
g71
NtRp814
(dp815
g74
(dp816
g82
I3
ssg83
g810
sg76
(lp817
S''
asbasbasbag69
(g85
g71
NtRp818
(dp819
g74
(dp820
sg83
g674
sg76
(lp821
g69
(g90
g71
NtRp822
(dp823
g74
(dp824
g94
g95
ssg83
g818
sg76
(lp825
g453
asbag69
(g90
g71
NtRp826
(dp827
g74
(dp828
g101
g102
ssg83
g818
sg76
(lp829
S':'
asbag69
(g90
g71
NtRp830
(dp831
g74
(dp832
sg83
g818
sg76
(lp833
g69
(g70
g71
NtRp834
(dp835
g74
(dp836
g82
I3
ssg83
g830
sg76
(lp837
S''
asbasbasbasbasbasbasbag69
(g85
g71
NtRp838
(dp839
g74
(dp840
sg83
g268
sg76
(lp841
g69
(g90
g71
NtRp842
(dp843
g74
(dp844
g94
g95
ssg83
g838
sg76
(lp845
S'session_id_seminar'
p846
asbag69
(g90
g71
NtRp847
(dp848
g74
(dp849
g101
g102
ssg83
g838
sg76
(lp850
S':'
asbag69
(g90
g71
NtRp851
(dp852
g74
(dp853
sg83
g838
sg76
(lp854
g69
(g70
g71
NtRp855
(dp856
g74
(dp857
g82
I4
ssg83
g851
sg76
(lp858
S'127.0.0.1-775135e2-7293-4b61-bd73-8f2f893bbe7d'
p859
ag69
(g78
g71
NtRp860
(dp861
g74
(dp862
g82
I3
ssg83
Nsg76
(lp863
g69
(g85
g71
NtRp864
(dp865
g74
(dp866
sg83
g860
sg76
(lp867
g69
(g90
g71
NtRp868
(dp869
g74
(dp870
g94
g95
ssg83
g864
sg76
(lp871
g306
asbag69
(g90
g71
NtRp872
(dp873
g74
(dp874
g101
g102
ssg83
g864
sg76
(lp875
S':'
asbag69
(g90
g71
NtRp876
(dp877
g74
(dp878
sg83
g864
sg76
(lp879
g69
(g70
g71
NtRp880
(dp881
g74
(dp882
g82
I3
ssg83
g876
sg76
(lp883
S''
asbasbasbag69
(g85
g71
NtRp884
(dp885
g74
(dp886
sg83
g860
sg76
(lp887
g69
(g90
g71
NtRp888
(dp889
g74
(dp890
g94
g95
ssg83
g884
sg76
(lp891
g327
asbag69
(g90
g71
NtRp892
(dp893
g74
(dp894
g101
g102
ssg83
g884
sg76
(lp895
S':'
asbag69
(g90
g71
NtRp896
(dp897
g74
(dp898
sg83
g884
sg76
(lp899
g69
(g70
g71
NtRp900
(dp901
g74
(dp902
g82
I3
ssg83
g896
sg76
(lp903
S''
asbasbasbag69
(g85
g71
NtRp904
(dp905
g74
(dp906
sg83
g860
sg76
(lp907
g69
(g90
g71
NtRp908
(dp909
g74
(dp910
g94
g95
ssg83
g904
sg76
(lp911
g348
asbag69
(g90
g71
NtRp912
(dp913
g74
(dp914
g101
g102
ssg83
g904
sg76
(lp915
S':'
asbag69
(g90
g71
NtRp916
(dp917
g74
(dp918
sg83
g904
sg76
(lp919
g69
(g70
g71
NtRp920
(dp921
g74
(dp922
g82
I3
ssg83
g916
sg76
(lp923
S''
asbasbasbag69
(g85
g71
NtRp924
(dp925
g74
(dp926
sg83
g860
sg76
(lp927
g69
(g90
g71
NtRp928
(dp929
g74
(dp930
g94
g95
ssg83
g924
sg76
(lp931
g369
asbag69
(g90
g71
NtRp932
(dp933
g74
(dp934
g101
g102
ssg83
g924
sg76
(lp935
S':'
asbag69
(g90
g71
NtRp936
(dp937
g74
(dp938
sg83
g924
sg76
(lp939
g69
(g70
g71
NtRp940
(dp941
g74
(dp942
g82
I3
ssg83
g936
sg76
(lp943
S''
asbasbasbag69
(g85
g71
NtRp944
(dp945
g74
(dp946
sg83
g860
sg76
(lp947
g69
(g90
g71
NtRp948
(dp949
g74
(dp950
g94
g95
ssg83
g944
sg76
(lp951
g390
asbag69
(g90
g71
NtRp952
(dp953
g74
(dp954
g101
g102
ssg83
g944
sg76
(lp955
S':'
asbag69
(g90
g71
NtRp956
(dp957
g74
(dp958
sg83
g944
sg76
(lp959
g69
(g70
g71
NtRp960
(dp961
g74
(dp962
g82
I3
ssg83
g956
sg76
(lp963
S''
asbasbasbag69
(g85
g71
NtRp964
(dp965
g74
(dp966
sg83
g860
sg76
(lp967
g69
(g90
g71
NtRp968
(dp969
g74
(dp970
g94
g95
ssg83
g964
sg76
(lp971
g411
asbag69
(g90
g71
NtRp972
(dp973
g74
(dp974
g101
g102
ssg83
g964
sg76
(lp975
S':'
asbag69
(g90
g71
NtRp976
(dp977
g74
(dp978
sg83
g964
sg76
(lp979
g69
(g70
g71
NtRp980
(dp981
g74
(dp982
g82
I3
ssg83
g976
sg76
(lp983
S''
asbasbasbag69
(g85
g71
NtRp984
(dp985
g74
(dp986
sg83
g860
sg76
(lp987
g69
(g90
g71
NtRp988
(dp989
g74
(dp990
g94
g95
ssg83
g984
sg76
(lp991
g432
asbag69
(g90
g71
NtRp992
(dp993
g74
(dp994
g101
g102
ssg83
g984
sg76
(lp995
S':'
asbag69
(g90
g71
NtRp996
(dp997
g74
(dp998
sg83
g984
sg76
(lp999
g69
(g70
g71
NtRp1000
(dp1001
g74
(dp1002
g82
I3
ssg83
g996
sg76
(lp1003
S''
asbasbasbag69
(g85
g71
NtRp1004
(dp1005
g74
(dp1006
sg83
g860
sg76
(lp1007
g69
(g90
g71
NtRp1008
(dp1009
g74
(dp1010
g94
g95
ssg83
g1004
sg76
(lp1011
g453
asbag69
(g90
g71
NtRp1012
(dp1013
g74
(dp1014
g101
g102
ssg83
g1004
sg76
(lp1015
S':'
asbag69
(g90
g71
NtRp1016
(dp1017
g74
(dp1018
sg83
g1004
sg76
(lp1019
g69
(g70
g71
NtRp1020
(dp1021
g74
(dp1022
g82
I3
ssg83
g1016
sg76
(lp1023
S''
asbasbasbasbasbasbasbag69
(g85
g71
NtRp1024
(dp1025
g74
(dp1026
sg83
g268
sg76
(lp1027
g69
(g90
g71
NtRp1028
(dp1029
g74
(dp1030
g94
g95
ssg83
g1024
sg76
(lp1031
S'session_id_tsaa'
p1032
asbag69
(g90
g71
NtRp1033
(dp1034
g74
(dp1035
g101
g102
ssg83
g1024
sg76
(lp1036
S':'
asbag69
(g90
g71
NtRp1037
(dp1038
g74
(dp1039
sg83
g1024
sg76
(lp1040
g69
(g70
g71
NtRp1041
(dp1042
g74
(dp1043
g82
I4
ssg83
g1037
sg76
(lp1044
S'127.0.0.1-bfc8c8e4-324c-4089-8db1-78f978a67ea6'
p1045
ag69
(g78
g71
NtRp1046
(dp1047
g74
(dp1048
g82
I3
ssg83
Nsg76
(lp1049
g69
(g85
g71
NtRp1050
(dp1051
g74
(dp1052
sg83
g1046
sg76
(lp1053
g69
(g90
g71
NtRp1054
(dp1055
g74
(dp1056
g94
g95
ssg83
g1050
sg76
(lp1057
g306
asbag69
(g90
g71
NtRp1058
(dp1059
g74
(dp1060
g101
g102
ssg83
g1050
sg76
(lp1061
S':'
asbag69
(g90
g71
NtRp1062
(dp1063
g74
(dp1064
sg83
g1050
sg76
(lp1065
g69
(g70
g71
NtRp1066
(dp1067
g74
(dp1068
g82
I3
ssg83
g1062
sg76
(lp1069
S''
asbasbasbag69
(g85
g71
NtRp1070
(dp1071
g74
(dp1072
sg83
g1046
sg76
(lp1073
g69
(g90
g71
NtRp1074
(dp1075
g74
(dp1076
g94
g95
ssg83
g1070
sg76
(lp1077
g327
asbag69
(g90
g71
NtRp1078
(dp1079
g74
(dp1080
g101
g102
ssg83
g1070
sg76
(lp1081
S':'
asbag69
(g90
g71
NtRp1082
(dp1083
g74
(dp1084
sg83
g1070
sg76
(lp1085
g69
(g70
g71
NtRp1086
(dp1087
g74
(dp1088
g82
I3
ssg83
g1082
sg76
(lp1089
S''
asbasbasbag69
(g85
g71
NtRp1090
(dp1091
g74
(dp1092
sg83
g1046
sg76
(lp1093
g69
(g90
g71
NtRp1094
(dp1095
g74
(dp1096
g94
g95
ssg83
g1090
sg76
(lp1097
g348
asbag69
(g90
g71
NtRp1098
(dp1099
g74
(dp1100
g101
g102
ssg83
g1090
sg76
(lp1101
S':'
asbag69
(g90
g71
NtRp1102
(dp1103
g74
(dp1104
sg83
g1090
sg76
(lp1105
g69
(g70
g71
NtRp1106
(dp1107
g74
(dp1108
g82
I3
ssg83
g1102
sg76
(lp1109
S''
asbasbasbag69
(g85
g71
NtRp1110
(dp1111
g74
(dp1112
sg83
g1046
sg76
(lp1113
g69
(g90
g71
NtRp1114
(dp1115
g74
(dp1116
g94
g95
ssg83
g1110
sg76
(lp1117
g369
asbag69
(g90
g71
NtRp1118
(dp1119
g74
(dp1120
g101
g102
ssg83
g1110
sg76
(lp1121
S':'
asbag69
(g90
g71
NtRp1122
(dp1123
g74
(dp1124
sg83
g1110
sg76
(lp1125
g69
(g70
g71
NtRp1126
(dp1127
g74
(dp1128
g82
I3
ssg83
g1122
sg76
(lp1129
S''
asbasbasbag69
(g85
g71
NtRp1130
(dp1131
g74
(dp1132
sg83
g1046
sg76
(lp1133
g69
(g90
g71
NtRp1134
(dp1135
g74
(dp1136
g94
g95
ssg83
g1130
sg76
(lp1137
g390
asbag69
(g90
g71
NtRp1138
(dp1139
g74
(dp1140
g101
g102
ssg83
g1130
sg76
(lp1141
S':'
asbag69
(g90
g71
NtRp1142
(dp1143
g74
(dp1144
sg83
g1130
sg76
(lp1145
g69
(g70
g71
NtRp1146
(dp1147
g74
(dp1148
g82
I3
ssg83
g1142
sg76
(lp1149
S''
asbasbasbag69
(g85
g71
NtRp1150
(dp1151
g74
(dp1152
sg83
g1046
sg76
(lp1153
g69
(g90
g71
NtRp1154
(dp1155
g74
(dp1156
g94
g95
ssg83
g1150
sg76
(lp1157
g411
asbag69
(g90
g71
NtRp1158
(dp1159
g74
(dp1160
g101
g102
ssg83
g1150
sg76
(lp1161
S':'
asbag69
(g90
g71
NtRp1162
(dp1163
g74
(dp1164
sg83
g1150
sg76
(lp1165
g69
(g70
g71
NtRp1166
(dp1167
g74
(dp1168
g82
I3
ssg83
g1162
sg76
(lp1169
S''
asbasbasbag69
(g85
g71
NtRp1170
(dp1171
g74
(dp1172
sg83
g1046
sg76
(lp1173
g69
(g90
g71
NtRp1174
(dp1175
g74
(dp1176
g94
g95
ssg83
g1170
sg76
(lp1177
g432
asbag69
(g90
g71
NtRp1178
(dp1179
g74
(dp1180
g101
g102
ssg83
g1170
sg76
(lp1181
S':'
asbag69
(g90
g71
NtRp1182
(dp1183
g74
(dp1184
sg83
g1170
sg76
(lp1185
g69
(g70
g71
NtRp1186
(dp1187
g74
(dp1188
g82
I3
ssg83
g1182
sg76
(lp1189
S''
asbasbasbag69
(g85
g71
NtRp1190
(dp1191
g74
(dp1192
sg83
g1046
sg76
(lp1193
g69
(g90
g71
NtRp1194
(dp1195
g74
(dp1196
g94
g95
ssg83
g1190
sg76
(lp1197
g453
asbag69
(g90
g71
NtRp1198
(dp1199
g74
(dp1200
g101
g102
ssg83
g1190
sg76
(lp1201
S':'
asbag69
(g90
g71
NtRp1202
(dp1203
g74
(dp1204
sg83
g1190
sg76
(lp1205
g69
(g70
g71
NtRp1206
(dp1207
g74
(dp1208
g82
I3
ssg83
g1202
sg76
(lp1209
S''
asbasbasbasbasbasbasbag69
(g85
g71
NtRp1210
(dp1211
g74
(dp1212
sg83
g268
sg76
(lp1213
g69
(g90
g71
NtRp1214
(dp1215
g74
(dp1216
g94
g95
ssg83
g1210
sg76
(lp1217
S'session_id_welcome'
p1218
asbag69
(g90
g71
NtRp1219
(dp1220
g74
(dp1221
g101
g102
ssg83
g1210
sg76
(lp1222
S':'
asbag69
(g90
g71
NtRp1223
(dp1224
g74
(dp1225
sg83
g1210
sg76
(lp1226
g69
(g70
g71
NtRp1227
(dp1228
g74
(dp1229
g82
I4
ssg83
g1223
sg76
(lp1230
S'127.0.0.1-0029ef01-5ebe-4a48-a011-445f20da0813'
p1231
ag69
(g78
g71
NtRp1232
(dp1233
g74
(dp1234
g82
I3
ssg83
Nsg76
(lp1235
g69
(g85
g71
NtRp1236
(dp1237
g74
(dp1238
sg83
g1232
sg76
(lp1239
g69
(g90
g71
NtRp1240
(dp1241
g74
(dp1242
g94
g95
ssg83
g1236
sg76
(lp1243
g306
asbag69
(g90
g71
NtRp1244
(dp1245
g74
(dp1246
g101
g102
ssg83
g1236
sg76
(lp1247
S':'
asbag69
(g90
g71
NtRp1248
(dp1249
g74
(dp1250
sg83
g1236
sg76
(lp1251
g69
(g70
g71
NtRp1252
(dp1253
g74
(dp1254
g82
I3
ssg83
g1248
sg76
(lp1255
S''
asbasbasbag69
(g85
g71
NtRp1256
(dp1257
g74
(dp1258
sg83
g1232
sg76
(lp1259
g69
(g90
g71
NtRp1260
(dp1261
g74
(dp1262
g94
g95
ssg83
g1256
sg76
(lp1263
g327
asbag69
(g90
g71
NtRp1264
(dp1265
g74
(dp1266
g101
g102
ssg83
g1256
sg76
(lp1267
S':'
asbag69
(g90
g71
NtRp1268
(dp1269
g74
(dp1270
sg83
g1256
sg76
(lp1271
g69
(g70
g71
NtRp1272
(dp1273
g74
(dp1274
g82
I3
ssg83
g1268
sg76
(lp1275
S''
asbasbasbag69
(g85
g71
NtRp1276
(dp1277
g74
(dp1278
sg83
g1232
sg76
(lp1279
g69
(g90
g71
NtRp1280
(dp1281
g74
(dp1282
g94
g95
ssg83
g1276
sg76
(lp1283
g348
asbag69
(g90
g71
NtRp1284
(dp1285
g74
(dp1286
g101
g102
ssg83
g1276
sg76
(lp1287
S':'
asbag69
(g90
g71
NtRp1288
(dp1289
g74
(dp1290
sg83
g1276
sg76
(lp1291
g69
(g70
g71
NtRp1292
(dp1293
g74
(dp1294
g82
I3
ssg83
g1288
sg76
(lp1295
S''
asbasbasbag69
(g85
g71
NtRp1296
(dp1297
g74
(dp1298
sg83
g1232
sg76
(lp1299
g69
(g90
g71
NtRp1300
(dp1301
g74
(dp1302
g94
g95
ssg83
g1296
sg76
(lp1303
g369
asbag69
(g90
g71
NtRp1304
(dp1305
g74
(dp1306
g101
g102
ssg83
g1296
sg76
(lp1307
S':'
asbag69
(g90
g71
NtRp1308
(dp1309
g74
(dp1310
sg83
g1296
sg76
(lp1311
g69
(g70
g71
NtRp1312
(dp1313
g74
(dp1314
g82
I3
ssg83
g1308
sg76
(lp1315
S''
asbasbasbag69
(g85
g71
NtRp1316
(dp1317
g74
(dp1318
sg83
g1232
sg76
(lp1319
g69
(g90
g71
NtRp1320
(dp1321
g74
(dp1322
g94
g95
ssg83
g1316
sg76
(lp1323
g390
asbag69
(g90
g71
NtRp1324
(dp1325
g74
(dp1326
g101
g102
ssg83
g1316
sg76
(lp1327
S':'
asbag69
(g90
g71
NtRp1328
(dp1329
g74
(dp1330
sg83
g1316
sg76
(lp1331
g69
(g70
g71
NtRp1332
(dp1333
g74
(dp1334
g82
I3
ssg83
g1328
sg76
(lp1335
S''
asbasbasbag69
(g85
g71
NtRp1336
(dp1337
g74
(dp1338
sg83
g1232
sg76
(lp1339
g69
(g90
g71
NtRp1340
(dp1341
g74
(dp1342
g94
g95
ssg83
g1336
sg76
(lp1343
g411
asbag69
(g90
g71
NtRp1344
(dp1345
g74
(dp1346
g101
g102
ssg83
g1336
sg76
(lp1347
S':'
asbag69
(g90
g71
NtRp1348
(dp1349
g74
(dp1350
sg83
g1336
sg76
(lp1351
g69
(g70
g71
NtRp1352
(dp1353
g74
(dp1354
g82
I3
ssg83
g1348
sg76
(lp1355
S''
asbasbasbag69
(g85
g71
NtRp1356
(dp1357
g74
(dp1358
sg83
g1232
sg76
(lp1359
g69
(g90
g71
NtRp1360
(dp1361
g74
(dp1362
g94
g95
ssg83
g1356
sg76
(lp1363
g432
asbag69
(g90
g71
NtRp1364
(dp1365
g74
(dp1366
g101
g102
ssg83
g1356
sg76
(lp1367
S':'
asbag69
(g90
g71
NtRp1368
(dp1369
g74
(dp1370
sg83
g1356
sg76
(lp1371
g69
(g70
g71
NtRp1372
(dp1373
g74
(dp1374
g82
I3
ssg83
g1368
sg76
(lp1375
S''
asbasbasbag69
(g85
g71
NtRp1376
(dp1377
g74
(dp1378
sg83
g1232
sg76
(lp1379
g69
(g90
g71
NtRp1380
(dp1381
g74
(dp1382
g94
g95
ssg83
g1376
sg76
(lp1383
g453
asbag69
(g90
g71
NtRp1384
(dp1385
g74
(dp1386
g101
g102
ssg83
g1376
sg76
(lp1387
S':'
asbag69
(g90
g71
NtRp1388
(dp1389
g74
(dp1390
sg83
g1376
sg76
(lp1391
g69
(g70
g71
NtRp1392
(dp1393
g74
(dp1394
g82
I3
ssg83
g1388
sg76
(lp1395
S''
asbasbasbasbasbasbasbasbasbasbasbag69
(g85
g71
NtRp1396
(dp1397
g74
(dp1398
sg83
g79
sg76
(lp1399
g69
(g90
g71
NtRp1400
(dp1401
g74
(dp1402
g94
g95
ssg83
g1396
sg76
(lp1403
S'env'
p1404
asbag69
(g90
g71
NtRp1405
(dp1406
g74
(dp1407
g101
g102
ssg83
g1396
sg76
(lp1408
S':'
asbag69
(g90
g71
NtRp1409
(dp1410
g74
(dp1411
sg83
g1396
sg76
(lp1412
g69
(g70
g71
NtRp1413
(dp1414
g74
(dp1415
g82
I5
ssg83
g1409
sg76
(lp1416
g69
(g78
g71
NtRp1417
(dp1418
g74
(dp1419
g82
I4
ssg83
Nsg76
(lp1420
g69
(g85
g71
NtRp1421
(dp1422
g74
(dp1423
sg83
g1417
sg76
(lp1424
g69
(g90
g71
NtRp1425
(dp1426
g74
(dp1427
g94
g95
ssg83
g1421
sg76
(lp1428
S'app_folders'
p1429
asbag69
(g90
g71
NtRp1430
(dp1431
g74
(dp1432
g101
g102
ssg83
g1421
sg76
(lp1433
S':'
asbag69
(g90
g71
NtRp1434
(dp1435
g74
(dp1436
sg83
g1421
sg76
(lp1437
g69
(g70
g71
NtRp1438
(dp1439
g74
(dp1440
g82
I4
ssg83
g1434
sg76
(lp1441
S"set(['/home/mayank/gitrepo/Twitter-Sentiment-Analysis/front-end/web2py/applications/admin/', '/home/mayank/gitrepo/Twitter-Sentiment-Analysis/front-end/web2py/applications/TSAA/', '/home/mayank/gitrepo/Twitter-Sentiment-Analysis/front-end/web2py/applications/welcome/'])"
p1442
asbasbasbag69
(g85
g71
NtRp1443
(dp1444
g74
(dp1445
sg83
g1417
sg76
(lp1446
g69
(g90
g71
NtRp1447
(dp1448
g74
(dp1449
g94
g95
ssg83
g1443
sg76
(lp1450
S'applications_parent'
p1451
asbag69
(g90
g71
NtRp1452
(dp1453
g74
(dp1454
g101
g102
ssg83
g1443
sg76
(lp1455
S':'
asbag69
(g90
g71
NtRp1456
(dp1457
g74
(dp1458
sg83
g1443
sg76
(lp1459
g69
(g70
g71
NtRp1460
(dp1461
g74
(dp1462
g82
I4
ssg83
g1456
sg76
(lp1463
S'/home/mayank/gitrepo/Twitter-Sentiment-Analysis/front-end/web2py'
p1464
asbasbasbag69
(g85
g71
NtRp1465
(dp1466
g74
(dp1467
sg83
g1417
sg76
(lp1468
g69
(g90
g71
NtRp1469
(dp1470
g74
(dp1471
g94
g95
ssg83
g1465
sg76
(lp1472
S'cmd_args'
p1473
asbag69
(g90
g71
NtRp1474
(dp1475
g74
(dp1476
g101
g102
ssg83
g1465
sg76
(lp1477
S':'
asbag69
(g90
g71
NtRp1478
(dp1479
g74
(dp1480
sg83
g1465
sg76
(lp1481
g69
(g70
g71
NtRp1482
(dp1483
g74
(dp1484
g82
I4
ssg83
g1478
sg76
(lp1485
g69
(g78
g71
NtRp1486
(dp1487
g74
(dp1488
g82
I3
ssg83
Nsg76
(lp1489
sbasbasbasbag69
(g85
g71
NtRp1490
(dp1491
g74
(dp1492
sg83
g1417
sg76
(lp1493
g69
(g90
g71
NtRp1494
(dp1495
g74
(dp1496
g94
g95
ssg83
g1490
sg76
(lp1497
S'cmd_options'
p1498
asbag69
(g90
g71
NtRp1499
(dp1500
g74
(dp1501
g101
g102
ssg83
g1490
sg76
(lp1502
S':'
asbag69
(g90
g71
NtRp1503
(dp1504
g74
(dp1505
sg83
g1490
sg76
(lp1506
g69
(g70
g71
NtRp1507
(dp1508
g74
(dp1509
g82
I4
ssg83
g1503
sg76
(lp1510
S"<Values at 0x227c5f0: {'verbose': False, 'ip': '127.0.0.1', 'with_scheduler': False, 'ips': ['127.0.1.1', '10.1.33.121'], 'shutdown_timeout': 5, 'taskbar': False, 'port': 8000, 'maxthreads': None, 'softcron': False, 'server_name': 'mayank', 'bpython': False, 'nogui': False, 'nocron': False, 'extcron': False, 'run_system_tests': False, 'test': None, 'folder': '/home/mayank/gitrepo/Twitter-Sentiment-Analysis/front-end/web2py', 'config': '', 'import_models': False, 'winservice': '', 'shell': None, 'run': '', 'log_filename': 'httpserver.log', 'debuglevel': 30, 'args': [''], 'socket_timeout': 5, 'ssl_ca_certificate': None, 'scheduler': None, 'profiler_filename': None, 'ssl_private_key': '', 'scheduler_groups': None, 'password': '<ask>', 'request_queue_size': 5, 'ssl_certificate': '', 'cronjob': False, 'numthreads': None, 'quiet': False, 'interfaces': None, 'minthreads': None, 'timeout': 10, 'plain': False, 'nobanner': False, 'pid_filename': 'httpserver.pid'}>"
p1511
asbasbasbag69
(g85
g71
NtRp1512
(dp1513
g74
(dp1514
sg83
g1417
sg76
(lp1515
g69
(g90
g71
NtRp1516
(dp1517
g74
(dp1518
g94
g95
ssg83
g1512
sg76
(lp1519
S'db_sessions'
p1520
asbag69
(g90
g71
NtRp1521
(dp1522
g74
(dp1523
g101
g102
ssg83
g1512
sg76
(lp1524
S':'
asbag69
(g90
g71
NtRp1525
(dp1526
g74
(dp1527
sg83
g1512
sg76
(lp1528
g69
(g70
g71
NtRp1529
(dp1530
g74
(dp1531
g82
I4
ssg83
g1525
sg76
(lp1532
S'set([])'
p1533
asbasbasbag69
(g85
g71
NtRp1534
(dp1535
g74
(dp1536
sg83
g1417
sg76
(lp1537
g69
(g90
g71
NtRp1538
(dp1539
g74
(dp1540
g94
g95
ssg83
g1534
sg76
(lp1541
S'debugging'
p1542
asbag69
(g90
g71
NtRp1543
(dp1544
g74
(dp1545
g101
g102
ssg83
g1534
sg76
(lp1546
S':'
asbag69
(g90
g71
NtRp1547
(dp1548
g74
(dp1549
sg83
g1534
sg76
(lp1550
g69
(g70
g71
NtRp1551
(dp1552
g74
(dp1553
g82
I4
ssg83
g1547
sg76
(lp1554
g112
asbasbasbag69
(g85
g71
NtRp1555
(dp1556
g74
(dp1557
sg83
g1417
sg76
(lp1558
g69
(g90
g71
NtRp1559
(dp1560
g74
(dp1561
g94
g95
ssg83
g1555
sg76
(lp1562
S'gluon_parent'
p1563
asbag69
(g90
g71
NtRp1564
(dp1565
g74
(dp1566
g101
g102
ssg83
g1555
sg76
(lp1567
S':'
asbag69
(g90
g71
NtRp1568
(dp1569
g74
(dp1570
sg83
g1555
sg76
(lp1571
g69
(g70
g71
NtRp1572
(dp1573
g74
(dp1574
g82
I4
ssg83
g1568
sg76
(lp1575
S'/home/mayank/gitrepo/Twitter-Sentiment-Analysis/front-end/web2py'
p1576
asbasbasbag69
(g85
g71
NtRp1577
(dp1578
g74
(dp1579
sg83
g1417
sg76
(lp1580
g69
(g90
g71
NtRp1581
(dp1582
g74
(dp1583
g94
g95
ssg83
g1577
sg76
(lp1584
S'http_accept'
p1585
asbag69
(g90
g71
NtRp1586
(dp1587
g74
(dp1588
g101
g102
ssg83
g1577
sg76
(lp1589
S':'
asbag69
(g90
g71
NtRp1590
(dp1591
g74
(dp1592
sg83
g1577
sg76
(lp1593
g69
(g70
g71
NtRp1594
(dp1595
g74
(dp1596
g82
I4
ssg83
g1590
sg76
(lp1597
S'text/html,application/xhtml+xml,application/xml;q=0.9,image/webp,*/*;q=0.8'
p1598
asbasbasbag69
(g85
g71
NtRp1599
(dp1600
g74
(dp1601
sg83
g1417
sg76
(lp1602
g69
(g90
g71
NtRp1603
(dp1604
g74
(dp1605
g94
g95
ssg83
g1599
sg76
(lp1606
S'http_accept_encoding'
p1607
asbag69
(g90
g71
NtRp1608
(dp1609
g74
(dp1610
g101
g102
ssg83
g1599
sg76
(lp1611
S':'
asbag69
(g90
g71
NtRp1612
(dp1613
g74
(dp1614
sg83
g1599
sg76
(lp1615
g69
(g70
g71
NtRp1616
(dp1617
g74
(dp1618
g82
I4
ssg83
g1612
sg76
(lp1619
S'gzip,deflate,sdch'
p1620
asbasbasbag69
(g85
g71
NtRp1621
(dp1622
g74
(dp1623
sg83
g1417
sg76
(lp1624
g69
(g90
g71
NtRp1625
(dp1626
g74
(dp1627
g94
g95
ssg83
g1621
sg76
(lp1628
S'http_accept_language'
p1629
asbag69
(g90
g71
NtRp1630
(dp1631
g74
(dp1632
g101
g102
ssg83
g1621
sg76
(lp1633
S':'
asbag69
(g90
g71
NtRp1634
(dp1635
g74
(dp1636
sg83
g1621
sg76
(lp1637
g69
(g70
g71
NtRp1638
(dp1639
g74
(dp1640
g82
I4
ssg83
g1634
sg76
(lp1641
S'en-US,en;q=0.8'
p1642
asbasbasbag69
(g85
g71
NtRp1643
(dp1644
g74
(dp1645
sg83
g1417
sg76
(lp1646
g69
(g90
g71
NtRp1647
(dp1648
g74
(dp1649
g94
g95
ssg83
g1643
sg76
(lp1650
S'http_cache_control'
p1651
asbag69
(g90
g71
NtRp1652
(dp1653
g74
(dp1654
g101
g102
ssg83
g1643
sg76
(lp1655
S':'
asbag69
(g90
g71
NtRp1656
(dp1657
g74
(dp1658
sg83
g1643
sg76
(lp1659
g69
(g70
g71
NtRp1660
(dp1661
g74
(dp1662
g82
I4
ssg83
g1656
sg76
(lp1663
S'no-cache'
p1664
asbasbasbag69
(g85
g71
NtRp1665
(dp1666
g74
(dp1667
sg83
g1417
sg76
(lp1668
g69
(g90
g71
NtRp1669
(dp1670
g74
(dp1671
g94
g95
ssg83
g1665
sg76
(lp1672
S'http_connection'
p1673
asbag69
(g90
g71
NtRp1674
(dp1675
g74
(dp1676
g101
g102
ssg83
g1665
sg76
(lp1677
S':'
asbag69
(g90
g71
NtRp1678
(dp1679
g74
(dp1680
sg83
g1665
sg76
(lp1681
g69
(g70
g71
NtRp1682
(dp1683
g74
(dp1684
g82
I4
ssg83
g1678
sg76
(lp1685
S'keep-alive'
p1686
asbasbasbag69
(g85
g71
NtRp1687
(dp1688
g74
(dp1689
sg83
g1417
sg76
(lp1690
g69
(g90
g71
NtRp1691
(dp1692
g74
(dp1693
g94
g95
ssg83
g1687
sg76
(lp1694
S'http_cookie'
p1695
asbag69
(g90
g71
NtRp1696
(dp1697
g74
(dp1698
g101
g102
ssg83
g1687
sg76
(lp1699
S':'
asbag69
(g90
g71
NtRp1700
(dp1701
g74
(dp1702
sg83
g1687
sg76
(lp1703
g69
(g70
g71
NtRp1704
(dp1705
g74
(dp1706
g82
I4
ssg83
g1700
sg76
(lp1707
S'session_id_seminar=127.0.0.1-775135e2-7293-4b61-bd73-8f2f893bbe7d; session_id_funkload=127.0.0.1-7520ec14-1d29-4409-941d-d72a84f858f2; session_id_lateral=127.0.0.1-b14e5f9a-c97e-4675-8525-96f8e0893425; session_id_welcome=127.0.0.1-0029ef01-5ebe-4a48-a011-445f20da0813; session_id_admin=127.0.0.1-951dd07b-7f06-44bc-8ee8-cae1a40550c3; session_id_tsaa=127.0.0.1-bfc8c8e4-324c-4089-8db1-78f978a67ea6'
p1708
asbasbasbag69
(g85
g71
NtRp1709
(dp1710
g74
(dp1711
sg83
g1417
sg76
(lp1712
g69
(g90
g71
NtRp1713
(dp1714
g74
(dp1715
g94
g95
ssg83
g1709
sg76
(lp1716
S'http_host'
p1717
asbag69
(g90
g71
NtRp1718
(dp1719
g74
(dp1720
g101
g102
ssg83
g1709
sg76
(lp1721
S':'
asbag69
(g90
g71
NtRp1722
(dp1723
g74
(dp1724
sg83
g1709
sg76
(lp1725
g69
(g70
g71
NtRp1726
(dp1727
g74
(dp1728
g82
I4
ssg83
g1722
sg76
(lp1729
S'127.0.0.1:8000'
p1730
asbasbasbag69
(g85
g71
NtRp1731
(dp1732
g74
(dp1733
sg83
g1417
sg76
(lp1734
g69
(g90
g71
NtRp1735
(dp1736
g74
(dp1737
g94
g95
ssg83
g1731
sg76
(lp1738
S'http_pragma'
p1739
asbag69
(g90
g71
NtRp1740
(dp1741
g74
(dp1742
g101
g102
ssg83
g1731
sg76
(lp1743
S':'
asbag69
(g90
g71
NtRp1744
(dp1745
g74
(dp1746
sg83
g1731
sg76
(lp1747
g69
(g70
g71
NtRp1748
(dp1749
g74
(dp1750
g82
I4
ssg83
g1744
sg76
(lp1751
S'no-cache'
p1752
asbasbasbag69
(g85
g71
NtRp1753
(dp1754
g74
(dp1755
sg83
g1417
sg76
(lp1756
g69
(g90
g71
NtRp1757
(dp1758
g74
(dp1759
g94
g95
ssg83
g1753
sg76
(lp1760
S'http_referer'
p1761
asbag69
(g90
g71
NtRp1762
(dp1763
g74
(dp1764
g101
g102
ssg83
g1753
sg76
(lp1765
S':'
asbag69
(g90
g71
NtRp1766
(dp1767
g74
(dp1768
sg83
g1753
sg76
(lp1769
g69
(g70
g71
NtRp1770
(dp1771
g74
(dp1772
g82
I4
ssg83
g1766
sg76
(lp1773
S'http://127.0.0.1:8000/TSAA/default/upload'
p1774
asbasbasbag69
(g85
g71
NtRp1775
(dp1776
g74
(dp1777
sg83
g1417
sg76
(lp1778
g69
(g90
g71
NtRp1779
(dp1780
g74
(dp1781
g94
g95
ssg83
g1775
sg76
(lp1782
S'http_user_agent'
p1783
asbag69
(g90
g71
NtRp1784
(dp1785
g74
(dp1786
g101
g102
ssg83
g1775
sg76
(lp1787
S':'
asbag69
(g90
g71
NtRp1788
(dp1789
g74
(dp1790
sg83
g1775
sg76
(lp1791
g69
(g70
g71
NtRp1792
(dp1793
g74
(dp1794
g82
I4
ssg83
g1788
sg76
(lp1795
S'Mozilla/5.0 (X11; Linux x86_64) AppleWebKit/537.36 (KHTML, like Gecko) Chrome/31.0.1650.63 Safari/537.36'
p1796
asbasbasbag69
(g85
g71
NtRp1797
(dp1798
g74
(dp1799
sg83
g1417
sg76
(lp1800
g69
(g90
g71
NtRp1801
(dp1802
g74
(dp1803
g94
g95
ssg83
g1797
sg76
(lp1804
S'is_jython'
p1805
asbag69
(g90
g71
NtRp1806
(dp1807
g74
(dp1808
g101
g102
ssg83
g1797
sg76
(lp1809
S':'
asbag69
(g90
g71
NtRp1810
(dp1811
g74
(dp1812
sg83
g1797
sg76
(lp1813
g69
(g70
g71
NtRp1814
(dp1815
g74
(dp1816
g82
I4
ssg83
g1810
sg76
(lp1817
g112
asbasbasbag69
(g85
g71
NtRp1818
(dp1819
g74
(dp1820
sg83
g1417
sg76
(lp1821
g69
(g90
g71
NtRp1822
(dp1823
g74
(dp1824
g94
g95
ssg83
g1818
sg76
(lp1825
S'is_pypy'
p1826
asbag69
(g90
g71
NtRp1827
(dp1828
g74
(dp1829
g101
g102
ssg83
g1818
sg76
(lp1830
S':'
asbag69
(g90
g71
NtRp1831
(dp1832
g74
(dp1833
sg83
g1818
sg76
(lp1834
g69
(g70
g71
NtRp1835
(dp1836
g74
(dp1837
g82
I4
ssg83
g1831
sg76
(lp1838
g112
asbasbasbag69
(g85
g71
NtRp1839
(dp1840
g74
(dp1841
sg83
g1417
sg76
(lp1842
g69
(g90
g71
NtRp1843
(dp1844
g74
(dp1845
g94
g95
ssg83
g1839
sg76
(lp1846
S'path_info'
p1847
asbag69
(g90
g71
NtRp1848
(dp1849
g74
(dp1850
g101
g102
ssg83
g1839
sg76
(lp1851
S':'
asbag69
(g90
g71
NtRp1852
(dp1853
g74
(dp1854
sg83
g1839
sg76
(lp1855
g69
(g70
g71
NtRp1856
(dp1857
g74
(dp1858
g82
I4
ssg83
g1852
sg76
(lp1859
S'/TSAA/default/testDetails'
p1860
asbasbasbag69
(g85
g71
NtRp1861
(dp1862
g74
(dp1863
sg83
g1417
sg76
(lp1864
g69
(g90
g71
NtRp1865
(dp1866
g74
(dp1867
g94
g95
ssg83
g1861
sg76
(lp1868
S'query_string'
p1869
asbag69
(g90
g71
NtRp1870
(dp1871
g74
(dp1872
g101
g102
ssg83
g1861
sg76
(lp1873
S':'
asbag69
(g90
g71
NtRp1874
(dp1875
g74
(dp1876
sg83
g1861
sg76
(lp1877
g69
(g70
g71
NtRp1878
(dp1879
g74
(dp1880
g82
I4
ssg83
g1874
sg76
(lp1881
S''
asbasbasbag69
(g85
g71
NtRp1882
(dp1883
g74
(dp1884
sg83
g1417
sg76
(lp1885
g69
(g90
g71
NtRp1886
(dp1887
g74
(dp1888
g94
g95
ssg83
g1882
sg76
(lp1889
S'remote_addr'
p1890
asbag69
(g90
g71
NtRp1891
(dp1892
g74
(dp1893
g101
g102
ssg83
g1882
sg76
(lp1894
S':'
asbag69
(g90
g71
NtRp1895
(dp1896
g74
(dp1897
sg83
g1882
sg76
(lp1898
g69
(g70
g71
NtRp1899
(dp1900
g74
(dp1901
g82
I4
ssg83
g1895
sg76
(lp1902
g224
asbasbasbag69
(g85
g71
NtRp1903
(dp1904
g74
(dp1905
sg83
g1417
sg76
(lp1906
g69
(g90
g71
NtRp1907
(dp1908
g74
(dp1909
g94
g95
ssg83
g1903
sg76
(lp1910
S'remote_port'
p1911
asbag69
(g90
g71
NtRp1912
(dp1913
g74
(dp1914
g101
g102
ssg83
g1903
sg76
(lp1915
S':'
asbag69
(g90
g71
NtRp1916
(dp1917
g74
(dp1918
sg83
g1903
sg76
(lp1919
g69
(g70
g71
NtRp1920
(dp1921
g74
(dp1922
g82
I4
ssg83
g1916
sg76
(lp1923
S'40945'
p1924
asbasbasbag69
(g85
g71
NtRp1925
(dp1926
g74
(dp1927
sg83
g1417
sg76
(lp1928
g69
(g90
g71
NtRp1929
(dp1930
g74
(dp1931
g94
g95
ssg83
g1925
sg76
(lp1932
S'request_method'
p1933
asbag69
(g90
g71
NtRp1934
(dp1935
g74
(dp1936
g101
g102
ssg83
g1925
sg76
(lp1937
S':'
asbag69
(g90
g71
NtRp1938
(dp1939
g74
(dp1940
sg83
g1925
sg76
(lp1941
g69
(g70
g71
NtRp1942
(dp1943
g74
(dp1944
g82
I4
ssg83
g1938
sg76
(lp1945
S'GET'
p1946
asbasbasbag69
(g85
g71
NtRp1947
(dp1948
g74
(dp1949
sg83
g1417
sg76
(lp1950
g69
(g90
g71
NtRp1951
(dp1952
g74
(dp1953
g94
g95
ssg83
g1947
sg76
(lp1954
S'request_uri'
p1955
asbag69
(g90
g71
NtRp1956
(dp1957
g74
(dp1958
g101
g102
ssg83
g1947
sg76
(lp1959
S':'
asbag69
(g90
g71
NtRp1960
(dp1961
g74
(dp1962
sg83
g1947
sg76
(lp1963
g69
(g70
g71
NtRp1964
(dp1965
g74
(dp1966
g82
I4
ssg83
g1960
sg76
(lp1967
g1860
asbasbasbag69
(g85
g71
NtRp1968
(dp1969
g74
(dp1970
sg83
g1417
sg76
(lp1971
g69
(g90
g71
NtRp1972
(dp1973
g74
(dp1974
g94
g95
ssg83
g1968
sg76
(lp1975
S'script_name'
p1976
asbag69
(g90
g71
NtRp1977
(dp1978
g74
(dp1979
g101
g102
ssg83
g1968
sg76
(lp1980
S':'
asbag69
(g90
g71
NtRp1981
(dp1982
g74
(dp1983
sg83
g1968
sg76
(lp1984
g69
(g70
g71
NtRp1985
(dp1986
g74
(dp1987
g82
I4
ssg83
g1981
sg76
(lp1988
S''
asbasbasbag69
(g85
g71
NtRp1989
(dp1990
g74
(dp1991
sg83
g1417
sg76
(lp1992
g69
(g90
g71
NtRp1993
(dp1994
g74
(dp1995
g94
g95
ssg83
g1989
sg76
(lp1996
S'server_name'
p1997
asbag69
(g90
g71
NtRp1998
(dp1999
g74
(dp2000
g101
g102
ssg83
g1989
sg76
(lp2001
S':'
asbag69
(g90
g71
NtRp2002
(dp2003
g74
(dp2004
sg83
g1989
sg76
(lp2005
g69
(g70
g71
NtRp2006
(dp2007
g74
(dp2008
g82
I4
ssg83
g2002
sg76
(lp2009
S'mayank'
p2010
asbasbasbag69
(g85
g71
NtRp2011
(dp2012
g74
(dp2013
sg83
g1417
sg76
(lp2014
g69
(g90
g71
NtRp2015
(dp2016
g74
(dp2017
g94
g95
ssg83
g2011
sg76
(lp2018
S'server_port'
p2019
asbag69
(g90
g71
NtRp2020
(dp2021
g74
(dp2022
g101
g102
ssg83
g2011
sg76
(lp2023
S':'
asbag69
(g90
g71
NtRp2024
(dp2025
g74
(dp2026
sg83
g2011
sg76
(lp2027
g69
(g70
g71
NtRp2028
(dp2029
g74
(dp2030
g82
I4
ssg83
g2024
sg76
(lp2031
S'8000'
p2032
asbasbasbag69
(g85
g71
NtRp2033
(dp2034
g74
(dp2035
sg83
g1417
sg76
(lp2036
g69
(g90
g71
NtRp2037
(dp2038
g74
(dp2039
g94
g95
ssg83
g2033
sg76
(lp2040
S'server_protocol'
p2041
asbag69
(g90
g71
NtRp2042
(dp2043
g74
(dp2044
g101
g102
ssg83
g2033
sg76
(lp2045
S':'
asbag69
(g90
g71
NtRp2046
(dp2047
g74
(dp2048
sg83
g2033
sg76
(lp2049
g69
(g70
g71
NtRp2050
(dp2051
g74
(dp2052
g82
I4
ssg83
g2046
sg76
(lp2053
S'HTTP/1.1'
p2054
asbasbasbag69
(g85
g71
NtRp2055
(dp2056
g74
(dp2057
sg83
g1417
sg76
(lp2058
g69
(g90
g71
NtRp2059
(dp2060
g74
(dp2061
g94
g95
ssg83
g2055
sg76
(lp2062
S'server_software'
p2063
asbag69
(g90
g71
NtRp2064
(dp2065
g74
(dp2066
g101
g102
ssg83
g2055
sg76
(lp2067
S':'
asbag69
(g90
g71
NtRp2068
(dp2069
g74
(dp2070
sg83
g2055
sg76
(lp2071
g69
(g70
g71
NtRp2072
(dp2073
g74
(dp2074
g82
I4
ssg83
g2068
sg76
(lp2075
S'Rocket 1.2.4'
p2076
asbasbasbag69
(g85
g71
NtRp2077
(dp2078
g74
(dp2079
sg83
g1417
sg76
(lp2080
g69
(g90
g71
NtRp2081
(dp2082
g74
(dp2083
g94
g95
ssg83
g2077
sg76
(lp2084
S'web2py_crontype'
p2085
asbag69
(g90
g71
NtRp2086
(dp2087
g74
(dp2088
g101
g102
ssg83
g2077
sg76
(lp2089
S':'
asbag69
(g90
g71
NtRp2090
(dp2091
g74
(dp2092
sg83
g2077
sg76
(lp2093
g69
(g70
g71
NtRp2094
(dp2095
g74
(dp2096
g82
I4
ssg83
g2090
sg76
(lp2097
S'hard'
p2098
asbasbasbag69
(g85
g71
NtRp2099
(dp2100
g74
(dp2101
sg83
g1417
sg76
(lp2102
g69
(g90
g71
NtRp2103
(dp2104
g74
(dp2105
g94
g95
ssg83
g2099
sg76
(lp2106
S'web2py_path'
p2107
asbag69
(g90
g71
NtRp2108
(dp2109
g74
(dp2110
g101
g102
ssg83
g2099
sg76
(lp2111
S':'
asbag69
(g90
g71
NtRp2112
(dp2113
g74
(dp2114
sg83
g2099
sg76
(lp2115
g69
(g70
g71
NtRp2116
(dp2117
g74
(dp2118
g82
I4
ssg83
g2112
sg76
(lp2119
g1464
asbasbasbag69
(g85
g71
NtRp2120
(dp2121
g74
(dp2122
sg83
g1417
sg76
(lp2123
g69
(g90
g71
NtRp2124
(dp2125
g74
(dp2126
g94
g95
ssg83
g2120
sg76
(lp2127
S'web2py_version'
p2128
asbag69
(g90
g71
NtRp2129
(dp2130
g74
(dp2131
g101
g102
ssg83
g2120
sg76
(lp2132
S':'
asbag69
(g90
g71
NtRp2133
(dp2134
g74
(dp2135
sg83
g2120
sg76
(lp2136
g69
(g70
g71
NtRp2137
(dp2138
g74
(dp2139
g82
I4
ssg83
g2133
sg76
(lp2140
g69
(g78
g71
NtRp2141
(dp2142
g74
(dp2143
g82
I3
ssg83
Nsg76
(lp2144
g69
(g85
g71
NtRp2145
(dp2146
g74
(dp2147
sg83
g2141
sg76
(lp2148
g69
(g90
g71
NtRp2149
(dp2150
g74
(dp2151
sg83
g2145
sg76
(lp2152
g69
(g70
g71
NtRp2153
(dp2154
g74
(dp2155
g82
I3
ssg83
g2149
sg76
(lp2156
S'2'
asbasbasbag69
(g85
g71
NtRp2157
(dp2158
g74
(dp2159
sg83
g2141
sg76
(lp2160
g69
(g90
g71
NtRp2161
(dp2162
g74
(dp2163
sg83
g2157
sg76
(lp2164
g69
(g70
g71
NtRp2165
(dp2166
g74
(dp2167
g82
I3
ssg83
g2161
sg76
(lp2168
S'0'
asbasbasbag69
(g85
g71
NtRp2169
(dp2170
g74
(dp2171
sg83
g2141
sg76
(lp2172
g69
(g90
g71
NtRp2173
(dp2174
g74
(dp2175
sg83
g2169
sg76
(lp2176
g69
(g70
g71
NtRp2177
(dp2178
g74
(dp2179
g82
I3
ssg83
g2173
sg76
(lp2180
S'8'
asbasbasbag69
(g85
g71
NtRp2181
(dp2182
g74
(dp2183
sg83
g2141
sg76
(lp2184
g69
(g90
g71
NtRp2185
(dp2186
g74
(dp2187
sg83
g2181
sg76
(lp2188
g69
(g70
g71
NtRp2189
(dp2190
g74
(dp2191
g82
I3
ssg83
g2185
sg76
(lp2192
S'datetime.datetime(2012, 9, 7, 3, 47, 51)'
p2193
asbasbasbag69
(g85
g71
NtRp2194
(dp2195
g74
(dp2196
sg83
g2141
sg76
(lp2197
g69
(g90
g71
NtRp2198
(dp2199
g74
(dp2200
sg83
g2194
sg76
(lp2201
g69
(g70
g71
NtRp2202
(dp2203
g74
(dp2204
g82
I3
ssg83
g2198
sg76
(lp2205
S'stable'
p2206
asbasbasbasbasbasbasbag69
(g85
g71
NtRp2207
(dp2208
g74
(dp2209
sg83
g1417
sg76
(lp2210
g69
(g90
g71
NtRp2211
(dp2212
g74
(dp2213
g94
g95
ssg83
g2207
sg76
(lp2214
S'wsgi_errors'
p2215
asbag69
(g90
g71
NtRp2216
(dp2217
g74
(dp2218
g101
g102
ssg83
g2207
sg76
(lp2219
S':'
asbag69
(g90
g71
NtRp2220
(dp2221
g74
(dp2222
sg83
g2207
sg76
(lp2223
g69
(g70
g71
NtRp2224
(dp2225
g74
(dp2226
g82
I4
ssg83
g2220
sg76
(lp2227
S"<open file '<stderr>', mode 'w' at 0x7fc205c521e0>"
p2228
asbasbasbag69
(g85
g71
NtRp2229
(dp2230
g74
(dp2231
sg83
g1417
sg76
(lp2232
g69
(g90
g71
NtRp2233
(dp2234
g74
(dp2235
g94
g95
ssg83
g2229
sg76
(lp2236
S'wsgi_file_wrapper'
p2237
asbag69
(g90
g71
NtRp2238
(dp2239
g74
(dp2240
g101
g102
ssg83
g2229
sg76
(lp2241
S':'
asbag69
(g90
g71
NtRp2242
(dp2243
g74
(dp2244
sg83
g2229
sg76
(lp2245
g69
(g70
g71
NtRp2246
(dp2247
g74
(dp2248
g82
I4
ssg83
g2242
sg76
(lp2249
S'<class wsgiref.util.FileWrapper at 0x1dc7c80>'
p2250
asbasbasbag69
(g85
g71
NtRp2251
(dp2252
g74
(dp2253
sg83
g1417
sg76
(lp2254
g69
(g90
g71
NtRp2255
(dp2256
g74
(dp2257
g94
g95
ssg83
g2251
sg76
(lp2258
S'wsgi_input'
p2259
asbag69
(g90
g71
NtRp2260
(dp2261
g74
(dp2262
g101
g102
ssg83
g2251
sg76
(lp2263
S':'
asbag69
(g90
g71
NtRp2264
(dp2265
g74
(dp2266
sg83
g2251
sg76
(lp2267
g69
(g70
g71
NtRp2268
(dp2269
g74
(dp2270
g82
I4
ssg83
g2264
sg76
(lp2271
S'<socket._fileobject object at 0x7fc1c04caed0>'
p2272
asbasbasbag69
(g85
g71
NtRp2273
(dp2274
g74
(dp2275
sg83
g1417
sg76
(lp2276
g69
(g90
g71
NtRp2277
(dp2278
g74
(dp2279
g94
g95
ssg83
g2273
sg76
(lp2280
S'wsgi_multiprocess'
p2281
asbag69
(g90
g71
NtRp2282
(dp2283
g74
(dp2284
g101
g102
ssg83
g2273
sg76
(lp2285
S':'
asbag69
(g90
g71
NtRp2286
(dp2287
g74
(dp2288
sg83
g2273
sg76
(lp2289
g69
(g70
g71
NtRp2290
(dp2291
g74
(dp2292
g82
I4
ssg83
g2286
sg76
(lp2293
g112
asbasbasbag69
(g85
g71
NtRp2294
(dp2295
g74
(dp2296
sg83
g1417
sg76
(lp2297
g69
(g90
g71
NtRp2298
(dp2299
g74
(dp2300
g94
g95
ssg83
g2294
sg76
(lp2301
S'wsgi_multithread'
p2302
asbag69
(g90
g71
NtRp2303
(dp2304
g74
(dp2305
g101
g102
ssg83
g2294
sg76
(lp2306
S':'
asbag69
(g90
g71
NtRp2307
(dp2308
g74
(dp2309
sg83
g2294
sg76
(lp2310
g69
(g70
g71
NtRp2311
(dp2312
g74
(dp2313
g82
I4
ssg83
g2307
sg76
(lp2314
S'True'
p2315
asbasbasbag69
(g85
g71
NtRp2316
(dp2317
g74
(dp2318
sg83
g1417
sg76
(lp2319
g69
(g90
g71
NtRp2320
(dp2321
g74
(dp2322
g94
g95
ssg83
g2316
sg76
(lp2323
S'wsgi_run_once'
p2324
asbag69
(g90
g71
NtRp2325
(dp2326
g74
(dp2327
g101
g102
ssg83
g2316
sg76
(lp2328
S':'
asbag69
(g90
g71
NtRp2329
(dp2330
g74
(dp2331
sg83
g2316
sg76
(lp2332
g69
(g70
g71
NtRp2333
(dp2334
g74
(dp2335
g82
I4
ssg83
g2329
sg76
(lp2336
g112
asbasbasbag69
(g85
g71
NtRp2337
(dp2338
g74
(dp2339
sg83
g1417
sg76
(lp2340
g69
(g90
g71
NtRp2341
(dp2342
g74
(dp2343
g94
g95
ssg83
g2337
sg76
(lp2344
S'wsgi_url_scheme'
p2345
asbag69
(g90
g71
NtRp2346
(dp2347
g74
(dp2348
g101
g102
ssg83
g2337
sg76
(lp2349
S':'
asbag69
(g90
g71
NtRp2350
(dp2351
g74
(dp2352
sg83
g2337
sg76
(lp2353
g69
(g70
g71
NtRp2354
(dp2355
g74
(dp2356
g82
I4
ssg83
g2350
sg76
(lp2357
S'http'
p2358
asbasbasbag69
(g85
g71
NtRp2359
(dp2360
g74
(dp2361
sg83
g1417
sg76
(lp2362
g69
(g90
g71
NtRp2363
(dp2364
g74
(dp2365
g94
g95
ssg83
g2359
sg76
(lp2366
S'wsgi_version'
p2367
asbag69
(g90
g71
NtRp2368
(dp2369
g74
(dp2370
g101
g102
ssg83
g2359
sg76
(lp2371
S':'
asbag69
(g90
g71
NtRp2372
(dp2373
g74
(dp2374
sg83
g2359
sg76
(lp2375
g69
(g70
g71
NtRp2376
(dp2377
g74
(dp2378
g82
I4
ssg83
g2372
sg76
(lp2379
g69
(g78
g71
NtRp2380
(dp2381
g74
(dp2382
g82
I3
ssg83
Nsg76
(lp2383
g69
(g85
g71
NtRp2384
(dp2385
g74
(dp2386
sg83
g2380
sg76
(lp2387
g69
(g90
g71
NtRp2388
(dp2389
g74
(dp2390
sg83
g2384
sg76
(lp2391
g69
(g70
g71
NtRp2392
(dp2393
g74
(dp2394
g82
I3
ssg83
g2388
sg76
(lp2395
S'1'
asbasbasbag69
(g85
g71
NtRp2396
(dp2397
g74
(dp2398
sg83
g2380
sg76
(lp2399
g69
(g90
g71
NtRp2400
(dp2401
g74
(dp2402
sg83
g2396
sg76
(lp2403
g69
(g70
g71
NtRp2404
(dp2405
g74
(dp2406
g82
I3
ssg83
g2400
sg76
(lp2407
S'0'
asbasbasbasbasbasbasbasbasbasbasbag69
(g85
g71
NtRp2408
(dp2409
g74
(dp2410
sg83
g79
sg76
(lp2411
g69
(g90
g71
NtRp2412
(dp2413
g74
(dp2414
g94
g95
ssg83
g2408
sg76
(lp2415
S'extension'
p2416
asbag69
(g90
g71
NtRp2417
(dp2418
g74
(dp2419
g101
g102
ssg83
g2408
sg76
(lp2420
S':'
asbag69
(g90
g71
NtRp2421
(dp2422
g74
(dp2423
sg83
g2408
sg76
(lp2424
g69
(g70
g71
NtRp2425
(dp2426
g74
(dp2427
g82
I5
ssg83
g2421
sg76
(lp2428
S'html'
p2429
asbasbasbag69
(g85
g71
NtRp2430
(dp2431
g74
(dp2432
sg83
g79
sg76
(lp2433
g69
(g90
g71
NtRp2434
(dp2435
g74
(dp2436
g94
g95
ssg83
g2430
sg76
(lp2437
S'folder'
p2438
asbag69
(g90
g71
NtRp2439
(dp2440
g74
(dp2441
g101
g102
ssg83
g2430
sg76
(lp2442
S':'
asbag69
(g90
g71
NtRp2443
(dp2444
g74
(dp2445
sg83
g2430
sg76
(lp2446
g69
(g70
g71
NtRp2447
(dp2448
g74
(dp2449
g82
I5
ssg83
g2443
sg76
(lp2450
S'/home/mayank/gitrepo/Twitter-Sentiment-Analysis/front-end/web2py/applications/TSAA/'
p2451
asbasbasbag69
(g85
g71
NtRp2452
(dp2453
g74
(dp2454
sg83
g79
sg76
(lp2455
g69
(g90
g71
NtRp2456
(dp2457
g74
(dp2458
g94
g95
ssg83
g2452
sg76
(lp2459
S'function'
p2460
asbag69
(g90
g71
NtRp2461
(dp2462
g74
(dp2463
g101
g102
ssg83
g2452
sg76
(lp2464
S':'
asbag69
(g90
g71
NtRp2465
(dp2466
g74
(dp2467
sg83
g2452
sg76
(lp2468
g69
(g70
g71
NtRp2469
(dp2470
g74
(dp2471
g82
I5
ssg83
g2465
sg76
(lp2472
S'testDetails'
p2473
asbasbasbag69
(g85
g71
NtRp2474
(dp2475
g74
(dp2476
sg83
g79
sg76
(lp2477
g69
(g90
g71
NtRp2478
(dp2479
g74
(dp2480
g94
g95
ssg83
g2474
sg76
(lp2481
S'get_vars'
p2482
asbag69
(g90
g71
NtRp2483
(dp2484
g74
(dp2485
g101
g102
ssg83
g2474
sg76
(lp2486
S':'
asbag69
(g90
g71
NtRp2487
(dp2488
g74
(dp2489
sg83
g2474
sg76
(lp2490
g69
(g70
g71
NtRp2491
(dp2492
g74
(dp2493
g82
I5
ssg83
g2487
sg76
(lp2494
g69
(g78
g71
NtRp2495
(dp2496
g74
(dp2497
g82
I4
ssg83
Nsg76
(lp2498
sbasbasbasbag69
(g85
g71
NtRp2499
(dp2500
g74
(dp2501
sg83
g79
sg76
(lp2502
g69
(g90
g71
NtRp2503
(dp2504
g74
(dp2505
g94
g95
ssg83
g2499
sg76
(lp2506
S'global_settings'
p2507
asbag69
(g90
g71
NtRp2508
(dp2509
g74
(dp2510
g101
g102
ssg83
g2499
sg76
(lp2511
S':'
asbag69
(g90
g71
NtRp2512
(dp2513
g74
(dp2514
sg83
g2499
sg76
(lp2515
g69
(g70
g71
NtRp2516
(dp2517
g74
(dp2518
g82
I5
ssg83
g2512
sg76
(lp2519
g69
(g78
g71
NtRp2520
(dp2521
g74
(dp2522
g82
I4
ssg83
Nsg76
(lp2523
g69
(g85
g71
NtRp2524
(dp2525
g74
(dp2526
sg83
g2520
sg76
(lp2527
g69
(g90
g71
NtRp2528
(dp2529
g74
(dp2530
g94
g95
ssg83
g2524
sg76
(lp2531
g1429
asbag69
(g90
g71
NtRp2532
(dp2533
g74
(dp2534
g101
g102
ssg83
g2524
sg76
(lp2535
S':'
asbag69
(g90
g71
NtRp2536
(dp2537
g74
(dp2538
sg83
g2524
sg76
(lp2539
g69
(g70
g71
NtRp2540
(dp2541
g74
(dp2542
g82
I4
ssg83
g2536
sg76
(lp2543
S"set(['/home/mayank/gitrepo/Twitter-Sentiment-Analysis/front-end/web2py/applications/admin/', '/home/mayank/gitrepo/Twitter-Sentiment-Analysis/front-end/web2py/applications/TSAA/', '/home/mayank/gitrepo/Twitter-Sentiment-Analysis/front-end/web2py/applications/welcome/'])"
p2544
asbasbasbag69
(g85
g71
NtRp2545
(dp2546
g74
(dp2547
sg83
g2520
sg76
(lp2548
g69
(g90
g71
NtRp2549
(dp2550
g74
(dp2551
g94
g95
ssg83
g2545
sg76
(lp2552
g1451
asbag69
(g90
g71
NtRp2553
(dp2554
g74
(dp2555
g101
g102
ssg83
g2545
sg76
(lp2556
S':'
asbag69
(g90
g71
NtRp2557
(dp2558
g74
(dp2559
sg83
g2545
sg76
(lp2560
g69
(g70
g71
NtRp2561
(dp2562
g74
(dp2563
g82
I4
ssg83
g2557
sg76
(lp2564
g1464
asbasbasbag69
(g85
g71
NtRp2565
(dp2566
g74
(dp2567
sg83
g2520
sg76
(lp2568
g69
(g90
g71
NtRp2569
(dp2570
g74
(dp2571
g94
g95
ssg83
g2565
sg76
(lp2572
g1473
asbag69
(g90
g71
NtRp2573
(dp2574
g74
(dp2575
g101
g102
ssg83
g2565
sg76
(lp2576
S':'
asbag69
(g90
g71
NtRp2577
(dp2578
g74
(dp2579
sg83
g2565
sg76
(lp2580
g69
(g70
g71
NtRp2581
(dp2582
g74
(dp2583
g82
I4
ssg83
g2577
sg76
(lp2584
g69
(g78
g71
NtRp2585
(dp2586
g74
(dp2587
g82
I3
ssg83
Nsg76
(lp2588
sbasbasbasbag69
(g85
g71
NtRp2589
(dp2590
g74
(dp2591
sg83
g2520
sg76
(lp2592
g69
(g90
g71
NtRp2593
(dp2594
g74
(dp2595
g94
g95
ssg83
g2589
sg76
(lp2596
g1498
asbag69
(g90
g71
NtRp2597
(dp2598
g74
(dp2599
g101
g102
ssg83
g2589
sg76
(lp2600
S':'
asbag69
(g90
g71
NtRp2601
(dp2602
g74
(dp2603
sg83
g2589
sg76
(lp2604
g69
(g70
g71
NtRp2605
(dp2606
g74
(dp2607
g82
I4
ssg83
g2601
sg76
(lp2608
S"<Values at 0x227c5f0: {'verbose': False, 'ip': '127.0.0.1', 'with_scheduler': False, 'ips': ['127.0.1.1', '10.1.33.121'], 'shutdown_timeout': 5, 'taskbar': False, 'port': 8000, 'maxthreads': None, 'softcron': False, 'server_name': 'mayank', 'bpython': False, 'nogui': False, 'nocron': False, 'extcron': False, 'run_system_tests': False, 'test': None, 'folder': '/home/mayank/gitrepo/Twitter-Sentiment-Analysis/front-end/web2py', 'config': '', 'import_models': False, 'winservice': '', 'shell': None, 'run': '', 'log_filename': 'httpserver.log', 'debuglevel': 30, 'args': [''], 'socket_timeout': 5, 'ssl_ca_certificate': None, 'scheduler': None, 'profiler_filename': None, 'ssl_private_key': '', 'scheduler_groups': None, 'password': '<ask>', 'request_queue_size': 5, 'ssl_certificate': '', 'cronjob': False, 'numthreads': None, 'quiet': False, 'interfaces': None, 'minthreads': None, 'timeout': 10, 'plain': False, 'nobanner': False, 'pid_filename': 'httpserver.pid'}>"
p2609
asbasbasbag69
(g85
g71
NtRp2610
(dp2611
g74
(dp2612
sg83
g2520
sg76
(lp2613
g69
(g90
g71
NtRp2614
(dp2615
g74
(dp2616
g94
g95
ssg83
g2610
sg76
(lp2617
g1520
asbag69
(g90
g71
NtRp2618
(dp2619
g74
(dp2620
g101
g102
ssg83
g2610
sg76
(lp2621
S':'
asbag69
(g90
g71
NtRp2622
(dp2623
g74
(dp2624
sg83
g2610
sg76
(lp2625
g69
(g70
g71
NtRp2626
(dp2627
g74
(dp2628
g82
I4
ssg83
g2622
sg76
(lp2629
S'set([])'
p2630
asbasbasbag69
(g85
g71
NtRp2631
(dp2632
g74
(dp2633
sg83
g2520
sg76
(lp2634
g69
(g90
g71
NtRp2635
(dp2636
g74
(dp2637
g94
g95
ssg83
g2631
sg76
(lp2638
g1542
asbag69
(g90
g71
NtRp2639
(dp2640
g74
(dp2641
g101
g102
ssg83
g2631
sg76
(lp2642
S':'
asbag69
(g90
g71
NtRp2643
(dp2644
g74
(dp2645
sg83
g2631
sg76
(lp2646
g69
(g70
g71
NtRp2647
(dp2648
g74
(dp2649
g82
I4
ssg83
g2643
sg76
(lp2650
g112
asbasbasbag69
(g85
g71
NtRp2651
(dp2652
g74
(dp2653
sg83
g2520
sg76
(lp2654
g69
(g90
g71
NtRp2655
(dp2656
g74
(dp2657
g94
g95
ssg83
g2651
sg76
(lp2658
g1563
asbag69
(g90
g71
NtRp2659
(dp2660
g74
(dp2661
g101
g102
ssg83
g2651
sg76
(lp2662
S':'
asbag69
(g90
g71
NtRp2663
(dp2664
g74
(dp2665
sg83
g2651
sg76
(lp2666
g69
(g70
g71
NtRp2667
(dp2668
g74
(dp2669
g82
I4
ssg83
g2663
sg76
(lp2670
g1576
asbasbasbag69
(g85
g71
NtRp2671
(dp2672
g74
(dp2673
sg83
g2520
sg76
(lp2674
g69
(g90
g71
NtRp2675
(dp2676
g74
(dp2677
g94
g95
ssg83
g2671
sg76
(lp2678
g1805
asbag69
(g90
g71
NtRp2679
(dp2680
g74
(dp2681
g101
g102
ssg83
g2671
sg76
(lp2682
S':'
asbag69
(g90
g71
NtRp2683
(dp2684
g74
(dp2685
sg83
g2671
sg76
(lp2686
g69
(g70
g71
NtRp2687
(dp2688
g74
(dp2689
g82
I4
ssg83
g2683
sg76
(lp2690
g112
asbasbasbag69
(g85
g71
NtRp2691
(dp2692
g74
(dp2693
sg83
g2520
sg76
(lp2694
g69
(g90
g71
NtRp2695
(dp2696
g74
(dp2697
g94
g95
ssg83
g2691
sg76
(lp2698
g1826
asbag69
(g90
g71
NtRp2699
(dp2700
g74
(dp2701
g101
g102
ssg83
g2691
sg76
(lp2702
S':'
asbag69
(g90
g71
NtRp2703
(dp2704
g74
(dp2705
sg83
g2691
sg76
(lp2706
g69
(g70
g71
NtRp2707
(dp2708
g74
(dp2709
g82
I4
ssg83
g2703
sg76
(lp2710
g112
asbasbasbag69
(g85
g71
NtRp2711
(dp2712
g74
(dp2713
sg83
g2520
sg76
(lp2714
g69
(g90
g71
NtRp2715
(dp2716
g74
(dp2717
g94
g95
ssg83
g2711
sg76
(lp2718
g2085
asbag69
(g90
g71
NtRp2719
(dp2720
g74
(dp2721
g101
g102
ssg83
g2711
sg76
(lp2722
S':'
asbag69
(g90
g71
NtRp2723
(dp2724
g74
(dp2725
sg83
g2711
sg76
(lp2726
g69
(g70
g71
NtRp2727
(dp2728
g74
(dp2729
g82
I4
ssg83
g2723
sg76
(lp2730
g2098
asbasbasbag69
(g85
g71
NtRp2731
(dp2732
g74
(dp2733
sg83
g2520
sg76
(lp2734
g69
(g90
g71
NtRp2735
(dp2736
g74
(dp2737
g94
g95
ssg83
g2731
sg76
(lp2738
g2128
asbag69
(g90
g71
NtRp2739
(dp2740
g74
(dp2741
g101
g102
ssg83
g2731
sg76
(lp2742
S':'
asbag69
(g90
g71
NtRp2743
(dp2744
g74
(dp2745
sg83
g2731
sg76
(lp2746
g69
(g70
g71
NtRp2747
(dp2748
g74
(dp2749
g82
I4
ssg83
g2743
sg76
(lp2750
g69
(g78
g71
NtRp2751
(dp2752
g74
(dp2753
g82
I3
ssg83
Nsg76
(lp2754
g69
(g85
g71
NtRp2755
(dp2756
g74
(dp2757
sg83
g2751
sg76
(lp2758
g69
(g90
g71
NtRp2759
(dp2760
g74
(dp2761
sg83
g2755
sg76
(lp2762
g69
(g70
g71
NtRp2763
(dp2764
g74
(dp2765
g82
I3
ssg83
g2759
sg76
(lp2766
S'2'
asbasbasbag69
(g85
g71
NtRp2767
(dp2768
g74
(dp2769
sg83
g2751
sg76
(lp2770
g69
(g90
g71
NtRp2771
(dp2772
g74
(dp2773
sg83
g2767
sg76
(lp2774
g69
(g70
g71
NtRp2775
(dp2776
g74
(dp2777
g82
I3
ssg83
g2771
sg76
(lp2778
S'0'
asbasbasbag69
(g85
g71
NtRp2779
(dp2780
g74
(dp2781
sg83
g2751
sg76
(lp2782
g69
(g90
g71
NtRp2783
(dp2784
g74
(dp2785
sg83
g2779
sg76
(lp2786
g69
(g70
g71
NtRp2787
(dp2788
g74
(dp2789
g82
I3
ssg83
g2783
sg76
(lp2790
S'8'
asbasbasbag69
(g85
g71
NtRp2791
(dp2792
g74
(dp2793
sg83
g2751
sg76
(lp2794
g69
(g90
g71
NtRp2795
(dp2796
g74
(dp2797
sg83
g2791
sg76
(lp2798
g69
(g70
g71
NtRp2799
(dp2800
g74
(dp2801
g82
I3
ssg83
g2795
sg76
(lp2802
S'datetime.datetime(2012, 9, 7, 3, 47, 51)'
p2803
asbasbasbag69
(g85
g71
NtRp2804
(dp2805
g74
(dp2806
sg83
g2751
sg76
(lp2807
g69
(g90
g71
NtRp2808
(dp2809
g74
(dp2810
sg83
g2804
sg76
(lp2811
g69
(g70
g71
NtRp2812
(dp2813
g74
(dp2814
g82
I3
ssg83
g2808
sg76
(lp2815
g2206
asbasbasbasbasbasbasbasbasbasbasbag69
(g85
g71
NtRp2816
(dp2817
g74
(dp2818
sg83
g79
sg76
(lp2819
g69
(g90
g71
NtRp2820
(dp2821
g74
(dp2822
g94
g95
ssg83
g2816
sg76
(lp2823
S'is_https'
p2824
asbag69
(g90
g71
NtRp2825
(dp2826
g74
(dp2827
g101
g102
ssg83
g2816
sg76
(lp2828
S':'
asbag69
(g90
g71
NtRp2829
(dp2830
g74
(dp2831
sg83
g2816
sg76
(lp2832
g69
(g70
g71
NtRp2833
(dp2834
g74
(dp2835
g82
I5
ssg83
g2829
sg76
(lp2836
g112
asbasbasbag69
(g85
g71
NtRp2837
(dp2838
g74
(dp2839
sg83
g79
sg76
(lp2840
g69
(g90
g71
NtRp2841
(dp2842
g74
(dp2843
g94
g95
ssg83
g2837
sg76
(lp2844
S'is_local'
p2845
asbag69
(g90
g71
NtRp2846
(dp2847
g74
(dp2848
g101
g102
ssg83
g2837
sg76
(lp2849
S':'
asbag69
(g90
g71
NtRp2850
(dp2851
g74
(dp2852
sg83
g2837
sg76
(lp2853
g69
(g70
g71
NtRp2854
(dp2855
g74
(dp2856
g82
I5
ssg83
g2850
sg76
(lp2857
g2315
asbasbasbag69
(g85
g71
NtRp2858
(dp2859
g74
(dp2860
sg83
g79
sg76
(lp2861
g69
(g90
g71
NtRp2862
(dp2863
g74
(dp2864
g94
g95
ssg83
g2858
sg76
(lp2865
S'is_restful'
p2866
asbag69
(g90
g71
NtRp2867
(dp2868
g74
(dp2869
g101
g102
ssg83
g2858
sg76
(lp2870
S':'
asbag69
(g90
g71
NtRp2871
(dp2872
g74
(dp2873
sg83
g2858
sg76
(lp2874
g69
(g70
g71
NtRp2875
(dp2876
g74
(dp2877
g82
I5
ssg83
g2871
sg76
(lp2878
g112
asbasbasbag69
(g85
g71
NtRp2879
(dp2880
g74
(dp2881
sg83
g79
sg76
(lp2882
g69
(g90
g71
NtRp2883
(dp2884
g74
(dp2885
g94
g95
ssg83
g2879
sg76
(lp2886
S'now'
p2887
asbag69
(g90
g71
NtRp2888
(dp2889
g74
(dp2890
g101
g102
ssg83
g2879
sg76
(lp2891
S':'
asbag69
(g90
g71
NtRp2892
(dp2893
g74
(dp2894
sg83
g2879
sg76
(lp2895
g69
(g70
g71
NtRp2896
(dp2897
g74
(dp2898
g82
I5
ssg83
g2892
sg76
(lp2899
S'datetime.datetime(2014, 4, 13, 5, 2, 52, 177822)'
p2900
asbasbasbag69
(g85
g71
NtRp2901
(dp2902
g74
(dp2903
sg83
g79
sg76
(lp2904
g69
(g90
g71
NtRp2905
(dp2906
g74
(dp2907
g94
g95
ssg83
g2901
sg76
(lp2908
S'post_vars'
p2909
asbag69
(g90
g71
NtRp2910
(dp2911
g74
(dp2912
g101
g102
ssg83
g2901
sg76
(lp2913
S':'
asbag69
(g90
g71
NtRp2914
(dp2915
g74
(dp2916
sg83
g2901
sg76
(lp2917
g69
(g70
g71
NtRp2918
(dp2919
g74
(dp2920
g82
I5
ssg83
g2914
sg76
(lp2921
g69
(g78
g71
NtRp2922
(dp2923
g74
(dp2924
g82
I4
ssg83
Nsg76
(lp2925
sbasbasbasbag69
(g85
g71
NtRp2926
(dp2927
g74
(dp2928
sg83
g79
sg76
(lp2929
g69
(g90
g71
NtRp2930
(dp2931
g74
(dp2932
g94
g95
ssg83
g2926
sg76
(lp2933
S'raw_args'
p2934
asbag69
(g90
g71
NtRp2935
(dp2936
g74
(dp2937
g101
g102
ssg83
g2926
sg76
(lp2938
S':'
asbag69
(g90
g71
NtRp2939
(dp2940
g74
(dp2941
sg83
g2926
sg76
(lp2942
g69
(g70
g71
NtRp2943
(dp2944
g74
(dp2945
g82
I5
ssg83
g2939
sg76
(lp2946
S'None'
p2947
asbasbasbag69
(g85
g71
NtRp2948
(dp2949
g74
(dp2950
sg83
g79
sg76
(lp2951
g69
(g90
g71
NtRp2952
(dp2953
g74
(dp2954
g94
g95
ssg83
g2948
sg76
(lp2955
S'raw_extension'
p2956
asbag69
(g90
g71
NtRp2957
(dp2958
g74
(dp2959
g101
g102
ssg83
g2948
sg76
(lp2960
S':'
asbag69
(g90
g71
NtRp2961
(dp2962
g74
(dp2963
sg83
g2948
sg76
(lp2964
g69
(g70
g71
NtRp2965
(dp2966
g74
(dp2967
g82
I5
ssg83
g2961
sg76
(lp2968
S'None'
p2969
asbasbasbag69
(g85
g71
NtRp2970
(dp2971
g74
(dp2972
sg83
g79
sg76
(lp2973
g69
(g90
g71
NtRp2974
(dp2975
g74
(dp2976
g94
g95
ssg83
g2970
sg76
(lp2977
S'url'
p2978
asbag69
(g90
g71
NtRp2979
(dp2980
g74
(dp2981
g101
g102
ssg83
g2970
sg76
(lp2982
S':'
asbag69
(g90
g71
NtRp2983
(dp2984
g74
(dp2985
sg83
g2970
sg76
(lp2986
g69
(g70
g71
NtRp2987
(dp2988
g74
(dp2989
g82
I5
ssg83
g2983
sg76
(lp2990
g1860
asbasbasbag69
(g85
g71
NtRp2991
(dp2992
g74
(dp2993
sg83
g79
sg76
(lp2994
g69
(g90
g71
NtRp2995
(dp2996
g74
(dp2997
g94
g95
ssg83
g2991
sg76
(lp2998
S'utcnow'
p2999
asbag69
(g90
g71
NtRp3000
(dp3001
g74
(dp3002
g101
g102
ssg83
g2991
sg76
(lp3003
S':'
asbag69
(g90
g71
NtRp3004
(dp3005
g74
(dp3006
sg83
g2991
sg76
(lp3007
g69
(g70
g71
NtRp3008
(dp3009
g74
(dp3010
g82
I5
ssg83
g3004
sg76
(lp3011
S'datetime.datetime(2014, 4, 12, 23, 32, 52, 177861)'
p3012
asbasbasbag69
(g85
g71
NtRp3013
(dp3014
g74
(dp3015
sg83
g79
sg76
(lp3016
g69
(g90
g71
NtRp3017
(dp3018
g74
(dp3019
g94
g95
ssg83
g3013
sg76
(lp3020
S'uuid'
p3021
asbag69
(g90
g71
NtRp3022
(dp3023
g74
(dp3024
g101
g102
ssg83
g3013
sg76
(lp3025
S':'
asbag69
(g90
g71
NtRp3026
(dp3027
g74
(dp3028
sg83
g3013
sg76
(lp3029
g69
(g70
g71
NtRp3030
(dp3031
g74
(dp3032
g82
I5
ssg83
g3026
sg76
(lp3033
S'TSAA/127.0.0.1.2014-04-13.05-02-52.cc1c903d-d40d-4f75-95a7-765f5d7da2b6'
p3034
asbasbasbag69
(g85
g71
NtRp3035
(dp3036
g74
(dp3037
sg83
g79
sg76
(lp3038
g69
(g90
g71
NtRp3039
(dp3040
g74
(dp3041
g94
g95
ssg83
g3035
sg76
(lp3042
S'vars'
p3043
asbag69
(g90
g71
NtRp3044
(dp3045
g74
(dp3046
g101
g102
ssg83
g3035
sg76
(lp3047
S':'
asbag69
(g90
g71
NtRp3048
(dp3049
g74
(dp3050
sg83
g3035
sg76
(lp3051
g69
(g70
g71
NtRp3052
(dp3053
g74
(dp3054
g82
I5
ssg83
g3048
sg76
(lp3055
g69
(g78
g71
NtRp3056
(dp3057
g74
(dp3058
g82
I4
ssg83
Nsg76
(lp3059
sbasbasbasbag69
(g85
g71
NtRp3060
(dp3061
g74
(dp3062
sg83
g79
sg76
(lp3063
g69
(g90
g71
NtRp3064
(dp3065
g74
(dp3066
g94
g95
ssg83
g3060
sg76
(lp3067
S'wsgi'
p3068
asbag69
(g90
g71
NtRp3069
(dp3070
g74
(dp3071
g101
g102
ssg83
g3060
sg76
(lp3072
S':'
asbag69
(g90
g71
NtRp3073
(dp3074
g74
(dp3075
sg83
g3060
sg76
(lp3076
g69
(g70
g71
NtRp3077
(dp3078
g74
(dp3079
g82
I5
ssg83
g3073
sg76
(lp3080
g69
(g78
g71
NtRp3081
(dp3082
g74
(dp3083
g82
I4
ssg83
Nsg76
(lp3084
g69
(g85
g71
NtRp3085
(dp3086
g74
(dp3087
sg83
g3081
sg76
(lp3088
g69
(g90
g71
NtRp3089
(dp3090
g74
(dp3091
g94
g95
ssg83
g3085
sg76
(lp3092
S'environ'
p3093
asbag69
(g90
g71
NtRp3094
(dp3095
g74
(dp3096
g101
g102
ssg83
g3085
sg76
(lp3097
S':'
asbag69
(g90
g71
NtRp3098
(dp3099
g74
(dp3100
sg83
g3085
sg76
(lp3101
g69
(g70
g71
NtRp3102
(dp3103
g74
(dp3104
g82
I4
ssg83
g3098
sg76
(lp3105
g69
(g78
g71
NtRp3106
(dp3107
g74
(dp3108
g82
I3
ssg83
Nsg76
(lp3109
g69
(g85
g71
NtRp3110
(dp3111
g74
(dp3112
sg83
g3106
sg76
(lp3113
g69
(g90
g71
NtRp3114
(dp3115
g74
(dp3116
g94
g95
ssg83
g3110
sg76
(lp3117
S'HTTP_ACCEPT'
p3118
asbag69
(g90
g71
NtRp3119
(dp3120
g74
(dp3121
g101
g102
ssg83
g3110
sg76
(lp3122
S':'
asbag69
(g90
g71
NtRp3123
(dp3124
g74
(dp3125
sg83
g3110
sg76
(lp3126
g69
(g70
g71
NtRp3127
(dp3128
g74
(dp3129
g82
I3
ssg83
g3123
sg76
(lp3130
g1598
asbasbasbag69
(g85
g71
NtRp3131
(dp3132
g74
(dp3133
sg83
g3106
sg76
(lp3134
g69
(g90
g71
NtRp3135
(dp3136
g74
(dp3137
g94
g95
ssg83
g3131
sg76
(lp3138
S'HTTP_ACCEPT_ENCODING'
p3139
asbag69
(g90
g71
NtRp3140
(dp3141
g74
(dp3142
g101
g102
ssg83
g3131
sg76
(lp3143
S':'
asbag69
(g90
g71
NtRp3144
(dp3145
g74
(dp3146
sg83
g3131
sg76
(lp3147
g69
(g70
g71
NtRp3148
(dp3149
g74
(dp3150
g82
I3
ssg83
g3144
sg76
(lp3151
g1620
asbasbasbag69
(g85
g71
NtRp3152
(dp3153
g74
(dp3154
sg83
g3106
sg76
(lp3155
g69
(g90
g71
NtRp3156
(dp3157
g74
(dp3158
g94
g95
ssg83
g3152
sg76
(lp3159
S'HTTP_ACCEPT_LANGUAGE'
p3160
asbag69
(g90
g71
NtRp3161
(dp3162
g74
(dp3163
g101
g102
ssg83
g3152
sg76
(lp3164
S':'
asbag69
(g90
g71
NtRp3165
(dp3166
g74
(dp3167
sg83
g3152
sg76
(lp3168
g69
(g70
g71
NtRp3169
(dp3170
g74
(dp3171
g82
I3
ssg83
g3165
sg76
(lp3172
g1642
asbasbasbag69
(g85
g71
NtRp3173
(dp3174
g74
(dp3175
sg83
g3106
sg76
(lp3176
g69
(g90
g71
NtRp3177
(dp3178
g74
(dp3179
g94
g95
ssg83
g3173
sg76
(lp3180
S'HTTP_CACHE_CONTROL'
p3181
asbag69
(g90
g71
NtRp3182
(dp3183
g74
(dp3184
g101
g102
ssg83
g3173
sg76
(lp3185
S':'
asbag69
(g90
g71
NtRp3186
(dp3187
g74
(dp3188
sg83
g3173
sg76
(lp3189
g69
(g70
g71
NtRp3190
(dp3191
g74
(dp3192
g82
I3
ssg83
g3186
sg76
(lp3193
g1664
asbasbasbag69
(g85
g71
NtRp3194
(dp3195
g74
(dp3196
sg83
g3106
sg76
(lp3197
g69
(g90
g71
NtRp3198
(dp3199
g74
(dp3200
g94
g95
ssg83
g3194
sg76
(lp3201
S'HTTP_CONNECTION'
p3202
asbag69
(g90
g71
NtRp3203
(dp3204
g74
(dp3205
g101
g102
ssg83
g3194
sg76
(lp3206
S':'
asbag69
(g90
g71
NtRp3207
(dp3208
g74
(dp3209
sg83
g3194
sg76
(lp3210
g69
(g70
g71
NtRp3211
(dp3212
g74
(dp3213
g82
I3
ssg83
g3207
sg76
(lp3214
g1686
asbasbasbag69
(g85
g71
NtRp3215
(dp3216
g74
(dp3217
sg83
g3106
sg76
(lp3218
g69
(g90
g71
NtRp3219
(dp3220
g74
(dp3221
g94
g95
ssg83
g3215
sg76
(lp3222
S'HTTP_COOKIE'
p3223
asbag69
(g90
g71
NtRp3224
(dp3225
g74
(dp3226
g101
g102
ssg83
g3215
sg76
(lp3227
S':'
asbag69
(g90
g71
NtRp3228
(dp3229
g74
(dp3230
sg83
g3215
sg76
(lp3231
g69
(g70
g71
NtRp3232
(dp3233
g74
(dp3234
g82
I3
ssg83
g3228
sg76
(lp3235
g1708
asbasbasbag69
(g85
g71
NtRp3236
(dp3237
g74
(dp3238
sg83
g3106
sg76
(lp3239
g69
(g90
g71
NtRp3240
(dp3241
g74
(dp3242
g94
g95
ssg83
g3236
sg76
(lp3243
S'HTTP_HOST'
p3244
asbag69
(g90
g71
NtRp3245
(dp3246
g74
(dp3247
g101
g102
ssg83
g3236
sg76
(lp3248
S':'
asbag69
(g90
g71
NtRp3249
(dp3250
g74
(dp3251
sg83
g3236
sg76
(lp3252
g69
(g70
g71
NtRp3253
(dp3254
g74
(dp3255
g82
I3
ssg83
g3249
sg76
(lp3256
g1730
asbasbasbag69
(g85
g71
NtRp3257
(dp3258
g74
(dp3259
sg83
g3106
sg76
(lp3260
g69
(g90
g71
NtRp3261
(dp3262
g74
(dp3263
g94
g95
ssg83
g3257
sg76
(lp3264
S'HTTP_PRAGMA'
p3265
asbag69
(g90
g71
NtRp3266
(dp3267
g74
(dp3268
g101
g102
ssg83
g3257
sg76
(lp3269
S':'
asbag69
(g90
g71
NtRp3270
(dp3271
g74
(dp3272
sg83
g3257
sg76
(lp3273
g69
(g70
g71
NtRp3274
(dp3275
g74
(dp3276
g82
I3
ssg83
g3270
sg76
(lp3277
g1752
asbasbasbag69
(g85
g71
NtRp3278
(dp3279
g74
(dp3280
sg83
g3106
sg76
(lp3281
g69
(g90
g71
NtRp3282
(dp3283
g74
(dp3284
g94
g95
ssg83
g3278
sg76
(lp3285
S'HTTP_REFERER'
p3286
asbag69
(g90
g71
NtRp3287
(dp3288
g74
(dp3289
g101
g102
ssg83
g3278
sg76
(lp3290
S':'
asbag69
(g90
g71
NtRp3291
(dp3292
g74
(dp3293
sg83
g3278
sg76
(lp3294
g69
(g70
g71
NtRp3295
(dp3296
g74
(dp3297
g82
I3
ssg83
g3291
sg76
(lp3298
g1774
asbasbasbag69
(g85
g71
NtRp3299
(dp3300
g74
(dp3301
sg83
g3106
sg76
(lp3302
g69
(g90
g71
NtRp3303
(dp3304
g74
(dp3305
g94
g95
ssg83
g3299
sg76
(lp3306
S'HTTP_USER_AGENT'
p3307
asbag69
(g90
g71
NtRp3308
(dp3309
g74
(dp3310
g101
g102
ssg83
g3299
sg76
(lp3311
S':'
asbag69
(g90
g71
NtRp3312
(dp3313
g74
(dp3314
sg83
g3299
sg76
(lp3315
g69
(g70
g71
NtRp3316
(dp3317
g74
(dp3318
g82
I3
ssg83
g3312
sg76
(lp3319
g1796
asbasbasbag69
(g85
g71
NtRp3320
(dp3321
g74
(dp3322
sg83
g3106
sg76
(lp3323
g69
(g90
g71
NtRp3324
(dp3325
g74
(dp3326
g94
g95
ssg83
g3320
sg76
(lp3327
S'PATH_INFO'
p3328
asbag69
(g90
g71
NtRp3329
(dp3330
g74
(dp3331
g101
g102
ssg83
g3320
sg76
(lp3332
S':'
asbag69
(g90
g71
NtRp3333
(dp3334
g74
(dp3335
sg83
g3320
sg76
(lp3336
g69
(g70
g71
NtRp3337
(dp3338
g74
(dp3339
g82
I3
ssg83
g3333
sg76
(lp3340
g1860
asbasbasbag69
(g85
g71
NtRp3341
(dp3342
g74
(dp3343
sg83
g3106
sg76
(lp3344
g69
(g90
g71
NtRp3345
(dp3346
g74
(dp3347
g94
g95
ssg83
g3341
sg76
(lp3348
S'QUERY_STRING'
p3349
asbag69
(g90
g71
NtRp3350
(dp3351
g74
(dp3352
g101
g102
ssg83
g3341
sg76
(lp3353
S':'
asbag69
(g90
g71
NtRp3354
(dp3355
g74
(dp3356
sg83
g3341
sg76
(lp3357
g69
(g70
g71
NtRp3358
(dp3359
g74
(dp3360
g82
I3
ssg83
g3354
sg76
(lp3361
S''
asbasbasbag69
(g85
g71
NtRp3362
(dp3363
g74
(dp3364
sg83
g3106
sg76
(lp3365
g69
(g90
g71
NtRp3366
(dp3367
g74
(dp3368
g94
g95
ssg83
g3362
sg76
(lp3369
S'REMOTE_ADDR'
p3370
asbag69
(g90
g71
NtRp3371
(dp3372
g74
(dp3373
g101
g102
ssg83
g3362
sg76
(lp3374
S':'
asbag69
(g90
g71
NtRp3375
(dp3376
g74
(dp3377
sg83
g3362
sg76
(lp3378
g69
(g70
g71
NtRp3379
(dp3380
g74
(dp3381
g82
I3
ssg83
g3375
sg76
(lp3382
g224
asbasbasbag69
(g85
g71
NtRp3383
(dp3384
g74
(dp3385
sg83
g3106
sg76
(lp3386
g69
(g90
g71
NtRp3387
(dp3388
g74
(dp3389
g94
g95
ssg83
g3383
sg76
(lp3390
S'REMOTE_PORT'
p3391
asbag69
(g90
g71
NtRp3392
(dp3393
g74
(dp3394
g101
g102
ssg83
g3383
sg76
(lp3395
S':'
asbag69
(g90
g71
NtRp3396
(dp3397
g74
(dp3398
sg83
g3383
sg76
(lp3399
g69
(g70
g71
NtRp3400
(dp3401
g74
(dp3402
g82
I3
ssg83
g3396
sg76
(lp3403
g1924
asbasbasbag69
(g85
g71
NtRp3404
(dp3405
g74
(dp3406
sg83
g3106
sg76
(lp3407
g69
(g90
g71
NtRp3408
(dp3409
g74
(dp3410
g94
g95
ssg83
g3404
sg76
(lp3411
S'REQUEST_METHOD'
p3412
asbag69
(g90
g71
NtRp3413
(dp3414
g74
(dp3415
g101
g102
ssg83
g3404
sg76
(lp3416
S':'
asbag69
(g90
g71
NtRp3417
(dp3418
g74
(dp3419
sg83
g3404
sg76
(lp3420
g69
(g70
g71
NtRp3421
(dp3422
g74
(dp3423
g82
I3
ssg83
g3417
sg76
(lp3424
g1946
asbasbasbag69
(g85
g71
NtRp3425
(dp3426
g74
(dp3427
sg83
g3106
sg76
(lp3428
g69
(g90
g71
NtRp3429
(dp3430
g74
(dp3431
g94
g95
ssg83
g3425
sg76
(lp3432
S'REQUEST_URI'
p3433
asbag69
(g90
g71
NtRp3434
(dp3435
g74
(dp3436
g101
g102
ssg83
g3425
sg76
(lp3437
S':'
asbag69
(g90
g71
NtRp3438
(dp3439
g74
(dp3440
sg83
g3425
sg76
(lp3441
g69
(g70
g71
NtRp3442
(dp3443
g74
(dp3444
g82
I3
ssg83
g3438
sg76
(lp3445
g1860
asbasbasbag69
(g85
g71
NtRp3446
(dp3447
g74
(dp3448
sg83
g3106
sg76
(lp3449
g69
(g90
g71
NtRp3450
(dp3451
g74
(dp3452
g94
g95
ssg83
g3446
sg76
(lp3453
S'SCRIPT_NAME'
p3454
asbag69
(g90
g71
NtRp3455
(dp3456
g74
(dp3457
g101
g102
ssg83
g3446
sg76
(lp3458
S':'
asbag69
(g90
g71
NtRp3459
(dp3460
g74
(dp3461
sg83
g3446
sg76
(lp3462
g69
(g70
g71
NtRp3463
(dp3464
g74
(dp3465
g82
I3
ssg83
g3459
sg76
(lp3466
S''
asbasbasbag69
(g85
g71
NtRp3467
(dp3468
g74
(dp3469
sg83
g3106
sg76
(lp3470
g69
(g90
g71
NtRp3471
(dp3472
g74
(dp3473
g94
g95
ssg83
g3467
sg76
(lp3474
S'SERVER_NAME'
p3475
asbag69
(g90
g71
NtRp3476
(dp3477
g74
(dp3478
g101
g102
ssg83
g3467
sg76
(lp3479
S':'
asbag69
(g90
g71
NtRp3480
(dp3481
g74
(dp3482
sg83
g3467
sg76
(lp3483
g69
(g70
g71
NtRp3484
(dp3485
g74
(dp3486
g82
I3
ssg83
g3480
sg76
(lp3487
g2010
asbasbasbag69
(g85
g71
NtRp3488
(dp3489
g74
(dp3490
sg83
g3106
sg76
(lp3491
g69
(g90
g71
NtRp3492
(dp3493
g74
(dp3494
g94
g95
ssg83
g3488
sg76
(lp3495
S'SERVER_PORT'
p3496
asbag69
(g90
g71
NtRp3497
(dp3498
g74
(dp3499
g101
g102
ssg83
g3488
sg76
(lp3500
S':'
asbag69
(g90
g71
NtRp3501
(dp3502
g74
(dp3503
sg83
g3488
sg76
(lp3504
g69
(g70
g71
NtRp3505
(dp3506
g74
(dp3507
g82
I3
ssg83
g3501
sg76
(lp3508
g2032
asbasbasbag69
(g85
g71
NtRp3509
(dp3510
g74
(dp3511
sg83
g3106
sg76
(lp3512
g69
(g90
g71
NtRp3513
(dp3514
g74
(dp3515
g94
g95
ssg83
g3509
sg76
(lp3516
S'SERVER_PROTOCOL'
p3517
asbag69
(g90
g71
NtRp3518
(dp3519
g74
(dp3520
g101
g102
ssg83
g3509
sg76
(lp3521
S':'
asbag69
(g90
g71
NtRp3522
(dp3523
g74
(dp3524
sg83
g3509
sg76
(lp3525
g69
(g70
g71
NtRp3526
(dp3527
g74
(dp3528
g82
I3
ssg83
g3522
sg76
(lp3529
g2054
asbasbasbag69
(g85
g71
NtRp3530
(dp3531
g74
(dp3532
sg83
g3106
sg76
(lp3533
g69
(g90
g71
NtRp3534
(dp3535
g74
(dp3536
g94
g95
ssg83
g3530
sg76
(lp3537
S'SERVER_SOFTWARE'
p3538
asbag69
(g90
g71
NtRp3539
(dp3540
g74
(dp3541
g101
g102
ssg83
g3530
sg76
(lp3542
S':'
asbag69
(g90
g71
NtRp3543
(dp3544
g74
(dp3545
sg83
g3530
sg76
(lp3546
g69
(g70
g71
NtRp3547
(dp3548
g74
(dp3549
g82
I3
ssg83
g3543
sg76
(lp3550
g2076
asbasbasbag69
(g85
g71
NtRp3551
(dp3552
g74
(dp3553
sg83
g3106
sg76
(lp3554
g69
(g90
g71
NtRp3555
(dp3556
g74
(dp3557
g94
g95
ssg83
g3551
sg76
(lp3558
S'wsgi.errors'
p3559
asbag69
(g90
g71
NtRp3560
(dp3561
g74
(dp3562
g101
g102
ssg83
g3551
sg76
(lp3563
S':'
asbag69
(g90
g71
NtRp3564
(dp3565
g74
(dp3566
sg83
g3551
sg76
(lp3567
g69
(g70
g71
NtRp3568
(dp3569
g74
(dp3570
g82
I3
ssg83
g3564
sg76
(lp3571
S"<open file '<stderr>', mode 'w' at 0x7fc205c521e0>"
p3572
asbasbasbag69
(g85
g71
NtRp3573
(dp3574
g74
(dp3575
sg83
g3106
sg76
(lp3576
g69
(g90
g71
NtRp3577
(dp3578
g74
(dp3579
g94
g95
ssg83
g3573
sg76
(lp3580
S'wsgi.file_wrapper'
p3581
asbag69
(g90
g71
NtRp3582
(dp3583
g74
(dp3584
g101
g102
ssg83
g3573
sg76
(lp3585
S':'
asbag69
(g90
g71
NtRp3586
(dp3587
g74
(dp3588
sg83
g3573
sg76
(lp3589
g69
(g70
g71
NtRp3590
(dp3591
g74
(dp3592
g82
I3
ssg83
g3586
sg76
(lp3593
S'<class wsgiref.util.FileWrapper at 0x1dc7c80>'
p3594
asbasbasbag69
(g85
g71
NtRp3595
(dp3596
g74
(dp3597
sg83
g3106
sg76
(lp3598
g69
(g90
g71
NtRp3599
(dp3600
g74
(dp3601
g94
g95
ssg83
g3595
sg76
(lp3602
S'wsgi.input'
p3603
asbag69
(g90
g71
NtRp3604
(dp3605
g74
(dp3606
g101
g102
ssg83
g3595
sg76
(lp3607
S':'
asbag69
(g90
g71
NtRp3608
(dp3609
g74
(dp3610
sg83
g3595
sg76
(lp3611
g69
(g70
g71
NtRp3612
(dp3613
g74
(dp3614
g82
I3
ssg83
g3608
sg76
(lp3615
S'<cStringIO.StringO object at 0x7fc1dc3a2260>'
p3616
asbasbasbag69
(g85
g71
NtRp3617
(dp3618
g74
(dp3619
sg83
g3106
sg76
(lp3620
g69
(g90
g71
NtRp3621
(dp3622
g74
(dp3623
g94
g95
ssg83
g3617
sg76
(lp3624
S'wsgi.multiprocess'
p3625
asbag69
(g90
g71
NtRp3626
(dp3627
g74
(dp3628
g101
g102
ssg83
g3617
sg76
(lp3629
S':'
asbag69
(g90
g71
NtRp3630
(dp3631
g74
(dp3632
sg83
g3617
sg76
(lp3633
g69
(g70
g71
NtRp3634
(dp3635
g74
(dp3636
g82
I3
ssg83
g3630
sg76
(lp3637
g112
asbasbasbag69
(g85
g71
NtRp3638
(dp3639
g74
(dp3640
sg83
g3106
sg76
(lp3641
g69
(g90
g71
NtRp3642
(dp3643
g74
(dp3644
g94
g95
ssg83
g3638
sg76
(lp3645
S'wsgi.multithread'
p3646
asbag69
(g90
g71
NtRp3647
(dp3648
g74
(dp3649
g101
g102
ssg83
g3638
sg76
(lp3650
S':'
asbag69
(g90
g71
NtRp3651
(dp3652
g74
(dp3653
sg83
g3638
sg76
(lp3654
g69
(g70
g71
NtRp3655
(dp3656
g74
(dp3657
g82
I3
ssg83
g3651
sg76
(lp3658
g2315
asbasbasbag69
(g85
g71
NtRp3659
(dp3660
g74
(dp3661
sg83
g3106
sg76
(lp3662
g69
(g90
g71
NtRp3663
(dp3664
g74
(dp3665
g94
g95
ssg83
g3659
sg76
(lp3666
S'wsgi.run_once'
p3667
asbag69
(g90
g71
NtRp3668
(dp3669
g74
(dp3670
g101
g102
ssg83
g3659
sg76
(lp3671
S':'
asbag69
(g90
g71
NtRp3672
(dp3673
g74
(dp3674
sg83
g3659
sg76
(lp3675
g69
(g70
g71
NtRp3676
(dp3677
g74
(dp3678
g82
I3
ssg83
g3672
sg76
(lp3679
g112
asbasbasbag69
(g85
g71
NtRp3680
(dp3681
g74
(dp3682
sg83
g3106
sg76
(lp3683
g69
(g90
g71
NtRp3684
(dp3685
g74
(dp3686
g94
g95
ssg83
g3680
sg76
(lp3687
S'wsgi.url_scheme'
p3688
asbag69
(g90
g71
NtRp3689
(dp3690
g74
(dp3691
g101
g102
ssg83
g3680
sg76
(lp3692
S':'
asbag69
(g90
g71
NtRp3693
(dp3694
g74
(dp3695
sg83
g3680
sg76
(lp3696
g69
(g70
g71
NtRp3697
(dp3698
g74
(dp3699
g82
I3
ssg83
g3693
sg76
(lp3700
g2358
asbasbasbag69
(g85
g71
NtRp3701
(dp3702
g74
(dp3703
sg83
g3106
sg76
(lp3704
g69
(g90
g71
NtRp3705
(dp3706
g74
(dp3707
g94
g95
ssg83
g3701
sg76
(lp3708
S'wsgi.version'
p3709
asbag69
(g90
g71
NtRp3710
(dp3711
g74
(dp3712
g101
g102
ssg83
g3701
sg76
(lp3713
S':'
asbag69
(g90
g71
NtRp3714
(dp3715
g74
(dp3716
sg83
g3701
sg76
(lp3717
g69
(g70
g71
NtRp3718
(dp3719
g74
(dp3720
g82
I3
ssg83
g3714
sg76
(lp3721
S'1'
asbasbasbasbasbasbasbasbasbasbasbasbasbsS'frames'
p3722
(lp3723
(dp3724
S'file'
p3725
S'/home/mayank/gitrepo/Twitter-Sentiment-Analysis/front-end/web2py/gluon/restricted.py'
p3726
sS'dump'
p3727
(dp3728
S'code'
p3729
S"'# -*- coding: utf-8 -*-\\n# this file is released ...))\\n\\nresponse._vars=response._caller(testDetails)\\n'"
p3730
sS'layer'
p3731
S"'/home/mayank/gitrepo/Twitter-Sentiment-Analysis/...d/web2py/applications/TSAA/controllers/default.py'"
p3732
sS'global compile2'
p3733
S'<function compile2>'
p3734
sS'ccode'
p3735
S'undefined'
p3736
ssS'lnum'
p3737
I208
sS'lines'
p3738
(dp3739
I203
S"    environment['__name__'] = '__restricted__'"
p3740
sI204
S'    try:'
p3741
sI205
S'        if type(code) == types.CodeType:'
p3742
sI206
S'            ccode = code'
p3743
sI207
S'        else:'
p3744
sI208
S'            ccode = compile2(code,layer)'
p3745
sI209
S'        exec ccode in environment'
p3746
sI210
S'    except HTTP:'
p3747
sI211
S'        raise'
p3748
sI212
S'    except RestrictedError:'
p3749
ssS'call'
p3750
S"(code='# -*- coding: utf-8 -*-\\n# this file is released ...))\\n\\nresponse._vars=response._caller(testDetails)\\n', environment={'A': <class 'gluon.html.A'>, 'Auth': <class 'gluon.tools.Auth'>, 'B': <class 'gluon.html.B'>, 'BEAUTIFY': <class 'gluon.html.BEAUTIFY'>, 'BODY': <class 'gluon.html.BODY'>, 'BR': <class 'gluon.html.BR'>, 'BUTTON': <class 'gluon.html.BUTTON'>, 'CAT': <class 'gluon.html.CAT'>, 'CENTER': <class 'gluon.html.CENTER'>, 'CLEANUP': <class 'gluon.validators.CLEANUP'>, ...}, layer='/home/mayank/gitrepo/Twitter-Sentiment-Analysis/...d/web2py/applications/TSAA/controllers/default.py')"
p3751
sS'func'
p3752
S'restricted'
p3753
sa(dp3754
g3725
S'/home/mayank/gitrepo/Twitter-Sentiment-Analysis/front-end/web2py/gluon/restricted.py'
p3755
sg3727
(dp3756
S'builtincompile'
p3757
S'<built-in function compile>'
p3758
sS'code'
p3759
S"'# -*- coding: utf-8 -*-\\n# this file is released ...))\\n\\nresponse._vars=response._caller(testDetails)\\n'"
p3760
sS'code.rstrip'
p3761
S'<built-in method rstrip of str object>'
p3762
sS').replace'
p3763
g3736
sS'layer'
p3764
S"'/home/mayank/gitrepo/Twitter-Sentiment-Analysis/...d/web2py/applications/TSAA/controllers/default.py'"
p3765
ssg3737
I193
sg3738
(dp3766
I192
S'    """'
p3767
sI193
S"    return compile(code.rstrip().replace('\\r\\n','\\n')+'\\n', layer, 'exec')"
p3768
sI194
S''
sI195
S"def restricted(code, environment=None, layer='Unknown'):"
p3769
sI196
S'    """'
p3770
sI197
S'    runs code in environment and returns the output. if an exception occurs'
p3771
sI188
S''
sI189
S'def compile2(code,layer):'
p3772
sI190
S'    """'
p3773
sI191
S"    The +'\\n' is necessary else compile fails when code ends in a comment."
p3774
ssg3750
S"(code='# -*- coding: utf-8 -*-\\n# this file is released ...))\\n\\nresponse._vars=response._caller(testDetails)\\n', layer='/home/mayank/gitrepo/Twitter-Sentiment-Analysis/...d/web2py/applications/TSAA/controllers/default.py')"
p3775
sg3752
S'compile2'
p3776
sasS'pyver'
p3777
S'Python 2.7.4: /usr/bin/python'
p3778
sS'session'
p3779
g69
(g70
g71
NtRp3780
(dp3781
g74
(dp3782
sg76
(lp3783
g69
(g78
g71
NtRp3784
(dp3785
g74
(dp3786
g82
I5
ssg83
Nsg76
(lp3787
g69
(g85
g71
NtRp3788
(dp3789
g74
(dp3790
sg83
g3784
sg76
(lp3791
g69
(g90
g71
NtRp3792
(dp3793
g74
(dp3794
g94
g95
ssg83
g3788
sg76
(lp3795
S'auth'
p3796
asbag69
(g90
g71
NtRp3797
(dp3798
g74
(dp3799
g101
g102
ssg83
g3788
sg76
(lp3800
S':'
asbag69
(g90
g71
NtRp3801
(dp3802
g74
(dp3803
sg83
g3788
sg76
(lp3804
g69
(g70
g71
NtRp3805
(dp3806
g74
(dp3807
g82
I5
ssg83
g3801
sg76
(lp3808
g69
(g78
g71
NtRp3809
(dp3810
g74
(dp3811
g82
I4
ssg83
Nsg76
(lp3812
g69
(g85
g71
NtRp3813
(dp3814
g74
(dp3815
sg83
g3809
sg76
(lp3816
g69
(g90
g71
NtRp3817
(dp3818
g74
(dp3819
g94
g95
ssg83
g3813
sg76
(lp3820
S'expiration'
p3821
asbag69
(g90
g71
NtRp3822
(dp3823
g74
(dp3824
g101
g102
ssg83
g3813
sg76
(lp3825
S':'
asbag69
(g90
g71
NtRp3826
(dp3827
g74
(dp3828
sg83
g3813
sg76
(lp3829
g69
(g70
g71
NtRp3830
(dp3831
g74
(dp3832
g82
I4
ssg83
g3826
sg76
(lp3833
S'3600'
p3834
asbasbasbag69
(g85
g71
NtRp3835
(dp3836
g74
(dp3837
sg83
g3809
sg76
(lp3838
g69
(g90
g71
NtRp3839
(dp3840
g74
(dp3841
g94
g95
ssg83
g3835
sg76
(lp3842
S'hmac_key'
p3843
asbag69
(g90
g71
NtRp3844
(dp3845
g74
(dp3846
g101
g102
ssg83
g3835
sg76
(lp3847
S':'
asbag69
(g90
g71
NtRp3848
(dp3849
g74
(dp3850
sg83
g3835
sg76
(lp3851
g69
(g70
g71
NtRp3852
(dp3853
g74
(dp3854
g82
I4
ssg83
g3848
sg76
(lp3855
S'f6ffff98-9a7a-4f18-95f0-b8abc2a7d160'
p3856
asbasbasbag69
(g85
g71
NtRp3857
(dp3858
g74
(dp3859
sg83
g3809
sg76
(lp3860
g69
(g90
g71
NtRp3861
(dp3862
g74
(dp3863
g94
g95
ssg83
g3857
sg76
(lp3864
S'last_visit'
p3865
asbag69
(g90
g71
NtRp3866
(dp3867
g74
(dp3868
g101
g102
ssg83
g3857
sg76
(lp3869
S':'
asbag69
(g90
g71
NtRp3870
(dp3871
g74
(dp3872
sg83
g3857
sg76
(lp3873
g69
(g70
g71
NtRp3874
(dp3875
g74
(dp3876
g82
I4
ssg83
g3870
sg76
(lp3877
S'datetime.datetime(2014, 4, 13, 5, 2, 52, 177822)'
p3878
asbasbasbag69
(g85
g71
NtRp3879
(dp3880
g74
(dp3881
sg83
g3809
sg76
(lp3882
g69
(g90
g71
NtRp3883
(dp3884
g74
(dp3885
g94
g95
ssg83
g3879
sg76
(lp3886
S'remember'
p3887
asbag69
(g90
g71
NtRp3888
(dp3889
g74
(dp3890
g101
g102
ssg83
g3879
sg76
(lp3891
S':'
asbag69
(g90
g71
NtRp3892
(dp3893
g74
(dp3894
sg83
g3879
sg76
(lp3895
g69
(g70
g71
NtRp3896
(dp3897
g74
(dp3898
g82
I4
ssg83
g3892
sg76
(lp3899
g112
asbasbasbag69
(g85
g71
NtRp3900
(dp3901
g74
(dp3902
sg83
g3809
sg76
(lp3903
g69
(g90
g71
NtRp3904
(dp3905
g74
(dp3906
g94
g95
ssg83
g3900
sg76
(lp3907
S'user'
p3908
asbag69
(g90
g71
NtRp3909
(dp3910
g74
(dp3911
g101
g102
ssg83
g3900
sg76
(lp3912
S':'
asbag69
(g90
g71
NtRp3913
(dp3914
g74
(dp3915
sg83
g3900
sg76
(lp3916
g69
(g70
g71
NtRp3917
(dp3918
g74
(dp3919
g82
I4
ssg83
g3913
sg76
(lp3920
g69
(g78
g71
NtRp3921
(dp3922
g74
(dp3923
g82
I3
ssg83
Nsg76
(lp3924
g69
(g85
g71
NtRp3925
(dp3926
g74
(dp3927
sg83
g3921
sg76
(lp3928
g69
(g90
g71
NtRp3929
(dp3930
g74
(dp3931
g94
g95
ssg83
g3925
sg76
(lp3932
S'email'
p3933
asbag69
(g90
g71
NtRp3934
(dp3935
g74
(dp3936
g101
g102
ssg83
g3925
sg76
(lp3937
S':'
asbag69
(g90
g71
NtRp3938
(dp3939
g74
(dp3940
sg83
g3925
sg76
(lp3941
g69
(g70
g71
NtRp3942
(dp3943
g74
(dp3944
g82
I3
ssg83
g3938
sg76
(lp3945
S'mayankrocks.1993@gmail.com'
p3946
asbasbasbag69
(g85
g71
NtRp3947
(dp3948
g74
(dp3949
sg83
g3921
sg76
(lp3950
g69
(g90
g71
NtRp3951
(dp3952
g74
(dp3953
g94
g95
ssg83
g3947
sg76
(lp3954
S'first_name'
p3955
asbag69
(g90
g71
NtRp3956
(dp3957
g74
(dp3958
g101
g102
ssg83
g3947
sg76
(lp3959
S':'
asbag69
(g90
g71
NtRp3960
(dp3961
g74
(dp3962
sg83
g3947
sg76
(lp3963
g69
(g70
g71
NtRp3964
(dp3965
g74
(dp3966
g82
I3
ssg83
g3960
sg76
(lp3967
S'Mayank'
p3968
asbasbasbag69
(g85
g71
NtRp3969
(dp3970
g74
(dp3971
sg83
g3921
sg76
(lp3972
g69
(g90
g71
NtRp3973
(dp3974
g74
(dp3975
g94
g95
ssg83
g3969
sg76
(lp3976
S'id'
p3977
asbag69
(g90
g71
NtRp3978
(dp3979
g74
(dp3980
g101
g102
ssg83
g3969
sg76
(lp3981
S':'
asbag69
(g90
g71
NtRp3982
(dp3983
g74
(dp3984
sg83
g3969
sg76
(lp3985
g69
(g70
g71
NtRp3986
(dp3987
g74
(dp3988
g82
I3
ssg83
g3982
sg76
(lp3989
S'1'
asbasbasbag69
(g85
g71
NtRp3990
(dp3991
g74
(dp3992
sg83
g3921
sg76
(lp3993
g69
(g90
g71
NtRp3994
(dp3995
g74
(dp3996
g94
g95
ssg83
g3990
sg76
(lp3997
S'last_name'
p3998
asbag69
(g90
g71
NtRp3999
(dp4000
g74
(dp4001
g101
g102
ssg83
g3990
sg76
(lp4002
S':'
asbag69
(g90
g71
NtRp4003
(dp4004
g74
(dp4005
sg83
g3990
sg76
(lp4006
g69
(g70
g71
NtRp4007
(dp4008
g74
(dp4009
g82
I3
ssg83
g4003
sg76
(lp4010
S'Gupta'
p4011
asbasbasbag69
(g85
g71
NtRp4012
(dp4013
g74
(dp4014
sg83
g3921
sg76
(lp4015
g69
(g90
g71
NtRp4016
(dp4017
g74
(dp4018
g94
g95
ssg83
g4012
sg76
(lp4019
S'password'
p4020
asbag69
(g90
g71
NtRp4021
(dp4022
g74
(dp4023
g101
g102
ssg83
g4012
sg76
(lp4024
S':'
asbag69
(g90
g71
NtRp4025
(dp4026
g74
(dp4027
sg83
g4012
sg76
(lp4028
g69
(g70
g71
NtRp4029
(dp4030
g74
(dp4031
g82
I3
ssg83
g4025
sg76
(lp4032
S'pbkdf2(1000,20,sha512)$9e3fd7df2be031c0$dd4f0a41faf2dd8cb67b943f23846538a5daa4d9'
p4033
asbasbasbag69
(g85
g71
NtRp4034
(dp4035
g74
(dp4036
sg83
g3921
sg76
(lp4037
g69
(g90
g71
NtRp4038
(dp4039
g74
(dp4040
g94
g95
ssg83
g4034
sg76
(lp4041
S'registration_id'
p4042
asbag69
(g90
g71
NtRp4043
(dp4044
g74
(dp4045
g101
g102
ssg83
g4034
sg76
(lp4046
S':'
asbag69
(g90
g71
NtRp4047
(dp4048
g74
(dp4049
sg83
g4034
sg76
(lp4050
g69
(g70
g71
NtRp4051
(dp4052
g74
(dp4053
g82
I3
ssg83
g4047
sg76
(lp4054
S''
asbasbasbag69
(g85
g71
NtRp4055
(dp4056
g74
(dp4057
sg83
g3921
sg76
(lp4058
g69
(g90
g71
NtRp4059
(dp4060
g74
(dp4061
g94
g95
ssg83
g4055
sg76
(lp4062
S'registration_key'
p4063
asbag69
(g90
g71
NtRp4064
(dp4065
g74
(dp4066
g101
g102
ssg83
g4055
sg76
(lp4067
S':'
asbag69
(g90
g71
NtRp4068
(dp4069
g74
(dp4070
sg83
g4055
sg76
(lp4071
g69
(g70
g71
NtRp4072
(dp4073
g74
(dp4074
g82
I3
ssg83
g4068
sg76
(lp4075
S''
asbasbasbag69
(g85
g71
NtRp4076
(dp4077
g74
(dp4078
sg83
g3921
sg76
(lp4079
g69
(g90
g71
NtRp4080
(dp4081
g74
(dp4082
g94
g95
ssg83
g4076
sg76
(lp4083
S'reset_password_key'
p4084
asbag69
(g90
g71
NtRp4085
(dp4086
g74
(dp4087
g101
g102
ssg83
g4076
sg76
(lp4088
S':'
asbag69
(g90
g71
NtRp4089
(dp4090
g74
(dp4091
sg83
g4076
sg76
(lp4092
g69
(g70
g71
NtRp4093
(dp4094
g74
(dp4095
g82
I3
ssg83
g4089
sg76
(lp4096
S''
asbasbasbasbasbasbasbag69
(g85
g71
NtRp4097
(dp4098
g74
(dp4099
sg83
g3809
sg76
(lp4100
g69
(g90
g71
NtRp4101
(dp4102
g74
(dp4103
g94
g95
ssg83
g4097
sg76
(lp4104
S'user_groups'
p4105
asbag69
(g90
g71
NtRp4106
(dp4107
g74
(dp4108
g101
g102
ssg83
g4097
sg76
(lp4109
S':'
asbag69
(g90
g71
NtRp4110
(dp4111
g74
(dp4112
sg83
g4097
sg76
(lp4113
g69
(g70
g71
NtRp4114
(dp4115
g74
(dp4116
g82
I4
ssg83
g4110
sg76
(lp4117
g69
(g78
g71
NtRp4118
(dp4119
g74
(dp4120
g82
I3
ssg83
Nsg76
(lp4121
g69
(g85
g71
NtRp4122
(dp4123
g74
(dp4124
sg83
g4118
sg76
(lp4125
g69
(g90
g71
NtRp4126
(dp4127
g74
(dp4128
g94
g95
ssg83
g4122
sg76
(lp4129
S'1'
asbag69
(g90
g71
NtRp4130
(dp4131
g74
(dp4132
g101
g102
ssg83
g4122
sg76
(lp4133
S':'
asbag69
(g90
g71
NtRp4134
(dp4135
g74
(dp4136
sg83
g4122
sg76
(lp4137
g69
(g70
g71
NtRp4138
(dp4139
g74
(dp4140
g82
I3
ssg83
g4134
sg76
(lp4141
S'user_1'
p4142
asbasbasbasbasbasbasbasbasbasbasbag69
(g85
g71
NtRp4143
(dp4144
g74
(dp4145
sg83
g3784
sg76
(lp4146
g69
(g90
g71
NtRp4147
(dp4148
g74
(dp4149
g94
g95
ssg83
g4143
sg76
(lp4150
S'email'
p4151
asbag69
(g90
g71
NtRp4152
(dp4153
g74
(dp4154
g101
g102
ssg83
g4143
sg76
(lp4155
S':'
asbag69
(g90
g71
NtRp4156
(dp4157
g74
(dp4158
sg83
g4143
sg76
(lp4159
g69
(g70
g71
NtRp4160
(dp4161
g74
(dp4162
g82
I5
ssg83
g4156
sg76
(lp4163
S'mayankrocks.1993@gmail.com'
p4164
asbasbasbag69
(g85
g71
NtRp4165
(dp4166
g74
(dp4167
sg83
g3784
sg76
(lp4168
g69
(g90
g71
NtRp4169
(dp4170
g74
(dp4171
g94
g95
ssg83
g4165
sg76
(lp4172
S'flash'
p4173
asbag69
(g90
g71
NtRp4174
(dp4175
g74
(dp4176
g101
g102
ssg83
g4165
sg76
(lp4177
S':'
asbag69
(g90
g71
NtRp4178
(dp4179
g74
(dp4180
sg83
g4165
sg76
(lp4181
g69
(g70
g71
NtRp4182
(dp4183
g74
(dp4184
g82
I5
ssg83
g4178
sg76
(lp4185
S'None'
p4186
asbasbasbag69
(g85
g71
NtRp4187
(dp4188
g74
(dp4189
sg83
g3784
sg76
(lp4190
g69
(g90
g71
NtRp4191
(dp4192
g74
(dp4193
g94
g95
ssg83
g4187
sg76
(lp4194
S'last_orderby'
p4195
asbag69
(g90
g71
NtRp4196
(dp4197
g74
(dp4198
g101
g102
ssg83
g4187
sg76
(lp4199
S':'
asbag69
(g90
g71
NtRp4200
(dp4201
g74
(dp4202
sg83
g4187
sg76
(lp4203
g69
(g70
g71
NtRp4204
(dp4205
g74
(dp4206
g82
I5
ssg83
g4200
sg76
(lp4207
S'None'
p4208
asbasbasbag69
(g85
g71
NtRp4209
(dp4210
g74
(dp4211
sg83
g3784
sg76
(lp4212
g69
(g90
g71
NtRp4213
(dp4214
g74
(dp4215
g94
g95
ssg83
g4209
sg76
(lp4216
S'last_query'
p4217
asbag69
(g90
g71
NtRp4218
(dp4219
g74
(dp4220
g101
g102
ssg83
g4209
sg76
(lp4221
S':'
asbag69
(g90
g71
NtRp4222
(dp4223
g74
(dp4224
sg83
g4209
sg76
(lp4225
g69
(g70
g71
NtRp4226
(dp4227
g74
(dp4228
g82
I5
ssg83
g4222
sg76
(lp4229
S'db.PhraseTestDetails.id>0'
p4230
asbasbasbasbasbsS'etype'
p4231
S"<type 'exceptions.SyntaxError'>"
p4232
sS'date'
p4233
S'Sun Apr 13 05:02:52 2014'
p4234
sS'response'
p4235
g69
(g70
g71
NtRp4236
(dp4237
g74
(dp4238
sg76
(lp4239
g69
(g78
g71
NtRp4240
(dp4241
g74
(dp4242
g82
I5
ssg83
Nsg76
(lp4243
g69
(g85
g71
NtRp4244
(dp4245
g74
(dp4246
sg83
g4240
sg76
(lp4247
g69
(g90
g71
NtRp4248
(dp4249
g74
(dp4250
g94
g95
ssg83
g4244
sg76
(lp4251
g167
asbag69
(g90
g71
NtRp4252
(dp4253
g74
(dp4254
g101
g102
ssg83
g4244
sg76
(lp4255
S':'
asbag69
(g90
g71
NtRp4256
(dp4257
g74
(dp4258
sg83
g4244
sg76
(lp4259
g69
(g70
g71
NtRp4260
(dp4261
g74
(dp4262
g82
I5
ssg83
g4256
sg76
(lp4263
S'<cStringIO.StringO object at 0x7fc1e823ace0>'
p4264
asbasbasbag69
(g85
g71
NtRp4265
(dp4266
g74
(dp4267
sg83
g4240
sg76
(lp4268
g69
(g90
g71
NtRp4269
(dp4270
g74
(dp4271
g94
g95
ssg83
g4265
sg76
(lp4272
g255
asbag69
(g90
g71
NtRp4273
(dp4274
g74
(dp4275
g101
g102
ssg83
g4265
sg76
(lp4276
S':'
asbag69
(g90
g71
NtRp4277
(dp4278
g74
(dp4279
sg83
g4265
sg76
(lp4280
g69
(g70
g71
NtRp4281
(dp4282
g74
(dp4283
g82
I5
ssg83
g4277
sg76
(lp4284
g69
(g78
g71
NtRp4285
(dp4286
g74
(dp4287
g82
I4
ssg83
Nsg76
(lp4288
g69
(g85
g71
NtRp4289
(dp4290
g74
(dp4291
sg83
g4285
sg76
(lp4292
g69
(g90
g71
NtRp4293
(dp4294
g74
(dp4295
g94
g95
ssg83
g4289
sg76
(lp4296
S'session_id_tsaa'
p4297
asbag69
(g90
g71
NtRp4298
(dp4299
g74
(dp4300
g101
g102
ssg83
g4289
sg76
(lp4301
S':'
asbag69
(g90
g71
NtRp4302
(dp4303
g74
(dp4304
sg83
g4289
sg76
(lp4305
g69
(g70
g71
NtRp4306
(dp4307
g74
(dp4308
g82
I4
ssg83
g4302
sg76
(lp4309
g1045
ag69
(g78
g71
NtRp4310
(dp4311
g74
(dp4312
g82
I3
ssg83
Nsg76
(lp4313
g69
(g85
g71
NtRp4314
(dp4315
g74
(dp4316
sg83
g4310
sg76
(lp4317
g69
(g90
g71
NtRp4318
(dp4319
g74
(dp4320
g94
g95
ssg83
g4314
sg76
(lp4321
g306
asbag69
(g90
g71
NtRp4322
(dp4323
g74
(dp4324
g101
g102
ssg83
g4314
sg76
(lp4325
S':'
asbag69
(g90
g71
NtRp4326
(dp4327
g74
(dp4328
sg83
g4314
sg76
(lp4329
g69
(g70
g71
NtRp4330
(dp4331
g74
(dp4332
g82
I3
ssg83
g4326
sg76
(lp4333
S''
asbasbasbag69
(g85
g71
NtRp4334
(dp4335
g74
(dp4336
sg83
g4310
sg76
(lp4337
g69
(g90
g71
NtRp4338
(dp4339
g74
(dp4340
g94
g95
ssg83
g4334
sg76
(lp4341
g327
asbag69
(g90
g71
NtRp4342
(dp4343
g74
(dp4344
g101
g102
ssg83
g4334
sg76
(lp4345
S':'
asbag69
(g90
g71
NtRp4346
(dp4347
g74
(dp4348
sg83
g4334
sg76
(lp4349
g69
(g70
g71
NtRp4350
(dp4351
g74
(dp4352
g82
I3
ssg83
g4346
sg76
(lp4353
S''
asbasbasbag69
(g85
g71
NtRp4354
(dp4355
g74
(dp4356
sg83
g4310
sg76
(lp4357
g69
(g90
g71
NtRp4358
(dp4359
g74
(dp4360
g94
g95
ssg83
g4354
sg76
(lp4361
g348
asbag69
(g90
g71
NtRp4362
(dp4363
g74
(dp4364
g101
g102
ssg83
g4354
sg76
(lp4365
S':'
asbag69
(g90
g71
NtRp4366
(dp4367
g74
(dp4368
sg83
g4354
sg76
(lp4369
g69
(g70
g71
NtRp4370
(dp4371
g74
(dp4372
g82
I3
ssg83
g4366
sg76
(lp4373
S''
asbasbasbag69
(g85
g71
NtRp4374
(dp4375
g74
(dp4376
sg83
g4310
sg76
(lp4377
g69
(g90
g71
NtRp4378
(dp4379
g74
(dp4380
g94
g95
ssg83
g4374
sg76
(lp4381
g369
asbag69
(g90
g71
NtRp4382
(dp4383
g74
(dp4384
g101
g102
ssg83
g4374
sg76
(lp4385
S':'
asbag69
(g90
g71
NtRp4386
(dp4387
g74
(dp4388
sg83
g4374
sg76
(lp4389
g69
(g70
g71
NtRp4390
(dp4391
g74
(dp4392
g82
I3
ssg83
g4386
sg76
(lp4393
S''
asbasbasbag69
(g85
g71
NtRp4394
(dp4395
g74
(dp4396
sg83
g4310
sg76
(lp4397
g69
(g90
g71
NtRp4398
(dp4399
g74
(dp4400
g94
g95
ssg83
g4394
sg76
(lp4401
g390
asbag69
(g90
g71
NtRp4402
(dp4403
g74
(dp4404
g101
g102
ssg83
g4394
sg76
(lp4405
S':'
asbag69
(g90
g71
NtRp4406
(dp4407
g74
(dp4408
sg83
g4394
sg76
(lp4409
g69
(g70
g71
NtRp4410
(dp4411
g74
(dp4412
g82
I3
ssg83
g4406
sg76
(lp4413
S''
asbasbasbag69
(g85
g71
NtRp4414
(dp4415
g74
(dp4416
sg83
g4310
sg76
(lp4417
g69
(g90
g71
NtRp4418
(dp4419
g74
(dp4420
g94
g95
ssg83
g4414
sg76
(lp4421
g411
asbag69
(g90
g71
NtRp4422
(dp4423
g74
(dp4424
g101
g102
ssg83
g4414
sg76
(lp4425
S':'
asbag69
(g90
g71
NtRp4426
(dp4427
g74
(dp4428
sg83
g4414
sg76
(lp4429
g69
(g70
g71
NtRp4430
(dp4431
g74
(dp4432
g82
I3
ssg83
g4426
sg76
(lp4433
S'/'
asbasbasbag69
(g85
g71
NtRp4434
(dp4435
g74
(dp4436
sg83
g4310
sg76
(lp4437
g69
(g90
g71
NtRp4438
(dp4439
g74
(dp4440
g94
g95
ssg83
g4434
sg76
(lp4441
g432
asbag69
(g90
g71
NtRp4442
(dp4443
g74
(dp4444
g101
g102
ssg83
g4434
sg76
(lp4445
S':'
asbag69
(g90
g71
NtRp4446
(dp4447
g74
(dp4448
sg83
g4434
sg76
(lp4449
g69
(g70
g71
NtRp4450
(dp4451
g74
(dp4452
g82
I3
ssg83
g4446
sg76
(lp4453
S''
asbasbasbag69
(g85
g71
NtRp4454
(dp4455
g74
(dp4456
sg83
g4310
sg76
(lp4457
g69
(g90
g71
NtRp4458
(dp4459
g74
(dp4460
g94
g95
ssg83
g4454
sg76
(lp4461
g453
asbag69
(g90
g71
NtRp4462
(dp4463
g74
(dp4464
g101
g102
ssg83
g4454
sg76
(lp4465
S':'
asbag69
(g90
g71
NtRp4466
(dp4467
g74
(dp4468
sg83
g4454
sg76
(lp4469
g69
(g70
g71
NtRp4470
(dp4471
g74
(dp4472
g82
I3
ssg83
g4466
sg76
(lp4473
S''
asbasbasbasbasbasbasbasbasbasbasbag69
(g85
g71
NtRp4474
(dp4475
g74
(dp4476
sg83
g4240
sg76
(lp4477
g69
(g90
g71
NtRp4478
(dp4479
g74
(dp4480
g94
g95
ssg83
g4474
sg76
(lp4481
S'delimiters'
p4482
asbag69
(g90
g71
NtRp4483
(dp4484
g74
(dp4485
g101
g102
ssg83
g4474
sg76
(lp4486
S':'
asbag69
(g90
g71
NtRp4487
(dp4488
g74
(dp4489
sg83
g4474
sg76
(lp4490
g69
(g70
g71
NtRp4491
(dp4492
g74
(dp4493
g82
I5
ssg83
g4487
sg76
(lp4494
g69
(g78
g71
NtRp4495
(dp4496
g74
(dp4497
g82
I4
ssg83
Nsg76
(lp4498
g69
(g85
g71
NtRp4499
(dp4500
g74
(dp4501
sg83
g4495
sg76
(lp4502
g69
(g90
g71
NtRp4503
(dp4504
g74
(dp4505
sg83
g4499
sg76
(lp4506
g69
(g70
g71
NtRp4507
(dp4508
g74
(dp4509
g82
I4
ssg83
g4503
sg76
(lp4510
S'{{'
p4511
asbasbasbag69
(g85
g71
NtRp4512
(dp4513
g74
(dp4514
sg83
g4495
sg76
(lp4515
g69
(g90
g71
NtRp4516
(dp4517
g74
(dp4518
sg83
g4512
sg76
(lp4519
g69
(g70
g71
NtRp4520
(dp4521
g74
(dp4522
g82
I4
ssg83
g4516
sg76
(lp4523
S'}}'
p4524
asbasbasbasbasbasbasbag69
(g85
g71
NtRp4525
(dp4526
g74
(dp4527
sg83
g4240
sg76
(lp4528
g69
(g90
g71
NtRp4529
(dp4530
g74
(dp4531
g94
g95
ssg83
g4525
sg76
(lp4532
S'files'
p4533
asbag69
(g90
g71
NtRp4534
(dp4535
g74
(dp4536
g101
g102
ssg83
g4525
sg76
(lp4537
S':'
asbag69
(g90
g71
NtRp4538
(dp4539
g74
(dp4540
sg83
g4525
sg76
(lp4541
g69
(g70
g71
NtRp4542
(dp4543
g74
(dp4544
g82
I5
ssg83
g4538
sg76
(lp4545
g69
(g78
g71
NtRp4546
(dp4547
g74
(dp4548
g82
I4
ssg83
Nsg76
(lp4549
sbasbasbasbag69
(g85
g71
NtRp4550
(dp4551
g74
(dp4552
sg83
g4240
sg76
(lp4553
g69
(g90
g71
NtRp4554
(dp4555
g74
(dp4556
g94
g95
ssg83
g4550
sg76
(lp4557
S'flash'
p4558
asbag69
(g90
g71
NtRp4559
(dp4560
g74
(dp4561
g101
g102
ssg83
g4550
sg76
(lp4562
S':'
asbag69
(g90
g71
NtRp4563
(dp4564
g74
(dp4565
sg83
g4550
sg76
(lp4566
g69
(g70
g71
NtRp4567
(dp4568
g74
(dp4569
g82
I5
ssg83
g4563
sg76
(lp4570
S''
asbasbasbag69
(g85
g71
NtRp4571
(dp4572
g74
(dp4573
sg83
g4240
sg76
(lp4574
g69
(g90
g71
NtRp4575
(dp4576
g74
(dp4577
g94
g95
ssg83
g4571
sg76
(lp4578
S'generic_patterns'
p4579
asbag69
(g90
g71
NtRp4580
(dp4581
g74
(dp4582
g101
g102
ssg83
g4571
sg76
(lp4583
S':'
asbag69
(g90
g71
NtRp4584
(dp4585
g74
(dp4586
sg83
g4571
sg76
(lp4587
g69
(g70
g71
NtRp4588
(dp4589
g74
(dp4590
g82
I5
ssg83
g4584
sg76
(lp4591
g69
(g78
g71
NtRp4592
(dp4593
g74
(dp4594
g82
I4
ssg83
Nsg76
(lp4595
g69
(g85
g71
NtRp4596
(dp4597
g74
(dp4598
sg83
g4592
sg76
(lp4599
g69
(g90
g71
NtRp4600
(dp4601
g74
(dp4602
sg83
g4596
sg76
(lp4603
g69
(g70
g71
NtRp4604
(dp4605
g74
(dp4606
g82
I4
ssg83
g4600
sg76
(lp4607
S'*'
asbasbasbasbasbasbasbag69
(g85
g71
NtRp4608
(dp4609
g74
(dp4610
sg83
g4240
sg76
(lp4611
g69
(g90
g71
NtRp4612
(dp4613
g74
(dp4614
g94
g95
ssg83
g4608
sg76
(lp4615
S'google_analytics_id'
p4616
asbag69
(g90
g71
NtRp4617
(dp4618
g74
(dp4619
g101
g102
ssg83
g4608
sg76
(lp4620
S':'
asbag69
(g90
g71
NtRp4621
(dp4622
g74
(dp4623
sg83
g4608
sg76
(lp4624
g69
(g70
g71
NtRp4625
(dp4626
g74
(dp4627
g82
I5
ssg83
g4621
sg76
(lp4628
S'None'
p4629
asbasbasbag69
(g85
g71
NtRp4630
(dp4631
g74
(dp4632
sg83
g4240
sg76
(lp4633
g69
(g90
g71
NtRp4634
(dp4635
g74
(dp4636
g94
g95
ssg83
g4630
sg76
(lp4637
S'headers'
p4638
asbag69
(g90
g71
NtRp4639
(dp4640
g74
(dp4641
g101
g102
ssg83
g4630
sg76
(lp4642
S':'
asbag69
(g90
g71
NtRp4643
(dp4644
g74
(dp4645
sg83
g4630
sg76
(lp4646
g69
(g70
g71
NtRp4647
(dp4648
g74
(dp4649
g82
I5
ssg83
g4643
sg76
(lp4650
g69
(g78
g71
NtRp4651
(dp4652
g74
(dp4653
g82
I4
ssg83
Nsg76
(lp4654
g69
(g85
g71
NtRp4655
(dp4656
g74
(dp4657
sg83
g4651
sg76
(lp4658
g69
(g90
g71
NtRp4659
(dp4660
g74
(dp4661
g94
g95
ssg83
g4655
sg76
(lp4662
S'Cache-Control'
p4663
asbag69
(g90
g71
NtRp4664
(dp4665
g74
(dp4666
g101
g102
ssg83
g4655
sg76
(lp4667
S':'
asbag69
(g90
g71
NtRp4668
(dp4669
g74
(dp4670
sg83
g4655
sg76
(lp4671
g69
(g70
g71
NtRp4672
(dp4673
g74
(dp4674
g82
I4
ssg83
g4668
sg76
(lp4675
S'no-store, no-cache, must-revalidate, post-check=0, pre-check=0'
p4676
asbasbasbag69
(g85
g71
NtRp4677
(dp4678
g74
(dp4679
sg83
g4651
sg76
(lp4680
g69
(g90
g71
NtRp4681
(dp4682
g74
(dp4683
g94
g95
ssg83
g4677
sg76
(lp4684
S'Content-Type'
p4685
asbag69
(g90
g71
NtRp4686
(dp4687
g74
(dp4688
g101
g102
ssg83
g4677
sg76
(lp4689
S':'
asbag69
(g90
g71
NtRp4690
(dp4691
g74
(dp4692
sg83
g4677
sg76
(lp4693
g69
(g70
g71
NtRp4694
(dp4695
g74
(dp4696
g82
I4
ssg83
g4690
sg76
(lp4697
S'text/html; charset=utf-8'
p4698
asbasbasbag69
(g85
g71
NtRp4699
(dp4700
g74
(dp4701
sg83
g4651
sg76
(lp4702
g69
(g90
g71
NtRp4703
(dp4704
g74
(dp4705
g94
g95
ssg83
g4699
sg76
(lp4706
S'Expires'
p4707
asbag69
(g90
g71
NtRp4708
(dp4709
g74
(dp4710
g101
g102
ssg83
g4699
sg76
(lp4711
S':'
asbag69
(g90
g71
NtRp4712
(dp4713
g74
(dp4714
sg83
g4699
sg76
(lp4715
g69
(g70
g71
NtRp4716
(dp4717
g74
(dp4718
g82
I4
ssg83
g4712
sg76
(lp4719
S'Sat, 12 Apr 2014 23:32:52 GMT'
p4720
asbasbasbag69
(g85
g71
NtRp4721
(dp4722
g74
(dp4723
sg83
g4651
sg76
(lp4724
g69
(g90
g71
NtRp4725
(dp4726
g74
(dp4727
g94
g95
ssg83
g4721
sg76
(lp4728
S'Pragma'
p4729
asbag69
(g90
g71
NtRp4730
(dp4731
g74
(dp4732
g101
g102
ssg83
g4721
sg76
(lp4733
S':'
asbag69
(g90
g71
NtRp4734
(dp4735
g74
(dp4736
sg83
g4721
sg76
(lp4737
g69
(g70
g71
NtRp4738
(dp4739
g74
(dp4740
g82
I4
ssg83
g4734
sg76
(lp4741
S'no-cache'
p4742
asbasbasbag69
(g85
g71
NtRp4743
(dp4744
g74
(dp4745
sg83
g4651
sg76
(lp4746
g69
(g90
g71
NtRp4747
(dp4748
g74
(dp4749
g94
g95
ssg83
g4743
sg76
(lp4750
S'X-Powered-By'
p4751
asbag69
(g90
g71
NtRp4752
(dp4753
g74
(dp4754
g101
g102
ssg83
g4743
sg76
(lp4755
S':'
asbag69
(g90
g71
NtRp4756
(dp4757
g74
(dp4758
sg83
g4743
sg76
(lp4759
g69
(g70
g71
NtRp4760
(dp4761
g74
(dp4762
g82
I4
ssg83
g4756
sg76
(lp4763
S'web2py'
p4764
asbasbasbasbasbasbasbag69
(g85
g71
NtRp4765
(dp4766
g74
(dp4767
sg83
g4240
sg76
(lp4768
g69
(g90
g71
NtRp4769
(dp4770
g74
(dp4771
g94
g95
ssg83
g4765
sg76
(lp4772
S'menu'
p4773
asbag69
(g90
g71
NtRp4774
(dp4775
g74
(dp4776
g101
g102
ssg83
g4765
sg76
(lp4777
S':'
asbag69
(g90
g71
NtRp4778
(dp4779
g74
(dp4780
sg83
g4765
sg76
(lp4781
g69
(g70
g71
NtRp4782
(dp4783
g74
(dp4784
g82
I5
ssg83
g4778
sg76
(lp4785
g69
(g78
g71
NtRp4786
(dp4787
g74
(dp4788
g82
I4
ssg83
Nsg76
(lp4789
g69
(g85
g71
NtRp4790
(dp4791
g74
(dp4792
sg83
g4786
sg76
(lp4793
g69
(g90
g71
NtRp4794
(dp4795
g74
(dp4796
sg83
g4790
sg76
(lp4797
g69
(g70
g71
NtRp4798
(dp4799
g74
(dp4800
g82
I4
ssg83
g4794
sg76
(lp4801
g69
(g78
g71
NtRp4802
(dp4803
g74
(dp4804
g82
I3
ssg83
Nsg76
(lp4805
g69
(g85
g71
NtRp4806
(dp4807
g74
(dp4808
sg83
g4802
sg76
(lp4809
g69
(g90
g71
NtRp4810
(dp4811
g74
(dp4812
sg83
g4806
sg76
(lp4813
g69
(g70
g71
NtRp4814
(dp4815
g74
(dp4816
g82
I3
ssg83
g4810
sg76
(lp4817
cgluon.languages
lazyT_unpickle
p4818
(S's\x04\x00\x00\x00Home'
tRp4819
asbasbasbag69
(g85
g71
NtRp4820
(dp4821
g74
(dp4822
sg83
g4802
sg76
(lp4823
g69
(g90
g71
NtRp4824
(dp4825
g74
(dp4826
sg83
g4820
sg76
(lp4827
g69
(g70
g71
NtRp4828
(dp4829
g74
(dp4830
g82
I3
ssg83
g4824
sg76
(lp4831
g112
asbasbasbag69
(g85
g71
NtRp4832
(dp4833
g74
(dp4834
sg83
g4802
sg76
(lp4835
g69
(g90
g71
NtRp4836
(dp4837
g74
(dp4838
sg83
g4832
sg76
(lp4839
g69
(g70
g71
NtRp4840
(dp4841
g74
(dp4842
g82
I3
ssg83
g4836
sg76
(lp4843
S'/TSAA/default/index'
p4844
asbasbasbag69
(g85
g71
NtRp4845
(dp4846
g74
(dp4847
sg83
g4802
sg76
(lp4848
g69
(g90
g71
NtRp4849
(dp4850
g74
(dp4851
sg83
g4845
sg76
(lp4852
g69
(g70
g71
NtRp4853
(dp4854
g74
(dp4855
g82
I3
ssg83
g4849
sg76
(lp4856
g69
(g78
g71
NtRp4857
(dp4858
g74
(dp4859
g82
I2
ssg83
Nsg76
(lp4860
sbasbasbasbasbasbasbasbag69
(g85
g71
NtRp4861
(dp4862
g74
(dp4863
sg83
g4786
sg76
(lp4864
g69
(g90
g71
NtRp4865
(dp4866
g74
(dp4867
sg83
g4861
sg76
(lp4868
g69
(g70
g71
NtRp4869
(dp4870
g74
(dp4871
g82
I4
ssg83
g4865
sg76
(lp4872
g69
(g78
g71
NtRp4873
(dp4874
g74
(dp4875
g82
I3
ssg83
Nsg76
(lp4876
g69
(g85
g71
NtRp4877
(dp4878
g74
(dp4879
sg83
g4873
sg76
(lp4880
g69
(g90
g71
NtRp4881
(dp4882
g74
(dp4883
sg83
g4877
sg76
(lp4884
g69
(g70
g71
NtRp4885
(dp4886
g74
(dp4887
g82
I3
ssg83
g4881
sg76
(lp4888
g69
(cgluon.html
SPAN
p4889
g71
NtRp4890
(dp4891
g74
(dp4892
g94
S'color:yellow'
p4893
ssg83
Nsg76
(lp4894
g4764
asbasbasbasbag69
(g85
g71
NtRp4895
(dp4896
g74
(dp4897
sg83
g4873
sg76
(lp4898
g69
(g90
g71
NtRp4899
(dp4900
g74
(dp4901
sg83
g4895
sg76
(lp4902
g69
(g70
g71
NtRp4903
(dp4904
g74
(dp4905
g82
I3
ssg83
g4899
sg76
(lp4906
g112
asbasbasbag69
(g85
g71
NtRp4907
(dp4908
g74
(dp4909
sg83
g4873
sg76
(lp4910
g69
(g90
g71
NtRp4911
(dp4912
g74
(dp4913
sg83
g4907
sg76
(lp4914
g69
(g70
g71
NtRp4915
(dp4916
g74
(dp4917
g82
I3
ssg83
g4911
sg76
(lp4918
S'http://web2py.com'
p4919
asbasbasbag69
(g85
g71
NtRp4920
(dp4921
g74
(dp4922
sg83
g4873
sg76
(lp4923
g69
(g90
g71
NtRp4924
(dp4925
g74
(dp4926
sg83
g4920
sg76
(lp4927
g69
(g70
g71
NtRp4928
(dp4929
g74
(dp4930
g82
I3
ssg83
g4924
sg76
(lp4931
g69
(g78
g71
NtRp4932
(dp4933
g74
(dp4934
g82
I2
ssg83
Nsg76
(lp4935
g69
(g85
g71
NtRp4936
(dp4937
g74
(dp4938
sg83
g4932
sg76
(lp4939
g69
(g90
g71
NtRp4940
(dp4941
g74
(dp4942
sg83
g4936
sg76
(lp4943
g69
(g70
g71
NtRp4944
(dp4945
g74
(dp4946
g82
I2
ssg83
g4940
sg76
(lp4947
g69
(g78
g71
NtRp4948
(dp4949
g74
(dp4950
g82
I1
ssg83
Nsg76
(lp4951
g69
(g85
g71
NtRp4952
(dp4953
g74
(dp4954
sg83
g4948
sg76
(lp4955
g69
(g90
g71
NtRp4956
(dp4957
g74
(dp4958
sg83
g4952
sg76
(lp4959
g69
(g70
g71
NtRp4960
(dp4961
g74
(dp4962
g82
I1
ssg83
g4956
sg76
(lp4963
g4818
(S's\x08\x00\x00\x00My Sites'
tRp4964
asbasbasbag69
(g85
g71
NtRp4965
(dp4966
g74
(dp4967
sg83
g4948
sg76
(lp4968
g69
(g90
g71
NtRp4969
(dp4970
g74
(dp4971
sg83
g4965
sg76
(lp4972
g69
(g70
g71
NtRp4973
(dp4974
g74
(dp4975
g82
I1
ssg83
g4969
sg76
(lp4976
I00
asbasbasbag69
(g85
g71
NtRp4977
(dp4978
g74
(dp4979
sg83
g4948
sg76
(lp4980
g69
(g90
g71
NtRp4981
(dp4982
g74
(dp4983
sg83
g4977
sg76
(lp4984
g69
(g70
g71
NtRp4985
(dp4986
g74
(dp4987
g82
I1
ssg83
g4981
sg76
(lp4988
S'/admin/default/site'
p4989
asbasbasbasbasbasbasbag69
(g85
g71
NtRp4990
(dp4991
g74
(dp4992
sg83
g4932
sg76
(lp4993
g69
(g90
g71
NtRp4994
(dp4995
g74
(dp4996
sg83
g4990
sg76
(lp4997
g69
(g70
g71
NtRp4998
(dp4999
g74
(dp5000
g82
I2
ssg83
g4994
sg76
(lp5001
g69
(g78
g71
NtRp5002
(dp5003
g74
(dp5004
g82
I1
ssg83
Nsg76
(lp5005
g69
(g85
g71
NtRp5006
(dp5007
g74
(dp5008
sg83
g5002
sg76
(lp5009
g69
(g90
g71
NtRp5010
(dp5011
g74
(dp5012
sg83
g5006
sg76
(lp5013
g69
(g70
g71
NtRp5014
(dp5015
g74
(dp5016
g82
I1
ssg83
g5010
sg76
(lp5017
g4818
(S's\x08\x00\x00\x00This App'
tRp5018
asbasbasbag69
(g85
g71
NtRp5019
(dp5020
g74
(dp5021
sg83
g5002
sg76
(lp5022
g69
(g90
g71
NtRp5023
(dp5024
g74
(dp5025
sg83
g5019
sg76
(lp5026
g69
(g70
g71
NtRp5027
(dp5028
g74
(dp5029
g82
I1
ssg83
g5023
sg76
(lp5030
I00
asbasbasbag69
(g85
g71
NtRp5031
(dp5032
g74
(dp5033
sg83
g5002
sg76
(lp5034
g69
(g90
g71
NtRp5035
(dp5036
g74
(dp5037
sg83
g5031
sg76
(lp5038
g69
(g70
g71
NtRp5039
(dp5040
g74
(dp5041
g82
I1
ssg83
g5035
sg76
(lp5042
S'/admin/default/design/TSAA'
p5043
asbasbasbag69
(g85
g71
NtRp5044
(dp5045
g74
(dp5046
sg83
g5002
sg76
(lp5047
g69
(g90
g71
NtRp5048
(dp5049
g74
(dp5050
sg83
g5044
sg76
(lp5051
g69
(g70
g71
NtRp5052
(dp5053
g74
(dp5054
g82
I1
ssg83
g5048
sg76
(lp5055
(lp5056
(g4818
(S's\n\x00\x00\x00Controller'
tRp5057
I00
S'/admin/default/edit/TSAA/controllers/default.py'
tp5058
a(g4818
(S's\x04\x00\x00\x00View'
tRp5059
I00
S'/admin/default/edit/TSAA/views/default/testDetails.html'
tp5060
a(g4818
(S's\x06\x00\x00\x00Layout'
tRp5061
I00
S'/admin/default/edit/TSAA/views/layout.html'
tp5062
a(g4818
(S's\n\x00\x00\x00Stylesheet'
tRp5063
I00
S'/admin/default/edit/TSAA/static/css/web2py.css'
tp5064
a(g4818
(S's\x08\x00\x00\x00DB Model'
tRp5065
I00
S'/admin/default/edit/TSAA/models/db.py'
tp5066
a(g4818
(S's\n\x00\x00\x00Menu Model'
tRp5067
I00
S'/admin/default/edit/TSAA/models/menu.py'
tp5068
a(g4818
(S's\x08\x00\x00\x00Database'
tRp5069
I00
S'/TSAA/appadmin/index'
tp5070
a(g4818
(S's\x06\x00\x00\x00Errors'
tRp5071
I00
S'/admin/default/errors/TSAA'
tp5072
a(g4818
(S's\x05\x00\x00\x00About'
tRp5073
I00
S'/admin/default/about/TSAA'
tp5074
aasbasbasbasbasbasbasbag69
(g85
g71
NtRp5075
(dp5076
g74
(dp5077
sg83
g4932
sg76
(lp5078
g69
(g90
g71
NtRp5079
(dp5080
g74
(dp5081
sg83
g5075
sg76
(lp5082
g69
(g70
g71
NtRp5083
(dp5084
g74
(dp5085
g82
I2
ssg83
g5079
sg76
(lp5086
g69
(g78
g71
NtRp5087
(dp5088
g74
(dp5089
g82
I1
ssg83
Nsg76
(lp5090
g69
(g85
g71
NtRp5091
(dp5092
g74
(dp5093
sg83
g5087
sg76
(lp5094
g69
(g90
g71
NtRp5095
(dp5096
g74
(dp5097
sg83
g5091
sg76
(lp5098
g69
(g70
g71
NtRp5099
(dp5100
g74
(dp5101
g82
I1
ssg83
g5095
sg76
(lp5102
S'web2py.com'
p5103
asbasbasbag69
(g85
g71
NtRp5104
(dp5105
g74
(dp5106
sg83
g5087
sg76
(lp5107
g69
(g90
g71
NtRp5108
(dp5109
g74
(dp5110
sg83
g5104
sg76
(lp5111
g69
(g70
g71
NtRp5112
(dp5113
g74
(dp5114
g82
I1
ssg83
g5108
sg76
(lp5115
I00
asbasbasbag69
(g85
g71
NtRp5116
(dp5117
g74
(dp5118
sg83
g5087
sg76
(lp5119
g69
(g90
g71
NtRp5120
(dp5121
g74
(dp5122
sg83
g5116
sg76
(lp5123
g69
(g70
g71
NtRp5124
(dp5125
g74
(dp5126
g82
I1
ssg83
g5120
sg76
(lp5127
S'http://www.web2py.com'
p5128
asbasbasbag69
(g85
g71
NtRp5129
(dp5130
g74
(dp5131
sg83
g5087
sg76
(lp5132
g69
(g90
g71
NtRp5133
(dp5134
g74
(dp5135
sg83
g5129
sg76
(lp5136
g69
(g70
g71
NtRp5137
(dp5138
g74
(dp5139
g82
I1
ssg83
g5133
sg76
(lp5140
(lp5141
(g4818
(S's\x08\x00\x00\x00Download'
tRp5142
I00
S'http://www.web2py.com/examples/default/download'
p5143
tp5144
a(g4818
(S's\x07\x00\x00\x00Support'
tRp5145
I00
S'http://www.web2py.com/examples/default/support'
p5146
tp5147
a(g4818
(S's\x04\x00\x00\x00Demo'
tRp5148
I00
S'http://web2py.com/demo_admin'
p5149
tp5150
a(g4818
(S's\x0e\x00\x00\x00Quick Examples'
tRp5151
I00
S'http://web2py.com/examples/default/examples'
p5152
tp5153
a(g4818
(S's\x03\x00\x00\x00FAQ'
tRp5154
I00
S'http://web2py.com/AlterEgo'
p5155
tp5156
a(g4818
(S's\x06\x00\x00\x00Videos'
tRp5157
I00
S'http://www.web2py.com/examples/default/videos/'
p5158
tp5159
a(g4818
(S's\x11\x00\x00\x00Free Applications'
tRp5160
I00
S'http://web2py.com/appliances'
p5161
tp5162
a(g4818
(S's\x07\x00\x00\x00Plugins'
tRp5163
I00
S'http://web2py.com/plugins'
p5164
tp5165
a(g4818
(S's\x07\x00\x00\x00Layouts'
tRp5166
I00
S'http://web2py.com/layouts'
p5167
tp5168
a(g4818
(S's\x07\x00\x00\x00Recipes'
tRp5169
I00
S'http://web2pyslices.com/'
p5170
tp5171
a(g4818
(S's\x08\x00\x00\x00Semantic'
tRp5172
I00
S'http://web2py.com/semantic'
p5173
tp5174
aasbasbasbasbasbasbasbag69
(g85
g71
NtRp5175
(dp5176
g74
(dp5177
sg83
g4932
sg76
(lp5178
g69
(g90
g71
NtRp5179
(dp5180
g74
(dp5181
sg83
g5175
sg76
(lp5182
g69
(g70
g71
NtRp5183
(dp5184
g74
(dp5185
g82
I2
ssg83
g5179
sg76
(lp5186
g69
(g78
g71
NtRp5187
(dp5188
g74
(dp5189
g82
I1
ssg83
Nsg76
(lp5190
g69
(g85
g71
NtRp5191
(dp5192
g74
(dp5193
sg83
g5187
sg76
(lp5194
g69
(g90
g71
NtRp5195
(dp5196
g74
(dp5197
sg83
g5191
sg76
(lp5198
g69
(g70
g71
NtRp5199
(dp5200
g74
(dp5201
g82
I1
ssg83
g5195
sg76
(lp5202
g4818
(S's\r\x00\x00\x00Documentation'
tRp5203
asbasbasbag69
(g85
g71
NtRp5204
(dp5205
g74
(dp5206
sg83
g5187
sg76
(lp5207
g69
(g90
g71
NtRp5208
(dp5209
g74
(dp5210
sg83
g5204
sg76
(lp5211
g69
(g70
g71
NtRp5212
(dp5213
g74
(dp5214
g82
I1
ssg83
g5208
sg76
(lp5215
I00
asbasbasbag69
(g85
g71
NtRp5216
(dp5217
g74
(dp5218
sg83
g5187
sg76
(lp5219
g69
(g90
g71
NtRp5220
(dp5221
g74
(dp5222
sg83
g5216
sg76
(lp5223
g69
(g70
g71
NtRp5224
(dp5225
g74
(dp5226
g82
I1
ssg83
g5220
sg76
(lp5227
S'http://www.web2py.com/book'
p5228
asbasbasbag69
(g85
g71
NtRp5229
(dp5230
g74
(dp5231
sg83
g5187
sg76
(lp5232
g69
(g90
g71
NtRp5233
(dp5234
g74
(dp5235
sg83
g5229
sg76
(lp5236
g69
(g70
g71
NtRp5237
(dp5238
g74
(dp5239
g82
I1
ssg83
g5233
sg76
(lp5240
(lp5241
(g4818
(S's\x07\x00\x00\x00Preface'
tRp5242
I00
S'http://www.web2py.com/book/default/chapter/00'
p5243
tp5244
a(g4818
(S's\x0c\x00\x00\x00Introduction'
tRp5245
I00
S'http://www.web2py.com/book/default/chapter/01'
p5246
tp5247
a(g4818
(S's\x06\x00\x00\x00Python'
tRp5248
I00
S'http://www.web2py.com/book/default/chapter/02'
p5249
tp5250
a(g4818
(S's\x08\x00\x00\x00Overview'
tRp5251
I00
S'http://www.web2py.com/book/default/chapter/03'
p5252
tp5253
a(g4818
(S's\x08\x00\x00\x00The Core'
tRp5254
I00
S'http://www.web2py.com/book/default/chapter/04'
p5255
tp5256
a(g4818
(S's\t\x00\x00\x00The Views'
tRp5257
I00
S'http://www.web2py.com/book/default/chapter/05'
p5258
tp5259
a(g4818
(S's\x08\x00\x00\x00Database'
tRp5260
I00
S'http://www.web2py.com/book/default/chapter/06'
p5261
tp5262
a(g4818
(S's\x14\x00\x00\x00Forms and Validators'
tRp5263
I00
S'http://www.web2py.com/book/default/chapter/07'
p5264
tp5265
a(g4818
(S's\r\x00\x00\x00Email and SMS'
tRp5266
I00
S'http://www.web2py.com/book/default/chapter/08'
p5267
tp5268
a(g4818
(S's\x0e\x00\x00\x00Access Control'
tRp5269
I00
S'http://www.web2py.com/book/default/chapter/09'
p5270
tp5271
a(g4818
(S's\x08\x00\x00\x00Services'
tRp5272
I00
S'http://www.web2py.com/book/default/chapter/10'
p5273
tp5274
a(g4818
(S's\x0c\x00\x00\x00Ajax Recipes'
tRp5275
I00
S'http://www.web2py.com/book/default/chapter/11'
p5276
tp5277
a(g4818
(S's\x16\x00\x00\x00Components and Plugins'
tRp5278
I00
S'http://www.web2py.com/book/default/chapter/12'
p5279
tp5280
a(g4818
(S's\x12\x00\x00\x00Deployment Recipes'
tRp5281
I00
S'http://www.web2py.com/book/default/chapter/13'
p5282
tp5283
a(g4818
(S's\r\x00\x00\x00Other Recipes'
tRp5284
I00
S'http://www.web2py.com/book/default/chapter/14'
p5285
tp5286
a(g4818
(S's\r\x00\x00\x00Buy this book'
tRp5287
I00
S'http://stores.lulu.com/web2py'
p5288
tp5289
aasbasbasbasbasbasbasbag69
(g85
g71
NtRp5290
(dp5291
g74
(dp5292
sg83
g4932
sg76
(lp5293
g69
(g90
g71
NtRp5294
(dp5295
g74
(dp5296
sg83
g5290
sg76
(lp5297
g69
(g70
g71
NtRp5298
(dp5299
g74
(dp5300
g82
I2
ssg83
g5294
sg76
(lp5301
g69
(g78
g71
NtRp5302
(dp5303
g74
(dp5304
g82
I1
ssg83
Nsg76
(lp5305
g69
(g85
g71
NtRp5306
(dp5307
g74
(dp5308
sg83
g5302
sg76
(lp5309
g69
(g90
g71
NtRp5310
(dp5311
g74
(dp5312
sg83
g5306
sg76
(lp5313
g69
(g70
g71
NtRp5314
(dp5315
g74
(dp5316
g82
I1
ssg83
g5310
sg76
(lp5317
g4818
(S's\t\x00\x00\x00Community'
tRp5318
asbasbasbag69
(g85
g71
NtRp5319
(dp5320
g74
(dp5321
sg83
g5302
sg76
(lp5322
g69
(g90
g71
NtRp5323
(dp5324
g74
(dp5325
sg83
g5319
sg76
(lp5326
g69
(g70
g71
NtRp5327
(dp5328
g74
(dp5329
g82
I1
ssg83
g5323
sg76
(lp5330
I00
asbasbasbag69
(g85
g71
NtRp5331
(dp5332
g74
(dp5333
sg83
g5302
sg76
(lp5334
g69
(g90
g71
NtRp5335
(dp5336
g74
(dp5337
sg83
g5331
sg76
(lp5338
g69
(g70
g71
NtRp5339
(dp5340
g74
(dp5341
g82
I1
ssg83
g5335
sg76
(lp5342
Nasbasbasbag69
(g85
g71
NtRp5343
(dp5344
g74
(dp5345
sg83
g5302
sg76
(lp5346
g69
(g90
g71
NtRp5347
(dp5348
g74
(dp5349
sg83
g5343
sg76
(lp5350
g69
(g70
g71
NtRp5351
(dp5352
g74
(dp5353
g82
I1
ssg83
g5347
sg76
(lp5354
(lp5355
(g4818
(S's\x06\x00\x00\x00Groups'
tRp5356
I00
S'http://www.web2py.com/examples/default/usergroups'
p5357
tp5358
a(g4818
(S's\x07\x00\x00\x00Twitter'
tRp5359
I00
S'http://twitter.com/web2py'
p5360
tp5361
a(g4818
(S's\t\x00\x00\x00Live Chat'
tRp5362
I00
S'http://webchat.freenode.net/?channels=web2py'
p5363
tp5364
aasbasbasbasbasbasbasbag69
(g85
g71
NtRp5365
(dp5366
g74
(dp5367
sg83
g4932
sg76
(lp5368
g69
(g90
g71
NtRp5369
(dp5370
g74
(dp5371
sg83
g5365
sg76
(lp5372
g69
(g70
g71
NtRp5373
(dp5374
g74
(dp5375
g82
I2
ssg83
g5369
sg76
(lp5376
g69
(g78
g71
NtRp5377
(dp5378
g74
(dp5379
g82
I1
ssg83
Nsg76
(lp5380
g69
(g85
g71
NtRp5381
(dp5382
g74
(dp5383
sg83
g5377
sg76
(lp5384
g69
(g90
g71
NtRp5385
(dp5386
g74
(dp5387
sg83
g5381
sg76
(lp5388
g69
(g70
g71
NtRp5389
(dp5390
g74
(dp5391
g82
I1
ssg83
g5385
sg76
(lp5392
g4818
(S's\x07\x00\x00\x00Plugins'
tRp5393
asbasbasbag69
(g85
g71
NtRp5394
(dp5395
g74
(dp5396
sg83
g5377
sg76
(lp5397
g69
(g90
g71
NtRp5398
(dp5399
g74
(dp5400
sg83
g5394
sg76
(lp5401
g69
(g70
g71
NtRp5402
(dp5403
g74
(dp5404
g82
I1
ssg83
g5398
sg76
(lp5405
I00
asbasbasbag69
(g85
g71
NtRp5406
(dp5407
g74
(dp5408
sg83
g5377
sg76
(lp5409
g69
(g90
g71
NtRp5410
(dp5411
g74
(dp5412
sg83
g5406
sg76
(lp5413
g69
(g70
g71
NtRp5414
(dp5415
g74
(dp5416
g82
I1
ssg83
g5410
sg76
(lp5417
Nasbasbasbag69
(g85
g71
NtRp5418
(dp5419
g74
(dp5420
sg83
g5377
sg76
(lp5421
g69
(g90
g71
NtRp5422
(dp5423
g74
(dp5424
sg83
g5418
sg76
(lp5425
g69
(g70
g71
NtRp5426
(dp5427
g74
(dp5428
g82
I1
ssg83
g5422
sg76
(lp5429
(lp5430
(S'plugin_wiki'
p5431
I00
S'http://web2py.com/examples/default/download'
p5432
tp5433
a(g4818
(S's\r\x00\x00\x00Other Plugins'
tRp5434
I00
g5164
tp5435
a(g4818
(S's\x0e\x00\x00\x00Layout Plugins'
tRp5436
I00
g5167
tp5437
aasbasbasbasbasbasbasbasbasbasbasbasbasbasbasbasbasbasbasbag69
(g85
g71
NtRp5438
(dp5439
g74
(dp5440
sg83
g4240
sg76
(lp5441
g69
(g90
g71
NtRp5442
(dp5443
g74
(dp5444
g94
g95
ssg83
g5438
sg76
(lp5445
S'meta'
p5446
asbag69
(g90
g71
NtRp5447
(dp5448
g74
(dp5449
g101
g102
ssg83
g5438
sg76
(lp5450
S':'
asbag69
(g90
g71
NtRp5451
(dp5452
g74
(dp5453
sg83
g5438
sg76
(lp5454
g69
(g70
g71
NtRp5455
(dp5456
g74
(dp5457
g82
I5
ssg83
g5451
sg76
(lp5458
g69
(g78
g71
NtRp5459
(dp5460
g74
(dp5461
g82
I4
ssg83
Nsg76
(lp5462
g69
(g85
g71
NtRp5463
(dp5464
g74
(dp5465
sg83
g5459
sg76
(lp5466
g69
(g90
g71
NtRp5467
(dp5468
g74
(dp5469
g94
g95
ssg83
g5463
sg76
(lp5470
S'author'
p5471
asbag69
(g90
g71
NtRp5472
(dp5473
g74
(dp5474
g101
g102
ssg83
g5463
sg76
(lp5475
S':'
asbag69
(g90
g71
NtRp5476
(dp5477
g74
(dp5478
sg83
g5463
sg76
(lp5479
g69
(g70
g71
NtRp5480
(dp5481
g74
(dp5482
g82
I4
ssg83
g5476
sg76
(lp5483
S'Your Name <you@example.com>'
p5484
asbasbasbag69
(g85
g71
NtRp5485
(dp5486
g74
(dp5487
sg83
g5459
sg76
(lp5488
g69
(g90
g71
NtRp5489
(dp5490
g74
(dp5491
g94
g95
ssg83
g5485
sg76
(lp5492
S'description'
p5493
asbag69
(g90
g71
NtRp5494
(dp5495
g74
(dp5496
g101
g102
ssg83
g5485
sg76
(lp5497
S':'
asbag69
(g90
g71
NtRp5498
(dp5499
g74
(dp5500
sg83
g5485
sg76
(lp5501
g69
(g70
g71
NtRp5502
(dp5503
g74
(dp5504
g82
I4
ssg83
g5498
sg76
(lp5505
S'a cool new app'
p5506
asbasbasbag69
(g85
g71
NtRp5507
(dp5508
g74
(dp5509
sg83
g5459
sg76
(lp5510
g69
(g90
g71
NtRp5511
(dp5512
g74
(dp5513
g94
g95
ssg83
g5507
sg76
(lp5514
S'generator'
p5515
asbag69
(g90
g71
NtRp5516
(dp5517
g74
(dp5518
g101
g102
ssg83
g5507
sg76
(lp5519
S':'
asbag69
(g90
g71
NtRp5520
(dp5521
g74
(dp5522
sg83
g5507
sg76
(lp5523
g69
(g70
g71
NtRp5524
(dp5525
g74
(dp5526
g82
I4
ssg83
g5520
sg76
(lp5527
S'Web2py Web Framework'
p5528
asbasbasbag69
(g85
g71
NtRp5529
(dp5530
g74
(dp5531
sg83
g5459
sg76
(lp5532
g69
(g90
g71
NtRp5533
(dp5534
g74
(dp5535
g94
g95
ssg83
g5529
sg76
(lp5536
S'keywords'
p5537
asbag69
(g90
g71
NtRp5538
(dp5539
g74
(dp5540
g101
g102
ssg83
g5529
sg76
(lp5541
S':'
asbag69
(g90
g71
NtRp5542
(dp5543
g74
(dp5544
sg83
g5529
sg76
(lp5545
g69
(g70
g71
NtRp5546
(dp5547
g74
(dp5548
g82
I4
ssg83
g5542
sg76
(lp5549
S'web2py, python, framework'
p5550
asbasbasbasbasbasbasbag69
(g85
g71
NtRp5551
(dp5552
g74
(dp5553
sg83
g4240
sg76
(lp5554
g69
(g90
g71
NtRp5555
(dp5556
g74
(dp5557
g94
g95
ssg83
g5551
sg76
(lp5558
S'models_to_run'
p5559
asbag69
(g90
g71
NtRp5560
(dp5561
g74
(dp5562
g101
g102
ssg83
g5551
sg76
(lp5563
S':'
asbag69
(g90
g71
NtRp5564
(dp5565
g74
(dp5566
sg83
g5551
sg76
(lp5567
g69
(g70
g71
NtRp5568
(dp5569
g74
(dp5570
g82
I5
ssg83
g5564
sg76
(lp5571
g69
(g78
g71
NtRp5572
(dp5573
g74
(dp5574
g82
I4
ssg83
Nsg76
(lp5575
g69
(g85
g71
NtRp5576
(dp5577
g74
(dp5578
sg83
g5572
sg76
(lp5579
g69
(g90
g71
NtRp5580
(dp5581
g74
(dp5582
sg83
g5576
sg76
(lp5583
g69
(g70
g71
NtRp5584
(dp5585
g74
(dp5586
g82
I4
ssg83
g5580
sg76
(lp5587
S'^\\w+\\.py$'
p5588
asbasbasbag69
(g85
g71
NtRp5589
(dp5590
g74
(dp5591
sg83
g5572
sg76
(lp5592
g69
(g90
g71
NtRp5593
(dp5594
g74
(dp5595
sg83
g5589
sg76
(lp5596
g69
(g70
g71
NtRp5597
(dp5598
g74
(dp5599
g82
I4
ssg83
g5593
sg76
(lp5600
S'^default/\\w+\\.py$'
p5601
asbasbasbag69
(g85
g71
NtRp5602
(dp5603
g74
(dp5604
sg83
g5572
sg76
(lp5605
g69
(g90
g71
NtRp5606
(dp5607
g74
(dp5608
sg83
g5602
sg76
(lp5609
g69
(g70
g71
NtRp5610
(dp5611
g74
(dp5612
g82
I4
ssg83
g5606
sg76
(lp5613
S'^default/testDetails/\\w+\\.py$'
p5614
asbasbasbasbasbasbasbag69
(g85
g71
NtRp5615
(dp5616
g74
(dp5617
sg83
g4240
sg76
(lp5618
g69
(g90
g71
NtRp5619
(dp5620
g74
(dp5621
g94
g95
ssg83
g5615
sg76
(lp5622
S'postprocessing'
p5623
asbag69
(g90
g71
NtRp5624
(dp5625
g74
(dp5626
g101
g102
ssg83
g5615
sg76
(lp5627
S':'
asbag69
(g90
g71
NtRp5628
(dp5629
g74
(dp5630
sg83
g5615
sg76
(lp5631
g69
(g70
g71
NtRp5632
(dp5633
g74
(dp5634
g82
I5
ssg83
g5628
sg76
(lp5635
g69
(g78
g71
NtRp5636
(dp5637
g74
(dp5638
g82
I4
ssg83
Nsg76
(lp5639
sbasbasbasbag69
(g85
g71
NtRp5640
(dp5641
g74
(dp5642
sg83
g4240
sg76
(lp5643
g69
(g90
g71
NtRp5644
(dp5645
g74
(dp5646
g94
g95
ssg83
g5640
sg76
(lp5647
S'session_file'
p5648
asbag69
(g90
g71
NtRp5649
(dp5650
g74
(dp5651
g101
g102
ssg83
g5640
sg76
(lp5652
S':'
asbag69
(g90
g71
NtRp5653
(dp5654
g74
(dp5655
sg83
g5640
sg76
(lp5656
g69
(g70
g71
NtRp5657
(dp5658
g74
(dp5659
g82
I5
ssg83
g5653
sg76
(lp5660
S"<open file '/home/mayank/gitrepo/Twitter-Sentiment-Analysis/front-end/web2py/applications/TSAA/sessions/127.0.0.1-bfc8c8e4-324c-4089-8db1-78f978a67ea6', mode 'rb+' at 0x7fc1d4a39db0>"
p5661
asbasbasbag69
(g85
g71
NtRp5662
(dp5663
g74
(dp5664
sg83
g4240
sg76
(lp5665
g69
(g90
g71
NtRp5666
(dp5667
g74
(dp5668
g94
g95
ssg83
g5662
sg76
(lp5669
S'session_filename'
p5670
asbag69
(g90
g71
NtRp5671
(dp5672
g74
(dp5673
g101
g102
ssg83
g5662
sg76
(lp5674
S':'
asbag69
(g90
g71
NtRp5675
(dp5676
g74
(dp5677
sg83
g5662
sg76
(lp5678
g69
(g70
g71
NtRp5679
(dp5680
g74
(dp5681
g82
I5
ssg83
g5675
sg76
(lp5682
S'/home/mayank/gitrepo/Twitter-Sentiment-Analysis/front-end/web2py/applications/TSAA/sessions/127.0.0.1-bfc8c8e4-324c-4089-8db1-78f978a67ea6'
p5683
asbasbasbag69
(g85
g71
NtRp5684
(dp5685
g74
(dp5686
sg83
g4240
sg76
(lp5687
g69
(g90
g71
NtRp5688
(dp5689
g74
(dp5690
g94
g95
ssg83
g5684
sg76
(lp5691
S'session_id'
p5692
asbag69
(g90
g71
NtRp5693
(dp5694
g74
(dp5695
g101
g102
ssg83
g5684
sg76
(lp5696
S':'
asbag69
(g90
g71
NtRp5697
(dp5698
g74
(dp5699
sg83
g5684
sg76
(lp5700
g69
(g70
g71
NtRp5701
(dp5702
g74
(dp5703
g82
I5
ssg83
g5697
sg76
(lp5704
g1045
asbasbasbag69
(g85
g71
NtRp5705
(dp5706
g74
(dp5707
sg83
g4240
sg76
(lp5708
g69
(g90
g71
NtRp5709
(dp5710
g74
(dp5711
g94
g95
ssg83
g5705
sg76
(lp5712
S'session_id_name'
p5713
asbag69
(g90
g71
NtRp5714
(dp5715
g74
(dp5716
g101
g102
ssg83
g5705
sg76
(lp5717
S':'
asbag69
(g90
g71
NtRp5718
(dp5719
g74
(dp5720
sg83
g5705
sg76
(lp5721
g69
(g70
g71
NtRp5722
(dp5723
g74
(dp5724
g82
I5
ssg83
g5718
sg76
(lp5725
g4297
asbasbasbag69
(g85
g71
NtRp5726
(dp5727
g74
(dp5728
sg83
g4240
sg76
(lp5729
g69
(g90
g71
NtRp5730
(dp5731
g74
(dp5732
g94
g95
ssg83
g5726
sg76
(lp5733
S'session_locked'
p5734
asbag69
(g90
g71
NtRp5735
(dp5736
g74
(dp5737
g101
g102
ssg83
g5726
sg76
(lp5738
S':'
asbag69
(g90
g71
NtRp5739
(dp5740
g74
(dp5741
sg83
g5726
sg76
(lp5742
g69
(g70
g71
NtRp5743
(dp5744
g74
(dp5745
g82
I5
ssg83
g5739
sg76
(lp5746
g2315
asbasbasbag69
(g85
g71
NtRp5747
(dp5748
g74
(dp5749
sg83
g4240
sg76
(lp5750
g69
(g90
g71
NtRp5751
(dp5752
g74
(dp5753
g94
g95
ssg83
g5747
sg76
(lp5754
S'session_new'
p5755
asbag69
(g90
g71
NtRp5756
(dp5757
g74
(dp5758
g101
g102
ssg83
g5747
sg76
(lp5759
S':'
asbag69
(g90
g71
NtRp5760
(dp5761
g74
(dp5762
sg83
g5747
sg76
(lp5763
g69
(g70
g71
NtRp5764
(dp5765
g74
(dp5766
g82
I5
ssg83
g5760
sg76
(lp5767
g112
asbasbasbag69
(g85
g71
NtRp5768
(dp5769
g74
(dp5770
sg83
g4240
sg76
(lp5771
g69
(g90
g71
NtRp5772
(dp5773
g74
(dp5774
g94
g95
ssg83
g5768
sg76
(lp5775
S'status'
p5776
asbag69
(g90
g71
NtRp5777
(dp5778
g74
(dp5779
g101
g102
ssg83
g5768
sg76
(lp5780
S':'
asbag69
(g90
g71
NtRp5781
(dp5782
g74
(dp5783
sg83
g5768
sg76
(lp5784
g69
(g70
g71
NtRp5785
(dp5786
g74
(dp5787
g82
I5
ssg83
g5781
sg76
(lp5788
S'200'
p5789
asbasbasbag69
(g85
g71
NtRp5790
(dp5791
g74
(dp5792
sg83
g4240
sg76
(lp5793
g69
(g90
g71
NtRp5794
(dp5795
g74
(dp5796
g94
g95
ssg83
g5790
sg76
(lp5797
S'subtitle'
p5798
asbag69
(g90
g71
NtRp5799
(dp5800
g74
(dp5801
g101
g102
ssg83
g5790
sg76
(lp5802
S':'
asbag69
(g90
g71
NtRp5803
(dp5804
g74
(dp5805
sg83
g5790
sg76
(lp5806
g69
(g70
g71
NtRp5807
(dp5808
g74
(dp5809
g82
I5
ssg83
g5803
sg76
(lp5810
g4818
(S's\r\x00\x00\x00customize me!'
tRp5811
asbasbasbag69
(g85
g71
NtRp5812
(dp5813
g74
(dp5814
sg83
g4240
sg76
(lp5815
g69
(g90
g71
NtRp5816
(dp5817
g74
(dp5818
g94
g95
ssg83
g5812
sg76
(lp5819
S'title'
p5820
asbag69
(g90
g71
NtRp5821
(dp5822
g74
(dp5823
g101
g102
ssg83
g5812
sg76
(lp5824
S':'
asbag69
(g90
g71
NtRp5825
(dp5826
g74
(dp5827
sg83
g5812
sg76
(lp5828
g69
(g70
g71
NtRp5829
(dp5830
g74
(dp5831
g82
I5
ssg83
g5825
sg76
(lp5832
S'Tsaa'
p5833
asbasbasbag69
(g85
g71
NtRp5834
(dp5835
g74
(dp5836
sg83
g4240
sg76
(lp5837
g69
(g90
g71
NtRp5838
(dp5839
g74
(dp5840
g94
g95
ssg83
g5834
sg76
(lp5841
S'view'
p5842
asbag69
(g90
g71
NtRp5843
(dp5844
g74
(dp5845
g101
g102
ssg83
g5834
sg76
(lp5846
S':'
asbag69
(g90
g71
NtRp5847
(dp5848
g74
(dp5849
sg83
g5834
sg76
(lp5850
g69
(g70
g71
NtRp5851
(dp5852
g74
(dp5853
g82
I5
ssg83
g5847
sg76
(lp5854
S'default/testDetails.html'
p5855
asbasbasbasbasbsS'locals'
p5856
(dp5857
g4
S"'/home/mayank/gitrepo/Twitter-Sentiment-Analysis/...d/web2py/applications/TSAA/controllers/default.py'"
p5858
sg6
S"'# -*- coding: utf-8 -*-\\n# this file is released ...))\\n\\nresponse._vars=response._caller(testDetails)\\n'"
p5859
sssS'traceback'
p5860
S'Traceback (most recent call last):\n  File "/home/mayank/gitrepo/Twitter-Sentiment-Analysis/front-end/web2py/gluon/restricted.py", line 208, in restricted\n    ccode = compile2(code,layer)\n  File "/home/mayank/gitrepo/Twitter-Sentiment-Analysis/front-end/web2py/gluon/restricted.py", line 193, in compile2\n    return compile(code.rstrip().replace(\'\\r\\n\',\'\\n\')+\'\\n\', layer, \'exec\')\n  File "/home/mayank/gitrepo/Twitter-Sentiment-Analysis/front-end/web2py/applications/TSAA/controllers/default.py", line 72\n    if total=0:\n            ^\nSyntaxError: invalid syntax\n'
p5861
s.