(dp1
S'output'
p2
S"<type 'exceptions.AttributeError'> 'Row' object has no attribute 'Status'"
p3
sS'layer'
p4
S'/home/mayank/gitrepo/Twitter-Sentiment-Analysis/front-end/web2py/applications/TSAA/views/default/testDetails.html'
p5
sS'code'
p6
S'response.write(\'<!DOCTYPE html>\\r\\n<!-- paulirish.com/2008/conditional-stylesheets-vs-css-hacks-answer-neither/ -->\\r\\n<!--[if lt IE 7]><html class="ie ie6 ie-lte9 ie-lte8 ie-lte7 no-js" lang="\', escape=False)\nresponse.write(T.accepted_language or \'en\')\nresponse.write(\'"> <![endif]-->\\r\\n<!--[if IE 7]><html class="ie ie7 ie-lte9 ie-lte8 ie-lte7 no-js" lang="\', escape=False)\nresponse.write(T.accepted_language or \'en\')\nresponse.write(\'"> <![endif]-->\\r\\n<!--[if IE 8]><html class="ie ie8 ie-lte9 ie-lte8 no-js" lang="\', escape=False)\nresponse.write(T.accepted_language or \'en\')\nresponse.write(\'"> <![endif]-->\\r\\n<!--[if IE 9]><html class="ie9 ie-lte9 no-js" lang="\', escape=False)\nresponse.write(T.accepted_language or \'en\')\nresponse.write(\'"> <![endif]-->\\r\\n<!--[if (gt IE 9)|!(IE)]><!--> <html class="no-js" lang="\', escape=False)\nresponse.write(T.accepted_language or \'en\')\nresponse.write(\'"> <!--<![endif]-->\\r\\n<html>\\r\\n<head>\\r\\n    <meta http-equiv="Content-Type" content="text/html; charset=utf-8">\\r\\n\\t<meta name="viewport" content="width=device-width, initial-scale=1.0">\\r\\n  \\r\\n  <!-- http://dev.w3.org/html5/markup/meta.name.html -->\\r\\n  <meta name="application-name" content="\', escape=False)\nresponse.write(request.application)\nresponse.write(\'" />\\r\\n  \\r\\n  <!-- Speaking of Google, don\\\'t forget to set your site up:\\r\\n       http://google.com/webmasters -->\\r\\n  <meta name="google-site-verification" content="" />\\r\\n  \\r\\n  <!--  Mobile Viewport Fix\\r\\n\\tj.mp/mobileviewport & davidbcalhoun.com/2010/viewport-metatag\\r\\n\\tdevice-width: Occupy full width of the screen in its current orientation\\r\\n\\tinitial-scale = 1.0 retains dimensions instead of zooming out if page height > device height\\r\\n\\tuser-scalable = yes allows the user to zoom in -->\\r\\n  <meta name="viewport" content="width=device-width, initial-scale=1.0">\\r\\n  <title>\', escape=False)\nresponse.write(response.title or request.application)\nresponse.write(\'</title>\\r\\n  <link rel="shortcut icon" href="\', escape=False)\nresponse.write(URL(\'static\',\'images/favicon.ico\'))\nresponse.write(\'" type="image/x-icon">\\r\\n  <link rel="apple-touch-icon" href="\', escape=False)\nresponse.write(URL(\'static\',\'images/favicon.png\'))\nresponse.write(\'">\\r\\n  \\r\\n  <!-- All JavaScript at the bottom, except for Modernizr which enables \\r\\n\\r\\n       HTML5 elements & feature detects -->\\r\\n  <script src="\', escape=False)\nresponse.write(URL(\'static\',\'js/modernizr.custom.js\'))\nresponse.write(\'"></script>   \\r\\n  \\r\\n  <!-- include stylesheets -->\\r\\n  \', escape=False)\nresponse.files.append(URL(\'static\',"css/bootstrap/bootstrap.css"))\nresponse.files.append(URL(\'static\',"css/bootstrap/bootstrap-responsive.css"))\nresponse.files.append(URL(\'static\',\'css/web2py.css\'))\nresponse.files.append(URL(\'static\',\'css/web2py_bootstrap.css\'))\nresponse.files.append(URL(\'static\',"css/bootstrap/bootstrap-overrides.css"))\nresponse.files.append(URL(\'static\',"css/lib/uniform.default.css"))\nresponse.files.append(URL(\'static\',"css/lib/jquery-ui-1.10.2.custom.css"))\nresponse.files.append(URL(\'static\',"css/lib/font-awesome.css"))\nresponse.files.append(URL(\'static\',"css/layout.css"))\nresponse.files.append(URL(\'static\',"css/elements.css"))\nresponse.files.append(URL(\'static\',"css/icons.css"))\nresponse.files.append(URL(\'static\',"css/compiled/index.css"))\nresponse.files.append(URL(\'static\',"css/css5c84.css?family=Open+Sans:300italic,400italic,600italic,700italic,800italic,400,300,600,700,800"))\nresponse.files.append(URL(\'static\',"css/cssef21.css?family=Lato:300,400,700,900,300italic,400italic,700italic,900italic"))\nresponse.write(\'\\r\\n\\r\\n  \', escape=False)\nresponse.write(\'<script type="text/javascript"><!--\\n    // These variables are used by the web2py_ajax_init function in web2py_ajax.js (which is loaded below).\\n    var w2p_ajax_confirm_message = "\', escape=False)\nresponse.write(T(\'Are you sure you want to delete this object?\'))\nresponse.write(\'";\\n    var w2p_ajax_date_format = "\', escape=False)\nresponse.write(T(\'%Y-%m-%d\'))\nresponse.write(\'";\\n    var w2p_ajax_datetime_format = "\', escape=False)\nresponse.write(T(\'%Y-%m-%d %H:%M:%S\'))\nresponse.write(\'";\\n    //--></script>\\n\', escape=False)\nresponse.files.insert(0,URL(\'static\',\'js/jquery.js\'))\nresponse.files.insert(1,URL(\'static\',\'css/calendar.css\'))\nresponse.files.insert(2,URL(\'static\',\'js/calendar.js\'))\nresponse.files.insert(3,URL(\'static\',\'js/web2py.js\'))\nresponse.include_meta()\nresponse.include_files()\nresponse.write(\'\\n\', escape=False)\nresponse.write(\'\\r\\n  \\r\\n  \', escape=False)\n# using sidebars need to know what sidebar you want to use\nleft_sidebar_enabled = globals().get(\'left_sidebar_enabled\',False)\nright_sidebar_enabled = globals().get(\'right_sidebar_enabled\',False)\nmiddle_columns = {0:\'span12\',1:\'span9\',2:\'span6\'}[\n(left_sidebar_enabled and 1 or 0)+(right_sidebar_enabled and 1 or 0)]\nresponse.write(\'\\r\\n\\r\\n  <noscript><link href="\', escape=False)\nresponse.write(URL(\'static\', \'css/web2py_bootstrap_nojs.css\'))\nresponse.write(\'" rel="stylesheet" type="text/css" /></noscript>\\r\\n  \', escape=False)\nresponse.write(\'\\r\\n  \\r\\n  <!--[if lt IE 9]>\\r\\n      <script src="http://html5shim.googlecode.com/svn/trunk/html5.js"></script>\\r\\n    <![endif]-->\\r\\n   <style>\\r\\n   .box {\\r\\nmargin: 0 auto;\\r\\npadding: 35px 0 30px;\\r\\nfloat: none;\\r\\nwidth: 700px;\\r\\nborder-radius: 5px;\\r\\nbackground-color: #f7f7f7;\\r\\n   }\\r\\n   </style>\\r\\n</head>\\r\\n<body>\\r\\n  <!-- navbar -->\\r\\n    <div class="navbar navbar-inverse">\\r\\n        <div class="navbar-inner">\\r\\n            <button type="button" class="btn btn-navbar visible-phone" id="menu-toggler">\\r\\n                <span class="icon-bar"></span>\\r\\n                <span class="icon-bar"></span>\\r\\n                <span class="icon-bar"></span>\\r\\n            </button>\\r\\n            \\r\\n            <a class="brand" href="index.html">\', escape=False)\nresponse.write(response.title or request.application)\nresponse.write(\'</a>\\r\\n\\t\\t\', escape=False)\nurl=request.url.split(\'/\')[-1]\nresponse.write(\'\\r\\n            <ul class="nav pull-right">        \\r\\n\\t    \\t<!--\\r\\n                <li class="hidden-phone">\\r\\n                    <input class="search" type="text" />\\r\\n                </li>\\r\\n                <li class="notification-dropdown hidden-phone">\\r\\n                    <a href="#" class="trigger">\\r\\n                        <i class="icon-warning-sign"></i>\\r\\n                        <span class="count">8</span>\\r\\n                    </a>\\r\\n                    <div class="pop-dialog">\\r\\n                        <div class="pointer right">\\r\\n                            <div class="arrow"></div>\\r\\n                            <div class="arrow_border"></div>\\r\\n                        </div>\\r\\n                        <div class="body">\\r\\n                            <a href="#" class="close-icon"><i class="icon-remove-sign"></i></a>\\r\\n                            <div class="notifications">\\r\\n                                <h3>You have 6 new notifications</h3>\\r\\n                                <a href="#" class="item">\\r\\n                                    <i class="icon-signin"></i> New user registration\\r\\n                                    <span class="time"><i class="icon-time"></i> 13 min.</span>\\r\\n                                </a>\\r\\n                                <a href="#" class="item">\\r\\n                                    <i class="icon-signin"></i> New user registration\\r\\n                                    <span class="time"><i class="icon-time"></i> 18 min.</span>\\r\\n                                </a>\\r\\n                                <a href="#" class="item">\\r\\n                                    <i class="icon-envelope-alt"></i> New message from Alejandra\\r\\n                                    <span class="time"><i class="icon-time"></i> 28 min.</span>\\r\\n                                </a>\\r\\n                                <a href="#" class="item">\\r\\n                                    <i class="icon-signin"></i> New user registration\\r\\n                                    <span class="time"><i class="icon-time"></i> 49 min.</span>\\r\\n                                </a>\\r\\n                                <a href="#" class="item">\\r\\n                                    <i class="icon-download-alt"></i> New order placed\\r\\n                                    <span class="time"><i class="icon-time"></i> 1 day.</span>\\r\\n                                </a>\\r\\n                                <div class="footer">\\r\\n                                    <a href="#" class="logout">View all notifications</a>\\r\\n                                </div>\\r\\n                            </div>\\r\\n                        </div>\\r\\n                    </div>\\r\\n                </li>\\r\\n                <li class="notification-dropdown hidden-phone">\\r\\n                    <a href="#" class="trigger">\\r\\n                        <i class="icon-envelope-alt"></i>\\r\\n                    </a>\\r\\n                    <div class="pop-dialog">\\r\\n                        <div class="pointer right">\\r\\n                            <div class="arrow"></div>\\r\\n                            <div class="arrow_border"></div>\\r\\n                        </div>\\r\\n                        <div class="body">\\r\\n                            <a href="#" class="close-icon"><i class="icon-remove-sign"></i></a>\\r\\n                            <div class="messages">\\r\\n                                <a href="#" class="item">\\r\\n                                    <img src="img/contact-img.png" class="display" />\\r\\n                                    <div class="name">Alejandra Galv\\xc3\\xa1n</div>\\r\\n                                    <div class="msg">\\r\\n                                        There are many variations of available, but the majority have suffered alterations.\\r\\n                                    </div>\\r\\n                                    <span class="time"><i class="icon-time"></i> 13 min.</span>\\r\\n                                </a>\\r\\n                                <a href="#" class="item">\\r\\n                                    <img src="img/contact-img2.png" class="display" />\\r\\n                                    <div class="name">Alejandra Galv\\xc3\\xa1n</div>\\r\\n                                    <div class="msg">\\r\\n                                        There are many variations of available, have suffered alterations.\\r\\n                                    </div>\\r\\n                                    <span class="time"><i class="icon-time"></i> 26 min.</span>\\r\\n                                </a>\\r\\n                                <a href="#" class="item last">\\r\\n                                    <img src="img/contact-img.png" class="display" />\\r\\n                                    <div class="name">Alejandra Galv\\xc3\\xa1n</div>\\r\\n                                    <div class="msg">\\r\\n                                        There are many variations of available, but the majority have suffered alterations.\\r\\n                                    </div>\\r\\n                                    <span class="time"><i class="icon-time"></i> 48 min.</span>\\r\\n                                </a>\\r\\n                                <div class="footer">\\r\\n                                    <a href="#" class="logout">View all messages</a>\\r\\n                                </div>\\r\\n                            </div>\\r\\n                        </div>\\r\\n                    </div>\\r\\n                </li>\\r\\n\\t\\t\\t-->\\r\\n                <li class="dropdown">\\r\\n                    <a href="#" class="dropdown-toggle hidden-phone" data-toggle="dropdown">\\r\\n\\t\\t\\t\', escape=False)\nresponse.write(auth.user.first_name+\' \'+auth.user.last_name)\nresponse.write(\'\\r\\n                        <b class="caret"></b>\\r\\n                    </a>\\r\\n                    <ul class="dropdown-menu">\\r\\n                        <li><a href="\', escape=False)\nresponse.write(URL(r = request, f = \'user\' ,args=\'logout\'))\nresponse.write(\'">SignOut</a></li>\\r\\n                        <li><a href="#">About</a></li>\\r\\n                    </ul>\\r\\n                </li>\\r\\n                <li class="settings hidden-phone">\\r\\n                    <a href="\', escape=False)\nresponse.write(URL(r = request, f = \'user\' ,args=\'login\'))\nresponse.write(\'" role="button">\\r\\n                        <i class="icon-share-alt"></i>\\r\\n                    </a>\\r\\n                </li>\\r\\n            </ul>            \\r\\n        </div>\\r\\n    </div>\\r\\n    <!-- end navbar -->\\r\\n\\r\\n    <!-- sidebar -->\\r\\n    <div id="sidebar-nav">\\r\\n        <ul id="dashboard-menu">\\r\\n\\t\\t\', escape=False)\nprint url\nresponse.write(\'\\r\\n            <li \', escape=False)\nif url==\'index\' :\n    response.write(\'class="active"\', escape=False)\n    pass\nresponse.write(\'>\\r\\n\\t    \\t\', escape=False)\nif url==\'index\' :\n    response.write(\'\\r\\n                <div class="pointer">\\r\\n                    <div class="arrow"></div>\\r\\n                    <div class="arrow_border"></div>\\r\\n                </div>\\r\\n\\t\\t\', escape=False)\n    pass\nresponse.write(\'\\r\\n                <a href="\', escape=False)\nresponse.write(URL(r = request, f = \'index\'))\nresponse.write(\'">\\r\\n                    <i class="icon-home"></i>\\r\\n                    <span>Home</span>\\r\\n                </a>\\r\\n            </li>            \\r\\n            <li \', escape=False)\nif url==\'addTest\' :\n    response.write(\'class="active"\', escape=False)\n    pass\nresponse.write(\'>\\r\\n\\t    \\t\', escape=False)\nif url==\'addTest\' :\n    response.write(\'\\r\\n                <div class="pointer">\\r\\n                    <div class="arrow"></div>\\r\\n                    <div class="arrow_border"></div>\\r\\n                </div>\\r\\n\\t\\t\', escape=False)\n    pass\nresponse.write(\'\\r\\n                <a href="\', escape=False)\nresponse.write(URL(r = request, f = \'addTest\'))\nresponse.write(\'">\\r\\n                    <i class="icon-edit"></i>\\r\\n                    <span>AddTest</span>\\r\\n                </a>\\r\\n            </li>\\r\\n            <li \', escape=False)\nif url==\'testDetails\' :\n    response.write(\'class="active"\', escape=False)\n    pass\nresponse.write(\'>\\r\\n\\t    \\t\', escape=False)\nif url==\'testDetails\' :\n    response.write(\'\\r\\n                <div class="pointer">\\r\\n                    <div class="arrow"></div>\\r\\n                    <div class="arrow_border"></div>\\r\\n                </div>\\r\\n\\t\\t\', escape=False)\n    pass\nresponse.write(\'\\r\\n                <a href="\', escape=False)\nresponse.write(URL(r = request, f = \'testDetails\'))\nresponse.write(\'">\\r\\n                    <i class="icon-signal"></i>\\r\\n                    <span>Show Test Details</span>\\r\\n                </a>\\r\\n                </li>\\r\\n                <li>\\r\\n                <a class="dropdown-toggle" href="#">\\r\\n                    <i class="icon-group"></i>\\r\\n                    <span>Developers</span>\\r\\n                    <i class="icon-chevron-down"></i>\\r\\n                </a>\\r\\n                <ul class="submenu">\\r\\n                    <li><a href=\\\'https://github.com/mayank93\\\'>Mayank Gupta</a></li>\\r\\n                    <li><a href=\\\'#\\\'>Ayushi Dalmia</a></li>\\r\\n                    <li><a href=\\\'#\\\'>Arpit Jaiswal</a></li>\\r\\n                    <li><a href=\\\'#\\\'>Chinthala Tharun Reddy</a></li>\\r\\n\\r\\n                </ul>\\r\\n                </li>\\r\\n        </ul>\\r\\n    </div>\\r\\n    <!-- end sidebar -->\\r\\n  \\r\\n  <div >\\r\\n    <div class="flash">\', escape=False)\nresponse.write(response.flash or \'\')\nresponse.write(\'</div>\\r\\n\\r\\n   \\t  \', escape=False)\nresponse.write(\'\\n\\t<!-- main container -->\\n    <div class="content">\\n        <div class="container-fluid">\\n\\n            <div id="pad-wrapper">\\n\\n                <!-- table sample -->\\n                <!-- the script for the toggle all checkboxes from header is located in js/theme.js -->\\n                <div class="table-products section">\\n                    <div class="row-fluid head">\\n                        <div class="span12">\\n                            <h4>Tests <small>Status</small></h4>\\n                        </div>\\n                    </div>\\n                    <div class="row-fluid">\\n                        <table class="table table-hover">\\n                            <thead>\\n                                <tr>\\n                                    <th class="span3">\\n                                        Test Name\\n                                    </th>\\n                                    <th class="span3">\\n                                        <span class="line"></span>Tweet\\n                                    </th>\\n                                    <th class="span3">\\n                                        <span class="line"></span>Status\\n                                    </th>\\n                                    <th class="span3">\\n                                        <span class="line"></span>Type\\n                                    </th>\\n                                    <th class="span3">\\n                                        <span class="line"></span>Phrase\\n                                    </th>\\n                                </tr>\\n                            </thead>\\n                            <tbody>\\n                                <!-- row -->\\n\\t\\t\\t\\t\', escape=False)\nfor i in sentDetails:\n    response.write(\'\\n\\t\\t\\t\\t\', escape=False)\n    print i\n    response.write(\'\\n                                <tr>\\n                                    <td>\\n                                        <a href="\', escape=False)\n    response.write(URL(r = request, f = \'test\' ,args=[i.id,\'Sentence\']))\n    response.write(\'">\', escape=False)\n    response.write(i.TestName)\n    response.write(\'</a>\\n                                    </td>\\n                                    <td class="description">\\n\\t\\t\\t\\t\\t\', escape=False)\n    response.write(i.Tweet)\n    response.write(\'\\n                                    </td>\\n                                    <td>\\n\\t\\t\\t\\t    \\t<span class="label label-info">\', escape=False)\n    response.write(i.Status)\n    response.write(\'</span>\\n\\t\\t\\t\\t    \\t<!--span class="label label-success">Complete</span-->\\n                                    </td>\\n                                    <td>\\n\\t\\t\\t\\t\\t<span class="label label-info">Sentence</span>\\n                                    </td>\\n                                    <td>\\n\\t\\t\\t\\t    \\t<span class="label label-info">N/A</span>\\n                                    </td>\\n                                </tr>\\n\\t\\t\\t\\t\', escape=False)\n    pass\nresponse.write(\'\\n                                <!-- row -->\\n\\n                                <!-- row -->\\n\\t\\t\\t\\t\', escape=False)\nfor i in phraseDetails:\n    response.write(\'\\n\\t\\t\\t\\t\', escape=False)\n    print i\n    response.write(\'\\n                                <tr>\\n                                    <td>\\n                                        <a href="\', escape=False)\n    response.write(URL(r = request, f = \'test\' ,args=[i.id,\'Phrase\']))\n    response.write(\'">\', escape=False)\n    response.write(i.TestName)\n    response.write(\'</a>\\n                                    </td>\\n                                    <td class="description">\\n\\t\\t\\t\\t\\t\', escape=False)\n    response.write(i.Tweet)\n    response.write(\'\\n                                    </td>\\n                                    <td>\\n\\t\\t\\t\\t    \\t<span class="label label-info">\', escape=False)\n    response.write(i.Status)\n    response.write(\'</span>\\n\\t\\t\\t\\t    \\t<!--span class="label label-success">Complete</span-->\\n                                    </td>\\n                                    <td>\\n\\t\\t\\t\\t\\t<span class="label label-info">Phrase</span>\\n                                    </td>\\n                                    <td>\\n\\t\\t\\t\\t    \\t<span class="label label-info">\', escape=False)\n    response.write(i.Phrase)\n    response.write(\'</span>\\n                                    </td>\\n                                </tr>\\n\\t\\t\\t\\t\', escape=False)\n    pass\nresponse.write(\'\\n                                <!-- row -->\\n                            </tbody>   \\n                        </table>\\n                    </div>\\n\\t\\t    </div>\\n\\t\\t    <!-- end table sample -->\\n\\t\\t    </div>\\n\\t\\t    </div>\\n\\t\\t    </div>\\n\\n\', escape=False)\nresponse.write(\'\\r\\n \\r\\n    <!-- Footer ================================================== -->\\r\\n    <footer class="footer" id="footer">\\r\\n      \', escape=False)\nresponse.write(\' <!-- this is default footer -->\\r\\n      <div class="footer-content">\\r\\n\\t<div class="copyright pull-left">\', escape=False)\nresponse.write(T(\'Copyright\'))\nresponse.write(\' &#169; \', escape=False)\nresponse.write(request.now.year)\nresponse.write(\'</div>\\r\\n\\t<div id="poweredBy" class="pull-right">\\r\\n\\t  \', escape=False)\nresponse.write(T(\'Powered by\'))\nresponse.write(\'\\r\\n\\t  <a href="http://www.web2py.com/">web2py</a>\\r\\n\\t</div>\\r\\n      </div>\\r\\n      \', escape=False)\nresponse.write(\'\\r\\n    </footer>\\r\\n    \\r\\n  </div> <!-- /container -->\\r\\n\\r\\n\\r\\n\\r\\n    <script src="\', escape=False)\nresponse.write(URL(\'static\',\'js/jquery-latest.js\'))\nresponse.write(\'"></script>\\r\\n    <script src="\', escape=False)\nresponse.write(URL(\'static\',\'js/bootstrap.min.js\'))\nresponse.write(\'"></script>\\r\\n    <script src="\', escape=False)\nresponse.write(URL(\'static\',\'js/jquery-ui-1.10.2.custom.min.js\'))\nresponse.write(\'"></script>\\r\\n    <!-- knob -->\\r\\n    <script src="\', escape=False)\nresponse.write(URL(\'static\',\'js/jquery.knob.js\'))\nresponse.write(\'"></script>\\r\\n    <!-- flot charts -->\\r\\n    <script src="\', escape=False)\nresponse.write(URL(\'static\',\'js/jquery.uniform.min.js\'))\nresponse.write(\'"></script>\\r\\n    <script src="\', escape=False)\nresponse.write(URL(\'static\',\'js/jquery.flot.js\'))\nresponse.write(\'"></script>\\r\\n    <script src="\', escape=False)\nresponse.write(URL(\'static\',\'js/jquery.flot.stack.js\'))\nresponse.write(\'"></script>\\r\\n    <script src="\', escape=False)\nresponse.write(URL(\'static\',\'js/jquery.flot.resize.js\'))\nresponse.write(\'"></script>\\r\\n    <script src="\', escape=False)\nresponse.write(URL(\'static\',\'js/theme.js\'))\nresponse.write(\'"></script>\\r\\n    <script src="\', escape=False)\nresponse.write(URL(\'static\',\'js/jquery.validate.min.js\'))\nresponse.write(\'"></script>\\r\\n  <!--[if lt IE 7 ]>\\r\\n      <script src="\', escape=False)\nresponse.write(URL(\'static\',\'js/dd_belatedpng.js\'))\nresponse.write(\'"></script>\\r\\n      <script> DD_belatedPNG.fix(\\\'img, .png_bg\\\'); //fix any <img> or .png_bg background-images </script>\\r\\n      <![endif]-->\\r\\n  \', escape=False)\nif response.google_analytics_id:\n    response.write(\'<script type="text/javascript"> var _gaq = _gaq || []; _gaq.push([\\\'_setAccount\\\', \\\'\', escape=False)\n    response.write(response.google_analytics_id)\n    response.write("\']); _gaq.push([\'_trackPageview\']); (function() { var ga = document.createElement(\'script\'); ga.type = \'text/javascript\'; ga.async = true; ga.src = (\'https:\' == document.location.protocol ? \'https://ssl\' : \'http://www\') + \'.google-analytics.com/ga.js\'; var s = document.getElementsByTagName(\'script\')[0]; s.parentNode.insertBefore(ga, s); })(); </script> ", escape=False)\n    pass\nresponse.write(\'\\r\\n  <script src="\', escape=False)\nresponse.write(URL(\'static\',\'js/share.js\',vars=dict(static=URL(\'static\',\'images\'))))\nresponse.write(\'"></script>  \\r\\n</body>\\r\\n</html>\\r\\n\', escape=False)'
p7
sS'snapshot'
p8
(dp9
S'exception'
p10
(dp11
S'__hash__'
p12
S"<method-wrapper '__hash__' of exceptions.AttributeError object>"
p13
sS'__setattr__'
p14
S"<method-wrapper '__setattr__' of exceptions.AttributeError object>"
p15
sS'__reduce_ex__'
p16
S'<built-in method __reduce_ex__ of exceptions.AttributeError object>'
p17
sS'__getslice__'
p18
S"<method-wrapper '__getslice__' of exceptions.AttributeError object>"
p19
sS'__getitem__'
p20
S"<method-wrapper '__getitem__' of exceptions.AttributeError object>"
p21
sS'__setstate__'
p22
S'<built-in method __setstate__ of exceptions.AttributeError object>'
p23
sS'args'
p24
S'("\'Row\' object has no attribute \'Status\'",)'
p25
sS'__reduce__'
p26
S'<built-in method __reduce__ of exceptions.AttributeError object>'
p27
sS'__str__'
p28
S"<method-wrapper '__str__' of exceptions.AttributeError object>"
p29
sS'__format__'
p30
S'<built-in method __format__ of exceptions.AttributeError object>'
p31
sS'__getattribute__'
p32
S"<method-wrapper '__getattribute__' of exceptions.AttributeError object>"
p33
sS'__class__'
p34
S"<type 'exceptions.AttributeError'>"
p35
sS'__unicode__'
p36
S'<built-in method __unicode__ of exceptions.AttributeError object>'
p37
sS'__delattr__'
p38
S"<method-wrapper '__delattr__' of exceptions.AttributeError object>"
p39
sS'__subclasshook__'
p40
S'<built-in method __subclasshook__ of type object>'
p41
sS'__repr__'
p42
S"<method-wrapper '__repr__' of exceptions.AttributeError object>"
p43
sS'__dict__'
p44
S'{}'
p45
sS'__sizeof__'
p46
S'<built-in method __sizeof__ of exceptions.AttributeError object>'
p47
sS'__doc__'
p48
S"'Attribute not found.'"
p49
sS'__init__'
p50
S"<method-wrapper '__init__' of exceptions.AttributeError object>"
p51
sS'__new__'
p52
S'<built-in method __new__ of type object>'
p53
ssS'evalue'
p54
S"'Row' object has no attribute 'Status'"
p55
sS'request'
p56
ccopy_reg
_reconstructor
p57
(cgluon.html
BEAUTIFY
p58
c__builtin__
object
p59
NtRp60
(dp61
S'attributes'
p62
(dp63
sS'components'
p64
(lp65
g57
(cgluon.html
TABLE
p66
g59
NtRp67
(dp68
g62
(dp69
S'level'
p70
I5
ssS'parent'
p71
Nsg64
(lp72
g57
(cgluon.html
TR
p73
g59
NtRp74
(dp75
g62
(dp76
sg71
g67
sg64
(lp77
g57
(cgluon.html
TD
p78
g59
NtRp79
(dp80
g62
(dp81
S'_style'
p82
S'font-weight:bold;vertical-align:top'
p83
ssg71
g74
sg64
(lp84
S'ajax'
p85
asbag57
(g78
g59
NtRp86
(dp87
g62
(dp88
S'_valign'
p89
S'top'
p90
ssg71
g74
sg64
(lp91
S':'
asbag57
(g78
g59
NtRp92
(dp93
g62
(dp94
sg71
g74
sg64
(lp95
g57
(g58
g59
NtRp96
(dp97
g62
(dp98
g70
I5
ssg71
g92
sg64
(lp99
S'False'
p100
asbasbasbag57
(g73
g59
NtRp101
(dp102
g62
(dp103
sg71
g67
sg64
(lp104
g57
(g78
g59
NtRp105
(dp106
g62
(dp107
g82
g83
ssg71
g101
sg64
(lp108
S'application'
p109
asbag57
(g78
g59
NtRp110
(dp111
g62
(dp112
g89
g90
ssg71
g101
sg64
(lp113
S':'
asbag57
(g78
g59
NtRp114
(dp115
g62
(dp116
sg71
g101
sg64
(lp117
g57
(g58
g59
NtRp118
(dp119
g62
(dp120
g70
I5
ssg71
g114
sg64
(lp121
S'TSAA'
p122
asbasbasbag57
(g73
g59
NtRp123
(dp124
g62
(dp125
sg71
g67
sg64
(lp126
g57
(g78
g59
NtRp127
(dp128
g62
(dp129
g82
g83
ssg71
g123
sg64
(lp130
g24
asbag57
(g78
g59
NtRp131
(dp132
g62
(dp133
g89
g90
ssg71
g123
sg64
(lp134
S':'
asbag57
(g78
g59
NtRp135
(dp136
g62
(dp137
sg71
g123
sg64
(lp138
g57
(g58
g59
NtRp139
(dp140
g62
(dp141
g70
I5
ssg71
g135
sg64
(lp142
g57
(g66
g59
NtRp143
(dp144
g62
(dp145
g70
I4
ssg71
Nsg64
(lp146
sbasbasbasbag57
(g73
g59
NtRp147
(dp148
g62
(dp149
sg71
g67
sg64
(lp150
g57
(g78
g59
NtRp151
(dp152
g62
(dp153
g82
g83
ssg71
g147
sg64
(lp154
S'body'
p155
asbag57
(g78
g59
NtRp156
(dp157
g62
(dp158
g89
g90
ssg71
g147
sg64
(lp159
S':'
asbag57
(g78
g59
NtRp160
(dp161
g62
(dp162
sg71
g147
sg64
(lp163
g57
(g58
g59
NtRp164
(dp165
g62
(dp166
g70
I5
ssg71
g160
sg64
(lp167
S'<cStringIO.StringO object at 0x7f87842d92d0>'
p168
asbasbasbag57
(g73
g59
NtRp169
(dp170
g62
(dp171
sg71
g67
sg64
(lp172
g57
(g78
g59
NtRp173
(dp174
g62
(dp175
g82
g83
ssg71
g169
sg64
(lp176
S'cid'
p177
asbag57
(g78
g59
NtRp178
(dp179
g62
(dp180
g89
g90
ssg71
g169
sg64
(lp181
S':'
asbag57
(g78
g59
NtRp182
(dp183
g62
(dp184
sg71
g169
sg64
(lp185
g57
(g58
g59
NtRp186
(dp187
g62
(dp188
g70
I5
ssg71
g182
sg64
(lp189
S'None'
p190
asbasbasbag57
(g73
g59
NtRp191
(dp192
g62
(dp193
sg71
g67
sg64
(lp194
g57
(g78
g59
NtRp195
(dp196
g62
(dp197
g82
g83
ssg71
g191
sg64
(lp198
S'client'
p199
asbag57
(g78
g59
NtRp200
(dp201
g62
(dp202
g89
g90
ssg71
g191
sg64
(lp203
S':'
asbag57
(g78
g59
NtRp204
(dp205
g62
(dp206
sg71
g191
sg64
(lp207
g57
(g58
g59
NtRp208
(dp209
g62
(dp210
g70
I5
ssg71
g204
sg64
(lp211
S'127.0.0.1'
p212
asbasbasbag57
(g73
g59
NtRp213
(dp214
g62
(dp215
sg71
g67
sg64
(lp216
g57
(g78
g59
NtRp217
(dp218
g62
(dp219
g82
g83
ssg71
g213
sg64
(lp220
S'controller'
p221
asbag57
(g78
g59
NtRp222
(dp223
g62
(dp224
g89
g90
ssg71
g213
sg64
(lp225
S':'
asbag57
(g78
g59
NtRp226
(dp227
g62
(dp228
sg71
g213
sg64
(lp229
g57
(g58
g59
NtRp230
(dp231
g62
(dp232
g70
I5
ssg71
g226
sg64
(lp233
S'default'
p234
asbasbasbag57
(g73
g59
NtRp235
(dp236
g62
(dp237
sg71
g67
sg64
(lp238
g57
(g78
g59
NtRp239
(dp240
g62
(dp241
g82
g83
ssg71
g235
sg64
(lp242
S'cookies'
p243
asbag57
(g78
g59
NtRp244
(dp245
g62
(dp246
g89
g90
ssg71
g235
sg64
(lp247
S':'
asbag57
(g78
g59
NtRp248
(dp249
g62
(dp250
sg71
g235
sg64
(lp251
g57
(g58
g59
NtRp252
(dp253
g62
(dp254
g70
I5
ssg71
g248
sg64
(lp255
g57
(g66
g59
NtRp256
(dp257
g62
(dp258
g70
I4
ssg71
Nsg64
(lp259
g57
(g73
g59
NtRp260
(dp261
g62
(dp262
sg71
g256
sg64
(lp263
g57
(g78
g59
NtRp264
(dp265
g62
(dp266
g82
g83
ssg71
g260
sg64
(lp267
S'session_id_admin'
p268
asbag57
(g78
g59
NtRp269
(dp270
g62
(dp271
g89
g90
ssg71
g260
sg64
(lp272
S':'
asbag57
(g78
g59
NtRp273
(dp274
g62
(dp275
sg71
g260
sg64
(lp276
g57
(g58
g59
NtRp277
(dp278
g62
(dp279
g70
I4
ssg71
g273
sg64
(lp280
S'127.0.0.1-a134ea04-c3f3-40bc-be4a-630f40f914f5'
p281
ag57
(g66
g59
NtRp282
(dp283
g62
(dp284
g70
I3
ssg71
Nsg64
(lp285
g57
(g73
g59
NtRp286
(dp287
g62
(dp288
sg71
g282
sg64
(lp289
g57
(g78
g59
NtRp290
(dp291
g62
(dp292
g82
g83
ssg71
g286
sg64
(lp293
S'comment'
p294
asbag57
(g78
g59
NtRp295
(dp296
g62
(dp297
g89
g90
ssg71
g286
sg64
(lp298
S':'
asbag57
(g78
g59
NtRp299
(dp300
g62
(dp301
sg71
g286
sg64
(lp302
g57
(g58
g59
NtRp303
(dp304
g62
(dp305
g70
I3
ssg71
g299
sg64
(lp306
S''
asbasbasbag57
(g73
g59
NtRp307
(dp308
g62
(dp309
sg71
g282
sg64
(lp310
g57
(g78
g59
NtRp311
(dp312
g62
(dp313
g82
g83
ssg71
g307
sg64
(lp314
S'domain'
p315
asbag57
(g78
g59
NtRp316
(dp317
g62
(dp318
g89
g90
ssg71
g307
sg64
(lp319
S':'
asbag57
(g78
g59
NtRp320
(dp321
g62
(dp322
sg71
g307
sg64
(lp323
g57
(g58
g59
NtRp324
(dp325
g62
(dp326
g70
I3
ssg71
g320
sg64
(lp327
S''
asbasbasbag57
(g73
g59
NtRp328
(dp329
g62
(dp330
sg71
g282
sg64
(lp331
g57
(g78
g59
NtRp332
(dp333
g62
(dp334
g82
g83
ssg71
g328
sg64
(lp335
S'expires'
p336
asbag57
(g78
g59
NtRp337
(dp338
g62
(dp339
g89
g90
ssg71
g328
sg64
(lp340
S':'
asbag57
(g78
g59
NtRp341
(dp342
g62
(dp343
sg71
g328
sg64
(lp344
g57
(g58
g59
NtRp345
(dp346
g62
(dp347
g70
I3
ssg71
g341
sg64
(lp348
S''
asbasbasbag57
(g73
g59
NtRp349
(dp350
g62
(dp351
sg71
g282
sg64
(lp352
g57
(g78
g59
NtRp353
(dp354
g62
(dp355
g82
g83
ssg71
g349
sg64
(lp356
S'httponly'
p357
asbag57
(g78
g59
NtRp358
(dp359
g62
(dp360
g89
g90
ssg71
g349
sg64
(lp361
S':'
asbag57
(g78
g59
NtRp362
(dp363
g62
(dp364
sg71
g349
sg64
(lp365
g57
(g58
g59
NtRp366
(dp367
g62
(dp368
g70
I3
ssg71
g362
sg64
(lp369
S''
asbasbasbag57
(g73
g59
NtRp370
(dp371
g62
(dp372
sg71
g282
sg64
(lp373
g57
(g78
g59
NtRp374
(dp375
g62
(dp376
g82
g83
ssg71
g370
sg64
(lp377
S'max-age'
p378
asbag57
(g78
g59
NtRp379
(dp380
g62
(dp381
g89
g90
ssg71
g370
sg64
(lp382
S':'
asbag57
(g78
g59
NtRp383
(dp384
g62
(dp385
sg71
g370
sg64
(lp386
g57
(g58
g59
NtRp387
(dp388
g62
(dp389
g70
I3
ssg71
g383
sg64
(lp390
S''
asbasbasbag57
(g73
g59
NtRp391
(dp392
g62
(dp393
sg71
g282
sg64
(lp394
g57
(g78
g59
NtRp395
(dp396
g62
(dp397
g82
g83
ssg71
g391
sg64
(lp398
S'path'
p399
asbag57
(g78
g59
NtRp400
(dp401
g62
(dp402
g89
g90
ssg71
g391
sg64
(lp403
S':'
asbag57
(g78
g59
NtRp404
(dp405
g62
(dp406
sg71
g391
sg64
(lp407
g57
(g58
g59
NtRp408
(dp409
g62
(dp410
g70
I3
ssg71
g404
sg64
(lp411
S''
asbasbasbag57
(g73
g59
NtRp412
(dp413
g62
(dp414
sg71
g282
sg64
(lp415
g57
(g78
g59
NtRp416
(dp417
g62
(dp418
g82
g83
ssg71
g412
sg64
(lp419
S'secure'
p420
asbag57
(g78
g59
NtRp421
(dp422
g62
(dp423
g89
g90
ssg71
g412
sg64
(lp424
S':'
asbag57
(g78
g59
NtRp425
(dp426
g62
(dp427
sg71
g412
sg64
(lp428
g57
(g58
g59
NtRp429
(dp430
g62
(dp431
g70
I3
ssg71
g425
sg64
(lp432
S''
asbasbasbag57
(g73
g59
NtRp433
(dp434
g62
(dp435
sg71
g282
sg64
(lp436
g57
(g78
g59
NtRp437
(dp438
g62
(dp439
g82
g83
ssg71
g433
sg64
(lp440
S'version'
p441
asbag57
(g78
g59
NtRp442
(dp443
g62
(dp444
g89
g90
ssg71
g433
sg64
(lp445
S':'
asbag57
(g78
g59
NtRp446
(dp447
g62
(dp448
sg71
g433
sg64
(lp449
g57
(g58
g59
NtRp450
(dp451
g62
(dp452
g70
I3
ssg71
g446
sg64
(lp453
S''
asbasbasbasbasbasbasbag57
(g73
g59
NtRp454
(dp455
g62
(dp456
sg71
g256
sg64
(lp457
g57
(g78
g59
NtRp458
(dp459
g62
(dp460
g82
g83
ssg71
g454
sg64
(lp461
S'session_id_funkload'
p462
asbag57
(g78
g59
NtRp463
(dp464
g62
(dp465
g89
g90
ssg71
g454
sg64
(lp466
S':'
asbag57
(g78
g59
NtRp467
(dp468
g62
(dp469
sg71
g454
sg64
(lp470
g57
(g58
g59
NtRp471
(dp472
g62
(dp473
g70
I4
ssg71
g467
sg64
(lp474
S'127.0.0.1-7520ec14-1d29-4409-941d-d72a84f858f2'
p475
ag57
(g66
g59
NtRp476
(dp477
g62
(dp478
g70
I3
ssg71
Nsg64
(lp479
g57
(g73
g59
NtRp480
(dp481
g62
(dp482
sg71
g476
sg64
(lp483
g57
(g78
g59
NtRp484
(dp485
g62
(dp486
g82
g83
ssg71
g480
sg64
(lp487
g294
asbag57
(g78
g59
NtRp488
(dp489
g62
(dp490
g89
g90
ssg71
g480
sg64
(lp491
S':'
asbag57
(g78
g59
NtRp492
(dp493
g62
(dp494
sg71
g480
sg64
(lp495
g57
(g58
g59
NtRp496
(dp497
g62
(dp498
g70
I3
ssg71
g492
sg64
(lp499
S''
asbasbasbag57
(g73
g59
NtRp500
(dp501
g62
(dp502
sg71
g476
sg64
(lp503
g57
(g78
g59
NtRp504
(dp505
g62
(dp506
g82
g83
ssg71
g500
sg64
(lp507
g315
asbag57
(g78
g59
NtRp508
(dp509
g62
(dp510
g89
g90
ssg71
g500
sg64
(lp511
S':'
asbag57
(g78
g59
NtRp512
(dp513
g62
(dp514
sg71
g500
sg64
(lp515
g57
(g58
g59
NtRp516
(dp517
g62
(dp518
g70
I3
ssg71
g512
sg64
(lp519
S''
asbasbasbag57
(g73
g59
NtRp520
(dp521
g62
(dp522
sg71
g476
sg64
(lp523
g57
(g78
g59
NtRp524
(dp525
g62
(dp526
g82
g83
ssg71
g520
sg64
(lp527
g336
asbag57
(g78
g59
NtRp528
(dp529
g62
(dp530
g89
g90
ssg71
g520
sg64
(lp531
S':'
asbag57
(g78
g59
NtRp532
(dp533
g62
(dp534
sg71
g520
sg64
(lp535
g57
(g58
g59
NtRp536
(dp537
g62
(dp538
g70
I3
ssg71
g532
sg64
(lp539
S''
asbasbasbag57
(g73
g59
NtRp540
(dp541
g62
(dp542
sg71
g476
sg64
(lp543
g57
(g78
g59
NtRp544
(dp545
g62
(dp546
g82
g83
ssg71
g540
sg64
(lp547
g357
asbag57
(g78
g59
NtRp548
(dp549
g62
(dp550
g89
g90
ssg71
g540
sg64
(lp551
S':'
asbag57
(g78
g59
NtRp552
(dp553
g62
(dp554
sg71
g540
sg64
(lp555
g57
(g58
g59
NtRp556
(dp557
g62
(dp558
g70
I3
ssg71
g552
sg64
(lp559
S''
asbasbasbag57
(g73
g59
NtRp560
(dp561
g62
(dp562
sg71
g476
sg64
(lp563
g57
(g78
g59
NtRp564
(dp565
g62
(dp566
g82
g83
ssg71
g560
sg64
(lp567
g378
asbag57
(g78
g59
NtRp568
(dp569
g62
(dp570
g89
g90
ssg71
g560
sg64
(lp571
S':'
asbag57
(g78
g59
NtRp572
(dp573
g62
(dp574
sg71
g560
sg64
(lp575
g57
(g58
g59
NtRp576
(dp577
g62
(dp578
g70
I3
ssg71
g572
sg64
(lp579
S''
asbasbasbag57
(g73
g59
NtRp580
(dp581
g62
(dp582
sg71
g476
sg64
(lp583
g57
(g78
g59
NtRp584
(dp585
g62
(dp586
g82
g83
ssg71
g580
sg64
(lp587
g399
asbag57
(g78
g59
NtRp588
(dp589
g62
(dp590
g89
g90
ssg71
g580
sg64
(lp591
S':'
asbag57
(g78
g59
NtRp592
(dp593
g62
(dp594
sg71
g580
sg64
(lp595
g57
(g58
g59
NtRp596
(dp597
g62
(dp598
g70
I3
ssg71
g592
sg64
(lp599
S''
asbasbasbag57
(g73
g59
NtRp600
(dp601
g62
(dp602
sg71
g476
sg64
(lp603
g57
(g78
g59
NtRp604
(dp605
g62
(dp606
g82
g83
ssg71
g600
sg64
(lp607
g420
asbag57
(g78
g59
NtRp608
(dp609
g62
(dp610
g89
g90
ssg71
g600
sg64
(lp611
S':'
asbag57
(g78
g59
NtRp612
(dp613
g62
(dp614
sg71
g600
sg64
(lp615
g57
(g58
g59
NtRp616
(dp617
g62
(dp618
g70
I3
ssg71
g612
sg64
(lp619
S''
asbasbasbag57
(g73
g59
NtRp620
(dp621
g62
(dp622
sg71
g476
sg64
(lp623
g57
(g78
g59
NtRp624
(dp625
g62
(dp626
g82
g83
ssg71
g620
sg64
(lp627
g441
asbag57
(g78
g59
NtRp628
(dp629
g62
(dp630
g89
g90
ssg71
g620
sg64
(lp631
S':'
asbag57
(g78
g59
NtRp632
(dp633
g62
(dp634
sg71
g620
sg64
(lp635
g57
(g58
g59
NtRp636
(dp637
g62
(dp638
g70
I3
ssg71
g632
sg64
(lp639
S''
asbasbasbasbasbasbasbag57
(g73
g59
NtRp640
(dp641
g62
(dp642
sg71
g256
sg64
(lp643
g57
(g78
g59
NtRp644
(dp645
g62
(dp646
g82
g83
ssg71
g640
sg64
(lp647
S'session_id_seminar'
p648
asbag57
(g78
g59
NtRp649
(dp650
g62
(dp651
g89
g90
ssg71
g640
sg64
(lp652
S':'
asbag57
(g78
g59
NtRp653
(dp654
g62
(dp655
sg71
g640
sg64
(lp656
g57
(g58
g59
NtRp657
(dp658
g62
(dp659
g70
I4
ssg71
g653
sg64
(lp660
S'127.0.0.1-775135e2-7293-4b61-bd73-8f2f893bbe7d'
p661
ag57
(g66
g59
NtRp662
(dp663
g62
(dp664
g70
I3
ssg71
Nsg64
(lp665
g57
(g73
g59
NtRp666
(dp667
g62
(dp668
sg71
g662
sg64
(lp669
g57
(g78
g59
NtRp670
(dp671
g62
(dp672
g82
g83
ssg71
g666
sg64
(lp673
g294
asbag57
(g78
g59
NtRp674
(dp675
g62
(dp676
g89
g90
ssg71
g666
sg64
(lp677
S':'
asbag57
(g78
g59
NtRp678
(dp679
g62
(dp680
sg71
g666
sg64
(lp681
g57
(g58
g59
NtRp682
(dp683
g62
(dp684
g70
I3
ssg71
g678
sg64
(lp685
S''
asbasbasbag57
(g73
g59
NtRp686
(dp687
g62
(dp688
sg71
g662
sg64
(lp689
g57
(g78
g59
NtRp690
(dp691
g62
(dp692
g82
g83
ssg71
g686
sg64
(lp693
g315
asbag57
(g78
g59
NtRp694
(dp695
g62
(dp696
g89
g90
ssg71
g686
sg64
(lp697
S':'
asbag57
(g78
g59
NtRp698
(dp699
g62
(dp700
sg71
g686
sg64
(lp701
g57
(g58
g59
NtRp702
(dp703
g62
(dp704
g70
I3
ssg71
g698
sg64
(lp705
S''
asbasbasbag57
(g73
g59
NtRp706
(dp707
g62
(dp708
sg71
g662
sg64
(lp709
g57
(g78
g59
NtRp710
(dp711
g62
(dp712
g82
g83
ssg71
g706
sg64
(lp713
g336
asbag57
(g78
g59
NtRp714
(dp715
g62
(dp716
g89
g90
ssg71
g706
sg64
(lp717
S':'
asbag57
(g78
g59
NtRp718
(dp719
g62
(dp720
sg71
g706
sg64
(lp721
g57
(g58
g59
NtRp722
(dp723
g62
(dp724
g70
I3
ssg71
g718
sg64
(lp725
S''
asbasbasbag57
(g73
g59
NtRp726
(dp727
g62
(dp728
sg71
g662
sg64
(lp729
g57
(g78
g59
NtRp730
(dp731
g62
(dp732
g82
g83
ssg71
g726
sg64
(lp733
g357
asbag57
(g78
g59
NtRp734
(dp735
g62
(dp736
g89
g90
ssg71
g726
sg64
(lp737
S':'
asbag57
(g78
g59
NtRp738
(dp739
g62
(dp740
sg71
g726
sg64
(lp741
g57
(g58
g59
NtRp742
(dp743
g62
(dp744
g70
I3
ssg71
g738
sg64
(lp745
S''
asbasbasbag57
(g73
g59
NtRp746
(dp747
g62
(dp748
sg71
g662
sg64
(lp749
g57
(g78
g59
NtRp750
(dp751
g62
(dp752
g82
g83
ssg71
g746
sg64
(lp753
g378
asbag57
(g78
g59
NtRp754
(dp755
g62
(dp756
g89
g90
ssg71
g746
sg64
(lp757
S':'
asbag57
(g78
g59
NtRp758
(dp759
g62
(dp760
sg71
g746
sg64
(lp761
g57
(g58
g59
NtRp762
(dp763
g62
(dp764
g70
I3
ssg71
g758
sg64
(lp765
S''
asbasbasbag57
(g73
g59
NtRp766
(dp767
g62
(dp768
sg71
g662
sg64
(lp769
g57
(g78
g59
NtRp770
(dp771
g62
(dp772
g82
g83
ssg71
g766
sg64
(lp773
g399
asbag57
(g78
g59
NtRp774
(dp775
g62
(dp776
g89
g90
ssg71
g766
sg64
(lp777
S':'
asbag57
(g78
g59
NtRp778
(dp779
g62
(dp780
sg71
g766
sg64
(lp781
g57
(g58
g59
NtRp782
(dp783
g62
(dp784
g70
I3
ssg71
g778
sg64
(lp785
S''
asbasbasbag57
(g73
g59
NtRp786
(dp787
g62
(dp788
sg71
g662
sg64
(lp789
g57
(g78
g59
NtRp790
(dp791
g62
(dp792
g82
g83
ssg71
g786
sg64
(lp793
g420
asbag57
(g78
g59
NtRp794
(dp795
g62
(dp796
g89
g90
ssg71
g786
sg64
(lp797
S':'
asbag57
(g78
g59
NtRp798
(dp799
g62
(dp800
sg71
g786
sg64
(lp801
g57
(g58
g59
NtRp802
(dp803
g62
(dp804
g70
I3
ssg71
g798
sg64
(lp805
S''
asbasbasbag57
(g73
g59
NtRp806
(dp807
g62
(dp808
sg71
g662
sg64
(lp809
g57
(g78
g59
NtRp810
(dp811
g62
(dp812
g82
g83
ssg71
g806
sg64
(lp813
g441
asbag57
(g78
g59
NtRp814
(dp815
g62
(dp816
g89
g90
ssg71
g806
sg64
(lp817
S':'
asbag57
(g78
g59
NtRp818
(dp819
g62
(dp820
sg71
g806
sg64
(lp821
g57
(g58
g59
NtRp822
(dp823
g62
(dp824
g70
I3
ssg71
g818
sg64
(lp825
S''
asbasbasbasbasbasbasbag57
(g73
g59
NtRp826
(dp827
g62
(dp828
sg71
g256
sg64
(lp829
g57
(g78
g59
NtRp830
(dp831
g62
(dp832
g82
g83
ssg71
g826
sg64
(lp833
S'session_id_tsaa'
p834
asbag57
(g78
g59
NtRp835
(dp836
g62
(dp837
g89
g90
ssg71
g826
sg64
(lp838
S':'
asbag57
(g78
g59
NtRp839
(dp840
g62
(dp841
sg71
g826
sg64
(lp842
g57
(g58
g59
NtRp843
(dp844
g62
(dp845
g70
I4
ssg71
g839
sg64
(lp846
S'127.0.0.1-bfc8c8e4-324c-4089-8db1-78f978a67ea6'
p847
ag57
(g66
g59
NtRp848
(dp849
g62
(dp850
g70
I3
ssg71
Nsg64
(lp851
g57
(g73
g59
NtRp852
(dp853
g62
(dp854
sg71
g848
sg64
(lp855
g57
(g78
g59
NtRp856
(dp857
g62
(dp858
g82
g83
ssg71
g852
sg64
(lp859
g294
asbag57
(g78
g59
NtRp860
(dp861
g62
(dp862
g89
g90
ssg71
g852
sg64
(lp863
S':'
asbag57
(g78
g59
NtRp864
(dp865
g62
(dp866
sg71
g852
sg64
(lp867
g57
(g58
g59
NtRp868
(dp869
g62
(dp870
g70
I3
ssg71
g864
sg64
(lp871
S''
asbasbasbag57
(g73
g59
NtRp872
(dp873
g62
(dp874
sg71
g848
sg64
(lp875
g57
(g78
g59
NtRp876
(dp877
g62
(dp878
g82
g83
ssg71
g872
sg64
(lp879
g315
asbag57
(g78
g59
NtRp880
(dp881
g62
(dp882
g89
g90
ssg71
g872
sg64
(lp883
S':'
asbag57
(g78
g59
NtRp884
(dp885
g62
(dp886
sg71
g872
sg64
(lp887
g57
(g58
g59
NtRp888
(dp889
g62
(dp890
g70
I3
ssg71
g884
sg64
(lp891
S''
asbasbasbag57
(g73
g59
NtRp892
(dp893
g62
(dp894
sg71
g848
sg64
(lp895
g57
(g78
g59
NtRp896
(dp897
g62
(dp898
g82
g83
ssg71
g892
sg64
(lp899
g336
asbag57
(g78
g59
NtRp900
(dp901
g62
(dp902
g89
g90
ssg71
g892
sg64
(lp903
S':'
asbag57
(g78
g59
NtRp904
(dp905
g62
(dp906
sg71
g892
sg64
(lp907
g57
(g58
g59
NtRp908
(dp909
g62
(dp910
g70
I3
ssg71
g904
sg64
(lp911
S''
asbasbasbag57
(g73
g59
NtRp912
(dp913
g62
(dp914
sg71
g848
sg64
(lp915
g57
(g78
g59
NtRp916
(dp917
g62
(dp918
g82
g83
ssg71
g912
sg64
(lp919
g357
asbag57
(g78
g59
NtRp920
(dp921
g62
(dp922
g89
g90
ssg71
g912
sg64
(lp923
S':'
asbag57
(g78
g59
NtRp924
(dp925
g62
(dp926
sg71
g912
sg64
(lp927
g57
(g58
g59
NtRp928
(dp929
g62
(dp930
g70
I3
ssg71
g924
sg64
(lp931
S''
asbasbasbag57
(g73
g59
NtRp932
(dp933
g62
(dp934
sg71
g848
sg64
(lp935
g57
(g78
g59
NtRp936
(dp937
g62
(dp938
g82
g83
ssg71
g932
sg64
(lp939
g378
asbag57
(g78
g59
NtRp940
(dp941
g62
(dp942
g89
g90
ssg71
g932
sg64
(lp943
S':'
asbag57
(g78
g59
NtRp944
(dp945
g62
(dp946
sg71
g932
sg64
(lp947
g57
(g58
g59
NtRp948
(dp949
g62
(dp950
g70
I3
ssg71
g944
sg64
(lp951
S''
asbasbasbag57
(g73
g59
NtRp952
(dp953
g62
(dp954
sg71
g848
sg64
(lp955
g57
(g78
g59
NtRp956
(dp957
g62
(dp958
g82
g83
ssg71
g952
sg64
(lp959
g399
asbag57
(g78
g59
NtRp960
(dp961
g62
(dp962
g89
g90
ssg71
g952
sg64
(lp963
S':'
asbag57
(g78
g59
NtRp964
(dp965
g62
(dp966
sg71
g952
sg64
(lp967
g57
(g58
g59
NtRp968
(dp969
g62
(dp970
g70
I3
ssg71
g964
sg64
(lp971
S''
asbasbasbag57
(g73
g59
NtRp972
(dp973
g62
(dp974
sg71
g848
sg64
(lp975
g57
(g78
g59
NtRp976
(dp977
g62
(dp978
g82
g83
ssg71
g972
sg64
(lp979
g420
asbag57
(g78
g59
NtRp980
(dp981
g62
(dp982
g89
g90
ssg71
g972
sg64
(lp983
S':'
asbag57
(g78
g59
NtRp984
(dp985
g62
(dp986
sg71
g972
sg64
(lp987
g57
(g58
g59
NtRp988
(dp989
g62
(dp990
g70
I3
ssg71
g984
sg64
(lp991
S''
asbasbasbag57
(g73
g59
NtRp992
(dp993
g62
(dp994
sg71
g848
sg64
(lp995
g57
(g78
g59
NtRp996
(dp997
g62
(dp998
g82
g83
ssg71
g992
sg64
(lp999
g441
asbag57
(g78
g59
NtRp1000
(dp1001
g62
(dp1002
g89
g90
ssg71
g992
sg64
(lp1003
S':'
asbag57
(g78
g59
NtRp1004
(dp1005
g62
(dp1006
sg71
g992
sg64
(lp1007
g57
(g58
g59
NtRp1008
(dp1009
g62
(dp1010
g70
I3
ssg71
g1004
sg64
(lp1011
S''
asbasbasbasbasbasbasbag57
(g73
g59
NtRp1012
(dp1013
g62
(dp1014
sg71
g256
sg64
(lp1015
g57
(g78
g59
NtRp1016
(dp1017
g62
(dp1018
g82
g83
ssg71
g1012
sg64
(lp1019
S'session_id_welcome'
p1020
asbag57
(g78
g59
NtRp1021
(dp1022
g62
(dp1023
g89
g90
ssg71
g1012
sg64
(lp1024
S':'
asbag57
(g78
g59
NtRp1025
(dp1026
g62
(dp1027
sg71
g1012
sg64
(lp1028
g57
(g58
g59
NtRp1029
(dp1030
g62
(dp1031
g70
I4
ssg71
g1025
sg64
(lp1032
S'127.0.0.1-0029ef01-5ebe-4a48-a011-445f20da0813'
p1033
ag57
(g66
g59
NtRp1034
(dp1035
g62
(dp1036
g70
I3
ssg71
Nsg64
(lp1037
g57
(g73
g59
NtRp1038
(dp1039
g62
(dp1040
sg71
g1034
sg64
(lp1041
g57
(g78
g59
NtRp1042
(dp1043
g62
(dp1044
g82
g83
ssg71
g1038
sg64
(lp1045
g294
asbag57
(g78
g59
NtRp1046
(dp1047
g62
(dp1048
g89
g90
ssg71
g1038
sg64
(lp1049
S':'
asbag57
(g78
g59
NtRp1050
(dp1051
g62
(dp1052
sg71
g1038
sg64
(lp1053
g57
(g58
g59
NtRp1054
(dp1055
g62
(dp1056
g70
I3
ssg71
g1050
sg64
(lp1057
S''
asbasbasbag57
(g73
g59
NtRp1058
(dp1059
g62
(dp1060
sg71
g1034
sg64
(lp1061
g57
(g78
g59
NtRp1062
(dp1063
g62
(dp1064
g82
g83
ssg71
g1058
sg64
(lp1065
g315
asbag57
(g78
g59
NtRp1066
(dp1067
g62
(dp1068
g89
g90
ssg71
g1058
sg64
(lp1069
S':'
asbag57
(g78
g59
NtRp1070
(dp1071
g62
(dp1072
sg71
g1058
sg64
(lp1073
g57
(g58
g59
NtRp1074
(dp1075
g62
(dp1076
g70
I3
ssg71
g1070
sg64
(lp1077
S''
asbasbasbag57
(g73
g59
NtRp1078
(dp1079
g62
(dp1080
sg71
g1034
sg64
(lp1081
g57
(g78
g59
NtRp1082
(dp1083
g62
(dp1084
g82
g83
ssg71
g1078
sg64
(lp1085
g336
asbag57
(g78
g59
NtRp1086
(dp1087
g62
(dp1088
g89
g90
ssg71
g1078
sg64
(lp1089
S':'
asbag57
(g78
g59
NtRp1090
(dp1091
g62
(dp1092
sg71
g1078
sg64
(lp1093
g57
(g58
g59
NtRp1094
(dp1095
g62
(dp1096
g70
I3
ssg71
g1090
sg64
(lp1097
S''
asbasbasbag57
(g73
g59
NtRp1098
(dp1099
g62
(dp1100
sg71
g1034
sg64
(lp1101
g57
(g78
g59
NtRp1102
(dp1103
g62
(dp1104
g82
g83
ssg71
g1098
sg64
(lp1105
g357
asbag57
(g78
g59
NtRp1106
(dp1107
g62
(dp1108
g89
g90
ssg71
g1098
sg64
(lp1109
S':'
asbag57
(g78
g59
NtRp1110
(dp1111
g62
(dp1112
sg71
g1098
sg64
(lp1113
g57
(g58
g59
NtRp1114
(dp1115
g62
(dp1116
g70
I3
ssg71
g1110
sg64
(lp1117
S''
asbasbasbag57
(g73
g59
NtRp1118
(dp1119
g62
(dp1120
sg71
g1034
sg64
(lp1121
g57
(g78
g59
NtRp1122
(dp1123
g62
(dp1124
g82
g83
ssg71
g1118
sg64
(lp1125
g378
asbag57
(g78
g59
NtRp1126
(dp1127
g62
(dp1128
g89
g90
ssg71
g1118
sg64
(lp1129
S':'
asbag57
(g78
g59
NtRp1130
(dp1131
g62
(dp1132
sg71
g1118
sg64
(lp1133
g57
(g58
g59
NtRp1134
(dp1135
g62
(dp1136
g70
I3
ssg71
g1130
sg64
(lp1137
S''
asbasbasbag57
(g73
g59
NtRp1138
(dp1139
g62
(dp1140
sg71
g1034
sg64
(lp1141
g57
(g78
g59
NtRp1142
(dp1143
g62
(dp1144
g82
g83
ssg71
g1138
sg64
(lp1145
g399
asbag57
(g78
g59
NtRp1146
(dp1147
g62
(dp1148
g89
g90
ssg71
g1138
sg64
(lp1149
S':'
asbag57
(g78
g59
NtRp1150
(dp1151
g62
(dp1152
sg71
g1138
sg64
(lp1153
g57
(g58
g59
NtRp1154
(dp1155
g62
(dp1156
g70
I3
ssg71
g1150
sg64
(lp1157
S''
asbasbasbag57
(g73
g59
NtRp1158
(dp1159
g62
(dp1160
sg71
g1034
sg64
(lp1161
g57
(g78
g59
NtRp1162
(dp1163
g62
(dp1164
g82
g83
ssg71
g1158
sg64
(lp1165
g420
asbag57
(g78
g59
NtRp1166
(dp1167
g62
(dp1168
g89
g90
ssg71
g1158
sg64
(lp1169
S':'
asbag57
(g78
g59
NtRp1170
(dp1171
g62
(dp1172
sg71
g1158
sg64
(lp1173
g57
(g58
g59
NtRp1174
(dp1175
g62
(dp1176
g70
I3
ssg71
g1170
sg64
(lp1177
S''
asbasbasbag57
(g73
g59
NtRp1178
(dp1179
g62
(dp1180
sg71
g1034
sg64
(lp1181
g57
(g78
g59
NtRp1182
(dp1183
g62
(dp1184
g82
g83
ssg71
g1178
sg64
(lp1185
g441
asbag57
(g78
g59
NtRp1186
(dp1187
g62
(dp1188
g89
g90
ssg71
g1178
sg64
(lp1189
S':'
asbag57
(g78
g59
NtRp1190
(dp1191
g62
(dp1192
sg71
g1178
sg64
(lp1193
g57
(g58
g59
NtRp1194
(dp1195
g62
(dp1196
g70
I3
ssg71
g1190
sg64
(lp1197
S''
asbasbasbasbasbasbasbasbasbasbasbag57
(g73
g59
NtRp1198
(dp1199
g62
(dp1200
sg71
g67
sg64
(lp1201
g57
(g78
g59
NtRp1202
(dp1203
g62
(dp1204
g82
g83
ssg71
g1198
sg64
(lp1205
S'env'
p1206
asbag57
(g78
g59
NtRp1207
(dp1208
g62
(dp1209
g89
g90
ssg71
g1198
sg64
(lp1210
S':'
asbag57
(g78
g59
NtRp1211
(dp1212
g62
(dp1213
sg71
g1198
sg64
(lp1214
g57
(g58
g59
NtRp1215
(dp1216
g62
(dp1217
g70
I5
ssg71
g1211
sg64
(lp1218
g57
(g66
g59
NtRp1219
(dp1220
g62
(dp1221
g70
I4
ssg71
Nsg64
(lp1222
g57
(g73
g59
NtRp1223
(dp1224
g62
(dp1225
sg71
g1219
sg64
(lp1226
g57
(g78
g59
NtRp1227
(dp1228
g62
(dp1229
g82
g83
ssg71
g1223
sg64
(lp1230
S'app_folders'
p1231
asbag57
(g78
g59
NtRp1232
(dp1233
g62
(dp1234
g89
g90
ssg71
g1223
sg64
(lp1235
S':'
asbag57
(g78
g59
NtRp1236
(dp1237
g62
(dp1238
sg71
g1223
sg64
(lp1239
g57
(g58
g59
NtRp1240
(dp1241
g62
(dp1242
g70
I4
ssg71
g1236
sg64
(lp1243
S"set(['/home/mayank/gitrepo/Twitter-Sentiment-Analysis/front-end/web2py/applications/admin/', '/home/mayank/gitrepo/Twitter-Sentiment-Analysis/front-end/web2py/applications/TSAA/', '/home/mayank/gitrepo/Twitter-Sentiment-Analysis/front-end/web2py/applications/welcome/'])"
p1244
asbasbasbag57
(g73
g59
NtRp1245
(dp1246
g62
(dp1247
sg71
g1219
sg64
(lp1248
g57
(g78
g59
NtRp1249
(dp1250
g62
(dp1251
g82
g83
ssg71
g1245
sg64
(lp1252
S'applications_parent'
p1253
asbag57
(g78
g59
NtRp1254
(dp1255
g62
(dp1256
g89
g90
ssg71
g1245
sg64
(lp1257
S':'
asbag57
(g78
g59
NtRp1258
(dp1259
g62
(dp1260
sg71
g1245
sg64
(lp1261
g57
(g58
g59
NtRp1262
(dp1263
g62
(dp1264
g70
I4
ssg71
g1258
sg64
(lp1265
S'/home/mayank/gitrepo/Twitter-Sentiment-Analysis/front-end/web2py'
p1266
asbasbasbag57
(g73
g59
NtRp1267
(dp1268
g62
(dp1269
sg71
g1219
sg64
(lp1270
g57
(g78
g59
NtRp1271
(dp1272
g62
(dp1273
g82
g83
ssg71
g1267
sg64
(lp1274
S'cmd_args'
p1275
asbag57
(g78
g59
NtRp1276
(dp1277
g62
(dp1278
g89
g90
ssg71
g1267
sg64
(lp1279
S':'
asbag57
(g78
g59
NtRp1280
(dp1281
g62
(dp1282
sg71
g1267
sg64
(lp1283
g57
(g58
g59
NtRp1284
(dp1285
g62
(dp1286
g70
I4
ssg71
g1280
sg64
(lp1287
g57
(g66
g59
NtRp1288
(dp1289
g62
(dp1290
g70
I3
ssg71
Nsg64
(lp1291
sbasbasbasbag57
(g73
g59
NtRp1292
(dp1293
g62
(dp1294
sg71
g1219
sg64
(lp1295
g57
(g78
g59
NtRp1296
(dp1297
g62
(dp1298
g82
g83
ssg71
g1292
sg64
(lp1299
S'cmd_options'
p1300
asbag57
(g78
g59
NtRp1301
(dp1302
g62
(dp1303
g89
g90
ssg71
g1292
sg64
(lp1304
S':'
asbag57
(g78
g59
NtRp1305
(dp1306
g62
(dp1307
sg71
g1292
sg64
(lp1308
g57
(g58
g59
NtRp1309
(dp1310
g62
(dp1311
g70
I4
ssg71
g1305
sg64
(lp1312
S"<Values at 0x2dfe488: {'verbose': False, 'ip': '127.0.0.1', 'with_scheduler': False, 'ips': ['127.0.1.1', '10.1.33.121'], 'shutdown_timeout': 5, 'taskbar': False, 'port': 8000, 'maxthreads': None, 'softcron': False, 'server_name': 'mayank', 'bpython': False, 'nogui': False, 'nocron': False, 'extcron': False, 'run_system_tests': False, 'test': None, 'folder': '/home/mayank/gitrepo/Twitter-Sentiment-Analysis/front-end/web2py', 'config': '', 'import_models': False, 'winservice': '', 'shell': None, 'run': '', 'log_filename': 'httpserver.log', 'debuglevel': 30, 'args': [''], 'socket_timeout': 5, 'ssl_ca_certificate': None, 'scheduler': None, 'profiler_filename': None, 'ssl_private_key': '', 'scheduler_groups': None, 'password': '<ask>', 'request_queue_size': 5, 'ssl_certificate': '', 'cronjob': False, 'numthreads': None, 'quiet': False, 'interfaces': None, 'minthreads': None, 'timeout': 10, 'plain': False, 'nobanner': False, 'pid_filename': 'httpserver.pid'}>"
p1313
asbasbasbag57
(g73
g59
NtRp1314
(dp1315
g62
(dp1316
sg71
g1219
sg64
(lp1317
g57
(g78
g59
NtRp1318
(dp1319
g62
(dp1320
g82
g83
ssg71
g1314
sg64
(lp1321
S'db_sessions'
p1322
asbag57
(g78
g59
NtRp1323
(dp1324
g62
(dp1325
g89
g90
ssg71
g1314
sg64
(lp1326
S':'
asbag57
(g78
g59
NtRp1327
(dp1328
g62
(dp1329
sg71
g1314
sg64
(lp1330
g57
(g58
g59
NtRp1331
(dp1332
g62
(dp1333
g70
I4
ssg71
g1327
sg64
(lp1334
S'set([])'
p1335
asbasbasbag57
(g73
g59
NtRp1336
(dp1337
g62
(dp1338
sg71
g1219
sg64
(lp1339
g57
(g78
g59
NtRp1340
(dp1341
g62
(dp1342
g82
g83
ssg71
g1336
sg64
(lp1343
S'debugging'
p1344
asbag57
(g78
g59
NtRp1345
(dp1346
g62
(dp1347
g89
g90
ssg71
g1336
sg64
(lp1348
S':'
asbag57
(g78
g59
NtRp1349
(dp1350
g62
(dp1351
sg71
g1336
sg64
(lp1352
g57
(g58
g59
NtRp1353
(dp1354
g62
(dp1355
g70
I4
ssg71
g1349
sg64
(lp1356
g100
asbasbasbag57
(g73
g59
NtRp1357
(dp1358
g62
(dp1359
sg71
g1219
sg64
(lp1360
g57
(g78
g59
NtRp1361
(dp1362
g62
(dp1363
g82
g83
ssg71
g1357
sg64
(lp1364
S'gluon_parent'
p1365
asbag57
(g78
g59
NtRp1366
(dp1367
g62
(dp1368
g89
g90
ssg71
g1357
sg64
(lp1369
S':'
asbag57
(g78
g59
NtRp1370
(dp1371
g62
(dp1372
sg71
g1357
sg64
(lp1373
g57
(g58
g59
NtRp1374
(dp1375
g62
(dp1376
g70
I4
ssg71
g1370
sg64
(lp1377
S'/home/mayank/gitrepo/Twitter-Sentiment-Analysis/front-end/web2py'
p1378
asbasbasbag57
(g73
g59
NtRp1379
(dp1380
g62
(dp1381
sg71
g1219
sg64
(lp1382
g57
(g78
g59
NtRp1383
(dp1384
g62
(dp1385
g82
g83
ssg71
g1379
sg64
(lp1386
S'http_accept'
p1387
asbag57
(g78
g59
NtRp1388
(dp1389
g62
(dp1390
g89
g90
ssg71
g1379
sg64
(lp1391
S':'
asbag57
(g78
g59
NtRp1392
(dp1393
g62
(dp1394
sg71
g1379
sg64
(lp1395
g57
(g58
g59
NtRp1396
(dp1397
g62
(dp1398
g70
I4
ssg71
g1392
sg64
(lp1399
S'text/html,application/xhtml+xml,application/xml;q=0.9,image/webp,*/*;q=0.8'
p1400
asbasbasbag57
(g73
g59
NtRp1401
(dp1402
g62
(dp1403
sg71
g1219
sg64
(lp1404
g57
(g78
g59
NtRp1405
(dp1406
g62
(dp1407
g82
g83
ssg71
g1401
sg64
(lp1408
S'http_accept_encoding'
p1409
asbag57
(g78
g59
NtRp1410
(dp1411
g62
(dp1412
g89
g90
ssg71
g1401
sg64
(lp1413
S':'
asbag57
(g78
g59
NtRp1414
(dp1415
g62
(dp1416
sg71
g1401
sg64
(lp1417
g57
(g58
g59
NtRp1418
(dp1419
g62
(dp1420
g70
I4
ssg71
g1414
sg64
(lp1421
S'gzip,deflate,sdch'
p1422
asbasbasbag57
(g73
g59
NtRp1423
(dp1424
g62
(dp1425
sg71
g1219
sg64
(lp1426
g57
(g78
g59
NtRp1427
(dp1428
g62
(dp1429
g82
g83
ssg71
g1423
sg64
(lp1430
S'http_accept_language'
p1431
asbag57
(g78
g59
NtRp1432
(dp1433
g62
(dp1434
g89
g90
ssg71
g1423
sg64
(lp1435
S':'
asbag57
(g78
g59
NtRp1436
(dp1437
g62
(dp1438
sg71
g1423
sg64
(lp1439
g57
(g58
g59
NtRp1440
(dp1441
g62
(dp1442
g70
I4
ssg71
g1436
sg64
(lp1443
S'en-US,en;q=0.8'
p1444
asbasbasbag57
(g73
g59
NtRp1445
(dp1446
g62
(dp1447
sg71
g1219
sg64
(lp1448
g57
(g78
g59
NtRp1449
(dp1450
g62
(dp1451
g82
g83
ssg71
g1445
sg64
(lp1452
S'http_connection'
p1453
asbag57
(g78
g59
NtRp1454
(dp1455
g62
(dp1456
g89
g90
ssg71
g1445
sg64
(lp1457
S':'
asbag57
(g78
g59
NtRp1458
(dp1459
g62
(dp1460
sg71
g1445
sg64
(lp1461
g57
(g58
g59
NtRp1462
(dp1463
g62
(dp1464
g70
I4
ssg71
g1458
sg64
(lp1465
S'keep-alive'
p1466
asbasbasbag57
(g73
g59
NtRp1467
(dp1468
g62
(dp1469
sg71
g1219
sg64
(lp1470
g57
(g78
g59
NtRp1471
(dp1472
g62
(dp1473
g82
g83
ssg71
g1467
sg64
(lp1474
S'http_cookie'
p1475
asbag57
(g78
g59
NtRp1476
(dp1477
g62
(dp1478
g89
g90
ssg71
g1467
sg64
(lp1479
S':'
asbag57
(g78
g59
NtRp1480
(dp1481
g62
(dp1482
sg71
g1467
sg64
(lp1483
g57
(g58
g59
NtRp1484
(dp1485
g62
(dp1486
g70
I4
ssg71
g1480
sg64
(lp1487
S'session_id_seminar=127.0.0.1-775135e2-7293-4b61-bd73-8f2f893bbe7d; session_id_funkload=127.0.0.1-7520ec14-1d29-4409-941d-d72a84f858f2; session_id_welcome=127.0.0.1-0029ef01-5ebe-4a48-a011-445f20da0813; session_id_admin=127.0.0.1-a134ea04-c3f3-40bc-be4a-630f40f914f5; session_id_tsaa=127.0.0.1-bfc8c8e4-324c-4089-8db1-78f978a67ea6'
p1488
asbasbasbag57
(g73
g59
NtRp1489
(dp1490
g62
(dp1491
sg71
g1219
sg64
(lp1492
g57
(g78
g59
NtRp1493
(dp1494
g62
(dp1495
g82
g83
ssg71
g1489
sg64
(lp1496
S'http_host'
p1497
asbag57
(g78
g59
NtRp1498
(dp1499
g62
(dp1500
g89
g90
ssg71
g1489
sg64
(lp1501
S':'
asbag57
(g78
g59
NtRp1502
(dp1503
g62
(dp1504
sg71
g1489
sg64
(lp1505
g57
(g58
g59
NtRp1506
(dp1507
g62
(dp1508
g70
I4
ssg71
g1502
sg64
(lp1509
S'127.0.0.1:8000'
p1510
asbasbasbag57
(g73
g59
NtRp1511
(dp1512
g62
(dp1513
sg71
g1219
sg64
(lp1514
g57
(g78
g59
NtRp1515
(dp1516
g62
(dp1517
g82
g83
ssg71
g1511
sg64
(lp1518
S'http_referer'
p1519
asbag57
(g78
g59
NtRp1520
(dp1521
g62
(dp1522
g89
g90
ssg71
g1511
sg64
(lp1523
S':'
asbag57
(g78
g59
NtRp1524
(dp1525
g62
(dp1526
sg71
g1511
sg64
(lp1527
g57
(g58
g59
NtRp1528
(dp1529
g62
(dp1530
g70
I4
ssg71
g1524
sg64
(lp1531
S'http://127.0.0.1:8000/TSAA/default/addTest'
p1532
asbasbasbag57
(g73
g59
NtRp1533
(dp1534
g62
(dp1535
sg71
g1219
sg64
(lp1536
g57
(g78
g59
NtRp1537
(dp1538
g62
(dp1539
g82
g83
ssg71
g1533
sg64
(lp1540
S'http_user_agent'
p1541
asbag57
(g78
g59
NtRp1542
(dp1543
g62
(dp1544
g89
g90
ssg71
g1533
sg64
(lp1545
S':'
asbag57
(g78
g59
NtRp1546
(dp1547
g62
(dp1548
sg71
g1533
sg64
(lp1549
g57
(g58
g59
NtRp1550
(dp1551
g62
(dp1552
g70
I4
ssg71
g1546
sg64
(lp1553
S'Mozilla/5.0 (X11; Linux x86_64) AppleWebKit/537.36 (KHTML, like Gecko) Chrome/31.0.1650.63 Safari/537.36'
p1554
asbasbasbag57
(g73
g59
NtRp1555
(dp1556
g62
(dp1557
sg71
g1219
sg64
(lp1558
g57
(g78
g59
NtRp1559
(dp1560
g62
(dp1561
g82
g83
ssg71
g1555
sg64
(lp1562
S'is_jython'
p1563
asbag57
(g78
g59
NtRp1564
(dp1565
g62
(dp1566
g89
g90
ssg71
g1555
sg64
(lp1567
S':'
asbag57
(g78
g59
NtRp1568
(dp1569
g62
(dp1570
sg71
g1555
sg64
(lp1571
g57
(g58
g59
NtRp1572
(dp1573
g62
(dp1574
g70
I4
ssg71
g1568
sg64
(lp1575
g100
asbasbasbag57
(g73
g59
NtRp1576
(dp1577
g62
(dp1578
sg71
g1219
sg64
(lp1579
g57
(g78
g59
NtRp1580
(dp1581
g62
(dp1582
g82
g83
ssg71
g1576
sg64
(lp1583
S'is_pypy'
p1584
asbag57
(g78
g59
NtRp1585
(dp1586
g62
(dp1587
g89
g90
ssg71
g1576
sg64
(lp1588
S':'
asbag57
(g78
g59
NtRp1589
(dp1590
g62
(dp1591
sg71
g1576
sg64
(lp1592
g57
(g58
g59
NtRp1593
(dp1594
g62
(dp1595
g70
I4
ssg71
g1589
sg64
(lp1596
g100
asbasbasbag57
(g73
g59
NtRp1597
(dp1598
g62
(dp1599
sg71
g1219
sg64
(lp1600
g57
(g78
g59
NtRp1601
(dp1602
g62
(dp1603
g82
g83
ssg71
g1597
sg64
(lp1604
S'path_info'
p1605
asbag57
(g78
g59
NtRp1606
(dp1607
g62
(dp1608
g89
g90
ssg71
g1597
sg64
(lp1609
S':'
asbag57
(g78
g59
NtRp1610
(dp1611
g62
(dp1612
sg71
g1597
sg64
(lp1613
g57
(g58
g59
NtRp1614
(dp1615
g62
(dp1616
g70
I4
ssg71
g1610
sg64
(lp1617
S'/TSAA/default/testDetails'
p1618
asbasbasbag57
(g73
g59
NtRp1619
(dp1620
g62
(dp1621
sg71
g1219
sg64
(lp1622
g57
(g78
g59
NtRp1623
(dp1624
g62
(dp1625
g82
g83
ssg71
g1619
sg64
(lp1626
S'query_string'
p1627
asbag57
(g78
g59
NtRp1628
(dp1629
g62
(dp1630
g89
g90
ssg71
g1619
sg64
(lp1631
S':'
asbag57
(g78
g59
NtRp1632
(dp1633
g62
(dp1634
sg71
g1619
sg64
(lp1635
g57
(g58
g59
NtRp1636
(dp1637
g62
(dp1638
g70
I4
ssg71
g1632
sg64
(lp1639
S''
asbasbasbag57
(g73
g59
NtRp1640
(dp1641
g62
(dp1642
sg71
g1219
sg64
(lp1643
g57
(g78
g59
NtRp1644
(dp1645
g62
(dp1646
g82
g83
ssg71
g1640
sg64
(lp1647
S'remote_addr'
p1648
asbag57
(g78
g59
NtRp1649
(dp1650
g62
(dp1651
g89
g90
ssg71
g1640
sg64
(lp1652
S':'
asbag57
(g78
g59
NtRp1653
(dp1654
g62
(dp1655
sg71
g1640
sg64
(lp1656
g57
(g58
g59
NtRp1657
(dp1658
g62
(dp1659
g70
I4
ssg71
g1653
sg64
(lp1660
g212
asbasbasbag57
(g73
g59
NtRp1661
(dp1662
g62
(dp1663
sg71
g1219
sg64
(lp1664
g57
(g78
g59
NtRp1665
(dp1666
g62
(dp1667
g82
g83
ssg71
g1661
sg64
(lp1668
S'remote_port'
p1669
asbag57
(g78
g59
NtRp1670
(dp1671
g62
(dp1672
g89
g90
ssg71
g1661
sg64
(lp1673
S':'
asbag57
(g78
g59
NtRp1674
(dp1675
g62
(dp1676
sg71
g1661
sg64
(lp1677
g57
(g58
g59
NtRp1678
(dp1679
g62
(dp1680
g70
I4
ssg71
g1674
sg64
(lp1681
S'47216'
p1682
asbasbasbag57
(g73
g59
NtRp1683
(dp1684
g62
(dp1685
sg71
g1219
sg64
(lp1686
g57
(g78
g59
NtRp1687
(dp1688
g62
(dp1689
g82
g83
ssg71
g1683
sg64
(lp1690
S'request_method'
p1691
asbag57
(g78
g59
NtRp1692
(dp1693
g62
(dp1694
g89
g90
ssg71
g1683
sg64
(lp1695
S':'
asbag57
(g78
g59
NtRp1696
(dp1697
g62
(dp1698
sg71
g1683
sg64
(lp1699
g57
(g58
g59
NtRp1700
(dp1701
g62
(dp1702
g70
I4
ssg71
g1696
sg64
(lp1703
S'GET'
p1704
asbasbasbag57
(g73
g59
NtRp1705
(dp1706
g62
(dp1707
sg71
g1219
sg64
(lp1708
g57
(g78
g59
NtRp1709
(dp1710
g62
(dp1711
g82
g83
ssg71
g1705
sg64
(lp1712
S'request_uri'
p1713
asbag57
(g78
g59
NtRp1714
(dp1715
g62
(dp1716
g89
g90
ssg71
g1705
sg64
(lp1717
S':'
asbag57
(g78
g59
NtRp1718
(dp1719
g62
(dp1720
sg71
g1705
sg64
(lp1721
g57
(g58
g59
NtRp1722
(dp1723
g62
(dp1724
g70
I4
ssg71
g1718
sg64
(lp1725
g1618
asbasbasbag57
(g73
g59
NtRp1726
(dp1727
g62
(dp1728
sg71
g1219
sg64
(lp1729
g57
(g78
g59
NtRp1730
(dp1731
g62
(dp1732
g82
g83
ssg71
g1726
sg64
(lp1733
S'script_name'
p1734
asbag57
(g78
g59
NtRp1735
(dp1736
g62
(dp1737
g89
g90
ssg71
g1726
sg64
(lp1738
S':'
asbag57
(g78
g59
NtRp1739
(dp1740
g62
(dp1741
sg71
g1726
sg64
(lp1742
g57
(g58
g59
NtRp1743
(dp1744
g62
(dp1745
g70
I4
ssg71
g1739
sg64
(lp1746
S''
asbasbasbag57
(g73
g59
NtRp1747
(dp1748
g62
(dp1749
sg71
g1219
sg64
(lp1750
g57
(g78
g59
NtRp1751
(dp1752
g62
(dp1753
g82
g83
ssg71
g1747
sg64
(lp1754
S'server_name'
p1755
asbag57
(g78
g59
NtRp1756
(dp1757
g62
(dp1758
g89
g90
ssg71
g1747
sg64
(lp1759
S':'
asbag57
(g78
g59
NtRp1760
(dp1761
g62
(dp1762
sg71
g1747
sg64
(lp1763
g57
(g58
g59
NtRp1764
(dp1765
g62
(dp1766
g70
I4
ssg71
g1760
sg64
(lp1767
S'mayank'
p1768
asbasbasbag57
(g73
g59
NtRp1769
(dp1770
g62
(dp1771
sg71
g1219
sg64
(lp1772
g57
(g78
g59
NtRp1773
(dp1774
g62
(dp1775
g82
g83
ssg71
g1769
sg64
(lp1776
S'server_port'
p1777
asbag57
(g78
g59
NtRp1778
(dp1779
g62
(dp1780
g89
g90
ssg71
g1769
sg64
(lp1781
S':'
asbag57
(g78
g59
NtRp1782
(dp1783
g62
(dp1784
sg71
g1769
sg64
(lp1785
g57
(g58
g59
NtRp1786
(dp1787
g62
(dp1788
g70
I4
ssg71
g1782
sg64
(lp1789
S'8000'
p1790
asbasbasbag57
(g73
g59
NtRp1791
(dp1792
g62
(dp1793
sg71
g1219
sg64
(lp1794
g57
(g78
g59
NtRp1795
(dp1796
g62
(dp1797
g82
g83
ssg71
g1791
sg64
(lp1798
S'server_protocol'
p1799
asbag57
(g78
g59
NtRp1800
(dp1801
g62
(dp1802
g89
g90
ssg71
g1791
sg64
(lp1803
S':'
asbag57
(g78
g59
NtRp1804
(dp1805
g62
(dp1806
sg71
g1791
sg64
(lp1807
g57
(g58
g59
NtRp1808
(dp1809
g62
(dp1810
g70
I4
ssg71
g1804
sg64
(lp1811
S'HTTP/1.1'
p1812
asbasbasbag57
(g73
g59
NtRp1813
(dp1814
g62
(dp1815
sg71
g1219
sg64
(lp1816
g57
(g78
g59
NtRp1817
(dp1818
g62
(dp1819
g82
g83
ssg71
g1813
sg64
(lp1820
S'server_software'
p1821
asbag57
(g78
g59
NtRp1822
(dp1823
g62
(dp1824
g89
g90
ssg71
g1813
sg64
(lp1825
S':'
asbag57
(g78
g59
NtRp1826
(dp1827
g62
(dp1828
sg71
g1813
sg64
(lp1829
g57
(g58
g59
NtRp1830
(dp1831
g62
(dp1832
g70
I4
ssg71
g1826
sg64
(lp1833
S'Rocket 1.2.4'
p1834
asbasbasbag57
(g73
g59
NtRp1835
(dp1836
g62
(dp1837
sg71
g1219
sg64
(lp1838
g57
(g78
g59
NtRp1839
(dp1840
g62
(dp1841
g82
g83
ssg71
g1835
sg64
(lp1842
S'web2py_crontype'
p1843
asbag57
(g78
g59
NtRp1844
(dp1845
g62
(dp1846
g89
g90
ssg71
g1835
sg64
(lp1847
S':'
asbag57
(g78
g59
NtRp1848
(dp1849
g62
(dp1850
sg71
g1835
sg64
(lp1851
g57
(g58
g59
NtRp1852
(dp1853
g62
(dp1854
g70
I4
ssg71
g1848
sg64
(lp1855
S'hard'
p1856
asbasbasbag57
(g73
g59
NtRp1857
(dp1858
g62
(dp1859
sg71
g1219
sg64
(lp1860
g57
(g78
g59
NtRp1861
(dp1862
g62
(dp1863
g82
g83
ssg71
g1857
sg64
(lp1864
S'web2py_path'
p1865
asbag57
(g78
g59
NtRp1866
(dp1867
g62
(dp1868
g89
g90
ssg71
g1857
sg64
(lp1869
S':'
asbag57
(g78
g59
NtRp1870
(dp1871
g62
(dp1872
sg71
g1857
sg64
(lp1873
g57
(g58
g59
NtRp1874
(dp1875
g62
(dp1876
g70
I4
ssg71
g1870
sg64
(lp1877
g1266
asbasbasbag57
(g73
g59
NtRp1878
(dp1879
g62
(dp1880
sg71
g1219
sg64
(lp1881
g57
(g78
g59
NtRp1882
(dp1883
g62
(dp1884
g82
g83
ssg71
g1878
sg64
(lp1885
S'web2py_version'
p1886
asbag57
(g78
g59
NtRp1887
(dp1888
g62
(dp1889
g89
g90
ssg71
g1878
sg64
(lp1890
S':'
asbag57
(g78
g59
NtRp1891
(dp1892
g62
(dp1893
sg71
g1878
sg64
(lp1894
g57
(g58
g59
NtRp1895
(dp1896
g62
(dp1897
g70
I4
ssg71
g1891
sg64
(lp1898
g57
(g66
g59
NtRp1899
(dp1900
g62
(dp1901
g70
I3
ssg71
Nsg64
(lp1902
g57
(g73
g59
NtRp1903
(dp1904
g62
(dp1905
sg71
g1899
sg64
(lp1906
g57
(g78
g59
NtRp1907
(dp1908
g62
(dp1909
sg71
g1903
sg64
(lp1910
g57
(g58
g59
NtRp1911
(dp1912
g62
(dp1913
g70
I3
ssg71
g1907
sg64
(lp1914
S'2'
asbasbasbag57
(g73
g59
NtRp1915
(dp1916
g62
(dp1917
sg71
g1899
sg64
(lp1918
g57
(g78
g59
NtRp1919
(dp1920
g62
(dp1921
sg71
g1915
sg64
(lp1922
g57
(g58
g59
NtRp1923
(dp1924
g62
(dp1925
g70
I3
ssg71
g1919
sg64
(lp1926
S'0'
asbasbasbag57
(g73
g59
NtRp1927
(dp1928
g62
(dp1929
sg71
g1899
sg64
(lp1930
g57
(g78
g59
NtRp1931
(dp1932
g62
(dp1933
sg71
g1927
sg64
(lp1934
g57
(g58
g59
NtRp1935
(dp1936
g62
(dp1937
g70
I3
ssg71
g1931
sg64
(lp1938
S'8'
asbasbasbag57
(g73
g59
NtRp1939
(dp1940
g62
(dp1941
sg71
g1899
sg64
(lp1942
g57
(g78
g59
NtRp1943
(dp1944
g62
(dp1945
sg71
g1939
sg64
(lp1946
g57
(g58
g59
NtRp1947
(dp1948
g62
(dp1949
g70
I3
ssg71
g1943
sg64
(lp1950
S'datetime.datetime(2012, 9, 7, 3, 47, 51)'
p1951
asbasbasbag57
(g73
g59
NtRp1952
(dp1953
g62
(dp1954
sg71
g1899
sg64
(lp1955
g57
(g78
g59
NtRp1956
(dp1957
g62
(dp1958
sg71
g1952
sg64
(lp1959
g57
(g58
g59
NtRp1960
(dp1961
g62
(dp1962
g70
I3
ssg71
g1956
sg64
(lp1963
S'stable'
p1964
asbasbasbasbasbasbasbag57
(g73
g59
NtRp1965
(dp1966
g62
(dp1967
sg71
g1219
sg64
(lp1968
g57
(g78
g59
NtRp1969
(dp1970
g62
(dp1971
g82
g83
ssg71
g1965
sg64
(lp1972
S'wsgi_errors'
p1973
asbag57
(g78
g59
NtRp1974
(dp1975
g62
(dp1976
g89
g90
ssg71
g1965
sg64
(lp1977
S':'
asbag57
(g78
g59
NtRp1978
(dp1979
g62
(dp1980
sg71
g1965
sg64
(lp1981
g57
(g58
g59
NtRp1982
(dp1983
g62
(dp1984
g70
I4
ssg71
g1978
sg64
(lp1985
S"<open file '<stderr>', mode 'w' at 0x7f87ad1211e0>"
p1986
asbasbasbag57
(g73
g59
NtRp1987
(dp1988
g62
(dp1989
sg71
g1219
sg64
(lp1990
g57
(g78
g59
NtRp1991
(dp1992
g62
(dp1993
g82
g83
ssg71
g1987
sg64
(lp1994
S'wsgi_file_wrapper'
p1995
asbag57
(g78
g59
NtRp1996
(dp1997
g62
(dp1998
g89
g90
ssg71
g1987
sg64
(lp1999
S':'
asbag57
(g78
g59
NtRp2000
(dp2001
g62
(dp2002
sg71
g1987
sg64
(lp2003
g57
(g58
g59
NtRp2004
(dp2005
g62
(dp2006
g70
I4
ssg71
g2000
sg64
(lp2007
S'<class wsgiref.util.FileWrapper at 0x2949c18>'
p2008
asbasbasbag57
(g73
g59
NtRp2009
(dp2010
g62
(dp2011
sg71
g1219
sg64
(lp2012
g57
(g78
g59
NtRp2013
(dp2014
g62
(dp2015
g82
g83
ssg71
g2009
sg64
(lp2016
S'wsgi_input'
p2017
asbag57
(g78
g59
NtRp2018
(dp2019
g62
(dp2020
g89
g90
ssg71
g2009
sg64
(lp2021
S':'
asbag57
(g78
g59
NtRp2022
(dp2023
g62
(dp2024
sg71
g2009
sg64
(lp2025
g57
(g58
g59
NtRp2026
(dp2027
g62
(dp2028
g70
I4
ssg71
g2022
sg64
(lp2029
S'<socket._fileobject object at 0x2e1f4d0>'
p2030
asbasbasbag57
(g73
g59
NtRp2031
(dp2032
g62
(dp2033
sg71
g1219
sg64
(lp2034
g57
(g78
g59
NtRp2035
(dp2036
g62
(dp2037
g82
g83
ssg71
g2031
sg64
(lp2038
S'wsgi_multiprocess'
p2039
asbag57
(g78
g59
NtRp2040
(dp2041
g62
(dp2042
g89
g90
ssg71
g2031
sg64
(lp2043
S':'
asbag57
(g78
g59
NtRp2044
(dp2045
g62
(dp2046
sg71
g2031
sg64
(lp2047
g57
(g58
g59
NtRp2048
(dp2049
g62
(dp2050
g70
I4
ssg71
g2044
sg64
(lp2051
g100
asbasbasbag57
(g73
g59
NtRp2052
(dp2053
g62
(dp2054
sg71
g1219
sg64
(lp2055
g57
(g78
g59
NtRp2056
(dp2057
g62
(dp2058
g82
g83
ssg71
g2052
sg64
(lp2059
S'wsgi_multithread'
p2060
asbag57
(g78
g59
NtRp2061
(dp2062
g62
(dp2063
g89
g90
ssg71
g2052
sg64
(lp2064
S':'
asbag57
(g78
g59
NtRp2065
(dp2066
g62
(dp2067
sg71
g2052
sg64
(lp2068
g57
(g58
g59
NtRp2069
(dp2070
g62
(dp2071
g70
I4
ssg71
g2065
sg64
(lp2072
S'True'
p2073
asbasbasbag57
(g73
g59
NtRp2074
(dp2075
g62
(dp2076
sg71
g1219
sg64
(lp2077
g57
(g78
g59
NtRp2078
(dp2079
g62
(dp2080
g82
g83
ssg71
g2074
sg64
(lp2081
S'wsgi_run_once'
p2082
asbag57
(g78
g59
NtRp2083
(dp2084
g62
(dp2085
g89
g90
ssg71
g2074
sg64
(lp2086
S':'
asbag57
(g78
g59
NtRp2087
(dp2088
g62
(dp2089
sg71
g2074
sg64
(lp2090
g57
(g58
g59
NtRp2091
(dp2092
g62
(dp2093
g70
I4
ssg71
g2087
sg64
(lp2094
g100
asbasbasbag57
(g73
g59
NtRp2095
(dp2096
g62
(dp2097
sg71
g1219
sg64
(lp2098
g57
(g78
g59
NtRp2099
(dp2100
g62
(dp2101
g82
g83
ssg71
g2095
sg64
(lp2102
S'wsgi_url_scheme'
p2103
asbag57
(g78
g59
NtRp2104
(dp2105
g62
(dp2106
g89
g90
ssg71
g2095
sg64
(lp2107
S':'
asbag57
(g78
g59
NtRp2108
(dp2109
g62
(dp2110
sg71
g2095
sg64
(lp2111
g57
(g58
g59
NtRp2112
(dp2113
g62
(dp2114
g70
I4
ssg71
g2108
sg64
(lp2115
S'http'
p2116
asbasbasbag57
(g73
g59
NtRp2117
(dp2118
g62
(dp2119
sg71
g1219
sg64
(lp2120
g57
(g78
g59
NtRp2121
(dp2122
g62
(dp2123
g82
g83
ssg71
g2117
sg64
(lp2124
S'wsgi_version'
p2125
asbag57
(g78
g59
NtRp2126
(dp2127
g62
(dp2128
g89
g90
ssg71
g2117
sg64
(lp2129
S':'
asbag57
(g78
g59
NtRp2130
(dp2131
g62
(dp2132
sg71
g2117
sg64
(lp2133
g57
(g58
g59
NtRp2134
(dp2135
g62
(dp2136
g70
I4
ssg71
g2130
sg64
(lp2137
g57
(g66
g59
NtRp2138
(dp2139
g62
(dp2140
g70
I3
ssg71
Nsg64
(lp2141
g57
(g73
g59
NtRp2142
(dp2143
g62
(dp2144
sg71
g2138
sg64
(lp2145
g57
(g78
g59
NtRp2146
(dp2147
g62
(dp2148
sg71
g2142
sg64
(lp2149
g57
(g58
g59
NtRp2150
(dp2151
g62
(dp2152
g70
I3
ssg71
g2146
sg64
(lp2153
S'1'
asbasbasbag57
(g73
g59
NtRp2154
(dp2155
g62
(dp2156
sg71
g2138
sg64
(lp2157
g57
(g78
g59
NtRp2158
(dp2159
g62
(dp2160
sg71
g2154
sg64
(lp2161
g57
(g58
g59
NtRp2162
(dp2163
g62
(dp2164
g70
I3
ssg71
g2158
sg64
(lp2165
S'0'
asbasbasbasbasbasbasbasbasbasbasbag57
(g73
g59
NtRp2166
(dp2167
g62
(dp2168
sg71
g67
sg64
(lp2169
g57
(g78
g59
NtRp2170
(dp2171
g62
(dp2172
g82
g83
ssg71
g2166
sg64
(lp2173
S'extension'
p2174
asbag57
(g78
g59
NtRp2175
(dp2176
g62
(dp2177
g89
g90
ssg71
g2166
sg64
(lp2178
S':'
asbag57
(g78
g59
NtRp2179
(dp2180
g62
(dp2181
sg71
g2166
sg64
(lp2182
g57
(g58
g59
NtRp2183
(dp2184
g62
(dp2185
g70
I5
ssg71
g2179
sg64
(lp2186
S'html'
p2187
asbasbasbag57
(g73
g59
NtRp2188
(dp2189
g62
(dp2190
sg71
g67
sg64
(lp2191
g57
(g78
g59
NtRp2192
(dp2193
g62
(dp2194
g82
g83
ssg71
g2188
sg64
(lp2195
S'folder'
p2196
asbag57
(g78
g59
NtRp2197
(dp2198
g62
(dp2199
g89
g90
ssg71
g2188
sg64
(lp2200
S':'
asbag57
(g78
g59
NtRp2201
(dp2202
g62
(dp2203
sg71
g2188
sg64
(lp2204
g57
(g58
g59
NtRp2205
(dp2206
g62
(dp2207
g70
I5
ssg71
g2201
sg64
(lp2208
S'/home/mayank/gitrepo/Twitter-Sentiment-Analysis/front-end/web2py/applications/TSAA/'
p2209
asbasbasbag57
(g73
g59
NtRp2210
(dp2211
g62
(dp2212
sg71
g67
sg64
(lp2213
g57
(g78
g59
NtRp2214
(dp2215
g62
(dp2216
g82
g83
ssg71
g2210
sg64
(lp2217
S'function'
p2218
asbag57
(g78
g59
NtRp2219
(dp2220
g62
(dp2221
g89
g90
ssg71
g2210
sg64
(lp2222
S':'
asbag57
(g78
g59
NtRp2223
(dp2224
g62
(dp2225
sg71
g2210
sg64
(lp2226
g57
(g58
g59
NtRp2227
(dp2228
g62
(dp2229
g70
I5
ssg71
g2223
sg64
(lp2230
S'testDetails'
p2231
asbasbasbag57
(g73
g59
NtRp2232
(dp2233
g62
(dp2234
sg71
g67
sg64
(lp2235
g57
(g78
g59
NtRp2236
(dp2237
g62
(dp2238
g82
g83
ssg71
g2232
sg64
(lp2239
S'get_vars'
p2240
asbag57
(g78
g59
NtRp2241
(dp2242
g62
(dp2243
g89
g90
ssg71
g2232
sg64
(lp2244
S':'
asbag57
(g78
g59
NtRp2245
(dp2246
g62
(dp2247
sg71
g2232
sg64
(lp2248
g57
(g58
g59
NtRp2249
(dp2250
g62
(dp2251
g70
I5
ssg71
g2245
sg64
(lp2252
g57
(g66
g59
NtRp2253
(dp2254
g62
(dp2255
g70
I4
ssg71
Nsg64
(lp2256
sbasbasbasbag57
(g73
g59
NtRp2257
(dp2258
g62
(dp2259
sg71
g67
sg64
(lp2260
g57
(g78
g59
NtRp2261
(dp2262
g62
(dp2263
g82
g83
ssg71
g2257
sg64
(lp2264
S'global_settings'
p2265
asbag57
(g78
g59
NtRp2266
(dp2267
g62
(dp2268
g89
g90
ssg71
g2257
sg64
(lp2269
S':'
asbag57
(g78
g59
NtRp2270
(dp2271
g62
(dp2272
sg71
g2257
sg64
(lp2273
g57
(g58
g59
NtRp2274
(dp2275
g62
(dp2276
g70
I5
ssg71
g2270
sg64
(lp2277
g57
(g66
g59
NtRp2278
(dp2279
g62
(dp2280
g70
I4
ssg71
Nsg64
(lp2281
g57
(g73
g59
NtRp2282
(dp2283
g62
(dp2284
sg71
g2278
sg64
(lp2285
g57
(g78
g59
NtRp2286
(dp2287
g62
(dp2288
g82
g83
ssg71
g2282
sg64
(lp2289
g1231
asbag57
(g78
g59
NtRp2290
(dp2291
g62
(dp2292
g89
g90
ssg71
g2282
sg64
(lp2293
S':'
asbag57
(g78
g59
NtRp2294
(dp2295
g62
(dp2296
sg71
g2282
sg64
(lp2297
g57
(g58
g59
NtRp2298
(dp2299
g62
(dp2300
g70
I4
ssg71
g2294
sg64
(lp2301
S"set(['/home/mayank/gitrepo/Twitter-Sentiment-Analysis/front-end/web2py/applications/admin/', '/home/mayank/gitrepo/Twitter-Sentiment-Analysis/front-end/web2py/applications/TSAA/', '/home/mayank/gitrepo/Twitter-Sentiment-Analysis/front-end/web2py/applications/welcome/'])"
p2302
asbasbasbag57
(g73
g59
NtRp2303
(dp2304
g62
(dp2305
sg71
g2278
sg64
(lp2306
g57
(g78
g59
NtRp2307
(dp2308
g62
(dp2309
g82
g83
ssg71
g2303
sg64
(lp2310
g1253
asbag57
(g78
g59
NtRp2311
(dp2312
g62
(dp2313
g89
g90
ssg71
g2303
sg64
(lp2314
S':'
asbag57
(g78
g59
NtRp2315
(dp2316
g62
(dp2317
sg71
g2303
sg64
(lp2318
g57
(g58
g59
NtRp2319
(dp2320
g62
(dp2321
g70
I4
ssg71
g2315
sg64
(lp2322
g1266
asbasbasbag57
(g73
g59
NtRp2323
(dp2324
g62
(dp2325
sg71
g2278
sg64
(lp2326
g57
(g78
g59
NtRp2327
(dp2328
g62
(dp2329
g82
g83
ssg71
g2323
sg64
(lp2330
g1275
asbag57
(g78
g59
NtRp2331
(dp2332
g62
(dp2333
g89
g90
ssg71
g2323
sg64
(lp2334
S':'
asbag57
(g78
g59
NtRp2335
(dp2336
g62
(dp2337
sg71
g2323
sg64
(lp2338
g57
(g58
g59
NtRp2339
(dp2340
g62
(dp2341
g70
I4
ssg71
g2335
sg64
(lp2342
g57
(g66
g59
NtRp2343
(dp2344
g62
(dp2345
g70
I3
ssg71
Nsg64
(lp2346
sbasbasbasbag57
(g73
g59
NtRp2347
(dp2348
g62
(dp2349
sg71
g2278
sg64
(lp2350
g57
(g78
g59
NtRp2351
(dp2352
g62
(dp2353
g82
g83
ssg71
g2347
sg64
(lp2354
g1300
asbag57
(g78
g59
NtRp2355
(dp2356
g62
(dp2357
g89
g90
ssg71
g2347
sg64
(lp2358
S':'
asbag57
(g78
g59
NtRp2359
(dp2360
g62
(dp2361
sg71
g2347
sg64
(lp2362
g57
(g58
g59
NtRp2363
(dp2364
g62
(dp2365
g70
I4
ssg71
g2359
sg64
(lp2366
S"<Values at 0x2dfe488: {'verbose': False, 'ip': '127.0.0.1', 'with_scheduler': False, 'ips': ['127.0.1.1', '10.1.33.121'], 'shutdown_timeout': 5, 'taskbar': False, 'port': 8000, 'maxthreads': None, 'softcron': False, 'server_name': 'mayank', 'bpython': False, 'nogui': False, 'nocron': False, 'extcron': False, 'run_system_tests': False, 'test': None, 'folder': '/home/mayank/gitrepo/Twitter-Sentiment-Analysis/front-end/web2py', 'config': '', 'import_models': False, 'winservice': '', 'shell': None, 'run': '', 'log_filename': 'httpserver.log', 'debuglevel': 30, 'args': [''], 'socket_timeout': 5, 'ssl_ca_certificate': None, 'scheduler': None, 'profiler_filename': None, 'ssl_private_key': '', 'scheduler_groups': None, 'password': '<ask>', 'request_queue_size': 5, 'ssl_certificate': '', 'cronjob': False, 'numthreads': None, 'quiet': False, 'interfaces': None, 'minthreads': None, 'timeout': 10, 'plain': False, 'nobanner': False, 'pid_filename': 'httpserver.pid'}>"
p2367
asbasbasbag57
(g73
g59
NtRp2368
(dp2369
g62
(dp2370
sg71
g2278
sg64
(lp2371
g57
(g78
g59
NtRp2372
(dp2373
g62
(dp2374
g82
g83
ssg71
g2368
sg64
(lp2375
g1322
asbag57
(g78
g59
NtRp2376
(dp2377
g62
(dp2378
g89
g90
ssg71
g2368
sg64
(lp2379
S':'
asbag57
(g78
g59
NtRp2380
(dp2381
g62
(dp2382
sg71
g2368
sg64
(lp2383
g57
(g58
g59
NtRp2384
(dp2385
g62
(dp2386
g70
I4
ssg71
g2380
sg64
(lp2387
S'set([])'
p2388
asbasbasbag57
(g73
g59
NtRp2389
(dp2390
g62
(dp2391
sg71
g2278
sg64
(lp2392
g57
(g78
g59
NtRp2393
(dp2394
g62
(dp2395
g82
g83
ssg71
g2389
sg64
(lp2396
g1344
asbag57
(g78
g59
NtRp2397
(dp2398
g62
(dp2399
g89
g90
ssg71
g2389
sg64
(lp2400
S':'
asbag57
(g78
g59
NtRp2401
(dp2402
g62
(dp2403
sg71
g2389
sg64
(lp2404
g57
(g58
g59
NtRp2405
(dp2406
g62
(dp2407
g70
I4
ssg71
g2401
sg64
(lp2408
g100
asbasbasbag57
(g73
g59
NtRp2409
(dp2410
g62
(dp2411
sg71
g2278
sg64
(lp2412
g57
(g78
g59
NtRp2413
(dp2414
g62
(dp2415
g82
g83
ssg71
g2409
sg64
(lp2416
g1365
asbag57
(g78
g59
NtRp2417
(dp2418
g62
(dp2419
g89
g90
ssg71
g2409
sg64
(lp2420
S':'
asbag57
(g78
g59
NtRp2421
(dp2422
g62
(dp2423
sg71
g2409
sg64
(lp2424
g57
(g58
g59
NtRp2425
(dp2426
g62
(dp2427
g70
I4
ssg71
g2421
sg64
(lp2428
g1378
asbasbasbag57
(g73
g59
NtRp2429
(dp2430
g62
(dp2431
sg71
g2278
sg64
(lp2432
g57
(g78
g59
NtRp2433
(dp2434
g62
(dp2435
g82
g83
ssg71
g2429
sg64
(lp2436
g1563
asbag57
(g78
g59
NtRp2437
(dp2438
g62
(dp2439
g89
g90
ssg71
g2429
sg64
(lp2440
S':'
asbag57
(g78
g59
NtRp2441
(dp2442
g62
(dp2443
sg71
g2429
sg64
(lp2444
g57
(g58
g59
NtRp2445
(dp2446
g62
(dp2447
g70
I4
ssg71
g2441
sg64
(lp2448
g100
asbasbasbag57
(g73
g59
NtRp2449
(dp2450
g62
(dp2451
sg71
g2278
sg64
(lp2452
g57
(g78
g59
NtRp2453
(dp2454
g62
(dp2455
g82
g83
ssg71
g2449
sg64
(lp2456
g1584
asbag57
(g78
g59
NtRp2457
(dp2458
g62
(dp2459
g89
g90
ssg71
g2449
sg64
(lp2460
S':'
asbag57
(g78
g59
NtRp2461
(dp2462
g62
(dp2463
sg71
g2449
sg64
(lp2464
g57
(g58
g59
NtRp2465
(dp2466
g62
(dp2467
g70
I4
ssg71
g2461
sg64
(lp2468
g100
asbasbasbag57
(g73
g59
NtRp2469
(dp2470
g62
(dp2471
sg71
g2278
sg64
(lp2472
g57
(g78
g59
NtRp2473
(dp2474
g62
(dp2475
g82
g83
ssg71
g2469
sg64
(lp2476
g1843
asbag57
(g78
g59
NtRp2477
(dp2478
g62
(dp2479
g89
g90
ssg71
g2469
sg64
(lp2480
S':'
asbag57
(g78
g59
NtRp2481
(dp2482
g62
(dp2483
sg71
g2469
sg64
(lp2484
g57
(g58
g59
NtRp2485
(dp2486
g62
(dp2487
g70
I4
ssg71
g2481
sg64
(lp2488
g1856
asbasbasbag57
(g73
g59
NtRp2489
(dp2490
g62
(dp2491
sg71
g2278
sg64
(lp2492
g57
(g78
g59
NtRp2493
(dp2494
g62
(dp2495
g82
g83
ssg71
g2489
sg64
(lp2496
g1886
asbag57
(g78
g59
NtRp2497
(dp2498
g62
(dp2499
g89
g90
ssg71
g2489
sg64
(lp2500
S':'
asbag57
(g78
g59
NtRp2501
(dp2502
g62
(dp2503
sg71
g2489
sg64
(lp2504
g57
(g58
g59
NtRp2505
(dp2506
g62
(dp2507
g70
I4
ssg71
g2501
sg64
(lp2508
g57
(g66
g59
NtRp2509
(dp2510
g62
(dp2511
g70
I3
ssg71
Nsg64
(lp2512
g57
(g73
g59
NtRp2513
(dp2514
g62
(dp2515
sg71
g2509
sg64
(lp2516
g57
(g78
g59
NtRp2517
(dp2518
g62
(dp2519
sg71
g2513
sg64
(lp2520
g57
(g58
g59
NtRp2521
(dp2522
g62
(dp2523
g70
I3
ssg71
g2517
sg64
(lp2524
S'2'
asbasbasbag57
(g73
g59
NtRp2525
(dp2526
g62
(dp2527
sg71
g2509
sg64
(lp2528
g57
(g78
g59
NtRp2529
(dp2530
g62
(dp2531
sg71
g2525
sg64
(lp2532
g57
(g58
g59
NtRp2533
(dp2534
g62
(dp2535
g70
I3
ssg71
g2529
sg64
(lp2536
S'0'
asbasbasbag57
(g73
g59
NtRp2537
(dp2538
g62
(dp2539
sg71
g2509
sg64
(lp2540
g57
(g78
g59
NtRp2541
(dp2542
g62
(dp2543
sg71
g2537
sg64
(lp2544
g57
(g58
g59
NtRp2545
(dp2546
g62
(dp2547
g70
I3
ssg71
g2541
sg64
(lp2548
S'8'
asbasbasbag57
(g73
g59
NtRp2549
(dp2550
g62
(dp2551
sg71
g2509
sg64
(lp2552
g57
(g78
g59
NtRp2553
(dp2554
g62
(dp2555
sg71
g2549
sg64
(lp2556
g57
(g58
g59
NtRp2557
(dp2558
g62
(dp2559
g70
I3
ssg71
g2553
sg64
(lp2560
S'datetime.datetime(2012, 9, 7, 3, 47, 51)'
p2561
asbasbasbag57
(g73
g59
NtRp2562
(dp2563
g62
(dp2564
sg71
g2509
sg64
(lp2565
g57
(g78
g59
NtRp2566
(dp2567
g62
(dp2568
sg71
g2562
sg64
(lp2569
g57
(g58
g59
NtRp2570
(dp2571
g62
(dp2572
g70
I3
ssg71
g2566
sg64
(lp2573
g1964
asbasbasbasbasbasbasbasbasbasbasbag57
(g73
g59
NtRp2574
(dp2575
g62
(dp2576
sg71
g67
sg64
(lp2577
g57
(g78
g59
NtRp2578
(dp2579
g62
(dp2580
g82
g83
ssg71
g2574
sg64
(lp2581
S'is_https'
p2582
asbag57
(g78
g59
NtRp2583
(dp2584
g62
(dp2585
g89
g90
ssg71
g2574
sg64
(lp2586
S':'
asbag57
(g78
g59
NtRp2587
(dp2588
g62
(dp2589
sg71
g2574
sg64
(lp2590
g57
(g58
g59
NtRp2591
(dp2592
g62
(dp2593
g70
I5
ssg71
g2587
sg64
(lp2594
g100
asbasbasbag57
(g73
g59
NtRp2595
(dp2596
g62
(dp2597
sg71
g67
sg64
(lp2598
g57
(g78
g59
NtRp2599
(dp2600
g62
(dp2601
g82
g83
ssg71
g2595
sg64
(lp2602
S'is_local'
p2603
asbag57
(g78
g59
NtRp2604
(dp2605
g62
(dp2606
g89
g90
ssg71
g2595
sg64
(lp2607
S':'
asbag57
(g78
g59
NtRp2608
(dp2609
g62
(dp2610
sg71
g2595
sg64
(lp2611
g57
(g58
g59
NtRp2612
(dp2613
g62
(dp2614
g70
I5
ssg71
g2608
sg64
(lp2615
g2073
asbasbasbag57
(g73
g59
NtRp2616
(dp2617
g62
(dp2618
sg71
g67
sg64
(lp2619
g57
(g78
g59
NtRp2620
(dp2621
g62
(dp2622
g82
g83
ssg71
g2616
sg64
(lp2623
S'is_restful'
p2624
asbag57
(g78
g59
NtRp2625
(dp2626
g62
(dp2627
g89
g90
ssg71
g2616
sg64
(lp2628
S':'
asbag57
(g78
g59
NtRp2629
(dp2630
g62
(dp2631
sg71
g2616
sg64
(lp2632
g57
(g58
g59
NtRp2633
(dp2634
g62
(dp2635
g70
I5
ssg71
g2629
sg64
(lp2636
g100
asbasbasbag57
(g73
g59
NtRp2637
(dp2638
g62
(dp2639
sg71
g67
sg64
(lp2640
g57
(g78
g59
NtRp2641
(dp2642
g62
(dp2643
g82
g83
ssg71
g2637
sg64
(lp2644
S'now'
p2645
asbag57
(g78
g59
NtRp2646
(dp2647
g62
(dp2648
g89
g90
ssg71
g2637
sg64
(lp2649
S':'
asbag57
(g78
g59
NtRp2650
(dp2651
g62
(dp2652
sg71
g2637
sg64
(lp2653
g57
(g58
g59
NtRp2654
(dp2655
g62
(dp2656
g70
I5
ssg71
g2650
sg64
(lp2657
S'datetime.datetime(2014, 4, 3, 11, 34, 50, 560465)'
p2658
asbasbasbag57
(g73
g59
NtRp2659
(dp2660
g62
(dp2661
sg71
g67
sg64
(lp2662
g57
(g78
g59
NtRp2663
(dp2664
g62
(dp2665
g82
g83
ssg71
g2659
sg64
(lp2666
S'post_vars'
p2667
asbag57
(g78
g59
NtRp2668
(dp2669
g62
(dp2670
g89
g90
ssg71
g2659
sg64
(lp2671
S':'
asbag57
(g78
g59
NtRp2672
(dp2673
g62
(dp2674
sg71
g2659
sg64
(lp2675
g57
(g58
g59
NtRp2676
(dp2677
g62
(dp2678
g70
I5
ssg71
g2672
sg64
(lp2679
g57
(g66
g59
NtRp2680
(dp2681
g62
(dp2682
g70
I4
ssg71
Nsg64
(lp2683
sbasbasbasbag57
(g73
g59
NtRp2684
(dp2685
g62
(dp2686
sg71
g67
sg64
(lp2687
g57
(g78
g59
NtRp2688
(dp2689
g62
(dp2690
g82
g83
ssg71
g2684
sg64
(lp2691
S'raw_args'
p2692
asbag57
(g78
g59
NtRp2693
(dp2694
g62
(dp2695
g89
g90
ssg71
g2684
sg64
(lp2696
S':'
asbag57
(g78
g59
NtRp2697
(dp2698
g62
(dp2699
sg71
g2684
sg64
(lp2700
g57
(g58
g59
NtRp2701
(dp2702
g62
(dp2703
g70
I5
ssg71
g2697
sg64
(lp2704
S'None'
p2705
asbasbasbag57
(g73
g59
NtRp2706
(dp2707
g62
(dp2708
sg71
g67
sg64
(lp2709
g57
(g78
g59
NtRp2710
(dp2711
g62
(dp2712
g82
g83
ssg71
g2706
sg64
(lp2713
S'raw_extension'
p2714
asbag57
(g78
g59
NtRp2715
(dp2716
g62
(dp2717
g89
g90
ssg71
g2706
sg64
(lp2718
S':'
asbag57
(g78
g59
NtRp2719
(dp2720
g62
(dp2721
sg71
g2706
sg64
(lp2722
g57
(g58
g59
NtRp2723
(dp2724
g62
(dp2725
g70
I5
ssg71
g2719
sg64
(lp2726
S'None'
p2727
asbasbasbag57
(g73
g59
NtRp2728
(dp2729
g62
(dp2730
sg71
g67
sg64
(lp2731
g57
(g78
g59
NtRp2732
(dp2733
g62
(dp2734
g82
g83
ssg71
g2728
sg64
(lp2735
S'url'
p2736
asbag57
(g78
g59
NtRp2737
(dp2738
g62
(dp2739
g89
g90
ssg71
g2728
sg64
(lp2740
S':'
asbag57
(g78
g59
NtRp2741
(dp2742
g62
(dp2743
sg71
g2728
sg64
(lp2744
g57
(g58
g59
NtRp2745
(dp2746
g62
(dp2747
g70
I5
ssg71
g2741
sg64
(lp2748
g1618
asbasbasbag57
(g73
g59
NtRp2749
(dp2750
g62
(dp2751
sg71
g67
sg64
(lp2752
g57
(g78
g59
NtRp2753
(dp2754
g62
(dp2755
g82
g83
ssg71
g2749
sg64
(lp2756
S'utcnow'
p2757
asbag57
(g78
g59
NtRp2758
(dp2759
g62
(dp2760
g89
g90
ssg71
g2749
sg64
(lp2761
S':'
asbag57
(g78
g59
NtRp2762
(dp2763
g62
(dp2764
sg71
g2749
sg64
(lp2765
g57
(g58
g59
NtRp2766
(dp2767
g62
(dp2768
g70
I5
ssg71
g2762
sg64
(lp2769
S'datetime.datetime(2014, 4, 3, 6, 4, 50, 560504)'
p2770
asbasbasbag57
(g73
g59
NtRp2771
(dp2772
g62
(dp2773
sg71
g67
sg64
(lp2774
g57
(g78
g59
NtRp2775
(dp2776
g62
(dp2777
g82
g83
ssg71
g2771
sg64
(lp2778
S'uuid'
p2779
asbag57
(g78
g59
NtRp2780
(dp2781
g62
(dp2782
g89
g90
ssg71
g2771
sg64
(lp2783
S':'
asbag57
(g78
g59
NtRp2784
(dp2785
g62
(dp2786
sg71
g2771
sg64
(lp2787
g57
(g58
g59
NtRp2788
(dp2789
g62
(dp2790
g70
I5
ssg71
g2784
sg64
(lp2791
S'TSAA/127.0.0.1.2014-04-03.11-34-50.58c29663-6d8f-4604-9f88-7df12aee5dc2'
p2792
asbasbasbag57
(g73
g59
NtRp2793
(dp2794
g62
(dp2795
sg71
g67
sg64
(lp2796
g57
(g78
g59
NtRp2797
(dp2798
g62
(dp2799
g82
g83
ssg71
g2793
sg64
(lp2800
S'vars'
p2801
asbag57
(g78
g59
NtRp2802
(dp2803
g62
(dp2804
g89
g90
ssg71
g2793
sg64
(lp2805
S':'
asbag57
(g78
g59
NtRp2806
(dp2807
g62
(dp2808
sg71
g2793
sg64
(lp2809
g57
(g58
g59
NtRp2810
(dp2811
g62
(dp2812
g70
I5
ssg71
g2806
sg64
(lp2813
g57
(g66
g59
NtRp2814
(dp2815
g62
(dp2816
g70
I4
ssg71
Nsg64
(lp2817
sbasbasbasbag57
(g73
g59
NtRp2818
(dp2819
g62
(dp2820
sg71
g67
sg64
(lp2821
g57
(g78
g59
NtRp2822
(dp2823
g62
(dp2824
g82
g83
ssg71
g2818
sg64
(lp2825
S'wsgi'
p2826
asbag57
(g78
g59
NtRp2827
(dp2828
g62
(dp2829
g89
g90
ssg71
g2818
sg64
(lp2830
S':'
asbag57
(g78
g59
NtRp2831
(dp2832
g62
(dp2833
sg71
g2818
sg64
(lp2834
g57
(g58
g59
NtRp2835
(dp2836
g62
(dp2837
g70
I5
ssg71
g2831
sg64
(lp2838
g57
(g66
g59
NtRp2839
(dp2840
g62
(dp2841
g70
I4
ssg71
Nsg64
(lp2842
g57
(g73
g59
NtRp2843
(dp2844
g62
(dp2845
sg71
g2839
sg64
(lp2846
g57
(g78
g59
NtRp2847
(dp2848
g62
(dp2849
g82
g83
ssg71
g2843
sg64
(lp2850
S'environ'
p2851
asbag57
(g78
g59
NtRp2852
(dp2853
g62
(dp2854
g89
g90
ssg71
g2843
sg64
(lp2855
S':'
asbag57
(g78
g59
NtRp2856
(dp2857
g62
(dp2858
sg71
g2843
sg64
(lp2859
g57
(g58
g59
NtRp2860
(dp2861
g62
(dp2862
g70
I4
ssg71
g2856
sg64
(lp2863
g57
(g66
g59
NtRp2864
(dp2865
g62
(dp2866
g70
I3
ssg71
Nsg64
(lp2867
g57
(g73
g59
NtRp2868
(dp2869
g62
(dp2870
sg71
g2864
sg64
(lp2871
g57
(g78
g59
NtRp2872
(dp2873
g62
(dp2874
g82
g83
ssg71
g2868
sg64
(lp2875
S'HTTP_ACCEPT'
p2876
asbag57
(g78
g59
NtRp2877
(dp2878
g62
(dp2879
g89
g90
ssg71
g2868
sg64
(lp2880
S':'
asbag57
(g78
g59
NtRp2881
(dp2882
g62
(dp2883
sg71
g2868
sg64
(lp2884
g57
(g58
g59
NtRp2885
(dp2886
g62
(dp2887
g70
I3
ssg71
g2881
sg64
(lp2888
g1400
asbasbasbag57
(g73
g59
NtRp2889
(dp2890
g62
(dp2891
sg71
g2864
sg64
(lp2892
g57
(g78
g59
NtRp2893
(dp2894
g62
(dp2895
g82
g83
ssg71
g2889
sg64
(lp2896
S'HTTP_ACCEPT_ENCODING'
p2897
asbag57
(g78
g59
NtRp2898
(dp2899
g62
(dp2900
g89
g90
ssg71
g2889
sg64
(lp2901
S':'
asbag57
(g78
g59
NtRp2902
(dp2903
g62
(dp2904
sg71
g2889
sg64
(lp2905
g57
(g58
g59
NtRp2906
(dp2907
g62
(dp2908
g70
I3
ssg71
g2902
sg64
(lp2909
g1422
asbasbasbag57
(g73
g59
NtRp2910
(dp2911
g62
(dp2912
sg71
g2864
sg64
(lp2913
g57
(g78
g59
NtRp2914
(dp2915
g62
(dp2916
g82
g83
ssg71
g2910
sg64
(lp2917
S'HTTP_ACCEPT_LANGUAGE'
p2918
asbag57
(g78
g59
NtRp2919
(dp2920
g62
(dp2921
g89
g90
ssg71
g2910
sg64
(lp2922
S':'
asbag57
(g78
g59
NtRp2923
(dp2924
g62
(dp2925
sg71
g2910
sg64
(lp2926
g57
(g58
g59
NtRp2927
(dp2928
g62
(dp2929
g70
I3
ssg71
g2923
sg64
(lp2930
g1444
asbasbasbag57
(g73
g59
NtRp2931
(dp2932
g62
(dp2933
sg71
g2864
sg64
(lp2934
g57
(g78
g59
NtRp2935
(dp2936
g62
(dp2937
g82
g83
ssg71
g2931
sg64
(lp2938
S'HTTP_CONNECTION'
p2939
asbag57
(g78
g59
NtRp2940
(dp2941
g62
(dp2942
g89
g90
ssg71
g2931
sg64
(lp2943
S':'
asbag57
(g78
g59
NtRp2944
(dp2945
g62
(dp2946
sg71
g2931
sg64
(lp2947
g57
(g58
g59
NtRp2948
(dp2949
g62
(dp2950
g70
I3
ssg71
g2944
sg64
(lp2951
g1466
asbasbasbag57
(g73
g59
NtRp2952
(dp2953
g62
(dp2954
sg71
g2864
sg64
(lp2955
g57
(g78
g59
NtRp2956
(dp2957
g62
(dp2958
g82
g83
ssg71
g2952
sg64
(lp2959
S'HTTP_COOKIE'
p2960
asbag57
(g78
g59
NtRp2961
(dp2962
g62
(dp2963
g89
g90
ssg71
g2952
sg64
(lp2964
S':'
asbag57
(g78
g59
NtRp2965
(dp2966
g62
(dp2967
sg71
g2952
sg64
(lp2968
g57
(g58
g59
NtRp2969
(dp2970
g62
(dp2971
g70
I3
ssg71
g2965
sg64
(lp2972
g1488
asbasbasbag57
(g73
g59
NtRp2973
(dp2974
g62
(dp2975
sg71
g2864
sg64
(lp2976
g57
(g78
g59
NtRp2977
(dp2978
g62
(dp2979
g82
g83
ssg71
g2973
sg64
(lp2980
S'HTTP_HOST'
p2981
asbag57
(g78
g59
NtRp2982
(dp2983
g62
(dp2984
g89
g90
ssg71
g2973
sg64
(lp2985
S':'
asbag57
(g78
g59
NtRp2986
(dp2987
g62
(dp2988
sg71
g2973
sg64
(lp2989
g57
(g58
g59
NtRp2990
(dp2991
g62
(dp2992
g70
I3
ssg71
g2986
sg64
(lp2993
g1510
asbasbasbag57
(g73
g59
NtRp2994
(dp2995
g62
(dp2996
sg71
g2864
sg64
(lp2997
g57
(g78
g59
NtRp2998
(dp2999
g62
(dp3000
g82
g83
ssg71
g2994
sg64
(lp3001
S'HTTP_REFERER'
p3002
asbag57
(g78
g59
NtRp3003
(dp3004
g62
(dp3005
g89
g90
ssg71
g2994
sg64
(lp3006
S':'
asbag57
(g78
g59
NtRp3007
(dp3008
g62
(dp3009
sg71
g2994
sg64
(lp3010
g57
(g58
g59
NtRp3011
(dp3012
g62
(dp3013
g70
I3
ssg71
g3007
sg64
(lp3014
g1532
asbasbasbag57
(g73
g59
NtRp3015
(dp3016
g62
(dp3017
sg71
g2864
sg64
(lp3018
g57
(g78
g59
NtRp3019
(dp3020
g62
(dp3021
g82
g83
ssg71
g3015
sg64
(lp3022
S'HTTP_USER_AGENT'
p3023
asbag57
(g78
g59
NtRp3024
(dp3025
g62
(dp3026
g89
g90
ssg71
g3015
sg64
(lp3027
S':'
asbag57
(g78
g59
NtRp3028
(dp3029
g62
(dp3030
sg71
g3015
sg64
(lp3031
g57
(g58
g59
NtRp3032
(dp3033
g62
(dp3034
g70
I3
ssg71
g3028
sg64
(lp3035
g1554
asbasbasbag57
(g73
g59
NtRp3036
(dp3037
g62
(dp3038
sg71
g2864
sg64
(lp3039
g57
(g78
g59
NtRp3040
(dp3041
g62
(dp3042
g82
g83
ssg71
g3036
sg64
(lp3043
S'PATH_INFO'
p3044
asbag57
(g78
g59
NtRp3045
(dp3046
g62
(dp3047
g89
g90
ssg71
g3036
sg64
(lp3048
S':'
asbag57
(g78
g59
NtRp3049
(dp3050
g62
(dp3051
sg71
g3036
sg64
(lp3052
g57
(g58
g59
NtRp3053
(dp3054
g62
(dp3055
g70
I3
ssg71
g3049
sg64
(lp3056
g1618
asbasbasbag57
(g73
g59
NtRp3057
(dp3058
g62
(dp3059
sg71
g2864
sg64
(lp3060
g57
(g78
g59
NtRp3061
(dp3062
g62
(dp3063
g82
g83
ssg71
g3057
sg64
(lp3064
S'QUERY_STRING'
p3065
asbag57
(g78
g59
NtRp3066
(dp3067
g62
(dp3068
g89
g90
ssg71
g3057
sg64
(lp3069
S':'
asbag57
(g78
g59
NtRp3070
(dp3071
g62
(dp3072
sg71
g3057
sg64
(lp3073
g57
(g58
g59
NtRp3074
(dp3075
g62
(dp3076
g70
I3
ssg71
g3070
sg64
(lp3077
S''
asbasbasbag57
(g73
g59
NtRp3078
(dp3079
g62
(dp3080
sg71
g2864
sg64
(lp3081
g57
(g78
g59
NtRp3082
(dp3083
g62
(dp3084
g82
g83
ssg71
g3078
sg64
(lp3085
S'REMOTE_ADDR'
p3086
asbag57
(g78
g59
NtRp3087
(dp3088
g62
(dp3089
g89
g90
ssg71
g3078
sg64
(lp3090
S':'
asbag57
(g78
g59
NtRp3091
(dp3092
g62
(dp3093
sg71
g3078
sg64
(lp3094
g57
(g58
g59
NtRp3095
(dp3096
g62
(dp3097
g70
I3
ssg71
g3091
sg64
(lp3098
g212
asbasbasbag57
(g73
g59
NtRp3099
(dp3100
g62
(dp3101
sg71
g2864
sg64
(lp3102
g57
(g78
g59
NtRp3103
(dp3104
g62
(dp3105
g82
g83
ssg71
g3099
sg64
(lp3106
S'REMOTE_PORT'
p3107
asbag57
(g78
g59
NtRp3108
(dp3109
g62
(dp3110
g89
g90
ssg71
g3099
sg64
(lp3111
S':'
asbag57
(g78
g59
NtRp3112
(dp3113
g62
(dp3114
sg71
g3099
sg64
(lp3115
g57
(g58
g59
NtRp3116
(dp3117
g62
(dp3118
g70
I3
ssg71
g3112
sg64
(lp3119
g1682
asbasbasbag57
(g73
g59
NtRp3120
(dp3121
g62
(dp3122
sg71
g2864
sg64
(lp3123
g57
(g78
g59
NtRp3124
(dp3125
g62
(dp3126
g82
g83
ssg71
g3120
sg64
(lp3127
S'REQUEST_METHOD'
p3128
asbag57
(g78
g59
NtRp3129
(dp3130
g62
(dp3131
g89
g90
ssg71
g3120
sg64
(lp3132
S':'
asbag57
(g78
g59
NtRp3133
(dp3134
g62
(dp3135
sg71
g3120
sg64
(lp3136
g57
(g58
g59
NtRp3137
(dp3138
g62
(dp3139
g70
I3
ssg71
g3133
sg64
(lp3140
g1704
asbasbasbag57
(g73
g59
NtRp3141
(dp3142
g62
(dp3143
sg71
g2864
sg64
(lp3144
g57
(g78
g59
NtRp3145
(dp3146
g62
(dp3147
g82
g83
ssg71
g3141
sg64
(lp3148
S'REQUEST_URI'
p3149
asbag57
(g78
g59
NtRp3150
(dp3151
g62
(dp3152
g89
g90
ssg71
g3141
sg64
(lp3153
S':'
asbag57
(g78
g59
NtRp3154
(dp3155
g62
(dp3156
sg71
g3141
sg64
(lp3157
g57
(g58
g59
NtRp3158
(dp3159
g62
(dp3160
g70
I3
ssg71
g3154
sg64
(lp3161
g1618
asbasbasbag57
(g73
g59
NtRp3162
(dp3163
g62
(dp3164
sg71
g2864
sg64
(lp3165
g57
(g78
g59
NtRp3166
(dp3167
g62
(dp3168
g82
g83
ssg71
g3162
sg64
(lp3169
S'SCRIPT_NAME'
p3170
asbag57
(g78
g59
NtRp3171
(dp3172
g62
(dp3173
g89
g90
ssg71
g3162
sg64
(lp3174
S':'
asbag57
(g78
g59
NtRp3175
(dp3176
g62
(dp3177
sg71
g3162
sg64
(lp3178
g57
(g58
g59
NtRp3179
(dp3180
g62
(dp3181
g70
I3
ssg71
g3175
sg64
(lp3182
S''
asbasbasbag57
(g73
g59
NtRp3183
(dp3184
g62
(dp3185
sg71
g2864
sg64
(lp3186
g57
(g78
g59
NtRp3187
(dp3188
g62
(dp3189
g82
g83
ssg71
g3183
sg64
(lp3190
S'SERVER_NAME'
p3191
asbag57
(g78
g59
NtRp3192
(dp3193
g62
(dp3194
g89
g90
ssg71
g3183
sg64
(lp3195
S':'
asbag57
(g78
g59
NtRp3196
(dp3197
g62
(dp3198
sg71
g3183
sg64
(lp3199
g57
(g58
g59
NtRp3200
(dp3201
g62
(dp3202
g70
I3
ssg71
g3196
sg64
(lp3203
g1768
asbasbasbag57
(g73
g59
NtRp3204
(dp3205
g62
(dp3206
sg71
g2864
sg64
(lp3207
g57
(g78
g59
NtRp3208
(dp3209
g62
(dp3210
g82
g83
ssg71
g3204
sg64
(lp3211
S'SERVER_PORT'
p3212
asbag57
(g78
g59
NtRp3213
(dp3214
g62
(dp3215
g89
g90
ssg71
g3204
sg64
(lp3216
S':'
asbag57
(g78
g59
NtRp3217
(dp3218
g62
(dp3219
sg71
g3204
sg64
(lp3220
g57
(g58
g59
NtRp3221
(dp3222
g62
(dp3223
g70
I3
ssg71
g3217
sg64
(lp3224
g1790
asbasbasbag57
(g73
g59
NtRp3225
(dp3226
g62
(dp3227
sg71
g2864
sg64
(lp3228
g57
(g78
g59
NtRp3229
(dp3230
g62
(dp3231
g82
g83
ssg71
g3225
sg64
(lp3232
S'SERVER_PROTOCOL'
p3233
asbag57
(g78
g59
NtRp3234
(dp3235
g62
(dp3236
g89
g90
ssg71
g3225
sg64
(lp3237
S':'
asbag57
(g78
g59
NtRp3238
(dp3239
g62
(dp3240
sg71
g3225
sg64
(lp3241
g57
(g58
g59
NtRp3242
(dp3243
g62
(dp3244
g70
I3
ssg71
g3238
sg64
(lp3245
g1812
asbasbasbag57
(g73
g59
NtRp3246
(dp3247
g62
(dp3248
sg71
g2864
sg64
(lp3249
g57
(g78
g59
NtRp3250
(dp3251
g62
(dp3252
g82
g83
ssg71
g3246
sg64
(lp3253
S'SERVER_SOFTWARE'
p3254
asbag57
(g78
g59
NtRp3255
(dp3256
g62
(dp3257
g89
g90
ssg71
g3246
sg64
(lp3258
S':'
asbag57
(g78
g59
NtRp3259
(dp3260
g62
(dp3261
sg71
g3246
sg64
(lp3262
g57
(g58
g59
NtRp3263
(dp3264
g62
(dp3265
g70
I3
ssg71
g3259
sg64
(lp3266
g1834
asbasbasbag57
(g73
g59
NtRp3267
(dp3268
g62
(dp3269
sg71
g2864
sg64
(lp3270
g57
(g78
g59
NtRp3271
(dp3272
g62
(dp3273
g82
g83
ssg71
g3267
sg64
(lp3274
S'wsgi.errors'
p3275
asbag57
(g78
g59
NtRp3276
(dp3277
g62
(dp3278
g89
g90
ssg71
g3267
sg64
(lp3279
S':'
asbag57
(g78
g59
NtRp3280
(dp3281
g62
(dp3282
sg71
g3267
sg64
(lp3283
g57
(g58
g59
NtRp3284
(dp3285
g62
(dp3286
g70
I3
ssg71
g3280
sg64
(lp3287
S"<open file '<stderr>', mode 'w' at 0x7f87ad1211e0>"
p3288
asbasbasbag57
(g73
g59
NtRp3289
(dp3290
g62
(dp3291
sg71
g2864
sg64
(lp3292
g57
(g78
g59
NtRp3293
(dp3294
g62
(dp3295
g82
g83
ssg71
g3289
sg64
(lp3296
S'wsgi.file_wrapper'
p3297
asbag57
(g78
g59
NtRp3298
(dp3299
g62
(dp3300
g89
g90
ssg71
g3289
sg64
(lp3301
S':'
asbag57
(g78
g59
NtRp3302
(dp3303
g62
(dp3304
sg71
g3289
sg64
(lp3305
g57
(g58
g59
NtRp3306
(dp3307
g62
(dp3308
g70
I3
ssg71
g3302
sg64
(lp3309
S'<class wsgiref.util.FileWrapper at 0x2949c18>'
p3310
asbasbasbag57
(g73
g59
NtRp3311
(dp3312
g62
(dp3313
sg71
g2864
sg64
(lp3314
g57
(g78
g59
NtRp3315
(dp3316
g62
(dp3317
g82
g83
ssg71
g3311
sg64
(lp3318
S'wsgi.input'
p3319
asbag57
(g78
g59
NtRp3320
(dp3321
g62
(dp3322
g89
g90
ssg71
g3311
sg64
(lp3323
S':'
asbag57
(g78
g59
NtRp3324
(dp3325
g62
(dp3326
sg71
g3311
sg64
(lp3327
g57
(g58
g59
NtRp3328
(dp3329
g62
(dp3330
g70
I3
ssg71
g3324
sg64
(lp3331
S'<cStringIO.StringO object at 0x7f87842d92d0>'
p3332
asbasbasbag57
(g73
g59
NtRp3333
(dp3334
g62
(dp3335
sg71
g2864
sg64
(lp3336
g57
(g78
g59
NtRp3337
(dp3338
g62
(dp3339
g82
g83
ssg71
g3333
sg64
(lp3340
S'wsgi.multiprocess'
p3341
asbag57
(g78
g59
NtRp3342
(dp3343
g62
(dp3344
g89
g90
ssg71
g3333
sg64
(lp3345
S':'
asbag57
(g78
g59
NtRp3346
(dp3347
g62
(dp3348
sg71
g3333
sg64
(lp3349
g57
(g58
g59
NtRp3350
(dp3351
g62
(dp3352
g70
I3
ssg71
g3346
sg64
(lp3353
g100
asbasbasbag57
(g73
g59
NtRp3354
(dp3355
g62
(dp3356
sg71
g2864
sg64
(lp3357
g57
(g78
g59
NtRp3358
(dp3359
g62
(dp3360
g82
g83
ssg71
g3354
sg64
(lp3361
S'wsgi.multithread'
p3362
asbag57
(g78
g59
NtRp3363
(dp3364
g62
(dp3365
g89
g90
ssg71
g3354
sg64
(lp3366
S':'
asbag57
(g78
g59
NtRp3367
(dp3368
g62
(dp3369
sg71
g3354
sg64
(lp3370
g57
(g58
g59
NtRp3371
(dp3372
g62
(dp3373
g70
I3
ssg71
g3367
sg64
(lp3374
g2073
asbasbasbag57
(g73
g59
NtRp3375
(dp3376
g62
(dp3377
sg71
g2864
sg64
(lp3378
g57
(g78
g59
NtRp3379
(dp3380
g62
(dp3381
g82
g83
ssg71
g3375
sg64
(lp3382
S'wsgi.run_once'
p3383
asbag57
(g78
g59
NtRp3384
(dp3385
g62
(dp3386
g89
g90
ssg71
g3375
sg64
(lp3387
S':'
asbag57
(g78
g59
NtRp3388
(dp3389
g62
(dp3390
sg71
g3375
sg64
(lp3391
g57
(g58
g59
NtRp3392
(dp3393
g62
(dp3394
g70
I3
ssg71
g3388
sg64
(lp3395
g100
asbasbasbag57
(g73
g59
NtRp3396
(dp3397
g62
(dp3398
sg71
g2864
sg64
(lp3399
g57
(g78
g59
NtRp3400
(dp3401
g62
(dp3402
g82
g83
ssg71
g3396
sg64
(lp3403
S'wsgi.url_scheme'
p3404
asbag57
(g78
g59
NtRp3405
(dp3406
g62
(dp3407
g89
g90
ssg71
g3396
sg64
(lp3408
S':'
asbag57
(g78
g59
NtRp3409
(dp3410
g62
(dp3411
sg71
g3396
sg64
(lp3412
g57
(g58
g59
NtRp3413
(dp3414
g62
(dp3415
g70
I3
ssg71
g3409
sg64
(lp3416
g2116
asbasbasbag57
(g73
g59
NtRp3417
(dp3418
g62
(dp3419
sg71
g2864
sg64
(lp3420
g57
(g78
g59
NtRp3421
(dp3422
g62
(dp3423
g82
g83
ssg71
g3417
sg64
(lp3424
S'wsgi.version'
p3425
asbag57
(g78
g59
NtRp3426
(dp3427
g62
(dp3428
g89
g90
ssg71
g3417
sg64
(lp3429
S':'
asbag57
(g78
g59
NtRp3430
(dp3431
g62
(dp3432
sg71
g3417
sg64
(lp3433
g57
(g58
g59
NtRp3434
(dp3435
g62
(dp3436
g70
I3
ssg71
g3430
sg64
(lp3437
S'1'
asbasbasbasbasbasbasbasbasbasbasbasbasbsS'frames'
p3438
(lp3439
(dp3440
S'file'
p3441
S'/home/mayank/gitrepo/Twitter-Sentiment-Analysis/front-end/web2py/gluon/restricted.py'
p3442
sS'dump'
p3443
(dp3444
S'environment'
p3445
S"{'A': <class 'gluon.html.A'>, 'Auth': <class 'gluon.tools.Auth'>, 'B': <class 'gluon.html.B'>, 'BEAUTIFY': <class 'gluon.html.BEAUTIFY'>, 'BODY': <class 'gluon.html.BODY'>, 'BR': <class 'gluon.html.BR'>, 'BUTTON': <class 'gluon.html.BUTTON'>, 'CAT': <class 'gluon.html.CAT'>, 'CENTER': <class 'gluon.html.CENTER'>, 'CLEANUP': <class 'gluon.validators.CLEANUP'>, ...}"
p3446
sS'ccode'
p3447
S'<code object <module> at 0x7f87844f5830, file "/...ons/TSAA/views/default/testDetails.html", line 1>'
p3448
ssS'lnum'
p3449
I209
sS'lines'
p3450
(dp3451
I204
S'    try:'
p3452
sI205
S'        if type(code) == types.CodeType:'
p3453
sI206
S'            ccode = code'
p3454
sI207
S'        else:'
p3455
sI208
S'            ccode = compile2(code,layer)'
p3456
sI209
S'        exec ccode in environment'
p3457
sI210
S'    except HTTP:'
p3458
sI211
S'        raise'
p3459
sI212
S'    except RestrictedError:'
p3460
sI213
S'        # do not encapsulate (obfuscate) the original RestrictedError'
p3461
ssS'call'
p3462
S'(code=r"response.write(\'<!DOCTYPE html>\\r\\n<!-- pauliris...ript>  \\r\\n</body>\\r\\n</html>\\r\\n\', escape=False)", environment={\'A\': <class \'gluon.html.A\'>, \'Auth\': <class \'gluon.tools.Auth\'>, \'B\': <class \'gluon.html.B\'>, \'BEAUTIFY\': <class \'gluon.html.BEAUTIFY\'>, \'BODY\': <class \'gluon.html.BODY\'>, \'BR\': <class \'gluon.html.BR\'>, \'BUTTON\': <class \'gluon.html.BUTTON\'>, \'CAT\': <class \'gluon.html.CAT\'>, \'CENTER\': <class \'gluon.html.CENTER\'>, \'CLEANUP\': <class \'gluon.validators.CLEANUP\'>, ...}, layer=\'/home/mayank/gitrepo/Twitter-Sentiment-Analysis/.../applications/TSAA/views/default/testDetails.html\')'
p3463
sS'func'
p3464
S'restricted'
p3465
sa(dp3466
g3441
S'/home/mayank/gitrepo/Twitter-Sentiment-Analysis/front-end/web2py/applications/TSAA/views/default/testDetails.html'
p3467
sg3443
(dp3468
sg3449
I116
sg3450
(dp3469
I107
S"    response.write('\\n\\t\\t\\t\\t', escape=False)"
p3470
sI108
S'    print i'
p3471
sI109
S'    response.write(\'\\n                                <tr>\\n                                    <td>\\n                                        <a href="\', escape=False)'
p3472
sI110
S"    response.write(URL(r = request, f = 'test' ,args=[i.id,'Sentence']))"
p3473
sI111
S'    response.write(\'">\', escape=False)'
p3474
sI112
S'    response.write(i.TestName)'
p3475
sI113
S'    response.write(\'</a>\\n                                    </td>\\n                                    <td class="description">\\n\\t\\t\\t\\t\\t\', escape=False)'
p3476
sI114
S'    response.write(i.Tweet)'
p3477
sI115
S'    response.write(\'\\n                                    </td>\\n                                    <td>\\n\\t\\t\\t\\t    \\t<span class="label label-info">\', escape=False)'
p3478
sI116
S'    response.write(i.Status)'
p3479
sI117
S'    response.write(\'</span>\\n\\t\\t\\t\\t    \\t<!--span class="label label-success">Complete</span-->\\n                                    </td>\\n                                    <td>\\n\\t\\t\\t\\t\\t<span class="label label-info">Sentence</span>\\n                                    </td>\\n                                    <td>\\n\\t\\t\\t\\t    \\t<span class="label label-info">N/A</span>\\n                                    </td>\\n                                </tr>\\n\\t\\t\\t\\t\', escape=False)'
p3480
sI118
S'    pass'
p3481
sI119
S"response.write('\\n                                <!-- row -->\\n\\n                                <!-- row -->\\n\\t\\t\\t\\t', escape=False)"
p3482
sI120
S'for i in phraseDetails:'
p3483
sI121
S"    response.write('\\n\\t\\t\\t\\t', escape=False)"
p3484
sI122
S'    print i'
p3485
sI123
S'    response.write(\'\\n                                <tr>\\n                                    <td>\\n                                        <a href="\', escape=False)'
p3486
sI124
S"    response.write(URL(r = request, f = 'test' ,args=[i.id,'Phrase']))"
p3487
sI125
S'    response.write(\'">\', escape=False)'
p3488
sI126
S'    response.write(i.TestName)'
p3489
ssg3462
S'()'
p3490
sg3464
S'<module>'
p3491
sasS'pyver'
p3492
S'Python 2.7.4: /usr/bin/python'
p3493
sS'session'
p3494
g57
(g58
g59
NtRp3495
(dp3496
g62
(dp3497
sg64
(lp3498
g57
(g66
g59
NtRp3499
(dp3500
g62
(dp3501
g70
I5
ssg71
Nsg64
(lp3502
g57
(g73
g59
NtRp3503
(dp3504
g62
(dp3505
sg71
g3499
sg64
(lp3506
g57
(g78
g59
NtRp3507
(dp3508
g62
(dp3509
g82
g83
ssg71
g3503
sg64
(lp3510
S'auth'
p3511
asbag57
(g78
g59
NtRp3512
(dp3513
g62
(dp3514
g89
g90
ssg71
g3503
sg64
(lp3515
S':'
asbag57
(g78
g59
NtRp3516
(dp3517
g62
(dp3518
sg71
g3503
sg64
(lp3519
g57
(g58
g59
NtRp3520
(dp3521
g62
(dp3522
g70
I5
ssg71
g3516
sg64
(lp3523
g57
(g66
g59
NtRp3524
(dp3525
g62
(dp3526
g70
I4
ssg71
Nsg64
(lp3527
g57
(g73
g59
NtRp3528
(dp3529
g62
(dp3530
sg71
g3524
sg64
(lp3531
g57
(g78
g59
NtRp3532
(dp3533
g62
(dp3534
g82
g83
ssg71
g3528
sg64
(lp3535
S'expiration'
p3536
asbag57
(g78
g59
NtRp3537
(dp3538
g62
(dp3539
g89
g90
ssg71
g3528
sg64
(lp3540
S':'
asbag57
(g78
g59
NtRp3541
(dp3542
g62
(dp3543
sg71
g3528
sg64
(lp3544
g57
(g58
g59
NtRp3545
(dp3546
g62
(dp3547
g70
I4
ssg71
g3541
sg64
(lp3548
S'3600'
p3549
asbasbasbag57
(g73
g59
NtRp3550
(dp3551
g62
(dp3552
sg71
g3524
sg64
(lp3553
g57
(g78
g59
NtRp3554
(dp3555
g62
(dp3556
g82
g83
ssg71
g3550
sg64
(lp3557
S'hmac_key'
p3558
asbag57
(g78
g59
NtRp3559
(dp3560
g62
(dp3561
g89
g90
ssg71
g3550
sg64
(lp3562
S':'
asbag57
(g78
g59
NtRp3563
(dp3564
g62
(dp3565
sg71
g3550
sg64
(lp3566
g57
(g58
g59
NtRp3567
(dp3568
g62
(dp3569
g70
I4
ssg71
g3563
sg64
(lp3570
S'919ad180-80ae-494b-abc0-5f68dc1da1fe'
p3571
asbasbasbag57
(g73
g59
NtRp3572
(dp3573
g62
(dp3574
sg71
g3524
sg64
(lp3575
g57
(g78
g59
NtRp3576
(dp3577
g62
(dp3578
g82
g83
ssg71
g3572
sg64
(lp3579
S'last_visit'
p3580
asbag57
(g78
g59
NtRp3581
(dp3582
g62
(dp3583
g89
g90
ssg71
g3572
sg64
(lp3584
S':'
asbag57
(g78
g59
NtRp3585
(dp3586
g62
(dp3587
sg71
g3572
sg64
(lp3588
g57
(g58
g59
NtRp3589
(dp3590
g62
(dp3591
g70
I4
ssg71
g3585
sg64
(lp3592
S'datetime.datetime(2014, 4, 3, 11, 33, 21, 927271)'
p3593
asbasbasbag57
(g73
g59
NtRp3594
(dp3595
g62
(dp3596
sg71
g3524
sg64
(lp3597
g57
(g78
g59
NtRp3598
(dp3599
g62
(dp3600
g82
g83
ssg71
g3594
sg64
(lp3601
S'remember'
p3602
asbag57
(g78
g59
NtRp3603
(dp3604
g62
(dp3605
g89
g90
ssg71
g3594
sg64
(lp3606
S':'
asbag57
(g78
g59
NtRp3607
(dp3608
g62
(dp3609
sg71
g3594
sg64
(lp3610
g57
(g58
g59
NtRp3611
(dp3612
g62
(dp3613
g70
I4
ssg71
g3607
sg64
(lp3614
g100
asbasbasbag57
(g73
g59
NtRp3615
(dp3616
g62
(dp3617
sg71
g3524
sg64
(lp3618
g57
(g78
g59
NtRp3619
(dp3620
g62
(dp3621
g82
g83
ssg71
g3615
sg64
(lp3622
S'user'
p3623
asbag57
(g78
g59
NtRp3624
(dp3625
g62
(dp3626
g89
g90
ssg71
g3615
sg64
(lp3627
S':'
asbag57
(g78
g59
NtRp3628
(dp3629
g62
(dp3630
sg71
g3615
sg64
(lp3631
g57
(g58
g59
NtRp3632
(dp3633
g62
(dp3634
g70
I4
ssg71
g3628
sg64
(lp3635
g57
(g66
g59
NtRp3636
(dp3637
g62
(dp3638
g70
I3
ssg71
Nsg64
(lp3639
g57
(g73
g59
NtRp3640
(dp3641
g62
(dp3642
sg71
g3636
sg64
(lp3643
g57
(g78
g59
NtRp3644
(dp3645
g62
(dp3646
g82
g83
ssg71
g3640
sg64
(lp3647
S'email'
p3648
asbag57
(g78
g59
NtRp3649
(dp3650
g62
(dp3651
g89
g90
ssg71
g3640
sg64
(lp3652
S':'
asbag57
(g78
g59
NtRp3653
(dp3654
g62
(dp3655
sg71
g3640
sg64
(lp3656
g57
(g58
g59
NtRp3657
(dp3658
g62
(dp3659
g70
I3
ssg71
g3653
sg64
(lp3660
S'mayankrocks.1993@gmail.com'
p3661
asbasbasbag57
(g73
g59
NtRp3662
(dp3663
g62
(dp3664
sg71
g3636
sg64
(lp3665
g57
(g78
g59
NtRp3666
(dp3667
g62
(dp3668
g82
g83
ssg71
g3662
sg64
(lp3669
S'first_name'
p3670
asbag57
(g78
g59
NtRp3671
(dp3672
g62
(dp3673
g89
g90
ssg71
g3662
sg64
(lp3674
S':'
asbag57
(g78
g59
NtRp3675
(dp3676
g62
(dp3677
sg71
g3662
sg64
(lp3678
g57
(g58
g59
NtRp3679
(dp3680
g62
(dp3681
g70
I3
ssg71
g3675
sg64
(lp3682
S'Mayank'
p3683
asbasbasbag57
(g73
g59
NtRp3684
(dp3685
g62
(dp3686
sg71
g3636
sg64
(lp3687
g57
(g78
g59
NtRp3688
(dp3689
g62
(dp3690
g82
g83
ssg71
g3684
sg64
(lp3691
S'id'
p3692
asbag57
(g78
g59
NtRp3693
(dp3694
g62
(dp3695
g89
g90
ssg71
g3684
sg64
(lp3696
S':'
asbag57
(g78
g59
NtRp3697
(dp3698
g62
(dp3699
sg71
g3684
sg64
(lp3700
g57
(g58
g59
NtRp3701
(dp3702
g62
(dp3703
g70
I3
ssg71
g3697
sg64
(lp3704
S'1'
asbasbasbag57
(g73
g59
NtRp3705
(dp3706
g62
(dp3707
sg71
g3636
sg64
(lp3708
g57
(g78
g59
NtRp3709
(dp3710
g62
(dp3711
g82
g83
ssg71
g3705
sg64
(lp3712
S'last_name'
p3713
asbag57
(g78
g59
NtRp3714
(dp3715
g62
(dp3716
g89
g90
ssg71
g3705
sg64
(lp3717
S':'
asbag57
(g78
g59
NtRp3718
(dp3719
g62
(dp3720
sg71
g3705
sg64
(lp3721
g57
(g58
g59
NtRp3722
(dp3723
g62
(dp3724
g70
I3
ssg71
g3718
sg64
(lp3725
S'Gupta'
p3726
asbasbasbag57
(g73
g59
NtRp3727
(dp3728
g62
(dp3729
sg71
g3636
sg64
(lp3730
g57
(g78
g59
NtRp3731
(dp3732
g62
(dp3733
g82
g83
ssg71
g3727
sg64
(lp3734
S'password'
p3735
asbag57
(g78
g59
NtRp3736
(dp3737
g62
(dp3738
g89
g90
ssg71
g3727
sg64
(lp3739
S':'
asbag57
(g78
g59
NtRp3740
(dp3741
g62
(dp3742
sg71
g3727
sg64
(lp3743
g57
(g58
g59
NtRp3744
(dp3745
g62
(dp3746
g70
I3
ssg71
g3740
sg64
(lp3747
S'pbkdf2(1000,20,sha512)$add8fb17801ec704$6543087b19427633a959752bcb88158e1eca6abd'
p3748
asbasbasbag57
(g73
g59
NtRp3749
(dp3750
g62
(dp3751
sg71
g3636
sg64
(lp3752
g57
(g78
g59
NtRp3753
(dp3754
g62
(dp3755
g82
g83
ssg71
g3749
sg64
(lp3756
S'registration_id'
p3757
asbag57
(g78
g59
NtRp3758
(dp3759
g62
(dp3760
g89
g90
ssg71
g3749
sg64
(lp3761
S':'
asbag57
(g78
g59
NtRp3762
(dp3763
g62
(dp3764
sg71
g3749
sg64
(lp3765
g57
(g58
g59
NtRp3766
(dp3767
g62
(dp3768
g70
I3
ssg71
g3762
sg64
(lp3769
S''
asbasbasbag57
(g73
g59
NtRp3770
(dp3771
g62
(dp3772
sg71
g3636
sg64
(lp3773
g57
(g78
g59
NtRp3774
(dp3775
g62
(dp3776
g82
g83
ssg71
g3770
sg64
(lp3777
S'registration_key'
p3778
asbag57
(g78
g59
NtRp3779
(dp3780
g62
(dp3781
g89
g90
ssg71
g3770
sg64
(lp3782
S':'
asbag57
(g78
g59
NtRp3783
(dp3784
g62
(dp3785
sg71
g3770
sg64
(lp3786
g57
(g58
g59
NtRp3787
(dp3788
g62
(dp3789
g70
I3
ssg71
g3783
sg64
(lp3790
S''
asbasbasbag57
(g73
g59
NtRp3791
(dp3792
g62
(dp3793
sg71
g3636
sg64
(lp3794
g57
(g78
g59
NtRp3795
(dp3796
g62
(dp3797
g82
g83
ssg71
g3791
sg64
(lp3798
S'reset_password_key'
p3799
asbag57
(g78
g59
NtRp3800
(dp3801
g62
(dp3802
g89
g90
ssg71
g3791
sg64
(lp3803
S':'
asbag57
(g78
g59
NtRp3804
(dp3805
g62
(dp3806
sg71
g3791
sg64
(lp3807
g57
(g58
g59
NtRp3808
(dp3809
g62
(dp3810
g70
I3
ssg71
g3804
sg64
(lp3811
S''
asbasbasbasbasbasbasbag57
(g73
g59
NtRp3812
(dp3813
g62
(dp3814
sg71
g3524
sg64
(lp3815
g57
(g78
g59
NtRp3816
(dp3817
g62
(dp3818
g82
g83
ssg71
g3812
sg64
(lp3819
S'user_groups'
p3820
asbag57
(g78
g59
NtRp3821
(dp3822
g62
(dp3823
g89
g90
ssg71
g3812
sg64
(lp3824
S':'
asbag57
(g78
g59
NtRp3825
(dp3826
g62
(dp3827
sg71
g3812
sg64
(lp3828
g57
(g58
g59
NtRp3829
(dp3830
g62
(dp3831
g70
I4
ssg71
g3825
sg64
(lp3832
g57
(g66
g59
NtRp3833
(dp3834
g62
(dp3835
g70
I3
ssg71
Nsg64
(lp3836
g57
(g73
g59
NtRp3837
(dp3838
g62
(dp3839
sg71
g3833
sg64
(lp3840
g57
(g78
g59
NtRp3841
(dp3842
g62
(dp3843
g82
g83
ssg71
g3837
sg64
(lp3844
S'1'
asbag57
(g78
g59
NtRp3845
(dp3846
g62
(dp3847
g89
g90
ssg71
g3837
sg64
(lp3848
S':'
asbag57
(g78
g59
NtRp3849
(dp3850
g62
(dp3851
sg71
g3837
sg64
(lp3852
g57
(g58
g59
NtRp3853
(dp3854
g62
(dp3855
g70
I3
ssg71
g3849
sg64
(lp3856
S'user_1'
p3857
asbasbasbasbasbasbasbasbasbasbasbag57
(g73
g59
NtRp3858
(dp3859
g62
(dp3860
sg71
g3499
sg64
(lp3861
g57
(g78
g59
NtRp3862
(dp3863
g62
(dp3864
g82
g83
ssg71
g3858
sg64
(lp3865
S'email'
p3866
asbag57
(g78
g59
NtRp3867
(dp3868
g62
(dp3869
g89
g90
ssg71
g3858
sg64
(lp3870
S':'
asbag57
(g78
g59
NtRp3871
(dp3872
g62
(dp3873
sg71
g3858
sg64
(lp3874
g57
(g58
g59
NtRp3875
(dp3876
g62
(dp3877
g70
I5
ssg71
g3871
sg64
(lp3878
g3661
asbasbasbag57
(g73
g59
NtRp3879
(dp3880
g62
(dp3881
sg71
g3499
sg64
(lp3882
g57
(g78
g59
NtRp3883
(dp3884
g62
(dp3885
g82
g83
ssg71
g3879
sg64
(lp3886
S'flash'
p3887
asbag57
(g78
g59
NtRp3888
(dp3889
g62
(dp3890
g89
g90
ssg71
g3879
sg64
(lp3891
S':'
asbag57
(g78
g59
NtRp3892
(dp3893
g62
(dp3894
sg71
g3879
sg64
(lp3895
g57
(g58
g59
NtRp3896
(dp3897
g62
(dp3898
g70
I5
ssg71
g3892
sg64
(lp3899
S'None'
p3900
asbasbasbag57
(g73
g59
NtRp3901
(dp3902
g62
(dp3903
sg71
g3499
sg64
(lp3904
g57
(g78
g59
NtRp3905
(dp3906
g62
(dp3907
g82
g83
ssg71
g3901
sg64
(lp3908
S'last_orderby'
p3909
asbag57
(g78
g59
NtRp3910
(dp3911
g62
(dp3912
g89
g90
ssg71
g3901
sg64
(lp3913
S':'
asbag57
(g78
g59
NtRp3914
(dp3915
g62
(dp3916
sg71
g3901
sg64
(lp3917
g57
(g58
g59
NtRp3918
(dp3919
g62
(dp3920
g70
I5
ssg71
g3914
sg64
(lp3921
S'None'
p3922
asbasbasbag57
(g73
g59
NtRp3923
(dp3924
g62
(dp3925
sg71
g3499
sg64
(lp3926
g57
(g78
g59
NtRp3927
(dp3928
g62
(dp3929
g82
g83
ssg71
g3923
sg64
(lp3930
S'last_query'
p3931
asbag57
(g78
g59
NtRp3932
(dp3933
g62
(dp3934
g89
g90
ssg71
g3923
sg64
(lp3935
S':'
asbag57
(g78
g59
NtRp3936
(dp3937
g62
(dp3938
sg71
g3923
sg64
(lp3939
g57
(g58
g59
NtRp3940
(dp3941
g62
(dp3942
g70
I5
ssg71
g3936
sg64
(lp3943
S'db.SentTestDetails.id>0'
p3944
asbasbasbasbasbsS'etype'
p3945
S"<type 'exceptions.AttributeError'>"
p3946
sS'date'
p3947
S'Thu Apr  3 11:34:50 2014'
p3948
sS'response'
p3949
g57
(g58
g59
NtRp3950
(dp3951
g62
(dp3952
sg64
(lp3953
g57
(g66
g59
NtRp3954
(dp3955
g62
(dp3956
g70
I5
ssg71
Nsg64
(lp3957
g57
(g73
g59
NtRp3958
(dp3959
g62
(dp3960
sg71
g3954
sg64
(lp3961
g57
(g78
g59
NtRp3962
(dp3963
g62
(dp3964
g82
g83
ssg71
g3958
sg64
(lp3965
g155
asbag57
(g78
g59
NtRp3966
(dp3967
g62
(dp3968
g89
g90
ssg71
g3958
sg64
(lp3969
S':'
asbag57
(g78
g59
NtRp3970
(dp3971
g62
(dp3972
sg71
g3958
sg64
(lp3973
g57
(g58
g59
NtRp3974
(dp3975
g62
(dp3976
g70
I5
ssg71
g3970
sg64
(lp3977
S'<cStringIO.StringO object at 0x7f87842aed18>'
p3978
asbasbasbag57
(g73
g59
NtRp3979
(dp3980
g62
(dp3981
sg71
g3954
sg64
(lp3982
g57
(g78
g59
NtRp3983
(dp3984
g62
(dp3985
g82
g83
ssg71
g3979
sg64
(lp3986
g243
asbag57
(g78
g59
NtRp3987
(dp3988
g62
(dp3989
g89
g90
ssg71
g3979
sg64
(lp3990
S':'
asbag57
(g78
g59
NtRp3991
(dp3992
g62
(dp3993
sg71
g3979
sg64
(lp3994
g57
(g58
g59
NtRp3995
(dp3996
g62
(dp3997
g70
I5
ssg71
g3991
sg64
(lp3998
g57
(g66
g59
NtRp3999
(dp4000
g62
(dp4001
g70
I4
ssg71
Nsg64
(lp4002
g57
(g73
g59
NtRp4003
(dp4004
g62
(dp4005
sg71
g3999
sg64
(lp4006
g57
(g78
g59
NtRp4007
(dp4008
g62
(dp4009
g82
g83
ssg71
g4003
sg64
(lp4010
S'session_id_tsaa'
p4011
asbag57
(g78
g59
NtRp4012
(dp4013
g62
(dp4014
g89
g90
ssg71
g4003
sg64
(lp4015
S':'
asbag57
(g78
g59
NtRp4016
(dp4017
g62
(dp4018
sg71
g4003
sg64
(lp4019
g57
(g58
g59
NtRp4020
(dp4021
g62
(dp4022
g70
I4
ssg71
g4016
sg64
(lp4023
g847
ag57
(g66
g59
NtRp4024
(dp4025
g62
(dp4026
g70
I3
ssg71
Nsg64
(lp4027
g57
(g73
g59
NtRp4028
(dp4029
g62
(dp4030
sg71
g4024
sg64
(lp4031
g57
(g78
g59
NtRp4032
(dp4033
g62
(dp4034
g82
g83
ssg71
g4028
sg64
(lp4035
g294
asbag57
(g78
g59
NtRp4036
(dp4037
g62
(dp4038
g89
g90
ssg71
g4028
sg64
(lp4039
S':'
asbag57
(g78
g59
NtRp4040
(dp4041
g62
(dp4042
sg71
g4028
sg64
(lp4043
g57
(g58
g59
NtRp4044
(dp4045
g62
(dp4046
g70
I3
ssg71
g4040
sg64
(lp4047
S''
asbasbasbag57
(g73
g59
NtRp4048
(dp4049
g62
(dp4050
sg71
g4024
sg64
(lp4051
g57
(g78
g59
NtRp4052
(dp4053
g62
(dp4054
g82
g83
ssg71
g4048
sg64
(lp4055
g315
asbag57
(g78
g59
NtRp4056
(dp4057
g62
(dp4058
g89
g90
ssg71
g4048
sg64
(lp4059
S':'
asbag57
(g78
g59
NtRp4060
(dp4061
g62
(dp4062
sg71
g4048
sg64
(lp4063
g57
(g58
g59
NtRp4064
(dp4065
g62
(dp4066
g70
I3
ssg71
g4060
sg64
(lp4067
S''
asbasbasbag57
(g73
g59
NtRp4068
(dp4069
g62
(dp4070
sg71
g4024
sg64
(lp4071
g57
(g78
g59
NtRp4072
(dp4073
g62
(dp4074
g82
g83
ssg71
g4068
sg64
(lp4075
g336
asbag57
(g78
g59
NtRp4076
(dp4077
g62
(dp4078
g89
g90
ssg71
g4068
sg64
(lp4079
S':'
asbag57
(g78
g59
NtRp4080
(dp4081
g62
(dp4082
sg71
g4068
sg64
(lp4083
g57
(g58
g59
NtRp4084
(dp4085
g62
(dp4086
g70
I3
ssg71
g4080
sg64
(lp4087
S''
asbasbasbag57
(g73
g59
NtRp4088
(dp4089
g62
(dp4090
sg71
g4024
sg64
(lp4091
g57
(g78
g59
NtRp4092
(dp4093
g62
(dp4094
g82
g83
ssg71
g4088
sg64
(lp4095
g357
asbag57
(g78
g59
NtRp4096
(dp4097
g62
(dp4098
g89
g90
ssg71
g4088
sg64
(lp4099
S':'
asbag57
(g78
g59
NtRp4100
(dp4101
g62
(dp4102
sg71
g4088
sg64
(lp4103
g57
(g58
g59
NtRp4104
(dp4105
g62
(dp4106
g70
I3
ssg71
g4100
sg64
(lp4107
S''
asbasbasbag57
(g73
g59
NtRp4108
(dp4109
g62
(dp4110
sg71
g4024
sg64
(lp4111
g57
(g78
g59
NtRp4112
(dp4113
g62
(dp4114
g82
g83
ssg71
g4108
sg64
(lp4115
g378
asbag57
(g78
g59
NtRp4116
(dp4117
g62
(dp4118
g89
g90
ssg71
g4108
sg64
(lp4119
S':'
asbag57
(g78
g59
NtRp4120
(dp4121
g62
(dp4122
sg71
g4108
sg64
(lp4123
g57
(g58
g59
NtRp4124
(dp4125
g62
(dp4126
g70
I3
ssg71
g4120
sg64
(lp4127
S''
asbasbasbag57
(g73
g59
NtRp4128
(dp4129
g62
(dp4130
sg71
g4024
sg64
(lp4131
g57
(g78
g59
NtRp4132
(dp4133
g62
(dp4134
g82
g83
ssg71
g4128
sg64
(lp4135
g399
asbag57
(g78
g59
NtRp4136
(dp4137
g62
(dp4138
g89
g90
ssg71
g4128
sg64
(lp4139
S':'
asbag57
(g78
g59
NtRp4140
(dp4141
g62
(dp4142
sg71
g4128
sg64
(lp4143
g57
(g58
g59
NtRp4144
(dp4145
g62
(dp4146
g70
I3
ssg71
g4140
sg64
(lp4147
S'/'
asbasbasbag57
(g73
g59
NtRp4148
(dp4149
g62
(dp4150
sg71
g4024
sg64
(lp4151
g57
(g78
g59
NtRp4152
(dp4153
g62
(dp4154
g82
g83
ssg71
g4148
sg64
(lp4155
g420
asbag57
(g78
g59
NtRp4156
(dp4157
g62
(dp4158
g89
g90
ssg71
g4148
sg64
(lp4159
S':'
asbag57
(g78
g59
NtRp4160
(dp4161
g62
(dp4162
sg71
g4148
sg64
(lp4163
g57
(g58
g59
NtRp4164
(dp4165
g62
(dp4166
g70
I3
ssg71
g4160
sg64
(lp4167
S''
asbasbasbag57
(g73
g59
NtRp4168
(dp4169
g62
(dp4170
sg71
g4024
sg64
(lp4171
g57
(g78
g59
NtRp4172
(dp4173
g62
(dp4174
g82
g83
ssg71
g4168
sg64
(lp4175
g441
asbag57
(g78
g59
NtRp4176
(dp4177
g62
(dp4178
g89
g90
ssg71
g4168
sg64
(lp4179
S':'
asbag57
(g78
g59
NtRp4180
(dp4181
g62
(dp4182
sg71
g4168
sg64
(lp4183
g57
(g58
g59
NtRp4184
(dp4185
g62
(dp4186
g70
I3
ssg71
g4180
sg64
(lp4187
S''
asbasbasbasbasbasbasbasbasbasbasbag57
(g73
g59
NtRp4188
(dp4189
g62
(dp4190
sg71
g3954
sg64
(lp4191
g57
(g78
g59
NtRp4192
(dp4193
g62
(dp4194
g82
g83
ssg71
g4188
sg64
(lp4195
S'delimiters'
p4196
asbag57
(g78
g59
NtRp4197
(dp4198
g62
(dp4199
g89
g90
ssg71
g4188
sg64
(lp4200
S':'
asbag57
(g78
g59
NtRp4201
(dp4202
g62
(dp4203
sg71
g4188
sg64
(lp4204
g57
(g58
g59
NtRp4205
(dp4206
g62
(dp4207
g70
I5
ssg71
g4201
sg64
(lp4208
g57
(g66
g59
NtRp4209
(dp4210
g62
(dp4211
g70
I4
ssg71
Nsg64
(lp4212
g57
(g73
g59
NtRp4213
(dp4214
g62
(dp4215
sg71
g4209
sg64
(lp4216
g57
(g78
g59
NtRp4217
(dp4218
g62
(dp4219
sg71
g4213
sg64
(lp4220
g57
(g58
g59
NtRp4221
(dp4222
g62
(dp4223
g70
I4
ssg71
g4217
sg64
(lp4224
S'{{'
p4225
asbasbasbag57
(g73
g59
NtRp4226
(dp4227
g62
(dp4228
sg71
g4209
sg64
(lp4229
g57
(g78
g59
NtRp4230
(dp4231
g62
(dp4232
sg71
g4226
sg64
(lp4233
g57
(g58
g59
NtRp4234
(dp4235
g62
(dp4236
g70
I4
ssg71
g4230
sg64
(lp4237
S'}}'
p4238
asbasbasbasbasbasbasbag57
(g73
g59
NtRp4239
(dp4240
g62
(dp4241
sg71
g3954
sg64
(lp4242
g57
(g78
g59
NtRp4243
(dp4244
g62
(dp4245
g82
g83
ssg71
g4239
sg64
(lp4246
S'files'
p4247
asbag57
(g78
g59
NtRp4248
(dp4249
g62
(dp4250
g89
g90
ssg71
g4239
sg64
(lp4251
S':'
asbag57
(g78
g59
NtRp4252
(dp4253
g62
(dp4254
sg71
g4239
sg64
(lp4255
g57
(g58
g59
NtRp4256
(dp4257
g62
(dp4258
g70
I5
ssg71
g4252
sg64
(lp4259
g57
(g66
g59
NtRp4260
(dp4261
g62
(dp4262
g70
I4
ssg71
Nsg64
(lp4263
g57
(g73
g59
NtRp4264
(dp4265
g62
(dp4266
sg71
g4260
sg64
(lp4267
g57
(g78
g59
NtRp4268
(dp4269
g62
(dp4270
sg71
g4264
sg64
(lp4271
g57
(g58
g59
NtRp4272
(dp4273
g62
(dp4274
g70
I4
ssg71
g4268
sg64
(lp4275
S'/TSAA/static/js/jquery.js'
p4276
asbasbasbag57
(g73
g59
NtRp4277
(dp4278
g62
(dp4279
sg71
g4260
sg64
(lp4280
g57
(g78
g59
NtRp4281
(dp4282
g62
(dp4283
sg71
g4277
sg64
(lp4284
g57
(g58
g59
NtRp4285
(dp4286
g62
(dp4287
g70
I4
ssg71
g4281
sg64
(lp4288
S'/TSAA/static/css/calendar.css'
p4289
asbasbasbag57
(g73
g59
NtRp4290
(dp4291
g62
(dp4292
sg71
g4260
sg64
(lp4293
g57
(g78
g59
NtRp4294
(dp4295
g62
(dp4296
sg71
g4290
sg64
(lp4297
g57
(g58
g59
NtRp4298
(dp4299
g62
(dp4300
g70
I4
ssg71
g4294
sg64
(lp4301
S'/TSAA/static/js/calendar.js'
p4302
asbasbasbag57
(g73
g59
NtRp4303
(dp4304
g62
(dp4305
sg71
g4260
sg64
(lp4306
g57
(g78
g59
NtRp4307
(dp4308
g62
(dp4309
sg71
g4303
sg64
(lp4310
g57
(g58
g59
NtRp4311
(dp4312
g62
(dp4313
g70
I4
ssg71
g4307
sg64
(lp4314
S'/TSAA/static/js/web2py.js'
p4315
asbasbasbag57
(g73
g59
NtRp4316
(dp4317
g62
(dp4318
sg71
g4260
sg64
(lp4319
g57
(g78
g59
NtRp4320
(dp4321
g62
(dp4322
sg71
g4316
sg64
(lp4323
g57
(g58
g59
NtRp4324
(dp4325
g62
(dp4326
g70
I4
ssg71
g4320
sg64
(lp4327
S'/TSAA/static/css/bootstrap/bootstrap.css'
p4328
asbasbasbag57
(g73
g59
NtRp4329
(dp4330
g62
(dp4331
sg71
g4260
sg64
(lp4332
g57
(g78
g59
NtRp4333
(dp4334
g62
(dp4335
sg71
g4329
sg64
(lp4336
g57
(g58
g59
NtRp4337
(dp4338
g62
(dp4339
g70
I4
ssg71
g4333
sg64
(lp4340
S'/TSAA/static/css/bootstrap/bootstrap-responsive.css'
p4341
asbasbasbag57
(g73
g59
NtRp4342
(dp4343
g62
(dp4344
sg71
g4260
sg64
(lp4345
g57
(g78
g59
NtRp4346
(dp4347
g62
(dp4348
sg71
g4342
sg64
(lp4349
g57
(g58
g59
NtRp4350
(dp4351
g62
(dp4352
g70
I4
ssg71
g4346
sg64
(lp4353
S'/TSAA/static/css/web2py.css'
p4354
asbasbasbag57
(g73
g59
NtRp4355
(dp4356
g62
(dp4357
sg71
g4260
sg64
(lp4358
g57
(g78
g59
NtRp4359
(dp4360
g62
(dp4361
sg71
g4355
sg64
(lp4362
g57
(g58
g59
NtRp4363
(dp4364
g62
(dp4365
g70
I4
ssg71
g4359
sg64
(lp4366
S'/TSAA/static/css/web2py_bootstrap.css'
p4367
asbasbasbag57
(g73
g59
NtRp4368
(dp4369
g62
(dp4370
sg71
g4260
sg64
(lp4371
g57
(g78
g59
NtRp4372
(dp4373
g62
(dp4374
sg71
g4368
sg64
(lp4375
g57
(g58
g59
NtRp4376
(dp4377
g62
(dp4378
g70
I4
ssg71
g4372
sg64
(lp4379
S'/TSAA/static/css/bootstrap/bootstrap-overrides.css'
p4380
asbasbasbag57
(g73
g59
NtRp4381
(dp4382
g62
(dp4383
sg71
g4260
sg64
(lp4384
g57
(g78
g59
NtRp4385
(dp4386
g62
(dp4387
sg71
g4381
sg64
(lp4388
g57
(g58
g59
NtRp4389
(dp4390
g62
(dp4391
g70
I4
ssg71
g4385
sg64
(lp4392
S'/TSAA/static/css/lib/uniform.default.css'
p4393
asbasbasbag57
(g73
g59
NtRp4394
(dp4395
g62
(dp4396
sg71
g4260
sg64
(lp4397
g57
(g78
g59
NtRp4398
(dp4399
g62
(dp4400
sg71
g4394
sg64
(lp4401
g57
(g58
g59
NtRp4402
(dp4403
g62
(dp4404
g70
I4
ssg71
g4398
sg64
(lp4405
S'/TSAA/static/css/lib/jquery-ui-1.10.2.custom.css'
p4406
asbasbasbag57
(g73
g59
NtRp4407
(dp4408
g62
(dp4409
sg71
g4260
sg64
(lp4410
g57
(g78
g59
NtRp4411
(dp4412
g62
(dp4413
sg71
g4407
sg64
(lp4414
g57
(g58
g59
NtRp4415
(dp4416
g62
(dp4417
g70
I4
ssg71
g4411
sg64
(lp4418
S'/TSAA/static/css/lib/font-awesome.css'
p4419
asbasbasbag57
(g73
g59
NtRp4420
(dp4421
g62
(dp4422
sg71
g4260
sg64
(lp4423
g57
(g78
g59
NtRp4424
(dp4425
g62
(dp4426
sg71
g4420
sg64
(lp4427
g57
(g58
g59
NtRp4428
(dp4429
g62
(dp4430
g70
I4
ssg71
g4424
sg64
(lp4431
S'/TSAA/static/css/layout.css'
p4432
asbasbasbag57
(g73
g59
NtRp4433
(dp4434
g62
(dp4435
sg71
g4260
sg64
(lp4436
g57
(g78
g59
NtRp4437
(dp4438
g62
(dp4439
sg71
g4433
sg64
(lp4440
g57
(g58
g59
NtRp4441
(dp4442
g62
(dp4443
g70
I4
ssg71
g4437
sg64
(lp4444
S'/TSAA/static/css/elements.css'
p4445
asbasbasbag57
(g73
g59
NtRp4446
(dp4447
g62
(dp4448
sg71
g4260
sg64
(lp4449
g57
(g78
g59
NtRp4450
(dp4451
g62
(dp4452
sg71
g4446
sg64
(lp4453
g57
(g58
g59
NtRp4454
(dp4455
g62
(dp4456
g70
I4
ssg71
g4450
sg64
(lp4457
S'/TSAA/static/css/icons.css'
p4458
asbasbasbag57
(g73
g59
NtRp4459
(dp4460
g62
(dp4461
sg71
g4260
sg64
(lp4462
g57
(g78
g59
NtRp4463
(dp4464
g62
(dp4465
sg71
g4459
sg64
(lp4466
g57
(g58
g59
NtRp4467
(dp4468
g62
(dp4469
g70
I4
ssg71
g4463
sg64
(lp4470
S'/TSAA/static/css/compiled/index.css'
p4471
asbasbasbag57
(g73
g59
NtRp4472
(dp4473
g62
(dp4474
sg71
g4260
sg64
(lp4475
g57
(g78
g59
NtRp4476
(dp4477
g62
(dp4478
sg71
g4472
sg64
(lp4479
g57
(g58
g59
NtRp4480
(dp4481
g62
(dp4482
g70
I4
ssg71
g4476
sg64
(lp4483
S'/TSAA/static/css/css5c84.css%3Ffamily%3DOpen%2BSans%3A300italic%2C400italic%2C600italic%2C700italic%2C800italic%2C400%2C300%2C600%2C700%2C800'
p4484
asbasbasbag57
(g73
g59
NtRp4485
(dp4486
g62
(dp4487
sg71
g4260
sg64
(lp4488
g57
(g78
g59
NtRp4489
(dp4490
g62
(dp4491
sg71
g4485
sg64
(lp4492
g57
(g58
g59
NtRp4493
(dp4494
g62
(dp4495
g70
I4
ssg71
g4489
sg64
(lp4496
S'/TSAA/static/css/cssef21.css%3Ffamily%3DLato%3A300%2C400%2C700%2C900%2C300italic%2C400italic%2C700italic%2C900italic'
p4497
asbasbasbasbasbasbasbag57
(g73
g59
NtRp4498
(dp4499
g62
(dp4500
sg71
g3954
sg64
(lp4501
g57
(g78
g59
NtRp4502
(dp4503
g62
(dp4504
g82
g83
ssg71
g4498
sg64
(lp4505
S'flash'
p4506
asbag57
(g78
g59
NtRp4507
(dp4508
g62
(dp4509
g89
g90
ssg71
g4498
sg64
(lp4510
S':'
asbag57
(g78
g59
NtRp4511
(dp4512
g62
(dp4513
sg71
g4498
sg64
(lp4514
g57
(g58
g59
NtRp4515
(dp4516
g62
(dp4517
g70
I5
ssg71
g4511
sg64
(lp4518
S''
asbasbasbag57
(g73
g59
NtRp4519
(dp4520
g62
(dp4521
sg71
g3954
sg64
(lp4522
g57
(g78
g59
NtRp4523
(dp4524
g62
(dp4525
g82
g83
ssg71
g4519
sg64
(lp4526
S'generic_patterns'
p4527
asbag57
(g78
g59
NtRp4528
(dp4529
g62
(dp4530
g89
g90
ssg71
g4519
sg64
(lp4531
S':'
asbag57
(g78
g59
NtRp4532
(dp4533
g62
(dp4534
sg71
g4519
sg64
(lp4535
g57
(g58
g59
NtRp4536
(dp4537
g62
(dp4538
g70
I5
ssg71
g4532
sg64
(lp4539
g57
(g66
g59
NtRp4540
(dp4541
g62
(dp4542
g70
I4
ssg71
Nsg64
(lp4543
g57
(g73
g59
NtRp4544
(dp4545
g62
(dp4546
sg71
g4540
sg64
(lp4547
g57
(g78
g59
NtRp4548
(dp4549
g62
(dp4550
sg71
g4544
sg64
(lp4551
g57
(g58
g59
NtRp4552
(dp4553
g62
(dp4554
g70
I4
ssg71
g4548
sg64
(lp4555
S'*'
asbasbasbasbasbasbasbag57
(g73
g59
NtRp4556
(dp4557
g62
(dp4558
sg71
g3954
sg64
(lp4559
g57
(g78
g59
NtRp4560
(dp4561
g62
(dp4562
g82
g83
ssg71
g4556
sg64
(lp4563
S'google_analytics_id'
p4564
asbag57
(g78
g59
NtRp4565
(dp4566
g62
(dp4567
g89
g90
ssg71
g4556
sg64
(lp4568
S':'
asbag57
(g78
g59
NtRp4569
(dp4570
g62
(dp4571
sg71
g4556
sg64
(lp4572
g57
(g58
g59
NtRp4573
(dp4574
g62
(dp4575
g70
I5
ssg71
g4569
sg64
(lp4576
S'None'
p4577
asbasbasbag57
(g73
g59
NtRp4578
(dp4579
g62
(dp4580
sg71
g3954
sg64
(lp4581
g57
(g78
g59
NtRp4582
(dp4583
g62
(dp4584
g82
g83
ssg71
g4578
sg64
(lp4585
S'headers'
p4586
asbag57
(g78
g59
NtRp4587
(dp4588
g62
(dp4589
g89
g90
ssg71
g4578
sg64
(lp4590
S':'
asbag57
(g78
g59
NtRp4591
(dp4592
g62
(dp4593
sg71
g4578
sg64
(lp4594
g57
(g58
g59
NtRp4595
(dp4596
g62
(dp4597
g70
I5
ssg71
g4591
sg64
(lp4598
g57
(g66
g59
NtRp4599
(dp4600
g62
(dp4601
g70
I4
ssg71
Nsg64
(lp4602
g57
(g73
g59
NtRp4603
(dp4604
g62
(dp4605
sg71
g4599
sg64
(lp4606
g57
(g78
g59
NtRp4607
(dp4608
g62
(dp4609
g82
g83
ssg71
g4603
sg64
(lp4610
S'Cache-Control'
p4611
asbag57
(g78
g59
NtRp4612
(dp4613
g62
(dp4614
g89
g90
ssg71
g4603
sg64
(lp4615
S':'
asbag57
(g78
g59
NtRp4616
(dp4617
g62
(dp4618
sg71
g4603
sg64
(lp4619
g57
(g58
g59
NtRp4620
(dp4621
g62
(dp4622
g70
I4
ssg71
g4616
sg64
(lp4623
S'no-store, no-cache, must-revalidate, post-check=0, pre-check=0'
p4624
asbasbasbag57
(g73
g59
NtRp4625
(dp4626
g62
(dp4627
sg71
g4599
sg64
(lp4628
g57
(g78
g59
NtRp4629
(dp4630
g62
(dp4631
g82
g83
ssg71
g4625
sg64
(lp4632
S'Content-Type'
p4633
asbag57
(g78
g59
NtRp4634
(dp4635
g62
(dp4636
g89
g90
ssg71
g4625
sg64
(lp4637
S':'
asbag57
(g78
g59
NtRp4638
(dp4639
g62
(dp4640
sg71
g4625
sg64
(lp4641
g57
(g58
g59
NtRp4642
(dp4643
g62
(dp4644
g70
I4
ssg71
g4638
sg64
(lp4645
S'text/html; charset=utf-8'
p4646
asbasbasbag57
(g73
g59
NtRp4647
(dp4648
g62
(dp4649
sg71
g4599
sg64
(lp4650
g57
(g78
g59
NtRp4651
(dp4652
g62
(dp4653
g82
g83
ssg71
g4647
sg64
(lp4654
S'Expires'
p4655
asbag57
(g78
g59
NtRp4656
(dp4657
g62
(dp4658
g89
g90
ssg71
g4647
sg64
(lp4659
S':'
asbag57
(g78
g59
NtRp4660
(dp4661
g62
(dp4662
sg71
g4647
sg64
(lp4663
g57
(g58
g59
NtRp4664
(dp4665
g62
(dp4666
g70
I4
ssg71
g4660
sg64
(lp4667
S'Thu, 03 Apr 2014 06:04:50 GMT'
p4668
asbasbasbag57
(g73
g59
NtRp4669
(dp4670
g62
(dp4671
sg71
g4599
sg64
(lp4672
g57
(g78
g59
NtRp4673
(dp4674
g62
(dp4675
g82
g83
ssg71
g4669
sg64
(lp4676
S'Pragma'
p4677
asbag57
(g78
g59
NtRp4678
(dp4679
g62
(dp4680
g89
g90
ssg71
g4669
sg64
(lp4681
S':'
asbag57
(g78
g59
NtRp4682
(dp4683
g62
(dp4684
sg71
g4669
sg64
(lp4685
g57
(g58
g59
NtRp4686
(dp4687
g62
(dp4688
g70
I4
ssg71
g4682
sg64
(lp4689
S'no-cache'
p4690
asbasbasbag57
(g73
g59
NtRp4691
(dp4692
g62
(dp4693
sg71
g4599
sg64
(lp4694
g57
(g78
g59
NtRp4695
(dp4696
g62
(dp4697
g82
g83
ssg71
g4691
sg64
(lp4698
S'X-Powered-By'
p4699
asbag57
(g78
g59
NtRp4700
(dp4701
g62
(dp4702
g89
g90
ssg71
g4691
sg64
(lp4703
S':'
asbag57
(g78
g59
NtRp4704
(dp4705
g62
(dp4706
sg71
g4691
sg64
(lp4707
g57
(g58
g59
NtRp4708
(dp4709
g62
(dp4710
g70
I4
ssg71
g4704
sg64
(lp4711
S'web2py'
p4712
asbasbasbasbasbasbasbag57
(g73
g59
NtRp4713
(dp4714
g62
(dp4715
sg71
g3954
sg64
(lp4716
g57
(g78
g59
NtRp4717
(dp4718
g62
(dp4719
g82
g83
ssg71
g4713
sg64
(lp4720
S'menu'
p4721
asbag57
(g78
g59
NtRp4722
(dp4723
g62
(dp4724
g89
g90
ssg71
g4713
sg64
(lp4725
S':'
asbag57
(g78
g59
NtRp4726
(dp4727
g62
(dp4728
sg71
g4713
sg64
(lp4729
g57
(g58
g59
NtRp4730
(dp4731
g62
(dp4732
g70
I5
ssg71
g4726
sg64
(lp4733
g57
(g66
g59
NtRp4734
(dp4735
g62
(dp4736
g70
I4
ssg71
Nsg64
(lp4737
g57
(g73
g59
NtRp4738
(dp4739
g62
(dp4740
sg71
g4734
sg64
(lp4741
g57
(g78
g59
NtRp4742
(dp4743
g62
(dp4744
sg71
g4738
sg64
(lp4745
g57
(g58
g59
NtRp4746
(dp4747
g62
(dp4748
g70
I4
ssg71
g4742
sg64
(lp4749
g57
(g66
g59
NtRp4750
(dp4751
g62
(dp4752
g70
I3
ssg71
Nsg64
(lp4753
g57
(g73
g59
NtRp4754
(dp4755
g62
(dp4756
sg71
g4750
sg64
(lp4757
g57
(g78
g59
NtRp4758
(dp4759
g62
(dp4760
sg71
g4754
sg64
(lp4761
g57
(g58
g59
NtRp4762
(dp4763
g62
(dp4764
g70
I3
ssg71
g4758
sg64
(lp4765
cgluon.languages
lazyT_unpickle
p4766
(S's\x04\x00\x00\x00Home'
tRp4767
asbasbasbag57
(g73
g59
NtRp4768
(dp4769
g62
(dp4770
sg71
g4750
sg64
(lp4771
g57
(g78
g59
NtRp4772
(dp4773
g62
(dp4774
sg71
g4768
sg64
(lp4775
g57
(g58
g59
NtRp4776
(dp4777
g62
(dp4778
g70
I3
ssg71
g4772
sg64
(lp4779
g100
asbasbasbag57
(g73
g59
NtRp4780
(dp4781
g62
(dp4782
sg71
g4750
sg64
(lp4783
g57
(g78
g59
NtRp4784
(dp4785
g62
(dp4786
sg71
g4780
sg64
(lp4787
g57
(g58
g59
NtRp4788
(dp4789
g62
(dp4790
g70
I3
ssg71
g4784
sg64
(lp4791
S'/TSAA/default/index'
p4792
asbasbasbag57
(g73
g59
NtRp4793
(dp4794
g62
(dp4795
sg71
g4750
sg64
(lp4796
g57
(g78
g59
NtRp4797
(dp4798
g62
(dp4799
sg71
g4793
sg64
(lp4800
g57
(g58
g59
NtRp4801
(dp4802
g62
(dp4803
g70
I3
ssg71
g4797
sg64
(lp4804
g57
(g66
g59
NtRp4805
(dp4806
g62
(dp4807
g70
I2
ssg71
Nsg64
(lp4808
sbasbasbasbasbasbasbasbag57
(g73
g59
NtRp4809
(dp4810
g62
(dp4811
sg71
g4734
sg64
(lp4812
g57
(g78
g59
NtRp4813
(dp4814
g62
(dp4815
sg71
g4809
sg64
(lp4816
g57
(g58
g59
NtRp4817
(dp4818
g62
(dp4819
g70
I4
ssg71
g4813
sg64
(lp4820
g57
(g66
g59
NtRp4821
(dp4822
g62
(dp4823
g70
I3
ssg71
Nsg64
(lp4824
g57
(g73
g59
NtRp4825
(dp4826
g62
(dp4827
sg71
g4821
sg64
(lp4828
g57
(g78
g59
NtRp4829
(dp4830
g62
(dp4831
sg71
g4825
sg64
(lp4832
g57
(g58
g59
NtRp4833
(dp4834
g62
(dp4835
g70
I3
ssg71
g4829
sg64
(lp4836
g57
(cgluon.html
SPAN
p4837
g59
NtRp4838
(dp4839
g62
(dp4840
g82
S'color:yellow'
p4841
ssg71
Nsg64
(lp4842
g4712
asbasbasbasbag57
(g73
g59
NtRp4843
(dp4844
g62
(dp4845
sg71
g4821
sg64
(lp4846
g57
(g78
g59
NtRp4847
(dp4848
g62
(dp4849
sg71
g4843
sg64
(lp4850
g57
(g58
g59
NtRp4851
(dp4852
g62
(dp4853
g70
I3
ssg71
g4847
sg64
(lp4854
g100
asbasbasbag57
(g73
g59
NtRp4855
(dp4856
g62
(dp4857
sg71
g4821
sg64
(lp4858
g57
(g78
g59
NtRp4859
(dp4860
g62
(dp4861
sg71
g4855
sg64
(lp4862
g57
(g58
g59
NtRp4863
(dp4864
g62
(dp4865
g70
I3
ssg71
g4859
sg64
(lp4866
S'http://web2py.com'
p4867
asbasbasbag57
(g73
g59
NtRp4868
(dp4869
g62
(dp4870
sg71
g4821
sg64
(lp4871
g57
(g78
g59
NtRp4872
(dp4873
g62
(dp4874
sg71
g4868
sg64
(lp4875
g57
(g58
g59
NtRp4876
(dp4877
g62
(dp4878
g70
I3
ssg71
g4872
sg64
(lp4879
g57
(g66
g59
NtRp4880
(dp4881
g62
(dp4882
g70
I2
ssg71
Nsg64
(lp4883
g57
(g73
g59
NtRp4884
(dp4885
g62
(dp4886
sg71
g4880
sg64
(lp4887
g57
(g78
g59
NtRp4888
(dp4889
g62
(dp4890
sg71
g4884
sg64
(lp4891
g57
(g58
g59
NtRp4892
(dp4893
g62
(dp4894
g70
I2
ssg71
g4888
sg64
(lp4895
g57
(g66
g59
NtRp4896
(dp4897
g62
(dp4898
g70
I1
ssg71
Nsg64
(lp4899
g57
(g73
g59
NtRp4900
(dp4901
g62
(dp4902
sg71
g4896
sg64
(lp4903
g57
(g78
g59
NtRp4904
(dp4905
g62
(dp4906
sg71
g4900
sg64
(lp4907
g57
(g58
g59
NtRp4908
(dp4909
g62
(dp4910
g70
I1
ssg71
g4904
sg64
(lp4911
g4766
(S's\x08\x00\x00\x00My Sites'
tRp4912
asbasbasbag57
(g73
g59
NtRp4913
(dp4914
g62
(dp4915
sg71
g4896
sg64
(lp4916
g57
(g78
g59
NtRp4917
(dp4918
g62
(dp4919
sg71
g4913
sg64
(lp4920
g57
(g58
g59
NtRp4921
(dp4922
g62
(dp4923
g70
I1
ssg71
g4917
sg64
(lp4924
I00
asbasbasbag57
(g73
g59
NtRp4925
(dp4926
g62
(dp4927
sg71
g4896
sg64
(lp4928
g57
(g78
g59
NtRp4929
(dp4930
g62
(dp4931
sg71
g4925
sg64
(lp4932
g57
(g58
g59
NtRp4933
(dp4934
g62
(dp4935
g70
I1
ssg71
g4929
sg64
(lp4936
S'/admin/default/site'
p4937
asbasbasbasbasbasbasbag57
(g73
g59
NtRp4938
(dp4939
g62
(dp4940
sg71
g4880
sg64
(lp4941
g57
(g78
g59
NtRp4942
(dp4943
g62
(dp4944
sg71
g4938
sg64
(lp4945
g57
(g58
g59
NtRp4946
(dp4947
g62
(dp4948
g70
I2
ssg71
g4942
sg64
(lp4949
g57
(g66
g59
NtRp4950
(dp4951
g62
(dp4952
g70
I1
ssg71
Nsg64
(lp4953
g57
(g73
g59
NtRp4954
(dp4955
g62
(dp4956
sg71
g4950
sg64
(lp4957
g57
(g78
g59
NtRp4958
(dp4959
g62
(dp4960
sg71
g4954
sg64
(lp4961
g57
(g58
g59
NtRp4962
(dp4963
g62
(dp4964
g70
I1
ssg71
g4958
sg64
(lp4965
g4766
(S's\x08\x00\x00\x00This App'
tRp4966
asbasbasbag57
(g73
g59
NtRp4967
(dp4968
g62
(dp4969
sg71
g4950
sg64
(lp4970
g57
(g78
g59
NtRp4971
(dp4972
g62
(dp4973
sg71
g4967
sg64
(lp4974
g57
(g58
g59
NtRp4975
(dp4976
g62
(dp4977
g70
I1
ssg71
g4971
sg64
(lp4978
I00
asbasbasbag57
(g73
g59
NtRp4979
(dp4980
g62
(dp4981
sg71
g4950
sg64
(lp4982
g57
(g78
g59
NtRp4983
(dp4984
g62
(dp4985
sg71
g4979
sg64
(lp4986
g57
(g58
g59
NtRp4987
(dp4988
g62
(dp4989
g70
I1
ssg71
g4983
sg64
(lp4990
S'/admin/default/design/TSAA'
p4991
asbasbasbag57
(g73
g59
NtRp4992
(dp4993
g62
(dp4994
sg71
g4950
sg64
(lp4995
g57
(g78
g59
NtRp4996
(dp4997
g62
(dp4998
sg71
g4992
sg64
(lp4999
g57
(g58
g59
NtRp5000
(dp5001
g62
(dp5002
g70
I1
ssg71
g4996
sg64
(lp5003
(lp5004
(g4766
(S's\n\x00\x00\x00Controller'
tRp5005
I00
S'/admin/default/edit/TSAA/controllers/default.py'
tp5006
a(g4766
(S's\x04\x00\x00\x00View'
tRp5007
I00
S'/admin/default/edit/TSAA/views/default/testDetails.html'
tp5008
a(g4766
(S's\x06\x00\x00\x00Layout'
tRp5009
I00
S'/admin/default/edit/TSAA/views/layout.html'
tp5010
a(g4766
(S's\n\x00\x00\x00Stylesheet'
tRp5011
I00
S'/admin/default/edit/TSAA/static/css/web2py.css'
tp5012
a(g4766
(S's\x08\x00\x00\x00DB Model'
tRp5013
I00
S'/admin/default/edit/TSAA/models/db.py'
tp5014
a(g4766
(S's\n\x00\x00\x00Menu Model'
tRp5015
I00
S'/admin/default/edit/TSAA/models/menu.py'
tp5016
a(g4766
(S's\x08\x00\x00\x00Database'
tRp5017
I00
S'/TSAA/appadmin/index'
tp5018
a(g4766
(S's\x06\x00\x00\x00Errors'
tRp5019
I00
S'/admin/default/errors/TSAA'
tp5020
a(g4766
(S's\x05\x00\x00\x00About'
tRp5021
I00
S'/admin/default/about/TSAA'
tp5022
aasbasbasbasbasbasbasbag57
(g73
g59
NtRp5023
(dp5024
g62
(dp5025
sg71
g4880
sg64
(lp5026
g57
(g78
g59
NtRp5027
(dp5028
g62
(dp5029
sg71
g5023
sg64
(lp5030
g57
(g58
g59
NtRp5031
(dp5032
g62
(dp5033
g70
I2
ssg71
g5027
sg64
(lp5034
g57
(g66
g59
NtRp5035
(dp5036
g62
(dp5037
g70
I1
ssg71
Nsg64
(lp5038
g57
(g73
g59
NtRp5039
(dp5040
g62
(dp5041
sg71
g5035
sg64
(lp5042
g57
(g78
g59
NtRp5043
(dp5044
g62
(dp5045
sg71
g5039
sg64
(lp5046
g57
(g58
g59
NtRp5047
(dp5048
g62
(dp5049
g70
I1
ssg71
g5043
sg64
(lp5050
S'web2py.com'
p5051
asbasbasbag57
(g73
g59
NtRp5052
(dp5053
g62
(dp5054
sg71
g5035
sg64
(lp5055
g57
(g78
g59
NtRp5056
(dp5057
g62
(dp5058
sg71
g5052
sg64
(lp5059
g57
(g58
g59
NtRp5060
(dp5061
g62
(dp5062
g70
I1
ssg71
g5056
sg64
(lp5063
I00
asbasbasbag57
(g73
g59
NtRp5064
(dp5065
g62
(dp5066
sg71
g5035
sg64
(lp5067
g57
(g78
g59
NtRp5068
(dp5069
g62
(dp5070
sg71
g5064
sg64
(lp5071
g57
(g58
g59
NtRp5072
(dp5073
g62
(dp5074
g70
I1
ssg71
g5068
sg64
(lp5075
S'http://www.web2py.com'
p5076
asbasbasbag57
(g73
g59
NtRp5077
(dp5078
g62
(dp5079
sg71
g5035
sg64
(lp5080
g57
(g78
g59
NtRp5081
(dp5082
g62
(dp5083
sg71
g5077
sg64
(lp5084
g57
(g58
g59
NtRp5085
(dp5086
g62
(dp5087
g70
I1
ssg71
g5081
sg64
(lp5088
(lp5089
(g4766
(S's\x08\x00\x00\x00Download'
tRp5090
I00
S'http://www.web2py.com/examples/default/download'
p5091
tp5092
a(g4766
(S's\x07\x00\x00\x00Support'
tRp5093
I00
S'http://www.web2py.com/examples/default/support'
p5094
tp5095
a(g4766
(S's\x04\x00\x00\x00Demo'
tRp5096
I00
S'http://web2py.com/demo_admin'
p5097
tp5098
a(g4766
(S's\x0e\x00\x00\x00Quick Examples'
tRp5099
I00
S'http://web2py.com/examples/default/examples'
p5100
tp5101
a(g4766
(S's\x03\x00\x00\x00FAQ'
tRp5102
I00
S'http://web2py.com/AlterEgo'
p5103
tp5104
a(g4766
(S's\x06\x00\x00\x00Videos'
tRp5105
I00
S'http://www.web2py.com/examples/default/videos/'
p5106
tp5107
a(g4766
(S's\x11\x00\x00\x00Free Applications'
tRp5108
I00
S'http://web2py.com/appliances'
p5109
tp5110
a(g4766
(S's\x07\x00\x00\x00Plugins'
tRp5111
I00
S'http://web2py.com/plugins'
p5112
tp5113
a(g4766
(S's\x07\x00\x00\x00Layouts'
tRp5114
I00
S'http://web2py.com/layouts'
p5115
tp5116
a(g4766
(S's\x07\x00\x00\x00Recipes'
tRp5117
I00
S'http://web2pyslices.com/'
p5118
tp5119
a(g4766
(S's\x08\x00\x00\x00Semantic'
tRp5120
I00
S'http://web2py.com/semantic'
p5121
tp5122
aasbasbasbasbasbasbasbag57
(g73
g59
NtRp5123
(dp5124
g62
(dp5125
sg71
g4880
sg64
(lp5126
g57
(g78
g59
NtRp5127
(dp5128
g62
(dp5129
sg71
g5123
sg64
(lp5130
g57
(g58
g59
NtRp5131
(dp5132
g62
(dp5133
g70
I2
ssg71
g5127
sg64
(lp5134
g57
(g66
g59
NtRp5135
(dp5136
g62
(dp5137
g70
I1
ssg71
Nsg64
(lp5138
g57
(g73
g59
NtRp5139
(dp5140
g62
(dp5141
sg71
g5135
sg64
(lp5142
g57
(g78
g59
NtRp5143
(dp5144
g62
(dp5145
sg71
g5139
sg64
(lp5146
g57
(g58
g59
NtRp5147
(dp5148
g62
(dp5149
g70
I1
ssg71
g5143
sg64
(lp5150
g4766
(S's\r\x00\x00\x00Documentation'
tRp5151
asbasbasbag57
(g73
g59
NtRp5152
(dp5153
g62
(dp5154
sg71
g5135
sg64
(lp5155
g57
(g78
g59
NtRp5156
(dp5157
g62
(dp5158
sg71
g5152
sg64
(lp5159
g57
(g58
g59
NtRp5160
(dp5161
g62
(dp5162
g70
I1
ssg71
g5156
sg64
(lp5163
I00
asbasbasbag57
(g73
g59
NtRp5164
(dp5165
g62
(dp5166
sg71
g5135
sg64
(lp5167
g57
(g78
g59
NtRp5168
(dp5169
g62
(dp5170
sg71
g5164
sg64
(lp5171
g57
(g58
g59
NtRp5172
(dp5173
g62
(dp5174
g70
I1
ssg71
g5168
sg64
(lp5175
S'http://www.web2py.com/book'
p5176
asbasbasbag57
(g73
g59
NtRp5177
(dp5178
g62
(dp5179
sg71
g5135
sg64
(lp5180
g57
(g78
g59
NtRp5181
(dp5182
g62
(dp5183
sg71
g5177
sg64
(lp5184
g57
(g58
g59
NtRp5185
(dp5186
g62
(dp5187
g70
I1
ssg71
g5181
sg64
(lp5188
(lp5189
(g4766
(S's\x07\x00\x00\x00Preface'
tRp5190
I00
S'http://www.web2py.com/book/default/chapter/00'
p5191
tp5192
a(g4766
(S's\x0c\x00\x00\x00Introduction'
tRp5193
I00
S'http://www.web2py.com/book/default/chapter/01'
p5194
tp5195
a(g4766
(S's\x06\x00\x00\x00Python'
tRp5196
I00
S'http://www.web2py.com/book/default/chapter/02'
p5197
tp5198
a(g4766
(S's\x08\x00\x00\x00Overview'
tRp5199
I00
S'http://www.web2py.com/book/default/chapter/03'
p5200
tp5201
a(g4766
(S's\x08\x00\x00\x00The Core'
tRp5202
I00
S'http://www.web2py.com/book/default/chapter/04'
p5203
tp5204
a(g4766
(S's\t\x00\x00\x00The Views'
tRp5205
I00
S'http://www.web2py.com/book/default/chapter/05'
p5206
tp5207
a(g4766
(S's\x08\x00\x00\x00Database'
tRp5208
I00
S'http://www.web2py.com/book/default/chapter/06'
p5209
tp5210
a(g4766
(S's\x14\x00\x00\x00Forms and Validators'
tRp5211
I00
S'http://www.web2py.com/book/default/chapter/07'
p5212
tp5213
a(g4766
(S's\r\x00\x00\x00Email and SMS'
tRp5214
I00
S'http://www.web2py.com/book/default/chapter/08'
p5215
tp5216
a(g4766
(S's\x0e\x00\x00\x00Access Control'
tRp5217
I00
S'http://www.web2py.com/book/default/chapter/09'
p5218
tp5219
a(g4766
(S's\x08\x00\x00\x00Services'
tRp5220
I00
S'http://www.web2py.com/book/default/chapter/10'
p5221
tp5222
a(g4766
(S's\x0c\x00\x00\x00Ajax Recipes'
tRp5223
I00
S'http://www.web2py.com/book/default/chapter/11'
p5224
tp5225
a(g4766
(S's\x16\x00\x00\x00Components and Plugins'
tRp5226
I00
S'http://www.web2py.com/book/default/chapter/12'
p5227
tp5228
a(g4766
(S's\x12\x00\x00\x00Deployment Recipes'
tRp5229
I00
S'http://www.web2py.com/book/default/chapter/13'
p5230
tp5231
a(g4766
(S's\r\x00\x00\x00Other Recipes'
tRp5232
I00
S'http://www.web2py.com/book/default/chapter/14'
p5233
tp5234
a(g4766
(S's\r\x00\x00\x00Buy this book'
tRp5235
I00
S'http://stores.lulu.com/web2py'
p5236
tp5237
aasbasbasbasbasbasbasbag57
(g73
g59
NtRp5238
(dp5239
g62
(dp5240
sg71
g4880
sg64
(lp5241
g57
(g78
g59
NtRp5242
(dp5243
g62
(dp5244
sg71
g5238
sg64
(lp5245
g57
(g58
g59
NtRp5246
(dp5247
g62
(dp5248
g70
I2
ssg71
g5242
sg64
(lp5249
g57
(g66
g59
NtRp5250
(dp5251
g62
(dp5252
g70
I1
ssg71
Nsg64
(lp5253
g57
(g73
g59
NtRp5254
(dp5255
g62
(dp5256
sg71
g5250
sg64
(lp5257
g57
(g78
g59
NtRp5258
(dp5259
g62
(dp5260
sg71
g5254
sg64
(lp5261
g57
(g58
g59
NtRp5262
(dp5263
g62
(dp5264
g70
I1
ssg71
g5258
sg64
(lp5265
g4766
(S's\t\x00\x00\x00Community'
tRp5266
asbasbasbag57
(g73
g59
NtRp5267
(dp5268
g62
(dp5269
sg71
g5250
sg64
(lp5270
g57
(g78
g59
NtRp5271
(dp5272
g62
(dp5273
sg71
g5267
sg64
(lp5274
g57
(g58
g59
NtRp5275
(dp5276
g62
(dp5277
g70
I1
ssg71
g5271
sg64
(lp5278
I00
asbasbasbag57
(g73
g59
NtRp5279
(dp5280
g62
(dp5281
sg71
g5250
sg64
(lp5282
g57
(g78
g59
NtRp5283
(dp5284
g62
(dp5285
sg71
g5279
sg64
(lp5286
g57
(g58
g59
NtRp5287
(dp5288
g62
(dp5289
g70
I1
ssg71
g5283
sg64
(lp5290
Nasbasbasbag57
(g73
g59
NtRp5291
(dp5292
g62
(dp5293
sg71
g5250
sg64
(lp5294
g57
(g78
g59
NtRp5295
(dp5296
g62
(dp5297
sg71
g5291
sg64
(lp5298
g57
(g58
g59
NtRp5299
(dp5300
g62
(dp5301
g70
I1
ssg71
g5295
sg64
(lp5302
(lp5303
(g4766
(S's\x06\x00\x00\x00Groups'
tRp5304
I00
S'http://www.web2py.com/examples/default/usergroups'
p5305
tp5306
a(g4766
(S's\x07\x00\x00\x00Twitter'
tRp5307
I00
S'http://twitter.com/web2py'
p5308
tp5309
a(g4766
(S's\t\x00\x00\x00Live Chat'
tRp5310
I00
S'http://webchat.freenode.net/?channels=web2py'
p5311
tp5312
aasbasbasbasbasbasbasbag57
(g73
g59
NtRp5313
(dp5314
g62
(dp5315
sg71
g4880
sg64
(lp5316
g57
(g78
g59
NtRp5317
(dp5318
g62
(dp5319
sg71
g5313
sg64
(lp5320
g57
(g58
g59
NtRp5321
(dp5322
g62
(dp5323
g70
I2
ssg71
g5317
sg64
(lp5324
g57
(g66
g59
NtRp5325
(dp5326
g62
(dp5327
g70
I1
ssg71
Nsg64
(lp5328
g57
(g73
g59
NtRp5329
(dp5330
g62
(dp5331
sg71
g5325
sg64
(lp5332
g57
(g78
g59
NtRp5333
(dp5334
g62
(dp5335
sg71
g5329
sg64
(lp5336
g57
(g58
g59
NtRp5337
(dp5338
g62
(dp5339
g70
I1
ssg71
g5333
sg64
(lp5340
g4766
(S's\x07\x00\x00\x00Plugins'
tRp5341
asbasbasbag57
(g73
g59
NtRp5342
(dp5343
g62
(dp5344
sg71
g5325
sg64
(lp5345
g57
(g78
g59
NtRp5346
(dp5347
g62
(dp5348
sg71
g5342
sg64
(lp5349
g57
(g58
g59
NtRp5350
(dp5351
g62
(dp5352
g70
I1
ssg71
g5346
sg64
(lp5353
I00
asbasbasbag57
(g73
g59
NtRp5354
(dp5355
g62
(dp5356
sg71
g5325
sg64
(lp5357
g57
(g78
g59
NtRp5358
(dp5359
g62
(dp5360
sg71
g5354
sg64
(lp5361
g57
(g58
g59
NtRp5362
(dp5363
g62
(dp5364
g70
I1
ssg71
g5358
sg64
(lp5365
Nasbasbasbag57
(g73
g59
NtRp5366
(dp5367
g62
(dp5368
sg71
g5325
sg64
(lp5369
g57
(g78
g59
NtRp5370
(dp5371
g62
(dp5372
sg71
g5366
sg64
(lp5373
g57
(g58
g59
NtRp5374
(dp5375
g62
(dp5376
g70
I1
ssg71
g5370
sg64
(lp5377
(lp5378
(S'plugin_wiki'
p5379
I00
S'http://web2py.com/examples/default/download'
p5380
tp5381
a(g4766
(S's\r\x00\x00\x00Other Plugins'
tRp5382
I00
g5112
tp5383
a(g4766
(S's\x0e\x00\x00\x00Layout Plugins'
tRp5384
I00
g5115
tp5385
aasbasbasbasbasbasbasbasbasbasbasbasbasbasbasbasbasbasbasbag57
(g73
g59
NtRp5386
(dp5387
g62
(dp5388
sg71
g3954
sg64
(lp5389
g57
(g78
g59
NtRp5390
(dp5391
g62
(dp5392
g82
g83
ssg71
g5386
sg64
(lp5393
S'meta'
p5394
asbag57
(g78
g59
NtRp5395
(dp5396
g62
(dp5397
g89
g90
ssg71
g5386
sg64
(lp5398
S':'
asbag57
(g78
g59
NtRp5399
(dp5400
g62
(dp5401
sg71
g5386
sg64
(lp5402
g57
(g58
g59
NtRp5403
(dp5404
g62
(dp5405
g70
I5
ssg71
g5399
sg64
(lp5406
g57
(g66
g59
NtRp5407
(dp5408
g62
(dp5409
g70
I4
ssg71
Nsg64
(lp5410
g57
(g73
g59
NtRp5411
(dp5412
g62
(dp5413
sg71
g5407
sg64
(lp5414
g57
(g78
g59
NtRp5415
(dp5416
g62
(dp5417
g82
g83
ssg71
g5411
sg64
(lp5418
S'author'
p5419
asbag57
(g78
g59
NtRp5420
(dp5421
g62
(dp5422
g89
g90
ssg71
g5411
sg64
(lp5423
S':'
asbag57
(g78
g59
NtRp5424
(dp5425
g62
(dp5426
sg71
g5411
sg64
(lp5427
g57
(g58
g59
NtRp5428
(dp5429
g62
(dp5430
g70
I4
ssg71
g5424
sg64
(lp5431
S'Your Name <you@example.com>'
p5432
asbasbasbag57
(g73
g59
NtRp5433
(dp5434
g62
(dp5435
sg71
g5407
sg64
(lp5436
g57
(g78
g59
NtRp5437
(dp5438
g62
(dp5439
g82
g83
ssg71
g5433
sg64
(lp5440
S'description'
p5441
asbag57
(g78
g59
NtRp5442
(dp5443
g62
(dp5444
g89
g90
ssg71
g5433
sg64
(lp5445
S':'
asbag57
(g78
g59
NtRp5446
(dp5447
g62
(dp5448
sg71
g5433
sg64
(lp5449
g57
(g58
g59
NtRp5450
(dp5451
g62
(dp5452
g70
I4
ssg71
g5446
sg64
(lp5453
S'a cool new app'
p5454
asbasbasbag57
(g73
g59
NtRp5455
(dp5456
g62
(dp5457
sg71
g5407
sg64
(lp5458
g57
(g78
g59
NtRp5459
(dp5460
g62
(dp5461
g82
g83
ssg71
g5455
sg64
(lp5462
S'generator'
p5463
asbag57
(g78
g59
NtRp5464
(dp5465
g62
(dp5466
g89
g90
ssg71
g5455
sg64
(lp5467
S':'
asbag57
(g78
g59
NtRp5468
(dp5469
g62
(dp5470
sg71
g5455
sg64
(lp5471
g57
(g58
g59
NtRp5472
(dp5473
g62
(dp5474
g70
I4
ssg71
g5468
sg64
(lp5475
S'Web2py Web Framework'
p5476
asbasbasbag57
(g73
g59
NtRp5477
(dp5478
g62
(dp5479
sg71
g5407
sg64
(lp5480
g57
(g78
g59
NtRp5481
(dp5482
g62
(dp5483
g82
g83
ssg71
g5477
sg64
(lp5484
S'keywords'
p5485
asbag57
(g78
g59
NtRp5486
(dp5487
g62
(dp5488
g89
g90
ssg71
g5477
sg64
(lp5489
S':'
asbag57
(g78
g59
NtRp5490
(dp5491
g62
(dp5492
sg71
g5477
sg64
(lp5493
g57
(g58
g59
NtRp5494
(dp5495
g62
(dp5496
g70
I4
ssg71
g5490
sg64
(lp5497
S'web2py, python, framework'
p5498
asbasbasbasbasbasbasbag57
(g73
g59
NtRp5499
(dp5500
g62
(dp5501
sg71
g3954
sg64
(lp5502
g57
(g78
g59
NtRp5503
(dp5504
g62
(dp5505
g82
g83
ssg71
g5499
sg64
(lp5506
S'models_to_run'
p5507
asbag57
(g78
g59
NtRp5508
(dp5509
g62
(dp5510
g89
g90
ssg71
g5499
sg64
(lp5511
S':'
asbag57
(g78
g59
NtRp5512
(dp5513
g62
(dp5514
sg71
g5499
sg64
(lp5515
g57
(g58
g59
NtRp5516
(dp5517
g62
(dp5518
g70
I5
ssg71
g5512
sg64
(lp5519
g57
(g66
g59
NtRp5520
(dp5521
g62
(dp5522
g70
I4
ssg71
Nsg64
(lp5523
g57
(g73
g59
NtRp5524
(dp5525
g62
(dp5526
sg71
g5520
sg64
(lp5527
g57
(g78
g59
NtRp5528
(dp5529
g62
(dp5530
sg71
g5524
sg64
(lp5531
g57
(g58
g59
NtRp5532
(dp5533
g62
(dp5534
g70
I4
ssg71
g5528
sg64
(lp5535
S'^\\w+\\.py$'
p5536
asbasbasbag57
(g73
g59
NtRp5537
(dp5538
g62
(dp5539
sg71
g5520
sg64
(lp5540
g57
(g78
g59
NtRp5541
(dp5542
g62
(dp5543
sg71
g5537
sg64
(lp5544
g57
(g58
g59
NtRp5545
(dp5546
g62
(dp5547
g70
I4
ssg71
g5541
sg64
(lp5548
S'^default/\\w+\\.py$'
p5549
asbasbasbag57
(g73
g59
NtRp5550
(dp5551
g62
(dp5552
sg71
g5520
sg64
(lp5553
g57
(g78
g59
NtRp5554
(dp5555
g62
(dp5556
sg71
g5550
sg64
(lp5557
g57
(g58
g59
NtRp5558
(dp5559
g62
(dp5560
g70
I4
ssg71
g5554
sg64
(lp5561
S'^default/testDetails/\\w+\\.py$'
p5562
asbasbasbasbasbasbasbag57
(g73
g59
NtRp5563
(dp5564
g62
(dp5565
sg71
g3954
sg64
(lp5566
g57
(g78
g59
NtRp5567
(dp5568
g62
(dp5569
g82
g83
ssg71
g5563
sg64
(lp5570
S'postprocessing'
p5571
asbag57
(g78
g59
NtRp5572
(dp5573
g62
(dp5574
g89
g90
ssg71
g5563
sg64
(lp5575
S':'
asbag57
(g78
g59
NtRp5576
(dp5577
g62
(dp5578
sg71
g5563
sg64
(lp5579
g57
(g58
g59
NtRp5580
(dp5581
g62
(dp5582
g70
I5
ssg71
g5576
sg64
(lp5583
g57
(g66
g59
NtRp5584
(dp5585
g62
(dp5586
g70
I4
ssg71
Nsg64
(lp5587
sbasbasbasbag57
(g73
g59
NtRp5588
(dp5589
g62
(dp5590
sg71
g3954
sg64
(lp5591
g57
(g78
g59
NtRp5592
(dp5593
g62
(dp5594
g82
g83
ssg71
g5588
sg64
(lp5595
S'session_file'
p5596
asbag57
(g78
g59
NtRp5597
(dp5598
g62
(dp5599
g89
g90
ssg71
g5588
sg64
(lp5600
S':'
asbag57
(g78
g59
NtRp5601
(dp5602
g62
(dp5603
sg71
g5588
sg64
(lp5604
g57
(g58
g59
NtRp5605
(dp5606
g62
(dp5607
g70
I5
ssg71
g5601
sg64
(lp5608
S"<open file '/home/mayank/gitrepo/Twitter-Sentiment-Analysis/front-end/web2py/applications/TSAA/sessions/127.0.0.1-bfc8c8e4-324c-4089-8db1-78f978a67ea6', mode 'rb+' at 0x7f8784296d20>"
p5609
asbasbasbag57
(g73
g59
NtRp5610
(dp5611
g62
(dp5612
sg71
g3954
sg64
(lp5613
g57
(g78
g59
NtRp5614
(dp5615
g62
(dp5616
g82
g83
ssg71
g5610
sg64
(lp5617
S'session_filename'
p5618
asbag57
(g78
g59
NtRp5619
(dp5620
g62
(dp5621
g89
g90
ssg71
g5610
sg64
(lp5622
S':'
asbag57
(g78
g59
NtRp5623
(dp5624
g62
(dp5625
sg71
g5610
sg64
(lp5626
g57
(g58
g59
NtRp5627
(dp5628
g62
(dp5629
g70
I5
ssg71
g5623
sg64
(lp5630
S'/home/mayank/gitrepo/Twitter-Sentiment-Analysis/front-end/web2py/applications/TSAA/sessions/127.0.0.1-bfc8c8e4-324c-4089-8db1-78f978a67ea6'
p5631
asbasbasbag57
(g73
g59
NtRp5632
(dp5633
g62
(dp5634
sg71
g3954
sg64
(lp5635
g57
(g78
g59
NtRp5636
(dp5637
g62
(dp5638
g82
g83
ssg71
g5632
sg64
(lp5639
S'session_id'
p5640
asbag57
(g78
g59
NtRp5641
(dp5642
g62
(dp5643
g89
g90
ssg71
g5632
sg64
(lp5644
S':'
asbag57
(g78
g59
NtRp5645
(dp5646
g62
(dp5647
sg71
g5632
sg64
(lp5648
g57
(g58
g59
NtRp5649
(dp5650
g62
(dp5651
g70
I5
ssg71
g5645
sg64
(lp5652
g847
asbasbasbag57
(g73
g59
NtRp5653
(dp5654
g62
(dp5655
sg71
g3954
sg64
(lp5656
g57
(g78
g59
NtRp5657
(dp5658
g62
(dp5659
g82
g83
ssg71
g5653
sg64
(lp5660
S'session_id_name'
p5661
asbag57
(g78
g59
NtRp5662
(dp5663
g62
(dp5664
g89
g90
ssg71
g5653
sg64
(lp5665
S':'
asbag57
(g78
g59
NtRp5666
(dp5667
g62
(dp5668
sg71
g5653
sg64
(lp5669
g57
(g58
g59
NtRp5670
(dp5671
g62
(dp5672
g70
I5
ssg71
g5666
sg64
(lp5673
g4011
asbasbasbag57
(g73
g59
NtRp5674
(dp5675
g62
(dp5676
sg71
g3954
sg64
(lp5677
g57
(g78
g59
NtRp5678
(dp5679
g62
(dp5680
g82
g83
ssg71
g5674
sg64
(lp5681
S'session_locked'
p5682
asbag57
(g78
g59
NtRp5683
(dp5684
g62
(dp5685
g89
g90
ssg71
g5674
sg64
(lp5686
S':'
asbag57
(g78
g59
NtRp5687
(dp5688
g62
(dp5689
sg71
g5674
sg64
(lp5690
g57
(g58
g59
NtRp5691
(dp5692
g62
(dp5693
g70
I5
ssg71
g5687
sg64
(lp5694
g2073
asbasbasbag57
(g73
g59
NtRp5695
(dp5696
g62
(dp5697
sg71
g3954
sg64
(lp5698
g57
(g78
g59
NtRp5699
(dp5700
g62
(dp5701
g82
g83
ssg71
g5695
sg64
(lp5702
S'session_new'
p5703
asbag57
(g78
g59
NtRp5704
(dp5705
g62
(dp5706
g89
g90
ssg71
g5695
sg64
(lp5707
S':'
asbag57
(g78
g59
NtRp5708
(dp5709
g62
(dp5710
sg71
g5695
sg64
(lp5711
g57
(g58
g59
NtRp5712
(dp5713
g62
(dp5714
g70
I5
ssg71
g5708
sg64
(lp5715
g100
asbasbasbag57
(g73
g59
NtRp5716
(dp5717
g62
(dp5718
sg71
g3954
sg64
(lp5719
g57
(g78
g59
NtRp5720
(dp5721
g62
(dp5722
g82
g83
ssg71
g5716
sg64
(lp5723
S'status'
p5724
asbag57
(g78
g59
NtRp5725
(dp5726
g62
(dp5727
g89
g90
ssg71
g5716
sg64
(lp5728
S':'
asbag57
(g78
g59
NtRp5729
(dp5730
g62
(dp5731
sg71
g5716
sg64
(lp5732
g57
(g58
g59
NtRp5733
(dp5734
g62
(dp5735
g70
I5
ssg71
g5729
sg64
(lp5736
S'200'
p5737
asbasbasbag57
(g73
g59
NtRp5738
(dp5739
g62
(dp5740
sg71
g3954
sg64
(lp5741
g57
(g78
g59
NtRp5742
(dp5743
g62
(dp5744
g82
g83
ssg71
g5738
sg64
(lp5745
S'subtitle'
p5746
asbag57
(g78
g59
NtRp5747
(dp5748
g62
(dp5749
g89
g90
ssg71
g5738
sg64
(lp5750
S':'
asbag57
(g78
g59
NtRp5751
(dp5752
g62
(dp5753
sg71
g5738
sg64
(lp5754
g57
(g58
g59
NtRp5755
(dp5756
g62
(dp5757
g70
I5
ssg71
g5751
sg64
(lp5758
g4766
(S's\r\x00\x00\x00customize me!'
tRp5759
asbasbasbag57
(g73
g59
NtRp5760
(dp5761
g62
(dp5762
sg71
g3954
sg64
(lp5763
g57
(g78
g59
NtRp5764
(dp5765
g62
(dp5766
g82
g83
ssg71
g5760
sg64
(lp5767
S'title'
p5768
asbag57
(g78
g59
NtRp5769
(dp5770
g62
(dp5771
g89
g90
ssg71
g5760
sg64
(lp5772
S':'
asbag57
(g78
g59
NtRp5773
(dp5774
g62
(dp5775
sg71
g5760
sg64
(lp5776
g57
(g58
g59
NtRp5777
(dp5778
g62
(dp5779
g70
I5
ssg71
g5773
sg64
(lp5780
S'Tsaa'
p5781
asbasbasbag57
(g73
g59
NtRp5782
(dp5783
g62
(dp5784
sg71
g3954
sg64
(lp5785
g57
(g78
g59
NtRp5786
(dp5787
g62
(dp5788
g82
g83
ssg71
g5782
sg64
(lp5789
S'view'
p5790
asbag57
(g78
g59
NtRp5791
(dp5792
g62
(dp5793
g89
g90
ssg71
g5782
sg64
(lp5794
S':'
asbag57
(g78
g59
NtRp5795
(dp5796
g62
(dp5797
sg71
g5782
sg64
(lp5798
g57
(g58
g59
NtRp5799
(dp5800
g62
(dp5801
g70
I5
ssg71
g5795
sg64
(lp5802
S'default/testDetails.html'
p5803
asbasbasbasbasbsS'locals'
p5804
(dp5805
S'Service'
p5806
S"<class 'gluon.tools.Service'>"
p5807
sS'OBJECT'
p5808
S"<class 'gluon.html.OBJECT'>"
p5809
sS'SQLDB'
p5810
S"<class 'gluon.dal.DAL'>"
p5811
sg3494
S"<Storage {'_Session__hash': '\\x1bB\\xdfD\\x8a\\xd6N...ils/2]': '71f42b0c-7eaf-44df-8424-11f2a4378483'}>"
p5812
sS'LINK'
p5813
S"<class 'gluon.html.LINK'>"
p5814
sS'BR'
p5815
S"<class 'gluon.html.BR'>"
p5816
sS'local_import'
p5817
S'<function <lambda>>'
p5818
sS'OPTGROUP'
p5819
S"<class 'gluon.html.OPTGROUP'>"
p5820
sS'__package__'
p5821
S'None'
p5822
sS'PRE'
p5823
S"<class 'gluon.html.PRE'>"
p5824
sS'IS_INT_IN_RANGE'
p5825
S"<class 'gluon.validators.IS_INT_IN_RANGE'>"
p5826
sS'left_sidebar_enabled'
p5827
g100
sS'IS_LOWER'
p5828
S"<class 'gluon.validators.IS_LOWER'>"
p5829
sS'IS_STRONG'
p5830
S"<class 'gluon.validators.IS_STRONG'>"
p5831
sS'cache'
p5832
S'<gluon.cache.Cache object>'
p5833
sS'IS_IN_DB'
p5834
S"<class 'gluon.validators.IS_IN_DB'>"
p5835
sS'TAG'
p5836
S'<gluon.html.__TAG__ object>'
p5837
sS'SQLField'
p5838
S"<class 'gluon.dal.Field'>"
p5839
sS'mail'
p5840
S'<gluon.tools.Mail object>'
p5841
sS'BODY'
p5842
S"<class 'gluon.html.BODY'>"
p5843
sS'IS_DATE_IN_RANGE'
p5844
S"<class 'gluon.validators.IS_DATE_IN_RANGE'>"
p5845
sS'TH'
p5846
S"<class 'gluon.html.TH'>"
p5847
sS'URL'
p5848
S'<function URL>'
p5849
sS'__file__'
p5850
S"'/home/mayank/gitrepo/Twitter-Sentiment-Analysis/.../applications/TSAA/views/default/testDetails.html'"
p5851
sS'db'
p5852
S'<DAL sqlite://storage.sqlite>'
p5853
sS'auth'
p5854
S'<gluon.tools.Auth object>'
p5855
sS'P'
S"<class 'gluon.html.P'>"
p5856
sS'TFOOT'
p5857
S"<class 'gluon.html.TFOOT'>"
p5858
sS'XHTML'
p5859
S"<class 'gluon.html.XHTML'>"
p5860
sS'ON'
p5861
g2073
sS'OL'
p5862
S"<class 'gluon.html.OL'>"
p5863
sS'TEXTAREA'
p5864
S"<class 'gluon.html.TEXTAREA'>"
p5865
sS'MENU'
p5866
S"<class 'gluon.html.MENU'>"
p5867
sS'phraseDetails'
p5868
S'<Rows (1)>'
p5869
sS'IS_IMAGE'
p5870
S"<class 'gluon.validators.IS_IMAGE'>"
p5871
sS'LOAD'
p5872
S'<function LOAD>'
p5873
sS'CODE'
p5874
S"<class 'gluon.html.CODE'>"
p5875
sS'HTTP'
p5876
S"<class 'gluon.http.HTTP'>"
p5877
sS'HR'
p5878
S"<class 'gluon.html.HR'>"
p5879
sS'IS_DATETIME'
p5880
S"<class 'gluon.validators.IS_DATETIME'>"
p5881
sS'HEAD'
p5882
S"<class 'gluon.html.HEAD'>"
p5883
sS'LABEL'
p5884
S"<class 'gluon.html.LABEL'>"
p5885
sS'META'
p5886
S"<class 'gluon.html.META'>"
p5887
sS'plugins'
p5888
S'<gluon.tools.PluginManager object>'
p5889
sS'SELECT'
p5890
S"<class 'gluon.html.SELECT'>"
p5891
sS'use_janrain'
p5892
S'<function use_janrain>'
p5893
sS'CENTER'
p5894
S"<class 'gluon.html.CENTER'>"
p5895
sS'prettydate'
p5896
S'<function prettydate>'
p5897
sS'Crud'
p5898
S"<class 'gluon.tools.Crud'>"
p5899
sS'Auth'
p5900
S"<class 'gluon.tools.Auth'>"
p5901
sS'IS_EQUAL_TO'
p5902
S"<class 'gluon.validators.IS_EQUAL_TO'>"
p5903
sS'HTML'
p5904
S"<class 'gluon.html.HTML'>"
p5905
sS'SQLFORM'
p5906
S"<class 'gluon.sqlhtml.SQLFORM'>"
p5907
sS'EM'
p5908
S"<class 'gluon.html.EM'>"
p5909
sS'redirect'
p5910
S'<function redirect>'
p5911
sS'FIELDSET'
p5912
S"<class 'gluon.html.FIELDSET'>"
p5913
sS'__builtins__'
p5914
S"{'ArithmeticError': <type 'exceptions.ArithmeticError'>, 'AssertionError': <type 'exceptions.AssertionError'>, 'AttributeError': <type 'exceptions.AttributeError'>, 'BaseException': <type 'exceptions.BaseException'>, 'BufferError': <type 'exceptions.BufferError'>, 'BytesWarning': <type 'exceptions.BytesWarning'>, 'DeprecationWarning': <type 'exceptions.DeprecationWarning'>, 'EOFError': <type 'exceptions.EOFError'>, 'Ellipsis': Ellipsis, 'EnvironmentError': <type 'exceptions.EnvironmentError'>, ...}"
p5915
sS'embed64'
p5916
S'<function embed64>'
p5917
sS'IS_LIST_OF'
p5918
S"<class 'gluon.validators.IS_LIST_OF'>"
p5919
sS'sentDetails'
p5920
S'<Rows (3)>'
p5921
sS'INPUT'
p5922
S"<class 'gluon.html.INPUT'>"
p5923
sS'EMBED'
p5924
S"<class 'gluon.html.EMBED'>"
p5925
sS'_'
S'<function _>'
p5926
sS'H2'
p5927
S"<class 'gluon.html.H2'>"
p5928
sS'H3'
p5929
S"<class 'gluon.html.H3'>"
p5930
sS'BUTTON'
p5931
S"<class 'gluon.html.BUTTON'>"
p5932
sS'H1'
p5933
S"<class 'gluon.html.H1'>"
p5934
sS'H6'
p5935
S"<class 'gluon.html.H6'>"
p5936
sS'host'
p5937
S"'127.0.0.1:8000'"
p5938
sS'H4'
p5939
S"<class 'gluon.html.H4'>"
p5940
sS'H5'
p5941
S"<class 'gluon.html.H5'>"
p5942
sS'UL'
p5943
S"<class 'gluon.html.UL'>"
p5944
sS'IS_UPPER'
p5945
S"<class 'gluon.validators.IS_UPPER'>"
p5946
sS'xmlescape'
p5947
S'<function xmlescape>'
p5948
sS'IS_TIME'
p5949
S"<class 'gluon.validators.IS_TIME'>"
p5950
sS'OPTION'
p5951
S"<class 'gluon.html.OPTION'>"
p5952
sS'TITLE'
p5953
S"<class 'gluon.html.TITLE'>"
p5954
sS'CRYPT'
p5955
S"<class 'gluon.validators.CRYPT'>"
p5956
sS'IS_EMPTY_OR'
p5957
S"<class 'gluon.validators.IS_EMPTY_OR'>"
p5958
sS'MARKMIN'
p5959
S"<class 'gluon.html.MARKMIN'>"
p5960
sS'__name__'
p5961
S"'__restricted__'"
p5962
sS'STRONG'
p5963
S"<class 'gluon.html.STRONG'>"
p5964
sS'COL'
p5965
S"<class 'gluon.html.COL'>"
p5966
sS'service'
p5967
S'<gluon.tools.Service object>'
p5968
sS'SCRIPT'
p5969
S"<class 'gluon.html.SCRIPT'>"
p5970
sS'TABLE'
p5971
S"<class 'gluon.html.TABLE'>"
p5972
sS'IS_IPV4'
p5973
S"<class 'gluon.validators.IS_IPV4'>"
p5974
sS'IS_LENGTH'
p5975
S"<class 'gluon.validators.IS_LENGTH'>"
p5976
sS'XML'
p5977
S"<class 'gluon.html.XML'>"
p5978
sS'B'
S"<class 'gluon.html.B'>"
p5979
sS'IMG'
p5980
S"<class 'gluon.html.IMG'>"
p5981
sS'SQLTABLE'
p5982
S"<class 'gluon.sqlhtml.SQLTABLE'>"
p5983
sS'IS_MATCH'
p5984
S"<class 'gluon.validators.IS_MATCH'>"
p5985
sS'IS_ALPHANUMERIC'
p5986
S"<class 'gluon.validators.IS_ALPHANUMERIC'>"
p5987
sS'SPAN'
p5988
S"<class 'gluon.html.SPAN'>"
p5989
sS'IS_SLUG'
p5990
S"<class 'gluon.validators.IS_SLUG'>"
p5991
sg2736
S"'testDetails'"
p5992
sS'CLEANUP'
p5993
S"<class 'gluon.validators.CLEANUP'>"
p5994
sS'IS_DATE'
p5995
S"<class 'gluon.validators.IS_DATE'>"
p5996
sS'IS_EMAIL'
p5997
S"<class 'gluon.validators.IS_EMAIL'>"
p5998
sS'IS_NOT_EMPTY'
p5999
S"<class 'gluon.validators.IS_NOT_EMPTY'>"
p6000
sg56
S"<Storage {'function': 'testDetails', 'body': <cS.../applications/TSAA/', 'post_vars': <Storage {}>}>"
p6001
sS'BEAUTIFY'
p6002
S"<class 'gluon.html.BEAUTIFY'>"
p6003
sS'TBODY'
p6004
S"<class 'gluon.html.TBODY'>"
p6005
sS'CAT'
p6006
S"<class 'gluon.html.CAT'>"
p6007
sS'Field'
p6008
S"<class 'gluon.dal.Field'>"
p6009
sS'middle_columns'
p6010
S"'span12'"
p6011
sS'DIV'
p6012
S"<class 'gluon.html.DIV'>"
p6013
sS'LEGEND'
p6014
S"<class 'gluon.html.LEGEND'>"
p6015
sS'COLGROUP'
p6016
S"<class 'gluon.html.COLGROUP'>"
p6017
sS'DAL'
p6018
S"<class 'gluon.dal.DAL'>"
p6019
sS'TT'
p6020
S"<class 'gluon.html.TT'>"
p6021
sS'TR'
p6022
S"<class 'gluon.html.TR'>"
p6023
sS'LI'
p6024
S"<class 'gluon.html.LI'>"
p6025
sS'right_sidebar_enabled'
p6026
g100
sS'IFRAME'
p6027
S"<class 'gluon.html.IFRAME'>"
p6028
sS'TD'
p6029
S"<class 'gluon.html.TD'>"
p6030
sS'PluginManager'
p6031
S"<class 'gluon.tools.PluginManager'>"
p6032
sS'IS_URL'
p6033
S"<class 'gluon.validators.IS_URL'>"
p6034
sS'A'
S"<class 'gluon.html.A'>"
p6035
sS'STYLE'
p6036
S"<class 'gluon.html.STYLE'>"
p6037
sS'IS_DATETIME_IN_RANGE'
p6038
S"<class 'gluon.validators.IS_DATETIME_IN_RANGE'>"
p6039
sS'FORM'
p6040
S"<class 'gluon.html.FORM'>"
p6041
sS'I'
S"<class 'gluon.html.I'>"
p6042
sS'crud'
p6043
S'<gluon.tools.Crud object>'
p6044
sS'IS_NOT_IN_DB'
p6045
S"<class 'gluon.validators.IS_NOT_IN_DB'>"
p6046
sg3949
S"<Storage {'body': <cStringIO.StringO object at 0...87842f2aa0>, 'view': 'default/testDetails.html'}>"
p6047
sS'THEAD'
p6048
S"<class 'gluon.html.THEAD'>"
p6049
sS'IS_NULL_OR'
p6050
S"<class 'gluon.validators.IS_EMPTY_OR'>"
p6051
sS'i'
S"<Row {'UserEmail': 'mayankrocks.1993@gmail.com',... object at 0x7f87842a9cd0>, 'TrainStatus': None}>"
p6052
sS'IS_FLOAT_IN_RANGE'
p6053
S"<class 'gluon.validators.IS_FLOAT_IN_RANGE'>"
p6054
sS'IS_EXPR'
p6055
S"<class 'gluon.validators.IS_EXPR'>"
p6056
sS'T'
S'<gluon.languages.translator object>'
p6057
sS'IS_IN_SET'
p6058
S"<class 'gluon.validators.IS_IN_SET'>"
p6059
sS'IS_UPLOAD_FILENAME'
p6060
S"<class 'gluon.validators.IS_UPLOAD_FILENAME'>"
p6061
sS'IS_DECIMAL_IN_RANGE'
p6062
S"<class 'gluon.validators.IS_DECIMAL_IN_RANGE'>"
p6063
sssS'traceback'
p6064
S'Traceback (most recent call last):\n  File "/home/mayank/gitrepo/Twitter-Sentiment-Analysis/front-end/web2py/gluon/restricted.py", line 209, in restricted\n    exec ccode in environment\n  File "/home/mayank/gitrepo/Twitter-Sentiment-Analysis/front-end/web2py/applications/TSAA/views/default/testDetails.html", line 116, in <module>\nAttributeError: \'Row\' object has no attribute \'Status\'\n'
p6065
s.