(dp1
S'output'
p2
S"<type 'exceptions.SyntaxError'> invalid syntax (default.py, line 33)"
p3
sS'layer'
p4
S'/home/mayank/gitrepo/Twitter-Sentiment-Analysis/front-end/web2py/applications/FunkLoad/controllers/default.py'
p5
sS'code'
p6
S'# -*- coding: utf-8 -*-\n# this file is released under public domain and you can use without limitations\nimport os\n#########################################################################\n## This is a samples controller\n## - index is the default action of any application\n## - user is required for authentication and authorization\n## - download is for downloading files uploaded in the db (does streaming)\n## - call exposes all registered services (none by default)\n#########################################################################\n\n\n#-----------------------Error Page-----------------------------------\n#if java script dissabled\ndef error():\n\t        return dict()\n\n#-----------------------Home Page------------------------------------\n@auth.requires_login()\ndef index():\n    \tsession.email=auth.user.email\n    \tprint session.email\n    \treturn dict()\n\n\n@auth.requires_login()\ndef test():\n\ttid=request.args[0]\n\ttestType=request.args[1]\n\tprint tid,testType\n        session.email=auth.user.email\n        print session.email\n\tif testType=\'Sentence\':\n\t\tdetails=db(db.SentTestDetails.id == tid).select()[0]\n\telse:\n\t\tdetails=db(db.PhraseTestDetails.id == tid).select()[0]\n\tprint details\n        return dict(details=details)\n\n@auth.requires_login()\ndef testDetails():\n    \tsession.email=auth.user.email\n    \tprint session.email\n\tsentDetails=db(db.SentTestDetails.UserEmail == session.email).select()\n\tphraseDetails=db(db.PhraseTestDetails.UserEmail == session.email).select() \n\tprint sentDetails\n\tprint phraseDetails\n\treturn dict(sentDetails=sentDetails,phraseDetails=phraseDetails)\n\n@auth.requires_login()\ndef addTest():\n    \tsession.email=auth.user.email\n    \tprint session.email\n\tif request.vars.Submit==\'Submit\' :\n\t\tTestName=request.vars.TestName\n\t\tTweet=request.vars.Tweet\n\t\tTestType=request.vars.TestType\n\t\tPhrase=request.vars.Phrase\n\t\tprint TestName\n\t\tprint Tweet\n\t\tprint TestType\n\t\tprint Phrase\n\n\t\tif TestType=\'Sentence\':\n\t\t\ttid=db.SentTestDetails.insert(TestName=TestName,UserEmail=session.email,Tweet=Tweet)\n\t\telse:\n\t\t\ttid=db.PhraseTestDetails.insert(TestName=TestName,UserEmail=session.email,Tweet=Tweet,Phrase=Phrase)\n\t\tdb.commit()\n\t\tredirect(URL(r=request, f=\'testDetails\'))\n\treturn dict()\n\ndef user():\n    """\n    exposes:\n    http://..../[app]/default/user/login\n    http://..../[app]/default/user/logout\n    http://..../[app]/default/user/register\n    http://..../[app]/default/user/profile\n    http://..../[app]/default/user/retrieve_password\n    http://..../[app]/default/user/change_password\n    use @auth.requires_login()\n        @auth.requires_membership(\'group name\')\n        @auth.requires_permission(\'read\',\'table name\',record_id)\n    to decorate functions that need access control\n    """\n    return dict(form=auth())\n\n\ndef download():\n    """\n    allows downloading of uploaded files\n    http://..../[app]/default/download/[filename]\n    """\n    return response.download(request,db)\n\n\ndef call():\n    """\n    exposes services. for example:\n    http://..../[app]/default/call/jsonrpc\n    decorate with @services.jsonrpc the functions to expose\n    supports xml, json, xmlrpc, jsonrpc, amfrpc, rss, csv\n    """\n    return service()\n\n\n@auth.requires_signature()\ndef data():\n    """\n    http://..../[app]/default/data/tables\n    http://..../[app]/default/data/create/[table]\n    http://..../[app]/default/data/read/[table]/[id]\n    http://..../[app]/default/data/update/[table]/[id]\n    http://..../[app]/default/data/delete/[table]/[id]\n    http://..../[app]/default/data/select/[table]\n    http://..../[app]/default/data/search/[table]\n    but URLs must be signed, i.e. linked with\n      A(\'table\',_href=URL(\'data/tables\',user_signature=True))\n    or with the signed load operator\n      LOAD(\'default\',\'data.load\',args=\'tables\',ajax=True,user_signature=True)\n    """\n    return dict(form=crud())\n\nresponse._vars=response._caller(index)\n'
p7
sS'snapshot'
p8
(dp9
S'exception'
p10
(dp11
S'__getslice__'
p12
S"<method-wrapper '__getslice__' of exceptions.SyntaxError object>"
p13
sS'text'
p14
S'"\\tif testType=\'Sentence\':\\n"'
p15
sS'__str__'
p16
S"<method-wrapper '__str__' of exceptions.SyntaxError object>"
p17
sS'__reduce__'
p18
S'<built-in method __reduce__ of exceptions.SyntaxError object>'
p19
sS'__dict__'
p20
S'{}'
p21
sS'__sizeof__'
p22
S'<built-in method __sizeof__ of exceptions.SyntaxError object>'
p23
sS'__init__'
p24
S"<method-wrapper '__init__' of exceptions.SyntaxError object>"
p25
sS'__setattr__'
p26
S"<method-wrapper '__setattr__' of exceptions.SyntaxError object>"
p27
sS'__reduce_ex__'
p28
S'<built-in method __reduce_ex__ of exceptions.SyntaxError object>'
p29
sS'__new__'
p30
S'<built-in method __new__ of type object>'
p31
sS'__format__'
p32
S'<built-in method __format__ of exceptions.SyntaxError object>'
p33
sS'__class__'
p34
S"<type 'exceptions.SyntaxError'>"
p35
sS'filename'
p36
S"'/home/mayank/gitrepo/Twitter-Sentiment-Analysis/...b2py/applications/FunkLoad/controllers/default.py'"
p37
sS'lineno'
p38
S'33'
p39
sS'msg'
p40
S"'invalid syntax'"
p41
sS'__doc__'
p42
S"'Invalid syntax.'"
p43
sS'__getitem__'
p44
S"<method-wrapper '__getitem__' of exceptions.SyntaxError object>"
p45
sS'__setstate__'
p46
S'<built-in method __setstate__ of exceptions.SyntaxError object>'
p47
sS'__getattribute__'
p48
S"<method-wrapper '__getattribute__' of exceptions.SyntaxError object>"
p49
sS'print_file_and_line'
p50
S'None'
p51
sS'args'
p52
S'(\'invalid syntax\', (\'/home/mayank/gitrepo/Twitter-Sentiment-Analysis/...b2py/applications/FunkLoad/controllers/default.py\', 33, 13, "\\tif testType=\'Sentence\':\\n"))'
p53
sS'__subclasshook__'
p54
S'<built-in method __subclasshook__ of type object>'
p55
sS'offset'
p56
S'13'
p57
sS'__unicode__'
p58
S'<built-in method __unicode__ of exceptions.SyntaxError object>'
p59
sS'__delattr__'
p60
S"<method-wrapper '__delattr__' of exceptions.SyntaxError object>"
p61
sS'__repr__'
p62
S"<method-wrapper '__repr__' of exceptions.SyntaxError object>"
p63
sS'__hash__'
p64
S"<method-wrapper '__hash__' of exceptions.SyntaxError object>"
p65
ssS'evalue'
p66
S'invalid syntax (default.py, line 33)'
p67
sS'request'
p68
ccopy_reg
_reconstructor
p69
(cgluon.html
BEAUTIFY
p70
c__builtin__
object
p71
NtRp72
(dp73
S'attributes'
p74
(dp75
sS'components'
p76
(lp77
g69
(cgluon.html
TABLE
p78
g71
NtRp79
(dp80
g74
(dp81
S'level'
p82
I5
ssS'parent'
p83
Nsg76
(lp84
g69
(cgluon.html
TR
p85
g71
NtRp86
(dp87
g74
(dp88
sg83
g79
sg76
(lp89
g69
(cgluon.html
TD
p90
g71
NtRp91
(dp92
g74
(dp93
S'_style'
p94
S'font-weight:bold;vertical-align:top'
p95
ssg83
g86
sg76
(lp96
S'ajax'
p97
asbag69
(g90
g71
NtRp98
(dp99
g74
(dp100
S'_valign'
p101
S'top'
p102
ssg83
g86
sg76
(lp103
S':'
asbag69
(g90
g71
NtRp104
(dp105
g74
(dp106
sg83
g86
sg76
(lp107
g69
(g70
g71
NtRp108
(dp109
g74
(dp110
g82
I5
ssg83
g104
sg76
(lp111
S'False'
p112
asbasbasbag69
(g85
g71
NtRp113
(dp114
g74
(dp115
sg83
g79
sg76
(lp116
g69
(g90
g71
NtRp117
(dp118
g74
(dp119
g94
g95
ssg83
g113
sg76
(lp120
S'application'
p121
asbag69
(g90
g71
NtRp122
(dp123
g74
(dp124
g101
g102
ssg83
g113
sg76
(lp125
S':'
asbag69
(g90
g71
NtRp126
(dp127
g74
(dp128
sg83
g113
sg76
(lp129
g69
(g70
g71
NtRp130
(dp131
g74
(dp132
g82
I5
ssg83
g126
sg76
(lp133
S'FunkLoad'
p134
asbasbasbag69
(g85
g71
NtRp135
(dp136
g74
(dp137
sg83
g79
sg76
(lp138
g69
(g90
g71
NtRp139
(dp140
g74
(dp141
g94
g95
ssg83
g135
sg76
(lp142
g52
asbag69
(g90
g71
NtRp143
(dp144
g74
(dp145
g101
g102
ssg83
g135
sg76
(lp146
S':'
asbag69
(g90
g71
NtRp147
(dp148
g74
(dp149
sg83
g135
sg76
(lp150
g69
(g70
g71
NtRp151
(dp152
g74
(dp153
g82
I5
ssg83
g147
sg76
(lp154
g69
(g78
g71
NtRp155
(dp156
g74
(dp157
g82
I4
ssg83
Nsg76
(lp158
sbasbasbasbag69
(g85
g71
NtRp159
(dp160
g74
(dp161
sg83
g79
sg76
(lp162
g69
(g90
g71
NtRp163
(dp164
g74
(dp165
g94
g95
ssg83
g159
sg76
(lp166
S'body'
p167
asbag69
(g90
g71
NtRp168
(dp169
g74
(dp170
g101
g102
ssg83
g159
sg76
(lp171
S':'
asbag69
(g90
g71
NtRp172
(dp173
g74
(dp174
sg83
g159
sg76
(lp175
g69
(g70
g71
NtRp176
(dp177
g74
(dp178
g82
I5
ssg83
g172
sg76
(lp179
S'<cStringIO.StringO object at 0x7fe1bc0f9068>'
p180
asbasbasbag69
(g85
g71
NtRp181
(dp182
g74
(dp183
sg83
g79
sg76
(lp184
g69
(g90
g71
NtRp185
(dp186
g74
(dp187
g94
g95
ssg83
g181
sg76
(lp188
S'cid'
p189
asbag69
(g90
g71
NtRp190
(dp191
g74
(dp192
g101
g102
ssg83
g181
sg76
(lp193
S':'
asbag69
(g90
g71
NtRp194
(dp195
g74
(dp196
sg83
g181
sg76
(lp197
g69
(g70
g71
NtRp198
(dp199
g74
(dp200
g82
I5
ssg83
g194
sg76
(lp201
S'None'
p202
asbasbasbag69
(g85
g71
NtRp203
(dp204
g74
(dp205
sg83
g79
sg76
(lp206
g69
(g90
g71
NtRp207
(dp208
g74
(dp209
g94
g95
ssg83
g203
sg76
(lp210
S'client'
p211
asbag69
(g90
g71
NtRp212
(dp213
g74
(dp214
g101
g102
ssg83
g203
sg76
(lp215
S':'
asbag69
(g90
g71
NtRp216
(dp217
g74
(dp218
sg83
g203
sg76
(lp219
g69
(g70
g71
NtRp220
(dp221
g74
(dp222
g82
I5
ssg83
g216
sg76
(lp223
S'127.0.0.1'
p224
asbasbasbag69
(g85
g71
NtRp225
(dp226
g74
(dp227
sg83
g79
sg76
(lp228
g69
(g90
g71
NtRp229
(dp230
g74
(dp231
g94
g95
ssg83
g225
sg76
(lp232
S'controller'
p233
asbag69
(g90
g71
NtRp234
(dp235
g74
(dp236
g101
g102
ssg83
g225
sg76
(lp237
S':'
asbag69
(g90
g71
NtRp238
(dp239
g74
(dp240
sg83
g225
sg76
(lp241
g69
(g70
g71
NtRp242
(dp243
g74
(dp244
g82
I5
ssg83
g238
sg76
(lp245
S'default'
p246
asbasbasbag69
(g85
g71
NtRp247
(dp248
g74
(dp249
sg83
g79
sg76
(lp250
g69
(g90
g71
NtRp251
(dp252
g74
(dp253
g94
g95
ssg83
g247
sg76
(lp254
S'cookies'
p255
asbag69
(g90
g71
NtRp256
(dp257
g74
(dp258
g101
g102
ssg83
g247
sg76
(lp259
S':'
asbag69
(g90
g71
NtRp260
(dp261
g74
(dp262
sg83
g247
sg76
(lp263
g69
(g70
g71
NtRp264
(dp265
g74
(dp266
g82
I5
ssg83
g260
sg76
(lp267
g69
(g78
g71
NtRp268
(dp269
g74
(dp270
g82
I4
ssg83
Nsg76
(lp271
g69
(g85
g71
NtRp272
(dp273
g74
(dp274
sg83
g268
sg76
(lp275
g69
(g90
g71
NtRp276
(dp277
g74
(dp278
g94
g95
ssg83
g272
sg76
(lp279
S'session_id_admin'
p280
asbag69
(g90
g71
NtRp281
(dp282
g74
(dp283
g101
g102
ssg83
g272
sg76
(lp284
S':'
asbag69
(g90
g71
NtRp285
(dp286
g74
(dp287
sg83
g272
sg76
(lp288
g69
(g70
g71
NtRp289
(dp290
g74
(dp291
g82
I4
ssg83
g285
sg76
(lp292
S'127.0.0.1-554f35e1-d9e6-4af1-a80d-537fcac15f96'
p293
ag69
(g78
g71
NtRp294
(dp295
g74
(dp296
g82
I3
ssg83
Nsg76
(lp297
g69
(g85
g71
NtRp298
(dp299
g74
(dp300
sg83
g294
sg76
(lp301
g69
(g90
g71
NtRp302
(dp303
g74
(dp304
g94
g95
ssg83
g298
sg76
(lp305
S'comment'
p306
asbag69
(g90
g71
NtRp307
(dp308
g74
(dp309
g101
g102
ssg83
g298
sg76
(lp310
S':'
asbag69
(g90
g71
NtRp311
(dp312
g74
(dp313
sg83
g298
sg76
(lp314
g69
(g70
g71
NtRp315
(dp316
g74
(dp317
g82
I3
ssg83
g311
sg76
(lp318
S''
asbasbasbag69
(g85
g71
NtRp319
(dp320
g74
(dp321
sg83
g294
sg76
(lp322
g69
(g90
g71
NtRp323
(dp324
g74
(dp325
g94
g95
ssg83
g319
sg76
(lp326
S'domain'
p327
asbag69
(g90
g71
NtRp328
(dp329
g74
(dp330
g101
g102
ssg83
g319
sg76
(lp331
S':'
asbag69
(g90
g71
NtRp332
(dp333
g74
(dp334
sg83
g319
sg76
(lp335
g69
(g70
g71
NtRp336
(dp337
g74
(dp338
g82
I3
ssg83
g332
sg76
(lp339
S''
asbasbasbag69
(g85
g71
NtRp340
(dp341
g74
(dp342
sg83
g294
sg76
(lp343
g69
(g90
g71
NtRp344
(dp345
g74
(dp346
g94
g95
ssg83
g340
sg76
(lp347
S'expires'
p348
asbag69
(g90
g71
NtRp349
(dp350
g74
(dp351
g101
g102
ssg83
g340
sg76
(lp352
S':'
asbag69
(g90
g71
NtRp353
(dp354
g74
(dp355
sg83
g340
sg76
(lp356
g69
(g70
g71
NtRp357
(dp358
g74
(dp359
g82
I3
ssg83
g353
sg76
(lp360
S''
asbasbasbag69
(g85
g71
NtRp361
(dp362
g74
(dp363
sg83
g294
sg76
(lp364
g69
(g90
g71
NtRp365
(dp366
g74
(dp367
g94
g95
ssg83
g361
sg76
(lp368
S'httponly'
p369
asbag69
(g90
g71
NtRp370
(dp371
g74
(dp372
g101
g102
ssg83
g361
sg76
(lp373
S':'
asbag69
(g90
g71
NtRp374
(dp375
g74
(dp376
sg83
g361
sg76
(lp377
g69
(g70
g71
NtRp378
(dp379
g74
(dp380
g82
I3
ssg83
g374
sg76
(lp381
S''
asbasbasbag69
(g85
g71
NtRp382
(dp383
g74
(dp384
sg83
g294
sg76
(lp385
g69
(g90
g71
NtRp386
(dp387
g74
(dp388
g94
g95
ssg83
g382
sg76
(lp389
S'max-age'
p390
asbag69
(g90
g71
NtRp391
(dp392
g74
(dp393
g101
g102
ssg83
g382
sg76
(lp394
S':'
asbag69
(g90
g71
NtRp395
(dp396
g74
(dp397
sg83
g382
sg76
(lp398
g69
(g70
g71
NtRp399
(dp400
g74
(dp401
g82
I3
ssg83
g395
sg76
(lp402
S''
asbasbasbag69
(g85
g71
NtRp403
(dp404
g74
(dp405
sg83
g294
sg76
(lp406
g69
(g90
g71
NtRp407
(dp408
g74
(dp409
g94
g95
ssg83
g403
sg76
(lp410
S'path'
p411
asbag69
(g90
g71
NtRp412
(dp413
g74
(dp414
g101
g102
ssg83
g403
sg76
(lp415
S':'
asbag69
(g90
g71
NtRp416
(dp417
g74
(dp418
sg83
g403
sg76
(lp419
g69
(g70
g71
NtRp420
(dp421
g74
(dp422
g82
I3
ssg83
g416
sg76
(lp423
S''
asbasbasbag69
(g85
g71
NtRp424
(dp425
g74
(dp426
sg83
g294
sg76
(lp427
g69
(g90
g71
NtRp428
(dp429
g74
(dp430
g94
g95
ssg83
g424
sg76
(lp431
S'secure'
p432
asbag69
(g90
g71
NtRp433
(dp434
g74
(dp435
g101
g102
ssg83
g424
sg76
(lp436
S':'
asbag69
(g90
g71
NtRp437
(dp438
g74
(dp439
sg83
g424
sg76
(lp440
g69
(g70
g71
NtRp441
(dp442
g74
(dp443
g82
I3
ssg83
g437
sg76
(lp444
S''
asbasbasbag69
(g85
g71
NtRp445
(dp446
g74
(dp447
sg83
g294
sg76
(lp448
g69
(g90
g71
NtRp449
(dp450
g74
(dp451
g94
g95
ssg83
g445
sg76
(lp452
S'version'
p453
asbag69
(g90
g71
NtRp454
(dp455
g74
(dp456
g101
g102
ssg83
g445
sg76
(lp457
S':'
asbag69
(g90
g71
NtRp458
(dp459
g74
(dp460
sg83
g445
sg76
(lp461
g69
(g70
g71
NtRp462
(dp463
g74
(dp464
g82
I3
ssg83
g458
sg76
(lp465
S''
asbasbasbasbasbasbasbag69
(g85
g71
NtRp466
(dp467
g74
(dp468
sg83
g268
sg76
(lp469
g69
(g90
g71
NtRp470
(dp471
g74
(dp472
g94
g95
ssg83
g466
sg76
(lp473
S'session_id_funkload'
p474
asbag69
(g90
g71
NtRp475
(dp476
g74
(dp477
g101
g102
ssg83
g466
sg76
(lp478
S':'
asbag69
(g90
g71
NtRp479
(dp480
g74
(dp481
sg83
g466
sg76
(lp482
g69
(g70
g71
NtRp483
(dp484
g74
(dp485
g82
I4
ssg83
g479
sg76
(lp486
S'127.0.0.1-a98b320f-b070-488d-ad40-6bbec9939460'
p487
ag69
(g78
g71
NtRp488
(dp489
g74
(dp490
g82
I3
ssg83
Nsg76
(lp491
g69
(g85
g71
NtRp492
(dp493
g74
(dp494
sg83
g488
sg76
(lp495
g69
(g90
g71
NtRp496
(dp497
g74
(dp498
g94
g95
ssg83
g492
sg76
(lp499
g306
asbag69
(g90
g71
NtRp500
(dp501
g74
(dp502
g101
g102
ssg83
g492
sg76
(lp503
S':'
asbag69
(g90
g71
NtRp504
(dp505
g74
(dp506
sg83
g492
sg76
(lp507
g69
(g70
g71
NtRp508
(dp509
g74
(dp510
g82
I3
ssg83
g504
sg76
(lp511
S''
asbasbasbag69
(g85
g71
NtRp512
(dp513
g74
(dp514
sg83
g488
sg76
(lp515
g69
(g90
g71
NtRp516
(dp517
g74
(dp518
g94
g95
ssg83
g512
sg76
(lp519
g327
asbag69
(g90
g71
NtRp520
(dp521
g74
(dp522
g101
g102
ssg83
g512
sg76
(lp523
S':'
asbag69
(g90
g71
NtRp524
(dp525
g74
(dp526
sg83
g512
sg76
(lp527
g69
(g70
g71
NtRp528
(dp529
g74
(dp530
g82
I3
ssg83
g524
sg76
(lp531
S''
asbasbasbag69
(g85
g71
NtRp532
(dp533
g74
(dp534
sg83
g488
sg76
(lp535
g69
(g90
g71
NtRp536
(dp537
g74
(dp538
g94
g95
ssg83
g532
sg76
(lp539
g348
asbag69
(g90
g71
NtRp540
(dp541
g74
(dp542
g101
g102
ssg83
g532
sg76
(lp543
S':'
asbag69
(g90
g71
NtRp544
(dp545
g74
(dp546
sg83
g532
sg76
(lp547
g69
(g70
g71
NtRp548
(dp549
g74
(dp550
g82
I3
ssg83
g544
sg76
(lp551
S''
asbasbasbag69
(g85
g71
NtRp552
(dp553
g74
(dp554
sg83
g488
sg76
(lp555
g69
(g90
g71
NtRp556
(dp557
g74
(dp558
g94
g95
ssg83
g552
sg76
(lp559
g369
asbag69
(g90
g71
NtRp560
(dp561
g74
(dp562
g101
g102
ssg83
g552
sg76
(lp563
S':'
asbag69
(g90
g71
NtRp564
(dp565
g74
(dp566
sg83
g552
sg76
(lp567
g69
(g70
g71
NtRp568
(dp569
g74
(dp570
g82
I3
ssg83
g564
sg76
(lp571
S''
asbasbasbag69
(g85
g71
NtRp572
(dp573
g74
(dp574
sg83
g488
sg76
(lp575
g69
(g90
g71
NtRp576
(dp577
g74
(dp578
g94
g95
ssg83
g572
sg76
(lp579
g390
asbag69
(g90
g71
NtRp580
(dp581
g74
(dp582
g101
g102
ssg83
g572
sg76
(lp583
S':'
asbag69
(g90
g71
NtRp584
(dp585
g74
(dp586
sg83
g572
sg76
(lp587
g69
(g70
g71
NtRp588
(dp589
g74
(dp590
g82
I3
ssg83
g584
sg76
(lp591
S''
asbasbasbag69
(g85
g71
NtRp592
(dp593
g74
(dp594
sg83
g488
sg76
(lp595
g69
(g90
g71
NtRp596
(dp597
g74
(dp598
g94
g95
ssg83
g592
sg76
(lp599
g411
asbag69
(g90
g71
NtRp600
(dp601
g74
(dp602
g101
g102
ssg83
g592
sg76
(lp603
S':'
asbag69
(g90
g71
NtRp604
(dp605
g74
(dp606
sg83
g592
sg76
(lp607
g69
(g70
g71
NtRp608
(dp609
g74
(dp610
g82
I3
ssg83
g604
sg76
(lp611
S''
asbasbasbag69
(g85
g71
NtRp612
(dp613
g74
(dp614
sg83
g488
sg76
(lp615
g69
(g90
g71
NtRp616
(dp617
g74
(dp618
g94
g95
ssg83
g612
sg76
(lp619
g432
asbag69
(g90
g71
NtRp620
(dp621
g74
(dp622
g101
g102
ssg83
g612
sg76
(lp623
S':'
asbag69
(g90
g71
NtRp624
(dp625
g74
(dp626
sg83
g612
sg76
(lp627
g69
(g70
g71
NtRp628
(dp629
g74
(dp630
g82
I3
ssg83
g624
sg76
(lp631
S''
asbasbasbag69
(g85
g71
NtRp632
(dp633
g74
(dp634
sg83
g488
sg76
(lp635
g69
(g90
g71
NtRp636
(dp637
g74
(dp638
g94
g95
ssg83
g632
sg76
(lp639
g453
asbag69
(g90
g71
NtRp640
(dp641
g74
(dp642
g101
g102
ssg83
g632
sg76
(lp643
S':'
asbag69
(g90
g71
NtRp644
(dp645
g74
(dp646
sg83
g632
sg76
(lp647
g69
(g70
g71
NtRp648
(dp649
g74
(dp650
g82
I3
ssg83
g644
sg76
(lp651
S''
asbasbasbasbasbasbasbag69
(g85
g71
NtRp652
(dp653
g74
(dp654
sg83
g268
sg76
(lp655
g69
(g90
g71
NtRp656
(dp657
g74
(dp658
g94
g95
ssg83
g652
sg76
(lp659
S'session_id_photo_uploader'
p660
asbag69
(g90
g71
NtRp661
(dp662
g74
(dp663
g101
g102
ssg83
g652
sg76
(lp664
S':'
asbag69
(g90
g71
NtRp665
(dp666
g74
(dp667
sg83
g652
sg76
(lp668
g69
(g70
g71
NtRp669
(dp670
g74
(dp671
g82
I4
ssg83
g665
sg76
(lp672
S'127.0.0.1-cbc8ab18-0caf-4e95-89b6-df04f5fef73b'
p673
ag69
(g78
g71
NtRp674
(dp675
g74
(dp676
g82
I3
ssg83
Nsg76
(lp677
g69
(g85
g71
NtRp678
(dp679
g74
(dp680
sg83
g674
sg76
(lp681
g69
(g90
g71
NtRp682
(dp683
g74
(dp684
g94
g95
ssg83
g678
sg76
(lp685
g306
asbag69
(g90
g71
NtRp686
(dp687
g74
(dp688
g101
g102
ssg83
g678
sg76
(lp689
S':'
asbag69
(g90
g71
NtRp690
(dp691
g74
(dp692
sg83
g678
sg76
(lp693
g69
(g70
g71
NtRp694
(dp695
g74
(dp696
g82
I3
ssg83
g690
sg76
(lp697
S''
asbasbasbag69
(g85
g71
NtRp698
(dp699
g74
(dp700
sg83
g674
sg76
(lp701
g69
(g90
g71
NtRp702
(dp703
g74
(dp704
g94
g95
ssg83
g698
sg76
(lp705
g327
asbag69
(g90
g71
NtRp706
(dp707
g74
(dp708
g101
g102
ssg83
g698
sg76
(lp709
S':'
asbag69
(g90
g71
NtRp710
(dp711
g74
(dp712
sg83
g698
sg76
(lp713
g69
(g70
g71
NtRp714
(dp715
g74
(dp716
g82
I3
ssg83
g710
sg76
(lp717
S''
asbasbasbag69
(g85
g71
NtRp718
(dp719
g74
(dp720
sg83
g674
sg76
(lp721
g69
(g90
g71
NtRp722
(dp723
g74
(dp724
g94
g95
ssg83
g718
sg76
(lp725
g348
asbag69
(g90
g71
NtRp726
(dp727
g74
(dp728
g101
g102
ssg83
g718
sg76
(lp729
S':'
asbag69
(g90
g71
NtRp730
(dp731
g74
(dp732
sg83
g718
sg76
(lp733
g69
(g70
g71
NtRp734
(dp735
g74
(dp736
g82
I3
ssg83
g730
sg76
(lp737
S''
asbasbasbag69
(g85
g71
NtRp738
(dp739
g74
(dp740
sg83
g674
sg76
(lp741
g69
(g90
g71
NtRp742
(dp743
g74
(dp744
g94
g95
ssg83
g738
sg76
(lp745
g369
asbag69
(g90
g71
NtRp746
(dp747
g74
(dp748
g101
g102
ssg83
g738
sg76
(lp749
S':'
asbag69
(g90
g71
NtRp750
(dp751
g74
(dp752
sg83
g738
sg76
(lp753
g69
(g70
g71
NtRp754
(dp755
g74
(dp756
g82
I3
ssg83
g750
sg76
(lp757
S''
asbasbasbag69
(g85
g71
NtRp758
(dp759
g74
(dp760
sg83
g674
sg76
(lp761
g69
(g90
g71
NtRp762
(dp763
g74
(dp764
g94
g95
ssg83
g758
sg76
(lp765
g390
asbag69
(g90
g71
NtRp766
(dp767
g74
(dp768
g101
g102
ssg83
g758
sg76
(lp769
S':'
asbag69
(g90
g71
NtRp770
(dp771
g74
(dp772
sg83
g758
sg76
(lp773
g69
(g70
g71
NtRp774
(dp775
g74
(dp776
g82
I3
ssg83
g770
sg76
(lp777
S''
asbasbasbag69
(g85
g71
NtRp778
(dp779
g74
(dp780
sg83
g674
sg76
(lp781
g69
(g90
g71
NtRp782
(dp783
g74
(dp784
g94
g95
ssg83
g778
sg76
(lp785
g411
asbag69
(g90
g71
NtRp786
(dp787
g74
(dp788
g101
g102
ssg83
g778
sg76
(lp789
S':'
asbag69
(g90
g71
NtRp790
(dp791
g74
(dp792
sg83
g778
sg76
(lp793
g69
(g70
g71
NtRp794
(dp795
g74
(dp796
g82
I3
ssg83
g790
sg76
(lp797
S''
asbasbasbag69
(g85
g71
NtRp798
(dp799
g74
(dp800
sg83
g674
sg76
(lp801
g69
(g90
g71
NtRp802
(dp803
g74
(dp804
g94
g95
ssg83
g798
sg76
(lp805
g432
asbag69
(g90
g71
NtRp806
(dp807
g74
(dp808
g101
g102
ssg83
g798
sg76
(lp809
S':'
asbag69
(g90
g71
NtRp810
(dp811
g74
(dp812
sg83
g798
sg76
(lp813
g69
(g70
g71
NtRp814
(dp815
g74
(dp816
g82
I3
ssg83
g810
sg76
(lp817
S''
asbasbasbag69
(g85
g71
NtRp818
(dp819
g74
(dp820
sg83
g674
sg76
(lp821
g69
(g90
g71
NtRp822
(dp823
g74
(dp824
g94
g95
ssg83
g818
sg76
(lp825
g453
asbag69
(g90
g71
NtRp826
(dp827
g74
(dp828
g101
g102
ssg83
g818
sg76
(lp829
S':'
asbag69
(g90
g71
NtRp830
(dp831
g74
(dp832
sg83
g818
sg76
(lp833
g69
(g70
g71
NtRp834
(dp835
g74
(dp836
g82
I3
ssg83
g830
sg76
(lp837
S''
asbasbasbasbasbasbasbag69
(g85
g71
NtRp838
(dp839
g74
(dp840
sg83
g268
sg76
(lp841
g69
(g90
g71
NtRp842
(dp843
g74
(dp844
g94
g95
ssg83
g838
sg76
(lp845
S'session_id_proj'
p846
asbag69
(g90
g71
NtRp847
(dp848
g74
(dp849
g101
g102
ssg83
g838
sg76
(lp850
S':'
asbag69
(g90
g71
NtRp851
(dp852
g74
(dp853
sg83
g838
sg76
(lp854
g69
(g70
g71
NtRp855
(dp856
g74
(dp857
g82
I4
ssg83
g851
sg76
(lp858
S'127.0.0.1-635e16ea-0665-4048-b6b4-5dedee647613'
p859
ag69
(g78
g71
NtRp860
(dp861
g74
(dp862
g82
I3
ssg83
Nsg76
(lp863
g69
(g85
g71
NtRp864
(dp865
g74
(dp866
sg83
g860
sg76
(lp867
g69
(g90
g71
NtRp868
(dp869
g74
(dp870
g94
g95
ssg83
g864
sg76
(lp871
g306
asbag69
(g90
g71
NtRp872
(dp873
g74
(dp874
g101
g102
ssg83
g864
sg76
(lp875
S':'
asbag69
(g90
g71
NtRp876
(dp877
g74
(dp878
sg83
g864
sg76
(lp879
g69
(g70
g71
NtRp880
(dp881
g74
(dp882
g82
I3
ssg83
g876
sg76
(lp883
S''
asbasbasbag69
(g85
g71
NtRp884
(dp885
g74
(dp886
sg83
g860
sg76
(lp887
g69
(g90
g71
NtRp888
(dp889
g74
(dp890
g94
g95
ssg83
g884
sg76
(lp891
g327
asbag69
(g90
g71
NtRp892
(dp893
g74
(dp894
g101
g102
ssg83
g884
sg76
(lp895
S':'
asbag69
(g90
g71
NtRp896
(dp897
g74
(dp898
sg83
g884
sg76
(lp899
g69
(g70
g71
NtRp900
(dp901
g74
(dp902
g82
I3
ssg83
g896
sg76
(lp903
S''
asbasbasbag69
(g85
g71
NtRp904
(dp905
g74
(dp906
sg83
g860
sg76
(lp907
g69
(g90
g71
NtRp908
(dp909
g74
(dp910
g94
g95
ssg83
g904
sg76
(lp911
g348
asbag69
(g90
g71
NtRp912
(dp913
g74
(dp914
g101
g102
ssg83
g904
sg76
(lp915
S':'
asbag69
(g90
g71
NtRp916
(dp917
g74
(dp918
sg83
g904
sg76
(lp919
g69
(g70
g71
NtRp920
(dp921
g74
(dp922
g82
I3
ssg83
g916
sg76
(lp923
S''
asbasbasbag69
(g85
g71
NtRp924
(dp925
g74
(dp926
sg83
g860
sg76
(lp927
g69
(g90
g71
NtRp928
(dp929
g74
(dp930
g94
g95
ssg83
g924
sg76
(lp931
g369
asbag69
(g90
g71
NtRp932
(dp933
g74
(dp934
g101
g102
ssg83
g924
sg76
(lp935
S':'
asbag69
(g90
g71
NtRp936
(dp937
g74
(dp938
sg83
g924
sg76
(lp939
g69
(g70
g71
NtRp940
(dp941
g74
(dp942
g82
I3
ssg83
g936
sg76
(lp943
S''
asbasbasbag69
(g85
g71
NtRp944
(dp945
g74
(dp946
sg83
g860
sg76
(lp947
g69
(g90
g71
NtRp948
(dp949
g74
(dp950
g94
g95
ssg83
g944
sg76
(lp951
g390
asbag69
(g90
g71
NtRp952
(dp953
g74
(dp954
g101
g102
ssg83
g944
sg76
(lp955
S':'
asbag69
(g90
g71
NtRp956
(dp957
g74
(dp958
sg83
g944
sg76
(lp959
g69
(g70
g71
NtRp960
(dp961
g74
(dp962
g82
I3
ssg83
g956
sg76
(lp963
S''
asbasbasbag69
(g85
g71
NtRp964
(dp965
g74
(dp966
sg83
g860
sg76
(lp967
g69
(g90
g71
NtRp968
(dp969
g74
(dp970
g94
g95
ssg83
g964
sg76
(lp971
g411
asbag69
(g90
g71
NtRp972
(dp973
g74
(dp974
g101
g102
ssg83
g964
sg76
(lp975
S':'
asbag69
(g90
g71
NtRp976
(dp977
g74
(dp978
sg83
g964
sg76
(lp979
g69
(g70
g71
NtRp980
(dp981
g74
(dp982
g82
I3
ssg83
g976
sg76
(lp983
S''
asbasbasbag69
(g85
g71
NtRp984
(dp985
g74
(dp986
sg83
g860
sg76
(lp987
g69
(g90
g71
NtRp988
(dp989
g74
(dp990
g94
g95
ssg83
g984
sg76
(lp991
g432
asbag69
(g90
g71
NtRp992
(dp993
g74
(dp994
g101
g102
ssg83
g984
sg76
(lp995
S':'
asbag69
(g90
g71
NtRp996
(dp997
g74
(dp998
sg83
g984
sg76
(lp999
g69
(g70
g71
NtRp1000
(dp1001
g74
(dp1002
g82
I3
ssg83
g996
sg76
(lp1003
S''
asbasbasbag69
(g85
g71
NtRp1004
(dp1005
g74
(dp1006
sg83
g860
sg76
(lp1007
g69
(g90
g71
NtRp1008
(dp1009
g74
(dp1010
g94
g95
ssg83
g1004
sg76
(lp1011
g453
asbag69
(g90
g71
NtRp1012
(dp1013
g74
(dp1014
g101
g102
ssg83
g1004
sg76
(lp1015
S':'
asbag69
(g90
g71
NtRp1016
(dp1017
g74
(dp1018
sg83
g1004
sg76
(lp1019
g69
(g70
g71
NtRp1020
(dp1021
g74
(dp1022
g82
I3
ssg83
g1016
sg76
(lp1023
S''
asbasbasbasbasbasbasbag69
(g85
g71
NtRp1024
(dp1025
g74
(dp1026
sg83
g268
sg76
(lp1027
g69
(g90
g71
NtRp1028
(dp1029
g74
(dp1030
g94
g95
ssg83
g1024
sg76
(lp1031
S'session_id_welcome'
p1032
asbag69
(g90
g71
NtRp1033
(dp1034
g74
(dp1035
g101
g102
ssg83
g1024
sg76
(lp1036
S':'
asbag69
(g90
g71
NtRp1037
(dp1038
g74
(dp1039
sg83
g1024
sg76
(lp1040
g69
(g70
g71
NtRp1041
(dp1042
g74
(dp1043
g82
I4
ssg83
g1037
sg76
(lp1044
S'127.0.0.1-6025786b-dfc4-4072-8989-30cc0d295efc'
p1045
ag69
(g78
g71
NtRp1046
(dp1047
g74
(dp1048
g82
I3
ssg83
Nsg76
(lp1049
g69
(g85
g71
NtRp1050
(dp1051
g74
(dp1052
sg83
g1046
sg76
(lp1053
g69
(g90
g71
NtRp1054
(dp1055
g74
(dp1056
g94
g95
ssg83
g1050
sg76
(lp1057
g306
asbag69
(g90
g71
NtRp1058
(dp1059
g74
(dp1060
g101
g102
ssg83
g1050
sg76
(lp1061
S':'
asbag69
(g90
g71
NtRp1062
(dp1063
g74
(dp1064
sg83
g1050
sg76
(lp1065
g69
(g70
g71
NtRp1066
(dp1067
g74
(dp1068
g82
I3
ssg83
g1062
sg76
(lp1069
S''
asbasbasbag69
(g85
g71
NtRp1070
(dp1071
g74
(dp1072
sg83
g1046
sg76
(lp1073
g69
(g90
g71
NtRp1074
(dp1075
g74
(dp1076
g94
g95
ssg83
g1070
sg76
(lp1077
g327
asbag69
(g90
g71
NtRp1078
(dp1079
g74
(dp1080
g101
g102
ssg83
g1070
sg76
(lp1081
S':'
asbag69
(g90
g71
NtRp1082
(dp1083
g74
(dp1084
sg83
g1070
sg76
(lp1085
g69
(g70
g71
NtRp1086
(dp1087
g74
(dp1088
g82
I3
ssg83
g1082
sg76
(lp1089
S''
asbasbasbag69
(g85
g71
NtRp1090
(dp1091
g74
(dp1092
sg83
g1046
sg76
(lp1093
g69
(g90
g71
NtRp1094
(dp1095
g74
(dp1096
g94
g95
ssg83
g1090
sg76
(lp1097
g348
asbag69
(g90
g71
NtRp1098
(dp1099
g74
(dp1100
g101
g102
ssg83
g1090
sg76
(lp1101
S':'
asbag69
(g90
g71
NtRp1102
(dp1103
g74
(dp1104
sg83
g1090
sg76
(lp1105
g69
(g70
g71
NtRp1106
(dp1107
g74
(dp1108
g82
I3
ssg83
g1102
sg76
(lp1109
S''
asbasbasbag69
(g85
g71
NtRp1110
(dp1111
g74
(dp1112
sg83
g1046
sg76
(lp1113
g69
(g90
g71
NtRp1114
(dp1115
g74
(dp1116
g94
g95
ssg83
g1110
sg76
(lp1117
g369
asbag69
(g90
g71
NtRp1118
(dp1119
g74
(dp1120
g101
g102
ssg83
g1110
sg76
(lp1121
S':'
asbag69
(g90
g71
NtRp1122
(dp1123
g74
(dp1124
sg83
g1110
sg76
(lp1125
g69
(g70
g71
NtRp1126
(dp1127
g74
(dp1128
g82
I3
ssg83
g1122
sg76
(lp1129
S''
asbasbasbag69
(g85
g71
NtRp1130
(dp1131
g74
(dp1132
sg83
g1046
sg76
(lp1133
g69
(g90
g71
NtRp1134
(dp1135
g74
(dp1136
g94
g95
ssg83
g1130
sg76
(lp1137
g390
asbag69
(g90
g71
NtRp1138
(dp1139
g74
(dp1140
g101
g102
ssg83
g1130
sg76
(lp1141
S':'
asbag69
(g90
g71
NtRp1142
(dp1143
g74
(dp1144
sg83
g1130
sg76
(lp1145
g69
(g70
g71
NtRp1146
(dp1147
g74
(dp1148
g82
I3
ssg83
g1142
sg76
(lp1149
S''
asbasbasbag69
(g85
g71
NtRp1150
(dp1151
g74
(dp1152
sg83
g1046
sg76
(lp1153
g69
(g90
g71
NtRp1154
(dp1155
g74
(dp1156
g94
g95
ssg83
g1150
sg76
(lp1157
g411
asbag69
(g90
g71
NtRp1158
(dp1159
g74
(dp1160
g101
g102
ssg83
g1150
sg76
(lp1161
S':'
asbag69
(g90
g71
NtRp1162
(dp1163
g74
(dp1164
sg83
g1150
sg76
(lp1165
g69
(g70
g71
NtRp1166
(dp1167
g74
(dp1168
g82
I3
ssg83
g1162
sg76
(lp1169
S''
asbasbasbag69
(g85
g71
NtRp1170
(dp1171
g74
(dp1172
sg83
g1046
sg76
(lp1173
g69
(g90
g71
NtRp1174
(dp1175
g74
(dp1176
g94
g95
ssg83
g1170
sg76
(lp1177
g432
asbag69
(g90
g71
NtRp1178
(dp1179
g74
(dp1180
g101
g102
ssg83
g1170
sg76
(lp1181
S':'
asbag69
(g90
g71
NtRp1182
(dp1183
g74
(dp1184
sg83
g1170
sg76
(lp1185
g69
(g70
g71
NtRp1186
(dp1187
g74
(dp1188
g82
I3
ssg83
g1182
sg76
(lp1189
S''
asbasbasbag69
(g85
g71
NtRp1190
(dp1191
g74
(dp1192
sg83
g1046
sg76
(lp1193
g69
(g90
g71
NtRp1194
(dp1195
g74
(dp1196
g94
g95
ssg83
g1190
sg76
(lp1197
g453
asbag69
(g90
g71
NtRp1198
(dp1199
g74
(dp1200
g101
g102
ssg83
g1190
sg76
(lp1201
S':'
asbag69
(g90
g71
NtRp1202
(dp1203
g74
(dp1204
sg83
g1190
sg76
(lp1205
g69
(g70
g71
NtRp1206
(dp1207
g74
(dp1208
g82
I3
ssg83
g1202
sg76
(lp1209
S''
asbasbasbasbasbasbasbag69
(g85
g71
NtRp1210
(dp1211
g74
(dp1212
sg83
g268
sg76
(lp1213
g69
(g90
g71
NtRp1214
(dp1215
g74
(dp1216
g94
g95
ssg83
g1210
sg76
(lp1217
S'session_id_worldquant'
p1218
asbag69
(g90
g71
NtRp1219
(dp1220
g74
(dp1221
g101
g102
ssg83
g1210
sg76
(lp1222
S':'
asbag69
(g90
g71
NtRp1223
(dp1224
g74
(dp1225
sg83
g1210
sg76
(lp1226
g69
(g70
g71
NtRp1227
(dp1228
g74
(dp1229
g82
I4
ssg83
g1223
sg76
(lp1230
S'127.0.0.1-ac577e6b-de07-464b-94ad-b0bc6e115852'
p1231
ag69
(g78
g71
NtRp1232
(dp1233
g74
(dp1234
g82
I3
ssg83
Nsg76
(lp1235
g69
(g85
g71
NtRp1236
(dp1237
g74
(dp1238
sg83
g1232
sg76
(lp1239
g69
(g90
g71
NtRp1240
(dp1241
g74
(dp1242
g94
g95
ssg83
g1236
sg76
(lp1243
g306
asbag69
(g90
g71
NtRp1244
(dp1245
g74
(dp1246
g101
g102
ssg83
g1236
sg76
(lp1247
S':'
asbag69
(g90
g71
NtRp1248
(dp1249
g74
(dp1250
sg83
g1236
sg76
(lp1251
g69
(g70
g71
NtRp1252
(dp1253
g74
(dp1254
g82
I3
ssg83
g1248
sg76
(lp1255
S''
asbasbasbag69
(g85
g71
NtRp1256
(dp1257
g74
(dp1258
sg83
g1232
sg76
(lp1259
g69
(g90
g71
NtRp1260
(dp1261
g74
(dp1262
g94
g95
ssg83
g1256
sg76
(lp1263
g327
asbag69
(g90
g71
NtRp1264
(dp1265
g74
(dp1266
g101
g102
ssg83
g1256
sg76
(lp1267
S':'
asbag69
(g90
g71
NtRp1268
(dp1269
g74
(dp1270
sg83
g1256
sg76
(lp1271
g69
(g70
g71
NtRp1272
(dp1273
g74
(dp1274
g82
I3
ssg83
g1268
sg76
(lp1275
S''
asbasbasbag69
(g85
g71
NtRp1276
(dp1277
g74
(dp1278
sg83
g1232
sg76
(lp1279
g69
(g90
g71
NtRp1280
(dp1281
g74
(dp1282
g94
g95
ssg83
g1276
sg76
(lp1283
g348
asbag69
(g90
g71
NtRp1284
(dp1285
g74
(dp1286
g101
g102
ssg83
g1276
sg76
(lp1287
S':'
asbag69
(g90
g71
NtRp1288
(dp1289
g74
(dp1290
sg83
g1276
sg76
(lp1291
g69
(g70
g71
NtRp1292
(dp1293
g74
(dp1294
g82
I3
ssg83
g1288
sg76
(lp1295
S''
asbasbasbag69
(g85
g71
NtRp1296
(dp1297
g74
(dp1298
sg83
g1232
sg76
(lp1299
g69
(g90
g71
NtRp1300
(dp1301
g74
(dp1302
g94
g95
ssg83
g1296
sg76
(lp1303
g369
asbag69
(g90
g71
NtRp1304
(dp1305
g74
(dp1306
g101
g102
ssg83
g1296
sg76
(lp1307
S':'
asbag69
(g90
g71
NtRp1308
(dp1309
g74
(dp1310
sg83
g1296
sg76
(lp1311
g69
(g70
g71
NtRp1312
(dp1313
g74
(dp1314
g82
I3
ssg83
g1308
sg76
(lp1315
S''
asbasbasbag69
(g85
g71
NtRp1316
(dp1317
g74
(dp1318
sg83
g1232
sg76
(lp1319
g69
(g90
g71
NtRp1320
(dp1321
g74
(dp1322
g94
g95
ssg83
g1316
sg76
(lp1323
g390
asbag69
(g90
g71
NtRp1324
(dp1325
g74
(dp1326
g101
g102
ssg83
g1316
sg76
(lp1327
S':'
asbag69
(g90
g71
NtRp1328
(dp1329
g74
(dp1330
sg83
g1316
sg76
(lp1331
g69
(g70
g71
NtRp1332
(dp1333
g74
(dp1334
g82
I3
ssg83
g1328
sg76
(lp1335
S''
asbasbasbag69
(g85
g71
NtRp1336
(dp1337
g74
(dp1338
sg83
g1232
sg76
(lp1339
g69
(g90
g71
NtRp1340
(dp1341
g74
(dp1342
g94
g95
ssg83
g1336
sg76
(lp1343
g411
asbag69
(g90
g71
NtRp1344
(dp1345
g74
(dp1346
g101
g102
ssg83
g1336
sg76
(lp1347
S':'
asbag69
(g90
g71
NtRp1348
(dp1349
g74
(dp1350
sg83
g1336
sg76
(lp1351
g69
(g70
g71
NtRp1352
(dp1353
g74
(dp1354
g82
I3
ssg83
g1348
sg76
(lp1355
S''
asbasbasbag69
(g85
g71
NtRp1356
(dp1357
g74
(dp1358
sg83
g1232
sg76
(lp1359
g69
(g90
g71
NtRp1360
(dp1361
g74
(dp1362
g94
g95
ssg83
g1356
sg76
(lp1363
g432
asbag69
(g90
g71
NtRp1364
(dp1365
g74
(dp1366
g101
g102
ssg83
g1356
sg76
(lp1367
S':'
asbag69
(g90
g71
NtRp1368
(dp1369
g74
(dp1370
sg83
g1356
sg76
(lp1371
g69
(g70
g71
NtRp1372
(dp1373
g74
(dp1374
g82
I3
ssg83
g1368
sg76
(lp1375
S''
asbasbasbag69
(g85
g71
NtRp1376
(dp1377
g74
(dp1378
sg83
g1232
sg76
(lp1379
g69
(g90
g71
NtRp1380
(dp1381
g74
(dp1382
g94
g95
ssg83
g1376
sg76
(lp1383
g453
asbag69
(g90
g71
NtRp1384
(dp1385
g74
(dp1386
g101
g102
ssg83
g1376
sg76
(lp1387
S':'
asbag69
(g90
g71
NtRp1388
(dp1389
g74
(dp1390
sg83
g1376
sg76
(lp1391
g69
(g70
g71
NtRp1392
(dp1393
g74
(dp1394
g82
I3
ssg83
g1388
sg76
(lp1395
S''
asbasbasbasbasbasbasbasbasbasbasbag69
(g85
g71
NtRp1396
(dp1397
g74
(dp1398
sg83
g79
sg76
(lp1399
g69
(g90
g71
NtRp1400
(dp1401
g74
(dp1402
g94
g95
ssg83
g1396
sg76
(lp1403
S'env'
p1404
asbag69
(g90
g71
NtRp1405
(dp1406
g74
(dp1407
g101
g102
ssg83
g1396
sg76
(lp1408
S':'
asbag69
(g90
g71
NtRp1409
(dp1410
g74
(dp1411
sg83
g1396
sg76
(lp1412
g69
(g70
g71
NtRp1413
(dp1414
g74
(dp1415
g82
I5
ssg83
g1409
sg76
(lp1416
g69
(g78
g71
NtRp1417
(dp1418
g74
(dp1419
g82
I4
ssg83
Nsg76
(lp1420
g69
(g85
g71
NtRp1421
(dp1422
g74
(dp1423
sg83
g1417
sg76
(lp1424
g69
(g90
g71
NtRp1425
(dp1426
g74
(dp1427
g94
g95
ssg83
g1421
sg76
(lp1428
S'app_folders'
p1429
asbag69
(g90
g71
NtRp1430
(dp1431
g74
(dp1432
g101
g102
ssg83
g1421
sg76
(lp1433
S':'
asbag69
(g90
g71
NtRp1434
(dp1435
g74
(dp1436
sg83
g1421
sg76
(lp1437
g69
(g70
g71
NtRp1438
(dp1439
g74
(dp1440
g82
I4
ssg83
g1434
sg76
(lp1441
S"set(['/home/mayank/gitrepo/Twitter-Sentiment-Analysis/front-end/web2py/applications/admin/', '/home/mayank/gitrepo/Twitter-Sentiment-Analysis/front-end/web2py/applications/FunkLoad/', '/home/mayank/gitrepo/Twitter-Sentiment-Analysis/front-end/web2py/applications/welcome/'])"
p1442
asbasbasbag69
(g85
g71
NtRp1443
(dp1444
g74
(dp1445
sg83
g1417
sg76
(lp1446
g69
(g90
g71
NtRp1447
(dp1448
g74
(dp1449
g94
g95
ssg83
g1443
sg76
(lp1450
S'applications_parent'
p1451
asbag69
(g90
g71
NtRp1452
(dp1453
g74
(dp1454
g101
g102
ssg83
g1443
sg76
(lp1455
S':'
asbag69
(g90
g71
NtRp1456
(dp1457
g74
(dp1458
sg83
g1443
sg76
(lp1459
g69
(g70
g71
NtRp1460
(dp1461
g74
(dp1462
g82
I4
ssg83
g1456
sg76
(lp1463
S'/home/mayank/gitrepo/Twitter-Sentiment-Analysis/front-end/web2py'
p1464
asbasbasbag69
(g85
g71
NtRp1465
(dp1466
g74
(dp1467
sg83
g1417
sg76
(lp1468
g69
(g90
g71
NtRp1469
(dp1470
g74
(dp1471
g94
g95
ssg83
g1465
sg76
(lp1472
S'cmd_args'
p1473
asbag69
(g90
g71
NtRp1474
(dp1475
g74
(dp1476
g101
g102
ssg83
g1465
sg76
(lp1477
S':'
asbag69
(g90
g71
NtRp1478
(dp1479
g74
(dp1480
sg83
g1465
sg76
(lp1481
g69
(g70
g71
NtRp1482
(dp1483
g74
(dp1484
g82
I4
ssg83
g1478
sg76
(lp1485
g69
(g78
g71
NtRp1486
(dp1487
g74
(dp1488
g82
I3
ssg83
Nsg76
(lp1489
sbasbasbasbag69
(g85
g71
NtRp1490
(dp1491
g74
(dp1492
sg83
g1417
sg76
(lp1493
g69
(g90
g71
NtRp1494
(dp1495
g74
(dp1496
g94
g95
ssg83
g1490
sg76
(lp1497
S'cmd_options'
p1498
asbag69
(g90
g71
NtRp1499
(dp1500
g74
(dp1501
g101
g102
ssg83
g1490
sg76
(lp1502
S':'
asbag69
(g90
g71
NtRp1503
(dp1504
g74
(dp1505
sg83
g1490
sg76
(lp1506
g69
(g70
g71
NtRp1507
(dp1508
g74
(dp1509
g82
I4
ssg83
g1503
sg76
(lp1510
S"<Values at 0x2820560: {'verbose': False, 'ip': '127.0.0.1', 'with_scheduler': False, 'ips': ['127.0.1.1', '10.1.33.121'], 'shutdown_timeout': 5, 'taskbar': False, 'port': 8000, 'maxthreads': None, 'softcron': False, 'server_name': 'mayank', 'bpython': False, 'nogui': False, 'nocron': False, 'extcron': False, 'run_system_tests': False, 'test': None, 'folder': '/home/mayank/gitrepo/Twitter-Sentiment-Analysis/front-end/web2py', 'config': '', 'import_models': False, 'winservice': '', 'shell': None, 'run': '', 'log_filename': 'httpserver.log', 'debuglevel': 30, 'args': [''], 'socket_timeout': 5, 'ssl_ca_certificate': None, 'scheduler': None, 'profiler_filename': None, 'ssl_private_key': '', 'scheduler_groups': None, 'password': '<ask>', 'request_queue_size': 5, 'ssl_certificate': '', 'cronjob': False, 'numthreads': None, 'quiet': False, 'interfaces': None, 'minthreads': None, 'timeout': 10, 'plain': False, 'nobanner': False, 'pid_filename': 'httpserver.pid'}>"
p1511
asbasbasbag69
(g85
g71
NtRp1512
(dp1513
g74
(dp1514
sg83
g1417
sg76
(lp1515
g69
(g90
g71
NtRp1516
(dp1517
g74
(dp1518
g94
g95
ssg83
g1512
sg76
(lp1519
S'db_sessions'
p1520
asbag69
(g90
g71
NtRp1521
(dp1522
g74
(dp1523
g101
g102
ssg83
g1512
sg76
(lp1524
S':'
asbag69
(g90
g71
NtRp1525
(dp1526
g74
(dp1527
sg83
g1512
sg76
(lp1528
g69
(g70
g71
NtRp1529
(dp1530
g74
(dp1531
g82
I4
ssg83
g1525
sg76
(lp1532
S'set([])'
p1533
asbasbasbag69
(g85
g71
NtRp1534
(dp1535
g74
(dp1536
sg83
g1417
sg76
(lp1537
g69
(g90
g71
NtRp1538
(dp1539
g74
(dp1540
g94
g95
ssg83
g1534
sg76
(lp1541
S'debugging'
p1542
asbag69
(g90
g71
NtRp1543
(dp1544
g74
(dp1545
g101
g102
ssg83
g1534
sg76
(lp1546
S':'
asbag69
(g90
g71
NtRp1547
(dp1548
g74
(dp1549
sg83
g1534
sg76
(lp1550
g69
(g70
g71
NtRp1551
(dp1552
g74
(dp1553
g82
I4
ssg83
g1547
sg76
(lp1554
g112
asbasbasbag69
(g85
g71
NtRp1555
(dp1556
g74
(dp1557
sg83
g1417
sg76
(lp1558
g69
(g90
g71
NtRp1559
(dp1560
g74
(dp1561
g94
g95
ssg83
g1555
sg76
(lp1562
S'gluon_parent'
p1563
asbag69
(g90
g71
NtRp1564
(dp1565
g74
(dp1566
g101
g102
ssg83
g1555
sg76
(lp1567
S':'
asbag69
(g90
g71
NtRp1568
(dp1569
g74
(dp1570
sg83
g1555
sg76
(lp1571
g69
(g70
g71
NtRp1572
(dp1573
g74
(dp1574
g82
I4
ssg83
g1568
sg76
(lp1575
S'/home/mayank/gitrepo/Twitter-Sentiment-Analysis/front-end/web2py'
p1576
asbasbasbag69
(g85
g71
NtRp1577
(dp1578
g74
(dp1579
sg83
g1417
sg76
(lp1580
g69
(g90
g71
NtRp1581
(dp1582
g74
(dp1583
g94
g95
ssg83
g1577
sg76
(lp1584
S'http_accept'
p1585
asbag69
(g90
g71
NtRp1586
(dp1587
g74
(dp1588
g101
g102
ssg83
g1577
sg76
(lp1589
S':'
asbag69
(g90
g71
NtRp1590
(dp1591
g74
(dp1592
sg83
g1577
sg76
(lp1593
g69
(g70
g71
NtRp1594
(dp1595
g74
(dp1596
g82
I4
ssg83
g1590
sg76
(lp1597
S'text/html,application/xhtml+xml,application/xml;q=0.9,*/*;q=0.8'
p1598
asbasbasbag69
(g85
g71
NtRp1599
(dp1600
g74
(dp1601
sg83
g1417
sg76
(lp1602
g69
(g90
g71
NtRp1603
(dp1604
g74
(dp1605
g94
g95
ssg83
g1599
sg76
(lp1606
S'http_accept_encoding'
p1607
asbag69
(g90
g71
NtRp1608
(dp1609
g74
(dp1610
g101
g102
ssg83
g1599
sg76
(lp1611
S':'
asbag69
(g90
g71
NtRp1612
(dp1613
g74
(dp1614
sg83
g1599
sg76
(lp1615
g69
(g70
g71
NtRp1616
(dp1617
g74
(dp1618
g82
I4
ssg83
g1612
sg76
(lp1619
S'gzip, deflate'
p1620
asbasbasbag69
(g85
g71
NtRp1621
(dp1622
g74
(dp1623
sg83
g1417
sg76
(lp1624
g69
(g90
g71
NtRp1625
(dp1626
g74
(dp1627
g94
g95
ssg83
g1621
sg76
(lp1628
S'http_accept_language'
p1629
asbag69
(g90
g71
NtRp1630
(dp1631
g74
(dp1632
g101
g102
ssg83
g1621
sg76
(lp1633
S':'
asbag69
(g90
g71
NtRp1634
(dp1635
g74
(dp1636
sg83
g1621
sg76
(lp1637
g69
(g70
g71
NtRp1638
(dp1639
g74
(dp1640
g82
I4
ssg83
g1634
sg76
(lp1641
S'en-US,en;q=0.5'
p1642
asbasbasbag69
(g85
g71
NtRp1643
(dp1644
g74
(dp1645
sg83
g1417
sg76
(lp1646
g69
(g90
g71
NtRp1647
(dp1648
g74
(dp1649
g94
g95
ssg83
g1643
sg76
(lp1650
S'http_connection'
p1651
asbag69
(g90
g71
NtRp1652
(dp1653
g74
(dp1654
g101
g102
ssg83
g1643
sg76
(lp1655
S':'
asbag69
(g90
g71
NtRp1656
(dp1657
g74
(dp1658
sg83
g1643
sg76
(lp1659
g69
(g70
g71
NtRp1660
(dp1661
g74
(dp1662
g82
I4
ssg83
g1656
sg76
(lp1663
S'keep-alive'
p1664
asbasbasbag69
(g85
g71
NtRp1665
(dp1666
g74
(dp1667
sg83
g1417
sg76
(lp1668
g69
(g90
g71
NtRp1669
(dp1670
g74
(dp1671
g94
g95
ssg83
g1665
sg76
(lp1672
S'http_cookie'
p1673
asbag69
(g90
g71
NtRp1674
(dp1675
g74
(dp1676
g101
g102
ssg83
g1665
sg76
(lp1677
S':'
asbag69
(g90
g71
NtRp1678
(dp1679
g74
(dp1680
sg83
g1665
sg76
(lp1681
g69
(g70
g71
NtRp1682
(dp1683
g74
(dp1684
g82
I4
ssg83
g1678
sg76
(lp1685
S'session_id_welcome=127.0.0.1-6025786b-dfc4-4072-8989-30cc0d295efc; session_id_admin=127.0.0.1-554f35e1-d9e6-4af1-a80d-537fcac15f96; session_id_worldquant=127.0.0.1-ac577e6b-de07-464b-94ad-b0bc6e115852; session_id_photo_uploader=127.0.0.1-cbc8ab18-0caf-4e95-89b6-df04f5fef73b; session_id_proj=127.0.0.1-635e16ea-0665-4048-b6b4-5dedee647613; session_id_funkload=127.0.0.1-a98b320f-b070-488d-ad40-6bbec9939460'
p1686
asbasbasbag69
(g85
g71
NtRp1687
(dp1688
g74
(dp1689
sg83
g1417
sg76
(lp1690
g69
(g90
g71
NtRp1691
(dp1692
g74
(dp1693
g94
g95
ssg83
g1687
sg76
(lp1694
S'http_host'
p1695
asbag69
(g90
g71
NtRp1696
(dp1697
g74
(dp1698
g101
g102
ssg83
g1687
sg76
(lp1699
S':'
asbag69
(g90
g71
NtRp1700
(dp1701
g74
(dp1702
sg83
g1687
sg76
(lp1703
g69
(g70
g71
NtRp1704
(dp1705
g74
(dp1706
g82
I4
ssg83
g1700
sg76
(lp1707
S'127.0.0.1:8000'
p1708
asbasbasbag69
(g85
g71
NtRp1709
(dp1710
g74
(dp1711
sg83
g1417
sg76
(lp1712
g69
(g90
g71
NtRp1713
(dp1714
g74
(dp1715
g94
g95
ssg83
g1709
sg76
(lp1716
S'http_user_agent'
p1717
asbag69
(g90
g71
NtRp1718
(dp1719
g74
(dp1720
g101
g102
ssg83
g1709
sg76
(lp1721
S':'
asbag69
(g90
g71
NtRp1722
(dp1723
g74
(dp1724
sg83
g1709
sg76
(lp1725
g69
(g70
g71
NtRp1726
(dp1727
g74
(dp1728
g82
I4
ssg83
g1722
sg76
(lp1729
S'Mozilla/5.0 (X11; Ubuntu; Linux x86_64; rv:26.0) Gecko/20100101 Firefox/26.0'
p1730
asbasbasbag69
(g85
g71
NtRp1731
(dp1732
g74
(dp1733
sg83
g1417
sg76
(lp1734
g69
(g90
g71
NtRp1735
(dp1736
g74
(dp1737
g94
g95
ssg83
g1731
sg76
(lp1738
S'is_jython'
p1739
asbag69
(g90
g71
NtRp1740
(dp1741
g74
(dp1742
g101
g102
ssg83
g1731
sg76
(lp1743
S':'
asbag69
(g90
g71
NtRp1744
(dp1745
g74
(dp1746
sg83
g1731
sg76
(lp1747
g69
(g70
g71
NtRp1748
(dp1749
g74
(dp1750
g82
I4
ssg83
g1744
sg76
(lp1751
g112
asbasbasbag69
(g85
g71
NtRp1752
(dp1753
g74
(dp1754
sg83
g1417
sg76
(lp1755
g69
(g90
g71
NtRp1756
(dp1757
g74
(dp1758
g94
g95
ssg83
g1752
sg76
(lp1759
S'is_pypy'
p1760
asbag69
(g90
g71
NtRp1761
(dp1762
g74
(dp1763
g101
g102
ssg83
g1752
sg76
(lp1764
S':'
asbag69
(g90
g71
NtRp1765
(dp1766
g74
(dp1767
sg83
g1752
sg76
(lp1768
g69
(g70
g71
NtRp1769
(dp1770
g74
(dp1771
g82
I4
ssg83
g1765
sg76
(lp1772
g112
asbasbasbag69
(g85
g71
NtRp1773
(dp1774
g74
(dp1775
sg83
g1417
sg76
(lp1776
g69
(g90
g71
NtRp1777
(dp1778
g74
(dp1779
g94
g95
ssg83
g1773
sg76
(lp1780
S'path_info'
p1781
asbag69
(g90
g71
NtRp1782
(dp1783
g74
(dp1784
g101
g102
ssg83
g1773
sg76
(lp1785
S':'
asbag69
(g90
g71
NtRp1786
(dp1787
g74
(dp1788
sg83
g1773
sg76
(lp1789
g69
(g70
g71
NtRp1790
(dp1791
g74
(dp1792
g82
I4
ssg83
g1786
sg76
(lp1793
S'/FunkLoad/default/index'
p1794
asbasbasbag69
(g85
g71
NtRp1795
(dp1796
g74
(dp1797
sg83
g1417
sg76
(lp1798
g69
(g90
g71
NtRp1799
(dp1800
g74
(dp1801
g94
g95
ssg83
g1795
sg76
(lp1802
S'query_string'
p1803
asbag69
(g90
g71
NtRp1804
(dp1805
g74
(dp1806
g101
g102
ssg83
g1795
sg76
(lp1807
S':'
asbag69
(g90
g71
NtRp1808
(dp1809
g74
(dp1810
sg83
g1795
sg76
(lp1811
g69
(g70
g71
NtRp1812
(dp1813
g74
(dp1814
g82
I4
ssg83
g1808
sg76
(lp1815
S''
asbasbasbag69
(g85
g71
NtRp1816
(dp1817
g74
(dp1818
sg83
g1417
sg76
(lp1819
g69
(g90
g71
NtRp1820
(dp1821
g74
(dp1822
g94
g95
ssg83
g1816
sg76
(lp1823
S'remote_addr'
p1824
asbag69
(g90
g71
NtRp1825
(dp1826
g74
(dp1827
g101
g102
ssg83
g1816
sg76
(lp1828
S':'
asbag69
(g90
g71
NtRp1829
(dp1830
g74
(dp1831
sg83
g1816
sg76
(lp1832
g69
(g70
g71
NtRp1833
(dp1834
g74
(dp1835
g82
I4
ssg83
g1829
sg76
(lp1836
g224
asbasbasbag69
(g85
g71
NtRp1837
(dp1838
g74
(dp1839
sg83
g1417
sg76
(lp1840
g69
(g90
g71
NtRp1841
(dp1842
g74
(dp1843
g94
g95
ssg83
g1837
sg76
(lp1844
S'remote_port'
p1845
asbag69
(g90
g71
NtRp1846
(dp1847
g74
(dp1848
g101
g102
ssg83
g1837
sg76
(lp1849
S':'
asbag69
(g90
g71
NtRp1850
(dp1851
g74
(dp1852
sg83
g1837
sg76
(lp1853
g69
(g70
g71
NtRp1854
(dp1855
g74
(dp1856
g82
I4
ssg83
g1850
sg76
(lp1857
S'60173'
p1858
asbasbasbag69
(g85
g71
NtRp1859
(dp1860
g74
(dp1861
sg83
g1417
sg76
(lp1862
g69
(g90
g71
NtRp1863
(dp1864
g74
(dp1865
g94
g95
ssg83
g1859
sg76
(lp1866
S'request_method'
p1867
asbag69
(g90
g71
NtRp1868
(dp1869
g74
(dp1870
g101
g102
ssg83
g1859
sg76
(lp1871
S':'
asbag69
(g90
g71
NtRp1872
(dp1873
g74
(dp1874
sg83
g1859
sg76
(lp1875
g69
(g70
g71
NtRp1876
(dp1877
g74
(dp1878
g82
I4
ssg83
g1872
sg76
(lp1879
S'GET'
p1880
asbasbasbag69
(g85
g71
NtRp1881
(dp1882
g74
(dp1883
sg83
g1417
sg76
(lp1884
g69
(g90
g71
NtRp1885
(dp1886
g74
(dp1887
g94
g95
ssg83
g1881
sg76
(lp1888
S'request_uri'
p1889
asbag69
(g90
g71
NtRp1890
(dp1891
g74
(dp1892
g101
g102
ssg83
g1881
sg76
(lp1893
S':'
asbag69
(g90
g71
NtRp1894
(dp1895
g74
(dp1896
sg83
g1881
sg76
(lp1897
g69
(g70
g71
NtRp1898
(dp1899
g74
(dp1900
g82
I4
ssg83
g1894
sg76
(lp1901
g1794
asbasbasbag69
(g85
g71
NtRp1902
(dp1903
g74
(dp1904
sg83
g1417
sg76
(lp1905
g69
(g90
g71
NtRp1906
(dp1907
g74
(dp1908
g94
g95
ssg83
g1902
sg76
(lp1909
S'script_name'
p1910
asbag69
(g90
g71
NtRp1911
(dp1912
g74
(dp1913
g101
g102
ssg83
g1902
sg76
(lp1914
S':'
asbag69
(g90
g71
NtRp1915
(dp1916
g74
(dp1917
sg83
g1902
sg76
(lp1918
g69
(g70
g71
NtRp1919
(dp1920
g74
(dp1921
g82
I4
ssg83
g1915
sg76
(lp1922
S''
asbasbasbag69
(g85
g71
NtRp1923
(dp1924
g74
(dp1925
sg83
g1417
sg76
(lp1926
g69
(g90
g71
NtRp1927
(dp1928
g74
(dp1929
g94
g95
ssg83
g1923
sg76
(lp1930
S'server_name'
p1931
asbag69
(g90
g71
NtRp1932
(dp1933
g74
(dp1934
g101
g102
ssg83
g1923
sg76
(lp1935
S':'
asbag69
(g90
g71
NtRp1936
(dp1937
g74
(dp1938
sg83
g1923
sg76
(lp1939
g69
(g70
g71
NtRp1940
(dp1941
g74
(dp1942
g82
I4
ssg83
g1936
sg76
(lp1943
S'mayank'
p1944
asbasbasbag69
(g85
g71
NtRp1945
(dp1946
g74
(dp1947
sg83
g1417
sg76
(lp1948
g69
(g90
g71
NtRp1949
(dp1950
g74
(dp1951
g94
g95
ssg83
g1945
sg76
(lp1952
S'server_port'
p1953
asbag69
(g90
g71
NtRp1954
(dp1955
g74
(dp1956
g101
g102
ssg83
g1945
sg76
(lp1957
S':'
asbag69
(g90
g71
NtRp1958
(dp1959
g74
(dp1960
sg83
g1945
sg76
(lp1961
g69
(g70
g71
NtRp1962
(dp1963
g74
(dp1964
g82
I4
ssg83
g1958
sg76
(lp1965
S'8000'
p1966
asbasbasbag69
(g85
g71
NtRp1967
(dp1968
g74
(dp1969
sg83
g1417
sg76
(lp1970
g69
(g90
g71
NtRp1971
(dp1972
g74
(dp1973
g94
g95
ssg83
g1967
sg76
(lp1974
S'server_protocol'
p1975
asbag69
(g90
g71
NtRp1976
(dp1977
g74
(dp1978
g101
g102
ssg83
g1967
sg76
(lp1979
S':'
asbag69
(g90
g71
NtRp1980
(dp1981
g74
(dp1982
sg83
g1967
sg76
(lp1983
g69
(g70
g71
NtRp1984
(dp1985
g74
(dp1986
g82
I4
ssg83
g1980
sg76
(lp1987
S'HTTP/1.1'
p1988
asbasbasbag69
(g85
g71
NtRp1989
(dp1990
g74
(dp1991
sg83
g1417
sg76
(lp1992
g69
(g90
g71
NtRp1993
(dp1994
g74
(dp1995
g94
g95
ssg83
g1989
sg76
(lp1996
S'server_software'
p1997
asbag69
(g90
g71
NtRp1998
(dp1999
g74
(dp2000
g101
g102
ssg83
g1989
sg76
(lp2001
S':'
asbag69
(g90
g71
NtRp2002
(dp2003
g74
(dp2004
sg83
g1989
sg76
(lp2005
g69
(g70
g71
NtRp2006
(dp2007
g74
(dp2008
g82
I4
ssg83
g2002
sg76
(lp2009
S'Rocket 1.2.4'
p2010
asbasbasbag69
(g85
g71
NtRp2011
(dp2012
g74
(dp2013
sg83
g1417
sg76
(lp2014
g69
(g90
g71
NtRp2015
(dp2016
g74
(dp2017
g94
g95
ssg83
g2011
sg76
(lp2018
S'web2py_crontype'
p2019
asbag69
(g90
g71
NtRp2020
(dp2021
g74
(dp2022
g101
g102
ssg83
g2011
sg76
(lp2023
S':'
asbag69
(g90
g71
NtRp2024
(dp2025
g74
(dp2026
sg83
g2011
sg76
(lp2027
g69
(g70
g71
NtRp2028
(dp2029
g74
(dp2030
g82
I4
ssg83
g2024
sg76
(lp2031
S'hard'
p2032
asbasbasbag69
(g85
g71
NtRp2033
(dp2034
g74
(dp2035
sg83
g1417
sg76
(lp2036
g69
(g90
g71
NtRp2037
(dp2038
g74
(dp2039
g94
g95
ssg83
g2033
sg76
(lp2040
S'web2py_path'
p2041
asbag69
(g90
g71
NtRp2042
(dp2043
g74
(dp2044
g101
g102
ssg83
g2033
sg76
(lp2045
S':'
asbag69
(g90
g71
NtRp2046
(dp2047
g74
(dp2048
sg83
g2033
sg76
(lp2049
g69
(g70
g71
NtRp2050
(dp2051
g74
(dp2052
g82
I4
ssg83
g2046
sg76
(lp2053
g1464
asbasbasbag69
(g85
g71
NtRp2054
(dp2055
g74
(dp2056
sg83
g1417
sg76
(lp2057
g69
(g90
g71
NtRp2058
(dp2059
g74
(dp2060
g94
g95
ssg83
g2054
sg76
(lp2061
S'web2py_version'
p2062
asbag69
(g90
g71
NtRp2063
(dp2064
g74
(dp2065
g101
g102
ssg83
g2054
sg76
(lp2066
S':'
asbag69
(g90
g71
NtRp2067
(dp2068
g74
(dp2069
sg83
g2054
sg76
(lp2070
g69
(g70
g71
NtRp2071
(dp2072
g74
(dp2073
g82
I4
ssg83
g2067
sg76
(lp2074
g69
(g78
g71
NtRp2075
(dp2076
g74
(dp2077
g82
I3
ssg83
Nsg76
(lp2078
g69
(g85
g71
NtRp2079
(dp2080
g74
(dp2081
sg83
g2075
sg76
(lp2082
g69
(g90
g71
NtRp2083
(dp2084
g74
(dp2085
sg83
g2079
sg76
(lp2086
g69
(g70
g71
NtRp2087
(dp2088
g74
(dp2089
g82
I3
ssg83
g2083
sg76
(lp2090
S'2'
asbasbasbag69
(g85
g71
NtRp2091
(dp2092
g74
(dp2093
sg83
g2075
sg76
(lp2094
g69
(g90
g71
NtRp2095
(dp2096
g74
(dp2097
sg83
g2091
sg76
(lp2098
g69
(g70
g71
NtRp2099
(dp2100
g74
(dp2101
g82
I3
ssg83
g2095
sg76
(lp2102
S'0'
asbasbasbag69
(g85
g71
NtRp2103
(dp2104
g74
(dp2105
sg83
g2075
sg76
(lp2106
g69
(g90
g71
NtRp2107
(dp2108
g74
(dp2109
sg83
g2103
sg76
(lp2110
g69
(g70
g71
NtRp2111
(dp2112
g74
(dp2113
g82
I3
ssg83
g2107
sg76
(lp2114
S'8'
asbasbasbag69
(g85
g71
NtRp2115
(dp2116
g74
(dp2117
sg83
g2075
sg76
(lp2118
g69
(g90
g71
NtRp2119
(dp2120
g74
(dp2121
sg83
g2115
sg76
(lp2122
g69
(g70
g71
NtRp2123
(dp2124
g74
(dp2125
g82
I3
ssg83
g2119
sg76
(lp2126
S'datetime.datetime(2012, 9, 7, 3, 47, 51)'
p2127
asbasbasbag69
(g85
g71
NtRp2128
(dp2129
g74
(dp2130
sg83
g2075
sg76
(lp2131
g69
(g90
g71
NtRp2132
(dp2133
g74
(dp2134
sg83
g2128
sg76
(lp2135
g69
(g70
g71
NtRp2136
(dp2137
g74
(dp2138
g82
I3
ssg83
g2132
sg76
(lp2139
S'stable'
p2140
asbasbasbasbasbasbasbag69
(g85
g71
NtRp2141
(dp2142
g74
(dp2143
sg83
g1417
sg76
(lp2144
g69
(g90
g71
NtRp2145
(dp2146
g74
(dp2147
g94
g95
ssg83
g2141
sg76
(lp2148
S'wsgi_errors'
p2149
asbag69
(g90
g71
NtRp2150
(dp2151
g74
(dp2152
g101
g102
ssg83
g2141
sg76
(lp2153
S':'
asbag69
(g90
g71
NtRp2154
(dp2155
g74
(dp2156
sg83
g2141
sg76
(lp2157
g69
(g70
g71
NtRp2158
(dp2159
g74
(dp2160
g82
I4
ssg83
g2154
sg76
(lp2161
S"<open file '<stderr>', mode 'w' at 0x7fe1ee8a81e0>"
p2162
asbasbasbag69
(g85
g71
NtRp2163
(dp2164
g74
(dp2165
sg83
g1417
sg76
(lp2166
g69
(g90
g71
NtRp2167
(dp2168
g74
(dp2169
g94
g95
ssg83
g2163
sg76
(lp2170
S'wsgi_file_wrapper'
p2171
asbag69
(g90
g71
NtRp2172
(dp2173
g74
(dp2174
g101
g102
ssg83
g2163
sg76
(lp2175
S':'
asbag69
(g90
g71
NtRp2176
(dp2177
g74
(dp2178
sg83
g2163
sg76
(lp2179
g69
(g70
g71
NtRp2180
(dp2181
g74
(dp2182
g82
I4
ssg83
g2176
sg76
(lp2183
S'<class wsgiref.util.FileWrapper at 0x236cc80>'
p2184
asbasbasbag69
(g85
g71
NtRp2185
(dp2186
g74
(dp2187
sg83
g1417
sg76
(lp2188
g69
(g90
g71
NtRp2189
(dp2190
g74
(dp2191
g94
g95
ssg83
g2185
sg76
(lp2192
S'wsgi_input'
p2193
asbag69
(g90
g71
NtRp2194
(dp2195
g74
(dp2196
g101
g102
ssg83
g2185
sg76
(lp2197
S':'
asbag69
(g90
g71
NtRp2198
(dp2199
g74
(dp2200
sg83
g2185
sg76
(lp2201
g69
(g70
g71
NtRp2202
(dp2203
g74
(dp2204
g82
I4
ssg83
g2198
sg76
(lp2205
S'<socket._fileobject object at 0x7fe1bc3c7b50>'
p2206
asbasbasbag69
(g85
g71
NtRp2207
(dp2208
g74
(dp2209
sg83
g1417
sg76
(lp2210
g69
(g90
g71
NtRp2211
(dp2212
g74
(dp2213
g94
g95
ssg83
g2207
sg76
(lp2214
S'wsgi_multiprocess'
p2215
asbag69
(g90
g71
NtRp2216
(dp2217
g74
(dp2218
g101
g102
ssg83
g2207
sg76
(lp2219
S':'
asbag69
(g90
g71
NtRp2220
(dp2221
g74
(dp2222
sg83
g2207
sg76
(lp2223
g69
(g70
g71
NtRp2224
(dp2225
g74
(dp2226
g82
I4
ssg83
g2220
sg76
(lp2227
g112
asbasbasbag69
(g85
g71
NtRp2228
(dp2229
g74
(dp2230
sg83
g1417
sg76
(lp2231
g69
(g90
g71
NtRp2232
(dp2233
g74
(dp2234
g94
g95
ssg83
g2228
sg76
(lp2235
S'wsgi_multithread'
p2236
asbag69
(g90
g71
NtRp2237
(dp2238
g74
(dp2239
g101
g102
ssg83
g2228
sg76
(lp2240
S':'
asbag69
(g90
g71
NtRp2241
(dp2242
g74
(dp2243
sg83
g2228
sg76
(lp2244
g69
(g70
g71
NtRp2245
(dp2246
g74
(dp2247
g82
I4
ssg83
g2241
sg76
(lp2248
S'True'
p2249
asbasbasbag69
(g85
g71
NtRp2250
(dp2251
g74
(dp2252
sg83
g1417
sg76
(lp2253
g69
(g90
g71
NtRp2254
(dp2255
g74
(dp2256
g94
g95
ssg83
g2250
sg76
(lp2257
S'wsgi_run_once'
p2258
asbag69
(g90
g71
NtRp2259
(dp2260
g74
(dp2261
g101
g102
ssg83
g2250
sg76
(lp2262
S':'
asbag69
(g90
g71
NtRp2263
(dp2264
g74
(dp2265
sg83
g2250
sg76
(lp2266
g69
(g70
g71
NtRp2267
(dp2268
g74
(dp2269
g82
I4
ssg83
g2263
sg76
(lp2270
g112
asbasbasbag69
(g85
g71
NtRp2271
(dp2272
g74
(dp2273
sg83
g1417
sg76
(lp2274
g69
(g90
g71
NtRp2275
(dp2276
g74
(dp2277
g94
g95
ssg83
g2271
sg76
(lp2278
S'wsgi_url_scheme'
p2279
asbag69
(g90
g71
NtRp2280
(dp2281
g74
(dp2282
g101
g102
ssg83
g2271
sg76
(lp2283
S':'
asbag69
(g90
g71
NtRp2284
(dp2285
g74
(dp2286
sg83
g2271
sg76
(lp2287
g69
(g70
g71
NtRp2288
(dp2289
g74
(dp2290
g82
I4
ssg83
g2284
sg76
(lp2291
S'http'
p2292
asbasbasbag69
(g85
g71
NtRp2293
(dp2294
g74
(dp2295
sg83
g1417
sg76
(lp2296
g69
(g90
g71
NtRp2297
(dp2298
g74
(dp2299
g94
g95
ssg83
g2293
sg76
(lp2300
S'wsgi_version'
p2301
asbag69
(g90
g71
NtRp2302
(dp2303
g74
(dp2304
g101
g102
ssg83
g2293
sg76
(lp2305
S':'
asbag69
(g90
g71
NtRp2306
(dp2307
g74
(dp2308
sg83
g2293
sg76
(lp2309
g69
(g70
g71
NtRp2310
(dp2311
g74
(dp2312
g82
I4
ssg83
g2306
sg76
(lp2313
g69
(g78
g71
NtRp2314
(dp2315
g74
(dp2316
g82
I3
ssg83
Nsg76
(lp2317
g69
(g85
g71
NtRp2318
(dp2319
g74
(dp2320
sg83
g2314
sg76
(lp2321
g69
(g90
g71
NtRp2322
(dp2323
g74
(dp2324
sg83
g2318
sg76
(lp2325
g69
(g70
g71
NtRp2326
(dp2327
g74
(dp2328
g82
I3
ssg83
g2322
sg76
(lp2329
S'1'
asbasbasbag69
(g85
g71
NtRp2330
(dp2331
g74
(dp2332
sg83
g2314
sg76
(lp2333
g69
(g90
g71
NtRp2334
(dp2335
g74
(dp2336
sg83
g2330
sg76
(lp2337
g69
(g70
g71
NtRp2338
(dp2339
g74
(dp2340
g82
I3
ssg83
g2334
sg76
(lp2341
S'0'
asbasbasbasbasbasbasbasbasbasbasbag69
(g85
g71
NtRp2342
(dp2343
g74
(dp2344
sg83
g79
sg76
(lp2345
g69
(g90
g71
NtRp2346
(dp2347
g74
(dp2348
g94
g95
ssg83
g2342
sg76
(lp2349
S'extension'
p2350
asbag69
(g90
g71
NtRp2351
(dp2352
g74
(dp2353
g101
g102
ssg83
g2342
sg76
(lp2354
S':'
asbag69
(g90
g71
NtRp2355
(dp2356
g74
(dp2357
sg83
g2342
sg76
(lp2358
g69
(g70
g71
NtRp2359
(dp2360
g74
(dp2361
g82
I5
ssg83
g2355
sg76
(lp2362
S'html'
p2363
asbasbasbag69
(g85
g71
NtRp2364
(dp2365
g74
(dp2366
sg83
g79
sg76
(lp2367
g69
(g90
g71
NtRp2368
(dp2369
g74
(dp2370
g94
g95
ssg83
g2364
sg76
(lp2371
S'folder'
p2372
asbag69
(g90
g71
NtRp2373
(dp2374
g74
(dp2375
g101
g102
ssg83
g2364
sg76
(lp2376
S':'
asbag69
(g90
g71
NtRp2377
(dp2378
g74
(dp2379
sg83
g2364
sg76
(lp2380
g69
(g70
g71
NtRp2381
(dp2382
g74
(dp2383
g82
I5
ssg83
g2377
sg76
(lp2384
S'/home/mayank/gitrepo/Twitter-Sentiment-Analysis/front-end/web2py/applications/FunkLoad/'
p2385
asbasbasbag69
(g85
g71
NtRp2386
(dp2387
g74
(dp2388
sg83
g79
sg76
(lp2389
g69
(g90
g71
NtRp2390
(dp2391
g74
(dp2392
g94
g95
ssg83
g2386
sg76
(lp2393
S'function'
p2394
asbag69
(g90
g71
NtRp2395
(dp2396
g74
(dp2397
g101
g102
ssg83
g2386
sg76
(lp2398
S':'
asbag69
(g90
g71
NtRp2399
(dp2400
g74
(dp2401
sg83
g2386
sg76
(lp2402
g69
(g70
g71
NtRp2403
(dp2404
g74
(dp2405
g82
I5
ssg83
g2399
sg76
(lp2406
S'index'
p2407
asbasbasbag69
(g85
g71
NtRp2408
(dp2409
g74
(dp2410
sg83
g79
sg76
(lp2411
g69
(g90
g71
NtRp2412
(dp2413
g74
(dp2414
g94
g95
ssg83
g2408
sg76
(lp2415
S'get_vars'
p2416
asbag69
(g90
g71
NtRp2417
(dp2418
g74
(dp2419
g101
g102
ssg83
g2408
sg76
(lp2420
S':'
asbag69
(g90
g71
NtRp2421
(dp2422
g74
(dp2423
sg83
g2408
sg76
(lp2424
g69
(g70
g71
NtRp2425
(dp2426
g74
(dp2427
g82
I5
ssg83
g2421
sg76
(lp2428
g69
(g78
g71
NtRp2429
(dp2430
g74
(dp2431
g82
I4
ssg83
Nsg76
(lp2432
sbasbasbasbag69
(g85
g71
NtRp2433
(dp2434
g74
(dp2435
sg83
g79
sg76
(lp2436
g69
(g90
g71
NtRp2437
(dp2438
g74
(dp2439
g94
g95
ssg83
g2433
sg76
(lp2440
S'global_settings'
p2441
asbag69
(g90
g71
NtRp2442
(dp2443
g74
(dp2444
g101
g102
ssg83
g2433
sg76
(lp2445
S':'
asbag69
(g90
g71
NtRp2446
(dp2447
g74
(dp2448
sg83
g2433
sg76
(lp2449
g69
(g70
g71
NtRp2450
(dp2451
g74
(dp2452
g82
I5
ssg83
g2446
sg76
(lp2453
g69
(g78
g71
NtRp2454
(dp2455
g74
(dp2456
g82
I4
ssg83
Nsg76
(lp2457
g69
(g85
g71
NtRp2458
(dp2459
g74
(dp2460
sg83
g2454
sg76
(lp2461
g69
(g90
g71
NtRp2462
(dp2463
g74
(dp2464
g94
g95
ssg83
g2458
sg76
(lp2465
g1429
asbag69
(g90
g71
NtRp2466
(dp2467
g74
(dp2468
g101
g102
ssg83
g2458
sg76
(lp2469
S':'
asbag69
(g90
g71
NtRp2470
(dp2471
g74
(dp2472
sg83
g2458
sg76
(lp2473
g69
(g70
g71
NtRp2474
(dp2475
g74
(dp2476
g82
I4
ssg83
g2470
sg76
(lp2477
S"set(['/home/mayank/gitrepo/Twitter-Sentiment-Analysis/front-end/web2py/applications/admin/', '/home/mayank/gitrepo/Twitter-Sentiment-Analysis/front-end/web2py/applications/FunkLoad/', '/home/mayank/gitrepo/Twitter-Sentiment-Analysis/front-end/web2py/applications/welcome/'])"
p2478
asbasbasbag69
(g85
g71
NtRp2479
(dp2480
g74
(dp2481
sg83
g2454
sg76
(lp2482
g69
(g90
g71
NtRp2483
(dp2484
g74
(dp2485
g94
g95
ssg83
g2479
sg76
(lp2486
g1451
asbag69
(g90
g71
NtRp2487
(dp2488
g74
(dp2489
g101
g102
ssg83
g2479
sg76
(lp2490
S':'
asbag69
(g90
g71
NtRp2491
(dp2492
g74
(dp2493
sg83
g2479
sg76
(lp2494
g69
(g70
g71
NtRp2495
(dp2496
g74
(dp2497
g82
I4
ssg83
g2491
sg76
(lp2498
g1464
asbasbasbag69
(g85
g71
NtRp2499
(dp2500
g74
(dp2501
sg83
g2454
sg76
(lp2502
g69
(g90
g71
NtRp2503
(dp2504
g74
(dp2505
g94
g95
ssg83
g2499
sg76
(lp2506
g1473
asbag69
(g90
g71
NtRp2507
(dp2508
g74
(dp2509
g101
g102
ssg83
g2499
sg76
(lp2510
S':'
asbag69
(g90
g71
NtRp2511
(dp2512
g74
(dp2513
sg83
g2499
sg76
(lp2514
g69
(g70
g71
NtRp2515
(dp2516
g74
(dp2517
g82
I4
ssg83
g2511
sg76
(lp2518
g69
(g78
g71
NtRp2519
(dp2520
g74
(dp2521
g82
I3
ssg83
Nsg76
(lp2522
sbasbasbasbag69
(g85
g71
NtRp2523
(dp2524
g74
(dp2525
sg83
g2454
sg76
(lp2526
g69
(g90
g71
NtRp2527
(dp2528
g74
(dp2529
g94
g95
ssg83
g2523
sg76
(lp2530
g1498
asbag69
(g90
g71
NtRp2531
(dp2532
g74
(dp2533
g101
g102
ssg83
g2523
sg76
(lp2534
S':'
asbag69
(g90
g71
NtRp2535
(dp2536
g74
(dp2537
sg83
g2523
sg76
(lp2538
g69
(g70
g71
NtRp2539
(dp2540
g74
(dp2541
g82
I4
ssg83
g2535
sg76
(lp2542
S"<Values at 0x2820560: {'verbose': False, 'ip': '127.0.0.1', 'with_scheduler': False, 'ips': ['127.0.1.1', '10.1.33.121'], 'shutdown_timeout': 5, 'taskbar': False, 'port': 8000, 'maxthreads': None, 'softcron': False, 'server_name': 'mayank', 'bpython': False, 'nogui': False, 'nocron': False, 'extcron': False, 'run_system_tests': False, 'test': None, 'folder': '/home/mayank/gitrepo/Twitter-Sentiment-Analysis/front-end/web2py', 'config': '', 'import_models': False, 'winservice': '', 'shell': None, 'run': '', 'log_filename': 'httpserver.log', 'debuglevel': 30, 'args': [''], 'socket_timeout': 5, 'ssl_ca_certificate': None, 'scheduler': None, 'profiler_filename': None, 'ssl_private_key': '', 'scheduler_groups': None, 'password': '<ask>', 'request_queue_size': 5, 'ssl_certificate': '', 'cronjob': False, 'numthreads': None, 'quiet': False, 'interfaces': None, 'minthreads': None, 'timeout': 10, 'plain': False, 'nobanner': False, 'pid_filename': 'httpserver.pid'}>"
p2543
asbasbasbag69
(g85
g71
NtRp2544
(dp2545
g74
(dp2546
sg83
g2454
sg76
(lp2547
g69
(g90
g71
NtRp2548
(dp2549
g74
(dp2550
g94
g95
ssg83
g2544
sg76
(lp2551
g1520
asbag69
(g90
g71
NtRp2552
(dp2553
g74
(dp2554
g101
g102
ssg83
g2544
sg76
(lp2555
S':'
asbag69
(g90
g71
NtRp2556
(dp2557
g74
(dp2558
sg83
g2544
sg76
(lp2559
g69
(g70
g71
NtRp2560
(dp2561
g74
(dp2562
g82
I4
ssg83
g2556
sg76
(lp2563
S'set([])'
p2564
asbasbasbag69
(g85
g71
NtRp2565
(dp2566
g74
(dp2567
sg83
g2454
sg76
(lp2568
g69
(g90
g71
NtRp2569
(dp2570
g74
(dp2571
g94
g95
ssg83
g2565
sg76
(lp2572
g1542
asbag69
(g90
g71
NtRp2573
(dp2574
g74
(dp2575
g101
g102
ssg83
g2565
sg76
(lp2576
S':'
asbag69
(g90
g71
NtRp2577
(dp2578
g74
(dp2579
sg83
g2565
sg76
(lp2580
g69
(g70
g71
NtRp2581
(dp2582
g74
(dp2583
g82
I4
ssg83
g2577
sg76
(lp2584
g112
asbasbasbag69
(g85
g71
NtRp2585
(dp2586
g74
(dp2587
sg83
g2454
sg76
(lp2588
g69
(g90
g71
NtRp2589
(dp2590
g74
(dp2591
g94
g95
ssg83
g2585
sg76
(lp2592
g1563
asbag69
(g90
g71
NtRp2593
(dp2594
g74
(dp2595
g101
g102
ssg83
g2585
sg76
(lp2596
S':'
asbag69
(g90
g71
NtRp2597
(dp2598
g74
(dp2599
sg83
g2585
sg76
(lp2600
g69
(g70
g71
NtRp2601
(dp2602
g74
(dp2603
g82
I4
ssg83
g2597
sg76
(lp2604
g1576
asbasbasbag69
(g85
g71
NtRp2605
(dp2606
g74
(dp2607
sg83
g2454
sg76
(lp2608
g69
(g90
g71
NtRp2609
(dp2610
g74
(dp2611
g94
g95
ssg83
g2605
sg76
(lp2612
g1739
asbag69
(g90
g71
NtRp2613
(dp2614
g74
(dp2615
g101
g102
ssg83
g2605
sg76
(lp2616
S':'
asbag69
(g90
g71
NtRp2617
(dp2618
g74
(dp2619
sg83
g2605
sg76
(lp2620
g69
(g70
g71
NtRp2621
(dp2622
g74
(dp2623
g82
I4
ssg83
g2617
sg76
(lp2624
g112
asbasbasbag69
(g85
g71
NtRp2625
(dp2626
g74
(dp2627
sg83
g2454
sg76
(lp2628
g69
(g90
g71
NtRp2629
(dp2630
g74
(dp2631
g94
g95
ssg83
g2625
sg76
(lp2632
g1760
asbag69
(g90
g71
NtRp2633
(dp2634
g74
(dp2635
g101
g102
ssg83
g2625
sg76
(lp2636
S':'
asbag69
(g90
g71
NtRp2637
(dp2638
g74
(dp2639
sg83
g2625
sg76
(lp2640
g69
(g70
g71
NtRp2641
(dp2642
g74
(dp2643
g82
I4
ssg83
g2637
sg76
(lp2644
g112
asbasbasbag69
(g85
g71
NtRp2645
(dp2646
g74
(dp2647
sg83
g2454
sg76
(lp2648
g69
(g90
g71
NtRp2649
(dp2650
g74
(dp2651
g94
g95
ssg83
g2645
sg76
(lp2652
g2019
asbag69
(g90
g71
NtRp2653
(dp2654
g74
(dp2655
g101
g102
ssg83
g2645
sg76
(lp2656
S':'
asbag69
(g90
g71
NtRp2657
(dp2658
g74
(dp2659
sg83
g2645
sg76
(lp2660
g69
(g70
g71
NtRp2661
(dp2662
g74
(dp2663
g82
I4
ssg83
g2657
sg76
(lp2664
g2032
asbasbasbag69
(g85
g71
NtRp2665
(dp2666
g74
(dp2667
sg83
g2454
sg76
(lp2668
g69
(g90
g71
NtRp2669
(dp2670
g74
(dp2671
g94
g95
ssg83
g2665
sg76
(lp2672
g2062
asbag69
(g90
g71
NtRp2673
(dp2674
g74
(dp2675
g101
g102
ssg83
g2665
sg76
(lp2676
S':'
asbag69
(g90
g71
NtRp2677
(dp2678
g74
(dp2679
sg83
g2665
sg76
(lp2680
g69
(g70
g71
NtRp2681
(dp2682
g74
(dp2683
g82
I4
ssg83
g2677
sg76
(lp2684
g69
(g78
g71
NtRp2685
(dp2686
g74
(dp2687
g82
I3
ssg83
Nsg76
(lp2688
g69
(g85
g71
NtRp2689
(dp2690
g74
(dp2691
sg83
g2685
sg76
(lp2692
g69
(g90
g71
NtRp2693
(dp2694
g74
(dp2695
sg83
g2689
sg76
(lp2696
g69
(g70
g71
NtRp2697
(dp2698
g74
(dp2699
g82
I3
ssg83
g2693
sg76
(lp2700
S'2'
asbasbasbag69
(g85
g71
NtRp2701
(dp2702
g74
(dp2703
sg83
g2685
sg76
(lp2704
g69
(g90
g71
NtRp2705
(dp2706
g74
(dp2707
sg83
g2701
sg76
(lp2708
g69
(g70
g71
NtRp2709
(dp2710
g74
(dp2711
g82
I3
ssg83
g2705
sg76
(lp2712
S'0'
asbasbasbag69
(g85
g71
NtRp2713
(dp2714
g74
(dp2715
sg83
g2685
sg76
(lp2716
g69
(g90
g71
NtRp2717
(dp2718
g74
(dp2719
sg83
g2713
sg76
(lp2720
g69
(g70
g71
NtRp2721
(dp2722
g74
(dp2723
g82
I3
ssg83
g2717
sg76
(lp2724
S'8'
asbasbasbag69
(g85
g71
NtRp2725
(dp2726
g74
(dp2727
sg83
g2685
sg76
(lp2728
g69
(g90
g71
NtRp2729
(dp2730
g74
(dp2731
sg83
g2725
sg76
(lp2732
g69
(g70
g71
NtRp2733
(dp2734
g74
(dp2735
g82
I3
ssg83
g2729
sg76
(lp2736
S'datetime.datetime(2012, 9, 7, 3, 47, 51)'
p2737
asbasbasbag69
(g85
g71
NtRp2738
(dp2739
g74
(dp2740
sg83
g2685
sg76
(lp2741
g69
(g90
g71
NtRp2742
(dp2743
g74
(dp2744
sg83
g2738
sg76
(lp2745
g69
(g70
g71
NtRp2746
(dp2747
g74
(dp2748
g82
I3
ssg83
g2742
sg76
(lp2749
g2140
asbasbasbasbasbasbasbasbasbasbasbag69
(g85
g71
NtRp2750
(dp2751
g74
(dp2752
sg83
g79
sg76
(lp2753
g69
(g90
g71
NtRp2754
(dp2755
g74
(dp2756
g94
g95
ssg83
g2750
sg76
(lp2757
S'is_https'
p2758
asbag69
(g90
g71
NtRp2759
(dp2760
g74
(dp2761
g101
g102
ssg83
g2750
sg76
(lp2762
S':'
asbag69
(g90
g71
NtRp2763
(dp2764
g74
(dp2765
sg83
g2750
sg76
(lp2766
g69
(g70
g71
NtRp2767
(dp2768
g74
(dp2769
g82
I5
ssg83
g2763
sg76
(lp2770
g112
asbasbasbag69
(g85
g71
NtRp2771
(dp2772
g74
(dp2773
sg83
g79
sg76
(lp2774
g69
(g90
g71
NtRp2775
(dp2776
g74
(dp2777
g94
g95
ssg83
g2771
sg76
(lp2778
S'is_local'
p2779
asbag69
(g90
g71
NtRp2780
(dp2781
g74
(dp2782
g101
g102
ssg83
g2771
sg76
(lp2783
S':'
asbag69
(g90
g71
NtRp2784
(dp2785
g74
(dp2786
sg83
g2771
sg76
(lp2787
g69
(g70
g71
NtRp2788
(dp2789
g74
(dp2790
g82
I5
ssg83
g2784
sg76
(lp2791
g2249
asbasbasbag69
(g85
g71
NtRp2792
(dp2793
g74
(dp2794
sg83
g79
sg76
(lp2795
g69
(g90
g71
NtRp2796
(dp2797
g74
(dp2798
g94
g95
ssg83
g2792
sg76
(lp2799
S'is_restful'
p2800
asbag69
(g90
g71
NtRp2801
(dp2802
g74
(dp2803
g101
g102
ssg83
g2792
sg76
(lp2804
S':'
asbag69
(g90
g71
NtRp2805
(dp2806
g74
(dp2807
sg83
g2792
sg76
(lp2808
g69
(g70
g71
NtRp2809
(dp2810
g74
(dp2811
g82
I5
ssg83
g2805
sg76
(lp2812
g112
asbasbasbag69
(g85
g71
NtRp2813
(dp2814
g74
(dp2815
sg83
g79
sg76
(lp2816
g69
(g90
g71
NtRp2817
(dp2818
g74
(dp2819
g94
g95
ssg83
g2813
sg76
(lp2820
S'now'
p2821
asbag69
(g90
g71
NtRp2822
(dp2823
g74
(dp2824
g101
g102
ssg83
g2813
sg76
(lp2825
S':'
asbag69
(g90
g71
NtRp2826
(dp2827
g74
(dp2828
sg83
g2813
sg76
(lp2829
g69
(g70
g71
NtRp2830
(dp2831
g74
(dp2832
g82
I5
ssg83
g2826
sg76
(lp2833
S'datetime.datetime(2014, 4, 1, 23, 7, 7, 886861)'
p2834
asbasbasbag69
(g85
g71
NtRp2835
(dp2836
g74
(dp2837
sg83
g79
sg76
(lp2838
g69
(g90
g71
NtRp2839
(dp2840
g74
(dp2841
g94
g95
ssg83
g2835
sg76
(lp2842
S'post_vars'
p2843
asbag69
(g90
g71
NtRp2844
(dp2845
g74
(dp2846
g101
g102
ssg83
g2835
sg76
(lp2847
S':'
asbag69
(g90
g71
NtRp2848
(dp2849
g74
(dp2850
sg83
g2835
sg76
(lp2851
g69
(g70
g71
NtRp2852
(dp2853
g74
(dp2854
g82
I5
ssg83
g2848
sg76
(lp2855
g69
(g78
g71
NtRp2856
(dp2857
g74
(dp2858
g82
I4
ssg83
Nsg76
(lp2859
sbasbasbasbag69
(g85
g71
NtRp2860
(dp2861
g74
(dp2862
sg83
g79
sg76
(lp2863
g69
(g90
g71
NtRp2864
(dp2865
g74
(dp2866
g94
g95
ssg83
g2860
sg76
(lp2867
S'raw_args'
p2868
asbag69
(g90
g71
NtRp2869
(dp2870
g74
(dp2871
g101
g102
ssg83
g2860
sg76
(lp2872
S':'
asbag69
(g90
g71
NtRp2873
(dp2874
g74
(dp2875
sg83
g2860
sg76
(lp2876
g69
(g70
g71
NtRp2877
(dp2878
g74
(dp2879
g82
I5
ssg83
g2873
sg76
(lp2880
S'None'
p2881
asbasbasbag69
(g85
g71
NtRp2882
(dp2883
g74
(dp2884
sg83
g79
sg76
(lp2885
g69
(g90
g71
NtRp2886
(dp2887
g74
(dp2888
g94
g95
ssg83
g2882
sg76
(lp2889
S'raw_extension'
p2890
asbag69
(g90
g71
NtRp2891
(dp2892
g74
(dp2893
g101
g102
ssg83
g2882
sg76
(lp2894
S':'
asbag69
(g90
g71
NtRp2895
(dp2896
g74
(dp2897
sg83
g2882
sg76
(lp2898
g69
(g70
g71
NtRp2899
(dp2900
g74
(dp2901
g82
I5
ssg83
g2895
sg76
(lp2902
S'None'
p2903
asbasbasbag69
(g85
g71
NtRp2904
(dp2905
g74
(dp2906
sg83
g79
sg76
(lp2907
g69
(g90
g71
NtRp2908
(dp2909
g74
(dp2910
g94
g95
ssg83
g2904
sg76
(lp2911
S'url'
p2912
asbag69
(g90
g71
NtRp2913
(dp2914
g74
(dp2915
g101
g102
ssg83
g2904
sg76
(lp2916
S':'
asbag69
(g90
g71
NtRp2917
(dp2918
g74
(dp2919
sg83
g2904
sg76
(lp2920
g69
(g70
g71
NtRp2921
(dp2922
g74
(dp2923
g82
I5
ssg83
g2917
sg76
(lp2924
g1794
asbasbasbag69
(g85
g71
NtRp2925
(dp2926
g74
(dp2927
sg83
g79
sg76
(lp2928
g69
(g90
g71
NtRp2929
(dp2930
g74
(dp2931
g94
g95
ssg83
g2925
sg76
(lp2932
S'utcnow'
p2933
asbag69
(g90
g71
NtRp2934
(dp2935
g74
(dp2936
g101
g102
ssg83
g2925
sg76
(lp2937
S':'
asbag69
(g90
g71
NtRp2938
(dp2939
g74
(dp2940
sg83
g2925
sg76
(lp2941
g69
(g70
g71
NtRp2942
(dp2943
g74
(dp2944
g82
I5
ssg83
g2938
sg76
(lp2945
S'datetime.datetime(2014, 4, 1, 17, 37, 7, 886902)'
p2946
asbasbasbag69
(g85
g71
NtRp2947
(dp2948
g74
(dp2949
sg83
g79
sg76
(lp2950
g69
(g90
g71
NtRp2951
(dp2952
g74
(dp2953
g94
g95
ssg83
g2947
sg76
(lp2954
S'uuid'
p2955
asbag69
(g90
g71
NtRp2956
(dp2957
g74
(dp2958
g101
g102
ssg83
g2947
sg76
(lp2959
S':'
asbag69
(g90
g71
NtRp2960
(dp2961
g74
(dp2962
sg83
g2947
sg76
(lp2963
g69
(g70
g71
NtRp2964
(dp2965
g74
(dp2966
g82
I5
ssg83
g2960
sg76
(lp2967
S'FunkLoad/127.0.0.1.2014-04-01.23-07-07.03590e37-6472-47b0-80b3-de0c2a7b760e'
p2968
asbasbasbag69
(g85
g71
NtRp2969
(dp2970
g74
(dp2971
sg83
g79
sg76
(lp2972
g69
(g90
g71
NtRp2973
(dp2974
g74
(dp2975
g94
g95
ssg83
g2969
sg76
(lp2976
S'vars'
p2977
asbag69
(g90
g71
NtRp2978
(dp2979
g74
(dp2980
g101
g102
ssg83
g2969
sg76
(lp2981
S':'
asbag69
(g90
g71
NtRp2982
(dp2983
g74
(dp2984
sg83
g2969
sg76
(lp2985
g69
(g70
g71
NtRp2986
(dp2987
g74
(dp2988
g82
I5
ssg83
g2982
sg76
(lp2989
g69
(g78
g71
NtRp2990
(dp2991
g74
(dp2992
g82
I4
ssg83
Nsg76
(lp2993
sbasbasbasbag69
(g85
g71
NtRp2994
(dp2995
g74
(dp2996
sg83
g79
sg76
(lp2997
g69
(g90
g71
NtRp2998
(dp2999
g74
(dp3000
g94
g95
ssg83
g2994
sg76
(lp3001
S'wsgi'
p3002
asbag69
(g90
g71
NtRp3003
(dp3004
g74
(dp3005
g101
g102
ssg83
g2994
sg76
(lp3006
S':'
asbag69
(g90
g71
NtRp3007
(dp3008
g74
(dp3009
sg83
g2994
sg76
(lp3010
g69
(g70
g71
NtRp3011
(dp3012
g74
(dp3013
g82
I5
ssg83
g3007
sg76
(lp3014
g69
(g78
g71
NtRp3015
(dp3016
g74
(dp3017
g82
I4
ssg83
Nsg76
(lp3018
g69
(g85
g71
NtRp3019
(dp3020
g74
(dp3021
sg83
g3015
sg76
(lp3022
g69
(g90
g71
NtRp3023
(dp3024
g74
(dp3025
g94
g95
ssg83
g3019
sg76
(lp3026
S'environ'
p3027
asbag69
(g90
g71
NtRp3028
(dp3029
g74
(dp3030
g101
g102
ssg83
g3019
sg76
(lp3031
S':'
asbag69
(g90
g71
NtRp3032
(dp3033
g74
(dp3034
sg83
g3019
sg76
(lp3035
g69
(g70
g71
NtRp3036
(dp3037
g74
(dp3038
g82
I4
ssg83
g3032
sg76
(lp3039
g69
(g78
g71
NtRp3040
(dp3041
g74
(dp3042
g82
I3
ssg83
Nsg76
(lp3043
g69
(g85
g71
NtRp3044
(dp3045
g74
(dp3046
sg83
g3040
sg76
(lp3047
g69
(g90
g71
NtRp3048
(dp3049
g74
(dp3050
g94
g95
ssg83
g3044
sg76
(lp3051
S'HTTP_ACCEPT'
p3052
asbag69
(g90
g71
NtRp3053
(dp3054
g74
(dp3055
g101
g102
ssg83
g3044
sg76
(lp3056
S':'
asbag69
(g90
g71
NtRp3057
(dp3058
g74
(dp3059
sg83
g3044
sg76
(lp3060
g69
(g70
g71
NtRp3061
(dp3062
g74
(dp3063
g82
I3
ssg83
g3057
sg76
(lp3064
g1598
asbasbasbag69
(g85
g71
NtRp3065
(dp3066
g74
(dp3067
sg83
g3040
sg76
(lp3068
g69
(g90
g71
NtRp3069
(dp3070
g74
(dp3071
g94
g95
ssg83
g3065
sg76
(lp3072
S'HTTP_ACCEPT_ENCODING'
p3073
asbag69
(g90
g71
NtRp3074
(dp3075
g74
(dp3076
g101
g102
ssg83
g3065
sg76
(lp3077
S':'
asbag69
(g90
g71
NtRp3078
(dp3079
g74
(dp3080
sg83
g3065
sg76
(lp3081
g69
(g70
g71
NtRp3082
(dp3083
g74
(dp3084
g82
I3
ssg83
g3078
sg76
(lp3085
g1620
asbasbasbag69
(g85
g71
NtRp3086
(dp3087
g74
(dp3088
sg83
g3040
sg76
(lp3089
g69
(g90
g71
NtRp3090
(dp3091
g74
(dp3092
g94
g95
ssg83
g3086
sg76
(lp3093
S'HTTP_ACCEPT_LANGUAGE'
p3094
asbag69
(g90
g71
NtRp3095
(dp3096
g74
(dp3097
g101
g102
ssg83
g3086
sg76
(lp3098
S':'
asbag69
(g90
g71
NtRp3099
(dp3100
g74
(dp3101
sg83
g3086
sg76
(lp3102
g69
(g70
g71
NtRp3103
(dp3104
g74
(dp3105
g82
I3
ssg83
g3099
sg76
(lp3106
g1642
asbasbasbag69
(g85
g71
NtRp3107
(dp3108
g74
(dp3109
sg83
g3040
sg76
(lp3110
g69
(g90
g71
NtRp3111
(dp3112
g74
(dp3113
g94
g95
ssg83
g3107
sg76
(lp3114
S'HTTP_CONNECTION'
p3115
asbag69
(g90
g71
NtRp3116
(dp3117
g74
(dp3118
g101
g102
ssg83
g3107
sg76
(lp3119
S':'
asbag69
(g90
g71
NtRp3120
(dp3121
g74
(dp3122
sg83
g3107
sg76
(lp3123
g69
(g70
g71
NtRp3124
(dp3125
g74
(dp3126
g82
I3
ssg83
g3120
sg76
(lp3127
g1664
asbasbasbag69
(g85
g71
NtRp3128
(dp3129
g74
(dp3130
sg83
g3040
sg76
(lp3131
g69
(g90
g71
NtRp3132
(dp3133
g74
(dp3134
g94
g95
ssg83
g3128
sg76
(lp3135
S'HTTP_COOKIE'
p3136
asbag69
(g90
g71
NtRp3137
(dp3138
g74
(dp3139
g101
g102
ssg83
g3128
sg76
(lp3140
S':'
asbag69
(g90
g71
NtRp3141
(dp3142
g74
(dp3143
sg83
g3128
sg76
(lp3144
g69
(g70
g71
NtRp3145
(dp3146
g74
(dp3147
g82
I3
ssg83
g3141
sg76
(lp3148
g1686
asbasbasbag69
(g85
g71
NtRp3149
(dp3150
g74
(dp3151
sg83
g3040
sg76
(lp3152
g69
(g90
g71
NtRp3153
(dp3154
g74
(dp3155
g94
g95
ssg83
g3149
sg76
(lp3156
S'HTTP_HOST'
p3157
asbag69
(g90
g71
NtRp3158
(dp3159
g74
(dp3160
g101
g102
ssg83
g3149
sg76
(lp3161
S':'
asbag69
(g90
g71
NtRp3162
(dp3163
g74
(dp3164
sg83
g3149
sg76
(lp3165
g69
(g70
g71
NtRp3166
(dp3167
g74
(dp3168
g82
I3
ssg83
g3162
sg76
(lp3169
g1708
asbasbasbag69
(g85
g71
NtRp3170
(dp3171
g74
(dp3172
sg83
g3040
sg76
(lp3173
g69
(g90
g71
NtRp3174
(dp3175
g74
(dp3176
g94
g95
ssg83
g3170
sg76
(lp3177
S'HTTP_USER_AGENT'
p3178
asbag69
(g90
g71
NtRp3179
(dp3180
g74
(dp3181
g101
g102
ssg83
g3170
sg76
(lp3182
S':'
asbag69
(g90
g71
NtRp3183
(dp3184
g74
(dp3185
sg83
g3170
sg76
(lp3186
g69
(g70
g71
NtRp3187
(dp3188
g74
(dp3189
g82
I3
ssg83
g3183
sg76
(lp3190
g1730
asbasbasbag69
(g85
g71
NtRp3191
(dp3192
g74
(dp3193
sg83
g3040
sg76
(lp3194
g69
(g90
g71
NtRp3195
(dp3196
g74
(dp3197
g94
g95
ssg83
g3191
sg76
(lp3198
S'PATH_INFO'
p3199
asbag69
(g90
g71
NtRp3200
(dp3201
g74
(dp3202
g101
g102
ssg83
g3191
sg76
(lp3203
S':'
asbag69
(g90
g71
NtRp3204
(dp3205
g74
(dp3206
sg83
g3191
sg76
(lp3207
g69
(g70
g71
NtRp3208
(dp3209
g74
(dp3210
g82
I3
ssg83
g3204
sg76
(lp3211
g1794
asbasbasbag69
(g85
g71
NtRp3212
(dp3213
g74
(dp3214
sg83
g3040
sg76
(lp3215
g69
(g90
g71
NtRp3216
(dp3217
g74
(dp3218
g94
g95
ssg83
g3212
sg76
(lp3219
S'QUERY_STRING'
p3220
asbag69
(g90
g71
NtRp3221
(dp3222
g74
(dp3223
g101
g102
ssg83
g3212
sg76
(lp3224
S':'
asbag69
(g90
g71
NtRp3225
(dp3226
g74
(dp3227
sg83
g3212
sg76
(lp3228
g69
(g70
g71
NtRp3229
(dp3230
g74
(dp3231
g82
I3
ssg83
g3225
sg76
(lp3232
S''
asbasbasbag69
(g85
g71
NtRp3233
(dp3234
g74
(dp3235
sg83
g3040
sg76
(lp3236
g69
(g90
g71
NtRp3237
(dp3238
g74
(dp3239
g94
g95
ssg83
g3233
sg76
(lp3240
S'REMOTE_ADDR'
p3241
asbag69
(g90
g71
NtRp3242
(dp3243
g74
(dp3244
g101
g102
ssg83
g3233
sg76
(lp3245
S':'
asbag69
(g90
g71
NtRp3246
(dp3247
g74
(dp3248
sg83
g3233
sg76
(lp3249
g69
(g70
g71
NtRp3250
(dp3251
g74
(dp3252
g82
I3
ssg83
g3246
sg76
(lp3253
g224
asbasbasbag69
(g85
g71
NtRp3254
(dp3255
g74
(dp3256
sg83
g3040
sg76
(lp3257
g69
(g90
g71
NtRp3258
(dp3259
g74
(dp3260
g94
g95
ssg83
g3254
sg76
(lp3261
S'REMOTE_PORT'
p3262
asbag69
(g90
g71
NtRp3263
(dp3264
g74
(dp3265
g101
g102
ssg83
g3254
sg76
(lp3266
S':'
asbag69
(g90
g71
NtRp3267
(dp3268
g74
(dp3269
sg83
g3254
sg76
(lp3270
g69
(g70
g71
NtRp3271
(dp3272
g74
(dp3273
g82
I3
ssg83
g3267
sg76
(lp3274
g1858
asbasbasbag69
(g85
g71
NtRp3275
(dp3276
g74
(dp3277
sg83
g3040
sg76
(lp3278
g69
(g90
g71
NtRp3279
(dp3280
g74
(dp3281
g94
g95
ssg83
g3275
sg76
(lp3282
S'REQUEST_METHOD'
p3283
asbag69
(g90
g71
NtRp3284
(dp3285
g74
(dp3286
g101
g102
ssg83
g3275
sg76
(lp3287
S':'
asbag69
(g90
g71
NtRp3288
(dp3289
g74
(dp3290
sg83
g3275
sg76
(lp3291
g69
(g70
g71
NtRp3292
(dp3293
g74
(dp3294
g82
I3
ssg83
g3288
sg76
(lp3295
g1880
asbasbasbag69
(g85
g71
NtRp3296
(dp3297
g74
(dp3298
sg83
g3040
sg76
(lp3299
g69
(g90
g71
NtRp3300
(dp3301
g74
(dp3302
g94
g95
ssg83
g3296
sg76
(lp3303
S'REQUEST_URI'
p3304
asbag69
(g90
g71
NtRp3305
(dp3306
g74
(dp3307
g101
g102
ssg83
g3296
sg76
(lp3308
S':'
asbag69
(g90
g71
NtRp3309
(dp3310
g74
(dp3311
sg83
g3296
sg76
(lp3312
g69
(g70
g71
NtRp3313
(dp3314
g74
(dp3315
g82
I3
ssg83
g3309
sg76
(lp3316
g1794
asbasbasbag69
(g85
g71
NtRp3317
(dp3318
g74
(dp3319
sg83
g3040
sg76
(lp3320
g69
(g90
g71
NtRp3321
(dp3322
g74
(dp3323
g94
g95
ssg83
g3317
sg76
(lp3324
S'SCRIPT_NAME'
p3325
asbag69
(g90
g71
NtRp3326
(dp3327
g74
(dp3328
g101
g102
ssg83
g3317
sg76
(lp3329
S':'
asbag69
(g90
g71
NtRp3330
(dp3331
g74
(dp3332
sg83
g3317
sg76
(lp3333
g69
(g70
g71
NtRp3334
(dp3335
g74
(dp3336
g82
I3
ssg83
g3330
sg76
(lp3337
S''
asbasbasbag69
(g85
g71
NtRp3338
(dp3339
g74
(dp3340
sg83
g3040
sg76
(lp3341
g69
(g90
g71
NtRp3342
(dp3343
g74
(dp3344
g94
g95
ssg83
g3338
sg76
(lp3345
S'SERVER_NAME'
p3346
asbag69
(g90
g71
NtRp3347
(dp3348
g74
(dp3349
g101
g102
ssg83
g3338
sg76
(lp3350
S':'
asbag69
(g90
g71
NtRp3351
(dp3352
g74
(dp3353
sg83
g3338
sg76
(lp3354
g69
(g70
g71
NtRp3355
(dp3356
g74
(dp3357
g82
I3
ssg83
g3351
sg76
(lp3358
g1944
asbasbasbag69
(g85
g71
NtRp3359
(dp3360
g74
(dp3361
sg83
g3040
sg76
(lp3362
g69
(g90
g71
NtRp3363
(dp3364
g74
(dp3365
g94
g95
ssg83
g3359
sg76
(lp3366
S'SERVER_PORT'
p3367
asbag69
(g90
g71
NtRp3368
(dp3369
g74
(dp3370
g101
g102
ssg83
g3359
sg76
(lp3371
S':'
asbag69
(g90
g71
NtRp3372
(dp3373
g74
(dp3374
sg83
g3359
sg76
(lp3375
g69
(g70
g71
NtRp3376
(dp3377
g74
(dp3378
g82
I3
ssg83
g3372
sg76
(lp3379
g1966
asbasbasbag69
(g85
g71
NtRp3380
(dp3381
g74
(dp3382
sg83
g3040
sg76
(lp3383
g69
(g90
g71
NtRp3384
(dp3385
g74
(dp3386
g94
g95
ssg83
g3380
sg76
(lp3387
S'SERVER_PROTOCOL'
p3388
asbag69
(g90
g71
NtRp3389
(dp3390
g74
(dp3391
g101
g102
ssg83
g3380
sg76
(lp3392
S':'
asbag69
(g90
g71
NtRp3393
(dp3394
g74
(dp3395
sg83
g3380
sg76
(lp3396
g69
(g70
g71
NtRp3397
(dp3398
g74
(dp3399
g82
I3
ssg83
g3393
sg76
(lp3400
g1988
asbasbasbag69
(g85
g71
NtRp3401
(dp3402
g74
(dp3403
sg83
g3040
sg76
(lp3404
g69
(g90
g71
NtRp3405
(dp3406
g74
(dp3407
g94
g95
ssg83
g3401
sg76
(lp3408
S'SERVER_SOFTWARE'
p3409
asbag69
(g90
g71
NtRp3410
(dp3411
g74
(dp3412
g101
g102
ssg83
g3401
sg76
(lp3413
S':'
asbag69
(g90
g71
NtRp3414
(dp3415
g74
(dp3416
sg83
g3401
sg76
(lp3417
g69
(g70
g71
NtRp3418
(dp3419
g74
(dp3420
g82
I3
ssg83
g3414
sg76
(lp3421
g2010
asbasbasbag69
(g85
g71
NtRp3422
(dp3423
g74
(dp3424
sg83
g3040
sg76
(lp3425
g69
(g90
g71
NtRp3426
(dp3427
g74
(dp3428
g94
g95
ssg83
g3422
sg76
(lp3429
S'wsgi.errors'
p3430
asbag69
(g90
g71
NtRp3431
(dp3432
g74
(dp3433
g101
g102
ssg83
g3422
sg76
(lp3434
S':'
asbag69
(g90
g71
NtRp3435
(dp3436
g74
(dp3437
sg83
g3422
sg76
(lp3438
g69
(g70
g71
NtRp3439
(dp3440
g74
(dp3441
g82
I3
ssg83
g3435
sg76
(lp3442
S"<open file '<stderr>', mode 'w' at 0x7fe1ee8a81e0>"
p3443
asbasbasbag69
(g85
g71
NtRp3444
(dp3445
g74
(dp3446
sg83
g3040
sg76
(lp3447
g69
(g90
g71
NtRp3448
(dp3449
g74
(dp3450
g94
g95
ssg83
g3444
sg76
(lp3451
S'wsgi.file_wrapper'
p3452
asbag69
(g90
g71
NtRp3453
(dp3454
g74
(dp3455
g101
g102
ssg83
g3444
sg76
(lp3456
S':'
asbag69
(g90
g71
NtRp3457
(dp3458
g74
(dp3459
sg83
g3444
sg76
(lp3460
g69
(g70
g71
NtRp3461
(dp3462
g74
(dp3463
g82
I3
ssg83
g3457
sg76
(lp3464
S'<class wsgiref.util.FileWrapper at 0x236cc80>'
p3465
asbasbasbag69
(g85
g71
NtRp3466
(dp3467
g74
(dp3468
sg83
g3040
sg76
(lp3469
g69
(g90
g71
NtRp3470
(dp3471
g74
(dp3472
g94
g95
ssg83
g3466
sg76
(lp3473
S'wsgi.input'
p3474
asbag69
(g90
g71
NtRp3475
(dp3476
g74
(dp3477
g101
g102
ssg83
g3466
sg76
(lp3478
S':'
asbag69
(g90
g71
NtRp3479
(dp3480
g74
(dp3481
sg83
g3466
sg76
(lp3482
g69
(g70
g71
NtRp3483
(dp3484
g74
(dp3485
g82
I3
ssg83
g3479
sg76
(lp3486
S'<cStringIO.StringO object at 0x7fe1bc0f9068>'
p3487
asbasbasbag69
(g85
g71
NtRp3488
(dp3489
g74
(dp3490
sg83
g3040
sg76
(lp3491
g69
(g90
g71
NtRp3492
(dp3493
g74
(dp3494
g94
g95
ssg83
g3488
sg76
(lp3495
S'wsgi.multiprocess'
p3496
asbag69
(g90
g71
NtRp3497
(dp3498
g74
(dp3499
g101
g102
ssg83
g3488
sg76
(lp3500
S':'
asbag69
(g90
g71
NtRp3501
(dp3502
g74
(dp3503
sg83
g3488
sg76
(lp3504
g69
(g70
g71
NtRp3505
(dp3506
g74
(dp3507
g82
I3
ssg83
g3501
sg76
(lp3508
g112
asbasbasbag69
(g85
g71
NtRp3509
(dp3510
g74
(dp3511
sg83
g3040
sg76
(lp3512
g69
(g90
g71
NtRp3513
(dp3514
g74
(dp3515
g94
g95
ssg83
g3509
sg76
(lp3516
S'wsgi.multithread'
p3517
asbag69
(g90
g71
NtRp3518
(dp3519
g74
(dp3520
g101
g102
ssg83
g3509
sg76
(lp3521
S':'
asbag69
(g90
g71
NtRp3522
(dp3523
g74
(dp3524
sg83
g3509
sg76
(lp3525
g69
(g70
g71
NtRp3526
(dp3527
g74
(dp3528
g82
I3
ssg83
g3522
sg76
(lp3529
g2249
asbasbasbag69
(g85
g71
NtRp3530
(dp3531
g74
(dp3532
sg83
g3040
sg76
(lp3533
g69
(g90
g71
NtRp3534
(dp3535
g74
(dp3536
g94
g95
ssg83
g3530
sg76
(lp3537
S'wsgi.run_once'
p3538
asbag69
(g90
g71
NtRp3539
(dp3540
g74
(dp3541
g101
g102
ssg83
g3530
sg76
(lp3542
S':'
asbag69
(g90
g71
NtRp3543
(dp3544
g74
(dp3545
sg83
g3530
sg76
(lp3546
g69
(g70
g71
NtRp3547
(dp3548
g74
(dp3549
g82
I3
ssg83
g3543
sg76
(lp3550
g112
asbasbasbag69
(g85
g71
NtRp3551
(dp3552
g74
(dp3553
sg83
g3040
sg76
(lp3554
g69
(g90
g71
NtRp3555
(dp3556
g74
(dp3557
g94
g95
ssg83
g3551
sg76
(lp3558
S'wsgi.url_scheme'
p3559
asbag69
(g90
g71
NtRp3560
(dp3561
g74
(dp3562
g101
g102
ssg83
g3551
sg76
(lp3563
S':'
asbag69
(g90
g71
NtRp3564
(dp3565
g74
(dp3566
sg83
g3551
sg76
(lp3567
g69
(g70
g71
NtRp3568
(dp3569
g74
(dp3570
g82
I3
ssg83
g3564
sg76
(lp3571
g2292
asbasbasbag69
(g85
g71
NtRp3572
(dp3573
g74
(dp3574
sg83
g3040
sg76
(lp3575
g69
(g90
g71
NtRp3576
(dp3577
g74
(dp3578
g94
g95
ssg83
g3572
sg76
(lp3579
S'wsgi.version'
p3580
asbag69
(g90
g71
NtRp3581
(dp3582
g74
(dp3583
g101
g102
ssg83
g3572
sg76
(lp3584
S':'
asbag69
(g90
g71
NtRp3585
(dp3586
g74
(dp3587
sg83
g3572
sg76
(lp3588
g69
(g70
g71
NtRp3589
(dp3590
g74
(dp3591
g82
I3
ssg83
g3585
sg76
(lp3592
S'1'
asbasbasbasbasbasbasbasbasbasbasbasbasbsS'frames'
p3593
(lp3594
(dp3595
S'file'
p3596
S'/home/mayank/gitrepo/Twitter-Sentiment-Analysis/front-end/web2py/gluon/restricted.py'
p3597
sS'dump'
p3598
(dp3599
S'code'
p3600
S"'# -*- coding: utf-8 -*-\\n# this file is released ...=crud())\\n\\nresponse._vars=response._caller(index)\\n'"
p3601
sS'layer'
p3602
S"'/home/mayank/gitrepo/Twitter-Sentiment-Analysis/...b2py/applications/FunkLoad/controllers/default.py'"
p3603
sS'global compile2'
p3604
S'<function compile2>'
p3605
sS'ccode'
p3606
S'undefined'
p3607
ssS'lnum'
p3608
I208
sS'lines'
p3609
(dp3610
I203
S"    environment['__name__'] = '__restricted__'"
p3611
sI204
S'    try:'
p3612
sI205
S'        if type(code) == types.CodeType:'
p3613
sI206
S'            ccode = code'
p3614
sI207
S'        else:'
p3615
sI208
S'            ccode = compile2(code,layer)'
p3616
sI209
S'        exec ccode in environment'
p3617
sI210
S'    except HTTP:'
p3618
sI211
S'        raise'
p3619
sI212
S'    except RestrictedError:'
p3620
ssS'call'
p3621
S"(code='# -*- coding: utf-8 -*-\\n# this file is released ...=crud())\\n\\nresponse._vars=response._caller(index)\\n', environment={'A': <class 'gluon.html.A'>, 'Auth': <class 'gluon.tools.Auth'>, 'B': <class 'gluon.html.B'>, 'BEAUTIFY': <class 'gluon.html.BEAUTIFY'>, 'BODY': <class 'gluon.html.BODY'>, 'BR': <class 'gluon.html.BR'>, 'BUTTON': <class 'gluon.html.BUTTON'>, 'CAT': <class 'gluon.html.CAT'>, 'CENTER': <class 'gluon.html.CENTER'>, 'CLEANUP': <class 'gluon.validators.CLEANUP'>, ...}, layer='/home/mayank/gitrepo/Twitter-Sentiment-Analysis/...b2py/applications/FunkLoad/controllers/default.py')"
p3622
sS'func'
p3623
S'restricted'
p3624
sa(dp3625
g3596
S'/home/mayank/gitrepo/Twitter-Sentiment-Analysis/front-end/web2py/gluon/restricted.py'
p3626
sg3598
(dp3627
S'builtincompile'
p3628
S'<built-in function compile>'
p3629
sS'code'
p3630
S"'# -*- coding: utf-8 -*-\\n# this file is released ...=crud())\\n\\nresponse._vars=response._caller(index)\\n'"
p3631
sS'code.rstrip'
p3632
S'<built-in method rstrip of str object>'
p3633
sS').replace'
p3634
g3607
sS'layer'
p3635
S"'/home/mayank/gitrepo/Twitter-Sentiment-Analysis/...b2py/applications/FunkLoad/controllers/default.py'"
p3636
ssg3608
I193
sg3609
(dp3637
I192
S'    """'
p3638
sI193
S"    return compile(code.rstrip().replace('\\r\\n','\\n')+'\\n', layer, 'exec')"
p3639
sI194
S''
sI195
S"def restricted(code, environment=None, layer='Unknown'):"
p3640
sI196
S'    """'
p3641
sI197
S'    runs code in environment and returns the output. if an exception occurs'
p3642
sI188
S''
sI189
S'def compile2(code,layer):'
p3643
sI190
S'    """'
p3644
sI191
S"    The +'\\n' is necessary else compile fails when code ends in a comment."
p3645
ssg3621
S"(code='# -*- coding: utf-8 -*-\\n# this file is released ...=crud())\\n\\nresponse._vars=response._caller(index)\\n', layer='/home/mayank/gitrepo/Twitter-Sentiment-Analysis/...b2py/applications/FunkLoad/controllers/default.py')"
p3646
sg3623
S'compile2'
p3647
sasS'pyver'
p3648
S'Python 2.7.4: /usr/bin/python'
p3649
sS'session'
p3650
g69
(g70
g71
NtRp3651
(dp3652
g74
(dp3653
sg76
(lp3654
g69
(g78
g71
NtRp3655
(dp3656
g74
(dp3657
g82
I5
ssg83
Nsg76
(lp3658
g69
(g85
g71
NtRp3659
(dp3660
g74
(dp3661
sg83
g3655
sg76
(lp3662
g69
(g90
g71
NtRp3663
(dp3664
g74
(dp3665
g94
g95
ssg83
g3659
sg76
(lp3666
S'auth'
p3667
asbag69
(g90
g71
NtRp3668
(dp3669
g74
(dp3670
g101
g102
ssg83
g3659
sg76
(lp3671
S':'
asbag69
(g90
g71
NtRp3672
(dp3673
g74
(dp3674
sg83
g3659
sg76
(lp3675
g69
(g70
g71
NtRp3676
(dp3677
g74
(dp3678
g82
I5
ssg83
g3672
sg76
(lp3679
S'None'
p3680
asbasbasbag69
(g85
g71
NtRp3681
(dp3682
g74
(dp3683
sg83
g3655
sg76
(lp3684
g69
(g90
g71
NtRp3685
(dp3686
g74
(dp3687
g94
g95
ssg83
g3681
sg76
(lp3688
S'flash'
p3689
asbag69
(g90
g71
NtRp3690
(dp3691
g74
(dp3692
g101
g102
ssg83
g3681
sg76
(lp3693
S':'
asbag69
(g90
g71
NtRp3694
(dp3695
g74
(dp3696
sg83
g3681
sg76
(lp3697
g69
(g70
g71
NtRp3698
(dp3699
g74
(dp3700
g82
I5
ssg83
g3694
sg76
(lp3701
S'None'
p3702
asbasbasbasbasbsS'etype'
p3703
S"<type 'exceptions.SyntaxError'>"
p3704
sS'date'
p3705
S'Tue Apr  1 23:07:08 2014'
p3706
sS'response'
p3707
g69
(g70
g71
NtRp3708
(dp3709
g74
(dp3710
sg76
(lp3711
g69
(g78
g71
NtRp3712
(dp3713
g74
(dp3714
g82
I5
ssg83
Nsg76
(lp3715
g69
(g85
g71
NtRp3716
(dp3717
g74
(dp3718
sg83
g3712
sg76
(lp3719
g69
(g90
g71
NtRp3720
(dp3721
g74
(dp3722
g94
g95
ssg83
g3716
sg76
(lp3723
g167
asbag69
(g90
g71
NtRp3724
(dp3725
g74
(dp3726
g101
g102
ssg83
g3716
sg76
(lp3727
S':'
asbag69
(g90
g71
NtRp3728
(dp3729
g74
(dp3730
sg83
g3716
sg76
(lp3731
g69
(g70
g71
NtRp3732
(dp3733
g74
(dp3734
g82
I5
ssg83
g3728
sg76
(lp3735
S'<cStringIO.StringO object at 0x7fe1d026efb8>'
p3736
asbasbasbag69
(g85
g71
NtRp3737
(dp3738
g74
(dp3739
sg83
g3712
sg76
(lp3740
g69
(g90
g71
NtRp3741
(dp3742
g74
(dp3743
g94
g95
ssg83
g3737
sg76
(lp3744
g255
asbag69
(g90
g71
NtRp3745
(dp3746
g74
(dp3747
g101
g102
ssg83
g3737
sg76
(lp3748
S':'
asbag69
(g90
g71
NtRp3749
(dp3750
g74
(dp3751
sg83
g3737
sg76
(lp3752
g69
(g70
g71
NtRp3753
(dp3754
g74
(dp3755
g82
I5
ssg83
g3749
sg76
(lp3756
g69
(g78
g71
NtRp3757
(dp3758
g74
(dp3759
g82
I4
ssg83
Nsg76
(lp3760
g69
(g85
g71
NtRp3761
(dp3762
g74
(dp3763
sg83
g3757
sg76
(lp3764
g69
(g90
g71
NtRp3765
(dp3766
g74
(dp3767
g94
g95
ssg83
g3761
sg76
(lp3768
S'session_id_funkload'
p3769
asbag69
(g90
g71
NtRp3770
(dp3771
g74
(dp3772
g101
g102
ssg83
g3761
sg76
(lp3773
S':'
asbag69
(g90
g71
NtRp3774
(dp3775
g74
(dp3776
sg83
g3761
sg76
(lp3777
g69
(g70
g71
NtRp3778
(dp3779
g74
(dp3780
g82
I4
ssg83
g3774
sg76
(lp3781
g487
ag69
(g78
g71
NtRp3782
(dp3783
g74
(dp3784
g82
I3
ssg83
Nsg76
(lp3785
g69
(g85
g71
NtRp3786
(dp3787
g74
(dp3788
sg83
g3782
sg76
(lp3789
g69
(g90
g71
NtRp3790
(dp3791
g74
(dp3792
g94
g95
ssg83
g3786
sg76
(lp3793
g306
asbag69
(g90
g71
NtRp3794
(dp3795
g74
(dp3796
g101
g102
ssg83
g3786
sg76
(lp3797
S':'
asbag69
(g90
g71
NtRp3798
(dp3799
g74
(dp3800
sg83
g3786
sg76
(lp3801
g69
(g70
g71
NtRp3802
(dp3803
g74
(dp3804
g82
I3
ssg83
g3798
sg76
(lp3805
S''
asbasbasbag69
(g85
g71
NtRp3806
(dp3807
g74
(dp3808
sg83
g3782
sg76
(lp3809
g69
(g90
g71
NtRp3810
(dp3811
g74
(dp3812
g94
g95
ssg83
g3806
sg76
(lp3813
g327
asbag69
(g90
g71
NtRp3814
(dp3815
g74
(dp3816
g101
g102
ssg83
g3806
sg76
(lp3817
S':'
asbag69
(g90
g71
NtRp3818
(dp3819
g74
(dp3820
sg83
g3806
sg76
(lp3821
g69
(g70
g71
NtRp3822
(dp3823
g74
(dp3824
g82
I3
ssg83
g3818
sg76
(lp3825
S''
asbasbasbag69
(g85
g71
NtRp3826
(dp3827
g74
(dp3828
sg83
g3782
sg76
(lp3829
g69
(g90
g71
NtRp3830
(dp3831
g74
(dp3832
g94
g95
ssg83
g3826
sg76
(lp3833
g348
asbag69
(g90
g71
NtRp3834
(dp3835
g74
(dp3836
g101
g102
ssg83
g3826
sg76
(lp3837
S':'
asbag69
(g90
g71
NtRp3838
(dp3839
g74
(dp3840
sg83
g3826
sg76
(lp3841
g69
(g70
g71
NtRp3842
(dp3843
g74
(dp3844
g82
I3
ssg83
g3838
sg76
(lp3845
S''
asbasbasbag69
(g85
g71
NtRp3846
(dp3847
g74
(dp3848
sg83
g3782
sg76
(lp3849
g69
(g90
g71
NtRp3850
(dp3851
g74
(dp3852
g94
g95
ssg83
g3846
sg76
(lp3853
g369
asbag69
(g90
g71
NtRp3854
(dp3855
g74
(dp3856
g101
g102
ssg83
g3846
sg76
(lp3857
S':'
asbag69
(g90
g71
NtRp3858
(dp3859
g74
(dp3860
sg83
g3846
sg76
(lp3861
g69
(g70
g71
NtRp3862
(dp3863
g74
(dp3864
g82
I3
ssg83
g3858
sg76
(lp3865
S''
asbasbasbag69
(g85
g71
NtRp3866
(dp3867
g74
(dp3868
sg83
g3782
sg76
(lp3869
g69
(g90
g71
NtRp3870
(dp3871
g74
(dp3872
g94
g95
ssg83
g3866
sg76
(lp3873
g390
asbag69
(g90
g71
NtRp3874
(dp3875
g74
(dp3876
g101
g102
ssg83
g3866
sg76
(lp3877
S':'
asbag69
(g90
g71
NtRp3878
(dp3879
g74
(dp3880
sg83
g3866
sg76
(lp3881
g69
(g70
g71
NtRp3882
(dp3883
g74
(dp3884
g82
I3
ssg83
g3878
sg76
(lp3885
S''
asbasbasbag69
(g85
g71
NtRp3886
(dp3887
g74
(dp3888
sg83
g3782
sg76
(lp3889
g69
(g90
g71
NtRp3890
(dp3891
g74
(dp3892
g94
g95
ssg83
g3886
sg76
(lp3893
g411
asbag69
(g90
g71
NtRp3894
(dp3895
g74
(dp3896
g101
g102
ssg83
g3886
sg76
(lp3897
S':'
asbag69
(g90
g71
NtRp3898
(dp3899
g74
(dp3900
sg83
g3886
sg76
(lp3901
g69
(g70
g71
NtRp3902
(dp3903
g74
(dp3904
g82
I3
ssg83
g3898
sg76
(lp3905
S'/'
asbasbasbag69
(g85
g71
NtRp3906
(dp3907
g74
(dp3908
sg83
g3782
sg76
(lp3909
g69
(g90
g71
NtRp3910
(dp3911
g74
(dp3912
g94
g95
ssg83
g3906
sg76
(lp3913
g432
asbag69
(g90
g71
NtRp3914
(dp3915
g74
(dp3916
g101
g102
ssg83
g3906
sg76
(lp3917
S':'
asbag69
(g90
g71
NtRp3918
(dp3919
g74
(dp3920
sg83
g3906
sg76
(lp3921
g69
(g70
g71
NtRp3922
(dp3923
g74
(dp3924
g82
I3
ssg83
g3918
sg76
(lp3925
S''
asbasbasbag69
(g85
g71
NtRp3926
(dp3927
g74
(dp3928
sg83
g3782
sg76
(lp3929
g69
(g90
g71
NtRp3930
(dp3931
g74
(dp3932
g94
g95
ssg83
g3926
sg76
(lp3933
g453
asbag69
(g90
g71
NtRp3934
(dp3935
g74
(dp3936
g101
g102
ssg83
g3926
sg76
(lp3937
S':'
asbag69
(g90
g71
NtRp3938
(dp3939
g74
(dp3940
sg83
g3926
sg76
(lp3941
g69
(g70
g71
NtRp3942
(dp3943
g74
(dp3944
g82
I3
ssg83
g3938
sg76
(lp3945
S''
asbasbasbasbasbasbasbasbasbasbasbag69
(g85
g71
NtRp3946
(dp3947
g74
(dp3948
sg83
g3712
sg76
(lp3949
g69
(g90
g71
NtRp3950
(dp3951
g74
(dp3952
g94
g95
ssg83
g3946
sg76
(lp3953
S'delimiters'
p3954
asbag69
(g90
g71
NtRp3955
(dp3956
g74
(dp3957
g101
g102
ssg83
g3946
sg76
(lp3958
S':'
asbag69
(g90
g71
NtRp3959
(dp3960
g74
(dp3961
sg83
g3946
sg76
(lp3962
g69
(g70
g71
NtRp3963
(dp3964
g74
(dp3965
g82
I5
ssg83
g3959
sg76
(lp3966
g69
(g78
g71
NtRp3967
(dp3968
g74
(dp3969
g82
I4
ssg83
Nsg76
(lp3970
g69
(g85
g71
NtRp3971
(dp3972
g74
(dp3973
sg83
g3967
sg76
(lp3974
g69
(g90
g71
NtRp3975
(dp3976
g74
(dp3977
sg83
g3971
sg76
(lp3978
g69
(g70
g71
NtRp3979
(dp3980
g74
(dp3981
g82
I4
ssg83
g3975
sg76
(lp3982
S'{{'
p3983
asbasbasbag69
(g85
g71
NtRp3984
(dp3985
g74
(dp3986
sg83
g3967
sg76
(lp3987
g69
(g90
g71
NtRp3988
(dp3989
g74
(dp3990
sg83
g3984
sg76
(lp3991
g69
(g70
g71
NtRp3992
(dp3993
g74
(dp3994
g82
I4
ssg83
g3988
sg76
(lp3995
S'}}'
p3996
asbasbasbasbasbasbasbag69
(g85
g71
NtRp3997
(dp3998
g74
(dp3999
sg83
g3712
sg76
(lp4000
g69
(g90
g71
NtRp4001
(dp4002
g74
(dp4003
g94
g95
ssg83
g3997
sg76
(lp4004
S'files'
p4005
asbag69
(g90
g71
NtRp4006
(dp4007
g74
(dp4008
g101
g102
ssg83
g3997
sg76
(lp4009
S':'
asbag69
(g90
g71
NtRp4010
(dp4011
g74
(dp4012
sg83
g3997
sg76
(lp4013
g69
(g70
g71
NtRp4014
(dp4015
g74
(dp4016
g82
I5
ssg83
g4010
sg76
(lp4017
g69
(g78
g71
NtRp4018
(dp4019
g74
(dp4020
g82
I4
ssg83
Nsg76
(lp4021
sbasbasbasbag69
(g85
g71
NtRp4022
(dp4023
g74
(dp4024
sg83
g3712
sg76
(lp4025
g69
(g90
g71
NtRp4026
(dp4027
g74
(dp4028
g94
g95
ssg83
g4022
sg76
(lp4029
S'flash'
p4030
asbag69
(g90
g71
NtRp4031
(dp4032
g74
(dp4033
g101
g102
ssg83
g4022
sg76
(lp4034
S':'
asbag69
(g90
g71
NtRp4035
(dp4036
g74
(dp4037
sg83
g4022
sg76
(lp4038
g69
(g70
g71
NtRp4039
(dp4040
g74
(dp4041
g82
I5
ssg83
g4035
sg76
(lp4042
S''
asbasbasbag69
(g85
g71
NtRp4043
(dp4044
g74
(dp4045
sg83
g3712
sg76
(lp4046
g69
(g90
g71
NtRp4047
(dp4048
g74
(dp4049
g94
g95
ssg83
g4043
sg76
(lp4050
S'generic_patterns'
p4051
asbag69
(g90
g71
NtRp4052
(dp4053
g74
(dp4054
g101
g102
ssg83
g4043
sg76
(lp4055
S':'
asbag69
(g90
g71
NtRp4056
(dp4057
g74
(dp4058
sg83
g4043
sg76
(lp4059
g69
(g70
g71
NtRp4060
(dp4061
g74
(dp4062
g82
I5
ssg83
g4056
sg76
(lp4063
g69
(g78
g71
NtRp4064
(dp4065
g74
(dp4066
g82
I4
ssg83
Nsg76
(lp4067
g69
(g85
g71
NtRp4068
(dp4069
g74
(dp4070
sg83
g4064
sg76
(lp4071
g69
(g90
g71
NtRp4072
(dp4073
g74
(dp4074
sg83
g4068
sg76
(lp4075
g69
(g70
g71
NtRp4076
(dp4077
g74
(dp4078
g82
I4
ssg83
g4072
sg76
(lp4079
S'*'
asbasbasbasbasbasbasbag69
(g85
g71
NtRp4080
(dp4081
g74
(dp4082
sg83
g3712
sg76
(lp4083
g69
(g90
g71
NtRp4084
(dp4085
g74
(dp4086
g94
g95
ssg83
g4080
sg76
(lp4087
S'google_analytics_id'
p4088
asbag69
(g90
g71
NtRp4089
(dp4090
g74
(dp4091
g101
g102
ssg83
g4080
sg76
(lp4092
S':'
asbag69
(g90
g71
NtRp4093
(dp4094
g74
(dp4095
sg83
g4080
sg76
(lp4096
g69
(g70
g71
NtRp4097
(dp4098
g74
(dp4099
g82
I5
ssg83
g4093
sg76
(lp4100
S'None'
p4101
asbasbasbag69
(g85
g71
NtRp4102
(dp4103
g74
(dp4104
sg83
g3712
sg76
(lp4105
g69
(g90
g71
NtRp4106
(dp4107
g74
(dp4108
g94
g95
ssg83
g4102
sg76
(lp4109
S'headers'
p4110
asbag69
(g90
g71
NtRp4111
(dp4112
g74
(dp4113
g101
g102
ssg83
g4102
sg76
(lp4114
S':'
asbag69
(g90
g71
NtRp4115
(dp4116
g74
(dp4117
sg83
g4102
sg76
(lp4118
g69
(g70
g71
NtRp4119
(dp4120
g74
(dp4121
g82
I5
ssg83
g4115
sg76
(lp4122
g69
(g78
g71
NtRp4123
(dp4124
g74
(dp4125
g82
I4
ssg83
Nsg76
(lp4126
g69
(g85
g71
NtRp4127
(dp4128
g74
(dp4129
sg83
g4123
sg76
(lp4130
g69
(g90
g71
NtRp4131
(dp4132
g74
(dp4133
g94
g95
ssg83
g4127
sg76
(lp4134
S'Cache-Control'
p4135
asbag69
(g90
g71
NtRp4136
(dp4137
g74
(dp4138
g101
g102
ssg83
g4127
sg76
(lp4139
S':'
asbag69
(g90
g71
NtRp4140
(dp4141
g74
(dp4142
sg83
g4127
sg76
(lp4143
g69
(g70
g71
NtRp4144
(dp4145
g74
(dp4146
g82
I4
ssg83
g4140
sg76
(lp4147
S'no-store, no-cache, must-revalidate, post-check=0, pre-check=0'
p4148
asbasbasbag69
(g85
g71
NtRp4149
(dp4150
g74
(dp4151
sg83
g4123
sg76
(lp4152
g69
(g90
g71
NtRp4153
(dp4154
g74
(dp4155
g94
g95
ssg83
g4149
sg76
(lp4156
S'Content-Type'
p4157
asbag69
(g90
g71
NtRp4158
(dp4159
g74
(dp4160
g101
g102
ssg83
g4149
sg76
(lp4161
S':'
asbag69
(g90
g71
NtRp4162
(dp4163
g74
(dp4164
sg83
g4149
sg76
(lp4165
g69
(g70
g71
NtRp4166
(dp4167
g74
(dp4168
g82
I4
ssg83
g4162
sg76
(lp4169
S'text/html; charset=utf-8'
p4170
asbasbasbag69
(g85
g71
NtRp4171
(dp4172
g74
(dp4173
sg83
g4123
sg76
(lp4174
g69
(g90
g71
NtRp4175
(dp4176
g74
(dp4177
g94
g95
ssg83
g4171
sg76
(lp4178
S'Expires'
p4179
asbag69
(g90
g71
NtRp4180
(dp4181
g74
(dp4182
g101
g102
ssg83
g4171
sg76
(lp4183
S':'
asbag69
(g90
g71
NtRp4184
(dp4185
g74
(dp4186
sg83
g4171
sg76
(lp4187
g69
(g70
g71
NtRp4188
(dp4189
g74
(dp4190
g82
I4
ssg83
g4184
sg76
(lp4191
S'Tue, 01 Apr 2014 17:37:07 GMT'
p4192
asbasbasbag69
(g85
g71
NtRp4193
(dp4194
g74
(dp4195
sg83
g4123
sg76
(lp4196
g69
(g90
g71
NtRp4197
(dp4198
g74
(dp4199
g94
g95
ssg83
g4193
sg76
(lp4200
S'Pragma'
p4201
asbag69
(g90
g71
NtRp4202
(dp4203
g74
(dp4204
g101
g102
ssg83
g4193
sg76
(lp4205
S':'
asbag69
(g90
g71
NtRp4206
(dp4207
g74
(dp4208
sg83
g4193
sg76
(lp4209
g69
(g70
g71
NtRp4210
(dp4211
g74
(dp4212
g82
I4
ssg83
g4206
sg76
(lp4213
S'no-cache'
p4214
asbasbasbag69
(g85
g71
NtRp4215
(dp4216
g74
(dp4217
sg83
g4123
sg76
(lp4218
g69
(g90
g71
NtRp4219
(dp4220
g74
(dp4221
g94
g95
ssg83
g4215
sg76
(lp4222
S'X-Powered-By'
p4223
asbag69
(g90
g71
NtRp4224
(dp4225
g74
(dp4226
g101
g102
ssg83
g4215
sg76
(lp4227
S':'
asbag69
(g90
g71
NtRp4228
(dp4229
g74
(dp4230
sg83
g4215
sg76
(lp4231
g69
(g70
g71
NtRp4232
(dp4233
g74
(dp4234
g82
I4
ssg83
g4228
sg76
(lp4235
S'web2py'
p4236
asbasbasbasbasbasbasbag69
(g85
g71
NtRp4237
(dp4238
g74
(dp4239
sg83
g3712
sg76
(lp4240
g69
(g90
g71
NtRp4241
(dp4242
g74
(dp4243
g94
g95
ssg83
g4237
sg76
(lp4244
S'menu'
p4245
asbag69
(g90
g71
NtRp4246
(dp4247
g74
(dp4248
g101
g102
ssg83
g4237
sg76
(lp4249
S':'
asbag69
(g90
g71
NtRp4250
(dp4251
g74
(dp4252
sg83
g4237
sg76
(lp4253
g69
(g70
g71
NtRp4254
(dp4255
g74
(dp4256
g82
I5
ssg83
g4250
sg76
(lp4257
g69
(g78
g71
NtRp4258
(dp4259
g74
(dp4260
g82
I4
ssg83
Nsg76
(lp4261
g69
(g85
g71
NtRp4262
(dp4263
g74
(dp4264
sg83
g4258
sg76
(lp4265
g69
(g90
g71
NtRp4266
(dp4267
g74
(dp4268
sg83
g4262
sg76
(lp4269
g69
(g70
g71
NtRp4270
(dp4271
g74
(dp4272
g82
I4
ssg83
g4266
sg76
(lp4273
g69
(g78
g71
NtRp4274
(dp4275
g74
(dp4276
g82
I3
ssg83
Nsg76
(lp4277
g69
(g85
g71
NtRp4278
(dp4279
g74
(dp4280
sg83
g4274
sg76
(lp4281
g69
(g90
g71
NtRp4282
(dp4283
g74
(dp4284
sg83
g4278
sg76
(lp4285
g69
(g70
g71
NtRp4286
(dp4287
g74
(dp4288
g82
I3
ssg83
g4282
sg76
(lp4289
cgluon.languages
lazyT_unpickle
p4290
(S's\x04\x00\x00\x00Home'
tRp4291
asbasbasbag69
(g85
g71
NtRp4292
(dp4293
g74
(dp4294
sg83
g4274
sg76
(lp4295
g69
(g90
g71
NtRp4296
(dp4297
g74
(dp4298
sg83
g4292
sg76
(lp4299
g69
(g70
g71
NtRp4300
(dp4301
g74
(dp4302
g82
I3
ssg83
g4296
sg76
(lp4303
g112
asbasbasbag69
(g85
g71
NtRp4304
(dp4305
g74
(dp4306
sg83
g4274
sg76
(lp4307
g69
(g90
g71
NtRp4308
(dp4309
g74
(dp4310
sg83
g4304
sg76
(lp4311
g69
(g70
g71
NtRp4312
(dp4313
g74
(dp4314
g82
I3
ssg83
g4308
sg76
(lp4315
S'/FunkLoad/default/index'
p4316
asbasbasbag69
(g85
g71
NtRp4317
(dp4318
g74
(dp4319
sg83
g4274
sg76
(lp4320
g69
(g90
g71
NtRp4321
(dp4322
g74
(dp4323
sg83
g4317
sg76
(lp4324
g69
(g70
g71
NtRp4325
(dp4326
g74
(dp4327
g82
I3
ssg83
g4321
sg76
(lp4328
g69
(g78
g71
NtRp4329
(dp4330
g74
(dp4331
g82
I2
ssg83
Nsg76
(lp4332
sbasbasbasbasbasbasbasbag69
(g85
g71
NtRp4333
(dp4334
g74
(dp4335
sg83
g4258
sg76
(lp4336
g69
(g90
g71
NtRp4337
(dp4338
g74
(dp4339
sg83
g4333
sg76
(lp4340
g69
(g70
g71
NtRp4341
(dp4342
g74
(dp4343
g82
I4
ssg83
g4337
sg76
(lp4344
g69
(g78
g71
NtRp4345
(dp4346
g74
(dp4347
g82
I3
ssg83
Nsg76
(lp4348
g69
(g85
g71
NtRp4349
(dp4350
g74
(dp4351
sg83
g4345
sg76
(lp4352
g69
(g90
g71
NtRp4353
(dp4354
g74
(dp4355
sg83
g4349
sg76
(lp4356
g69
(g70
g71
NtRp4357
(dp4358
g74
(dp4359
g82
I3
ssg83
g4353
sg76
(lp4360
g69
(cgluon.html
SPAN
p4361
g71
NtRp4362
(dp4363
g74
(dp4364
g94
S'color:yellow'
p4365
ssg83
Nsg76
(lp4366
g4236
asbasbasbasbag69
(g85
g71
NtRp4367
(dp4368
g74
(dp4369
sg83
g4345
sg76
(lp4370
g69
(g90
g71
NtRp4371
(dp4372
g74
(dp4373
sg83
g4367
sg76
(lp4374
g69
(g70
g71
NtRp4375
(dp4376
g74
(dp4377
g82
I3
ssg83
g4371
sg76
(lp4378
g112
asbasbasbag69
(g85
g71
NtRp4379
(dp4380
g74
(dp4381
sg83
g4345
sg76
(lp4382
g69
(g90
g71
NtRp4383
(dp4384
g74
(dp4385
sg83
g4379
sg76
(lp4386
g69
(g70
g71
NtRp4387
(dp4388
g74
(dp4389
g82
I3
ssg83
g4383
sg76
(lp4390
S'http://web2py.com'
p4391
asbasbasbag69
(g85
g71
NtRp4392
(dp4393
g74
(dp4394
sg83
g4345
sg76
(lp4395
g69
(g90
g71
NtRp4396
(dp4397
g74
(dp4398
sg83
g4392
sg76
(lp4399
g69
(g70
g71
NtRp4400
(dp4401
g74
(dp4402
g82
I3
ssg83
g4396
sg76
(lp4403
g69
(g78
g71
NtRp4404
(dp4405
g74
(dp4406
g82
I2
ssg83
Nsg76
(lp4407
g69
(g85
g71
NtRp4408
(dp4409
g74
(dp4410
sg83
g4404
sg76
(lp4411
g69
(g90
g71
NtRp4412
(dp4413
g74
(dp4414
sg83
g4408
sg76
(lp4415
g69
(g70
g71
NtRp4416
(dp4417
g74
(dp4418
g82
I2
ssg83
g4412
sg76
(lp4419
g69
(g78
g71
NtRp4420
(dp4421
g74
(dp4422
g82
I1
ssg83
Nsg76
(lp4423
g69
(g85
g71
NtRp4424
(dp4425
g74
(dp4426
sg83
g4420
sg76
(lp4427
g69
(g90
g71
NtRp4428
(dp4429
g74
(dp4430
sg83
g4424
sg76
(lp4431
g69
(g70
g71
NtRp4432
(dp4433
g74
(dp4434
g82
I1
ssg83
g4428
sg76
(lp4435
g4290
(S's\x08\x00\x00\x00My Sites'
tRp4436
asbasbasbag69
(g85
g71
NtRp4437
(dp4438
g74
(dp4439
sg83
g4420
sg76
(lp4440
g69
(g90
g71
NtRp4441
(dp4442
g74
(dp4443
sg83
g4437
sg76
(lp4444
g69
(g70
g71
NtRp4445
(dp4446
g74
(dp4447
g82
I1
ssg83
g4441
sg76
(lp4448
I00
asbasbasbag69
(g85
g71
NtRp4449
(dp4450
g74
(dp4451
sg83
g4420
sg76
(lp4452
g69
(g90
g71
NtRp4453
(dp4454
g74
(dp4455
sg83
g4449
sg76
(lp4456
g69
(g70
g71
NtRp4457
(dp4458
g74
(dp4459
g82
I1
ssg83
g4453
sg76
(lp4460
S'/admin/default/site'
p4461
asbasbasbasbasbasbasbag69
(g85
g71
NtRp4462
(dp4463
g74
(dp4464
sg83
g4404
sg76
(lp4465
g69
(g90
g71
NtRp4466
(dp4467
g74
(dp4468
sg83
g4462
sg76
(lp4469
g69
(g70
g71
NtRp4470
(dp4471
g74
(dp4472
g82
I2
ssg83
g4466
sg76
(lp4473
g69
(g78
g71
NtRp4474
(dp4475
g74
(dp4476
g82
I1
ssg83
Nsg76
(lp4477
g69
(g85
g71
NtRp4478
(dp4479
g74
(dp4480
sg83
g4474
sg76
(lp4481
g69
(g90
g71
NtRp4482
(dp4483
g74
(dp4484
sg83
g4478
sg76
(lp4485
g69
(g70
g71
NtRp4486
(dp4487
g74
(dp4488
g82
I1
ssg83
g4482
sg76
(lp4489
g4290
(S's\x08\x00\x00\x00This App'
tRp4490
asbasbasbag69
(g85
g71
NtRp4491
(dp4492
g74
(dp4493
sg83
g4474
sg76
(lp4494
g69
(g90
g71
NtRp4495
(dp4496
g74
(dp4497
sg83
g4491
sg76
(lp4498
g69
(g70
g71
NtRp4499
(dp4500
g74
(dp4501
g82
I1
ssg83
g4495
sg76
(lp4502
I00
asbasbasbag69
(g85
g71
NtRp4503
(dp4504
g74
(dp4505
sg83
g4474
sg76
(lp4506
g69
(g90
g71
NtRp4507
(dp4508
g74
(dp4509
sg83
g4503
sg76
(lp4510
g69
(g70
g71
NtRp4511
(dp4512
g74
(dp4513
g82
I1
ssg83
g4507
sg76
(lp4514
S'/admin/default/design/FunkLoad'
p4515
asbasbasbag69
(g85
g71
NtRp4516
(dp4517
g74
(dp4518
sg83
g4474
sg76
(lp4519
g69
(g90
g71
NtRp4520
(dp4521
g74
(dp4522
sg83
g4516
sg76
(lp4523
g69
(g70
g71
NtRp4524
(dp4525
g74
(dp4526
g82
I1
ssg83
g4520
sg76
(lp4527
(lp4528
(g4290
(S's\n\x00\x00\x00Controller'
tRp4529
I00
S'/admin/default/edit/FunkLoad/controllers/default.py'
tp4530
a(g4290
(S's\x04\x00\x00\x00View'
tRp4531
I00
S'/admin/default/edit/FunkLoad/views/default/index.html'
tp4532
a(g4290
(S's\x06\x00\x00\x00Layout'
tRp4533
I00
S'/admin/default/edit/FunkLoad/views/layout.html'
tp4534
a(g4290
(S's\n\x00\x00\x00Stylesheet'
tRp4535
I00
S'/admin/default/edit/FunkLoad/static/css/web2py.css'
tp4536
a(g4290
(S's\x08\x00\x00\x00DB Model'
tRp4537
I00
S'/admin/default/edit/FunkLoad/models/db.py'
tp4538
a(g4290
(S's\n\x00\x00\x00Menu Model'
tRp4539
I00
S'/admin/default/edit/FunkLoad/models/menu.py'
tp4540
a(g4290
(S's\x08\x00\x00\x00Database'
tRp4541
I00
S'/FunkLoad/appadmin/index'
tp4542
a(g4290
(S's\x06\x00\x00\x00Errors'
tRp4543
I00
S'/admin/default/errors/FunkLoad'
tp4544
a(g4290
(S's\x05\x00\x00\x00About'
tRp4545
I00
S'/admin/default/about/FunkLoad'
tp4546
aasbasbasbasbasbasbasbag69
(g85
g71
NtRp4547
(dp4548
g74
(dp4549
sg83
g4404
sg76
(lp4550
g69
(g90
g71
NtRp4551
(dp4552
g74
(dp4553
sg83
g4547
sg76
(lp4554
g69
(g70
g71
NtRp4555
(dp4556
g74
(dp4557
g82
I2
ssg83
g4551
sg76
(lp4558
g69
(g78
g71
NtRp4559
(dp4560
g74
(dp4561
g82
I1
ssg83
Nsg76
(lp4562
g69
(g85
g71
NtRp4563
(dp4564
g74
(dp4565
sg83
g4559
sg76
(lp4566
g69
(g90
g71
NtRp4567
(dp4568
g74
(dp4569
sg83
g4563
sg76
(lp4570
g69
(g70
g71
NtRp4571
(dp4572
g74
(dp4573
g82
I1
ssg83
g4567
sg76
(lp4574
S'web2py.com'
p4575
asbasbasbag69
(g85
g71
NtRp4576
(dp4577
g74
(dp4578
sg83
g4559
sg76
(lp4579
g69
(g90
g71
NtRp4580
(dp4581
g74
(dp4582
sg83
g4576
sg76
(lp4583
g69
(g70
g71
NtRp4584
(dp4585
g74
(dp4586
g82
I1
ssg83
g4580
sg76
(lp4587
I00
asbasbasbag69
(g85
g71
NtRp4588
(dp4589
g74
(dp4590
sg83
g4559
sg76
(lp4591
g69
(g90
g71
NtRp4592
(dp4593
g74
(dp4594
sg83
g4588
sg76
(lp4595
g69
(g70
g71
NtRp4596
(dp4597
g74
(dp4598
g82
I1
ssg83
g4592
sg76
(lp4599
S'http://www.web2py.com'
p4600
asbasbasbag69
(g85
g71
NtRp4601
(dp4602
g74
(dp4603
sg83
g4559
sg76
(lp4604
g69
(g90
g71
NtRp4605
(dp4606
g74
(dp4607
sg83
g4601
sg76
(lp4608
g69
(g70
g71
NtRp4609
(dp4610
g74
(dp4611
g82
I1
ssg83
g4605
sg76
(lp4612
(lp4613
(g4290
(S's\x08\x00\x00\x00Download'
tRp4614
I00
S'http://www.web2py.com/examples/default/download'
p4615
tp4616
a(g4290
(S's\x07\x00\x00\x00Support'
tRp4617
I00
S'http://www.web2py.com/examples/default/support'
p4618
tp4619
a(g4290
(S's\x04\x00\x00\x00Demo'
tRp4620
I00
S'http://web2py.com/demo_admin'
p4621
tp4622
a(g4290
(S's\x0e\x00\x00\x00Quick Examples'
tRp4623
I00
S'http://web2py.com/examples/default/examples'
p4624
tp4625
a(g4290
(S's\x03\x00\x00\x00FAQ'
tRp4626
I00
S'http://web2py.com/AlterEgo'
p4627
tp4628
a(g4290
(S's\x06\x00\x00\x00Videos'
tRp4629
I00
S'http://www.web2py.com/examples/default/videos/'
p4630
tp4631
a(g4290
(S's\x11\x00\x00\x00Free Applications'
tRp4632
I00
S'http://web2py.com/appliances'
p4633
tp4634
a(g4290
(S's\x07\x00\x00\x00Plugins'
tRp4635
I00
S'http://web2py.com/plugins'
p4636
tp4637
a(g4290
(S's\x07\x00\x00\x00Layouts'
tRp4638
I00
S'http://web2py.com/layouts'
p4639
tp4640
a(g4290
(S's\x07\x00\x00\x00Recipes'
tRp4641
I00
S'http://web2pyslices.com/'
p4642
tp4643
a(g4290
(S's\x08\x00\x00\x00Semantic'
tRp4644
I00
S'http://web2py.com/semantic'
p4645
tp4646
aasbasbasbasbasbasbasbag69
(g85
g71
NtRp4647
(dp4648
g74
(dp4649
sg83
g4404
sg76
(lp4650
g69
(g90
g71
NtRp4651
(dp4652
g74
(dp4653
sg83
g4647
sg76
(lp4654
g69
(g70
g71
NtRp4655
(dp4656
g74
(dp4657
g82
I2
ssg83
g4651
sg76
(lp4658
g69
(g78
g71
NtRp4659
(dp4660
g74
(dp4661
g82
I1
ssg83
Nsg76
(lp4662
g69
(g85
g71
NtRp4663
(dp4664
g74
(dp4665
sg83
g4659
sg76
(lp4666
g69
(g90
g71
NtRp4667
(dp4668
g74
(dp4669
sg83
g4663
sg76
(lp4670
g69
(g70
g71
NtRp4671
(dp4672
g74
(dp4673
g82
I1
ssg83
g4667
sg76
(lp4674
g4290
(S's\r\x00\x00\x00Documentation'
tRp4675
asbasbasbag69
(g85
g71
NtRp4676
(dp4677
g74
(dp4678
sg83
g4659
sg76
(lp4679
g69
(g90
g71
NtRp4680
(dp4681
g74
(dp4682
sg83
g4676
sg76
(lp4683
g69
(g70
g71
NtRp4684
(dp4685
g74
(dp4686
g82
I1
ssg83
g4680
sg76
(lp4687
I00
asbasbasbag69
(g85
g71
NtRp4688
(dp4689
g74
(dp4690
sg83
g4659
sg76
(lp4691
g69
(g90
g71
NtRp4692
(dp4693
g74
(dp4694
sg83
g4688
sg76
(lp4695
g69
(g70
g71
NtRp4696
(dp4697
g74
(dp4698
g82
I1
ssg83
g4692
sg76
(lp4699
S'http://www.web2py.com/book'
p4700
asbasbasbag69
(g85
g71
NtRp4701
(dp4702
g74
(dp4703
sg83
g4659
sg76
(lp4704
g69
(g90
g71
NtRp4705
(dp4706
g74
(dp4707
sg83
g4701
sg76
(lp4708
g69
(g70
g71
NtRp4709
(dp4710
g74
(dp4711
g82
I1
ssg83
g4705
sg76
(lp4712
(lp4713
(g4290
(S's\x07\x00\x00\x00Preface'
tRp4714
I00
S'http://www.web2py.com/book/default/chapter/00'
p4715
tp4716
a(g4290
(S's\x0c\x00\x00\x00Introduction'
tRp4717
I00
S'http://www.web2py.com/book/default/chapter/01'
p4718
tp4719
a(g4290
(S's\x06\x00\x00\x00Python'
tRp4720
I00
S'http://www.web2py.com/book/default/chapter/02'
p4721
tp4722
a(g4290
(S's\x08\x00\x00\x00Overview'
tRp4723
I00
S'http://www.web2py.com/book/default/chapter/03'
p4724
tp4725
a(g4290
(S's\x08\x00\x00\x00The Core'
tRp4726
I00
S'http://www.web2py.com/book/default/chapter/04'
p4727
tp4728
a(g4290
(S's\t\x00\x00\x00The Views'
tRp4729
I00
S'http://www.web2py.com/book/default/chapter/05'
p4730
tp4731
a(g4290
(S's\x08\x00\x00\x00Database'
tRp4732
I00
S'http://www.web2py.com/book/default/chapter/06'
p4733
tp4734
a(g4290
(S's\x14\x00\x00\x00Forms and Validators'
tRp4735
I00
S'http://www.web2py.com/book/default/chapter/07'
p4736
tp4737
a(g4290
(S's\r\x00\x00\x00Email and SMS'
tRp4738
I00
S'http://www.web2py.com/book/default/chapter/08'
p4739
tp4740
a(g4290
(S's\x0e\x00\x00\x00Access Control'
tRp4741
I00
S'http://www.web2py.com/book/default/chapter/09'
p4742
tp4743
a(g4290
(S's\x08\x00\x00\x00Services'
tRp4744
I00
S'http://www.web2py.com/book/default/chapter/10'
p4745
tp4746
a(g4290
(S's\x0c\x00\x00\x00Ajax Recipes'
tRp4747
I00
S'http://www.web2py.com/book/default/chapter/11'
p4748
tp4749
a(g4290
(S's\x16\x00\x00\x00Components and Plugins'
tRp4750
I00
S'http://www.web2py.com/book/default/chapter/12'
p4751
tp4752
a(g4290
(S's\x12\x00\x00\x00Deployment Recipes'
tRp4753
I00
S'http://www.web2py.com/book/default/chapter/13'
p4754
tp4755
a(g4290
(S's\r\x00\x00\x00Other Recipes'
tRp4756
I00
S'http://www.web2py.com/book/default/chapter/14'
p4757
tp4758
a(g4290
(S's\r\x00\x00\x00Buy this book'
tRp4759
I00
S'http://stores.lulu.com/web2py'
p4760
tp4761
aasbasbasbasbasbasbasbag69
(g85
g71
NtRp4762
(dp4763
g74
(dp4764
sg83
g4404
sg76
(lp4765
g69
(g90
g71
NtRp4766
(dp4767
g74
(dp4768
sg83
g4762
sg76
(lp4769
g69
(g70
g71
NtRp4770
(dp4771
g74
(dp4772
g82
I2
ssg83
g4766
sg76
(lp4773
g69
(g78
g71
NtRp4774
(dp4775
g74
(dp4776
g82
I1
ssg83
Nsg76
(lp4777
g69
(g85
g71
NtRp4778
(dp4779
g74
(dp4780
sg83
g4774
sg76
(lp4781
g69
(g90
g71
NtRp4782
(dp4783
g74
(dp4784
sg83
g4778
sg76
(lp4785
g69
(g70
g71
NtRp4786
(dp4787
g74
(dp4788
g82
I1
ssg83
g4782
sg76
(lp4789
g4290
(S's\t\x00\x00\x00Community'
tRp4790
asbasbasbag69
(g85
g71
NtRp4791
(dp4792
g74
(dp4793
sg83
g4774
sg76
(lp4794
g69
(g90
g71
NtRp4795
(dp4796
g74
(dp4797
sg83
g4791
sg76
(lp4798
g69
(g70
g71
NtRp4799
(dp4800
g74
(dp4801
g82
I1
ssg83
g4795
sg76
(lp4802
I00
asbasbasbag69
(g85
g71
NtRp4803
(dp4804
g74
(dp4805
sg83
g4774
sg76
(lp4806
g69
(g90
g71
NtRp4807
(dp4808
g74
(dp4809
sg83
g4803
sg76
(lp4810
g69
(g70
g71
NtRp4811
(dp4812
g74
(dp4813
g82
I1
ssg83
g4807
sg76
(lp4814
Nasbasbasbag69
(g85
g71
NtRp4815
(dp4816
g74
(dp4817
sg83
g4774
sg76
(lp4818
g69
(g90
g71
NtRp4819
(dp4820
g74
(dp4821
sg83
g4815
sg76
(lp4822
g69
(g70
g71
NtRp4823
(dp4824
g74
(dp4825
g82
I1
ssg83
g4819
sg76
(lp4826
(lp4827
(g4290
(S's\x06\x00\x00\x00Groups'
tRp4828
I00
S'http://www.web2py.com/examples/default/usergroups'
p4829
tp4830
a(g4290
(S's\x07\x00\x00\x00Twitter'
tRp4831
I00
S'http://twitter.com/web2py'
p4832
tp4833
a(g4290
(S's\t\x00\x00\x00Live Chat'
tRp4834
I00
S'http://webchat.freenode.net/?channels=web2py'
p4835
tp4836
aasbasbasbasbasbasbasbag69
(g85
g71
NtRp4837
(dp4838
g74
(dp4839
sg83
g4404
sg76
(lp4840
g69
(g90
g71
NtRp4841
(dp4842
g74
(dp4843
sg83
g4837
sg76
(lp4844
g69
(g70
g71
NtRp4845
(dp4846
g74
(dp4847
g82
I2
ssg83
g4841
sg76
(lp4848
g69
(g78
g71
NtRp4849
(dp4850
g74
(dp4851
g82
I1
ssg83
Nsg76
(lp4852
g69
(g85
g71
NtRp4853
(dp4854
g74
(dp4855
sg83
g4849
sg76
(lp4856
g69
(g90
g71
NtRp4857
(dp4858
g74
(dp4859
sg83
g4853
sg76
(lp4860
g69
(g70
g71
NtRp4861
(dp4862
g74
(dp4863
g82
I1
ssg83
g4857
sg76
(lp4864
g4290
(S's\x07\x00\x00\x00Plugins'
tRp4865
asbasbasbag69
(g85
g71
NtRp4866
(dp4867
g74
(dp4868
sg83
g4849
sg76
(lp4869
g69
(g90
g71
NtRp4870
(dp4871
g74
(dp4872
sg83
g4866
sg76
(lp4873
g69
(g70
g71
NtRp4874
(dp4875
g74
(dp4876
g82
I1
ssg83
g4870
sg76
(lp4877
I00
asbasbasbag69
(g85
g71
NtRp4878
(dp4879
g74
(dp4880
sg83
g4849
sg76
(lp4881
g69
(g90
g71
NtRp4882
(dp4883
g74
(dp4884
sg83
g4878
sg76
(lp4885
g69
(g70
g71
NtRp4886
(dp4887
g74
(dp4888
g82
I1
ssg83
g4882
sg76
(lp4889
Nasbasbasbag69
(g85
g71
NtRp4890
(dp4891
g74
(dp4892
sg83
g4849
sg76
(lp4893
g69
(g90
g71
NtRp4894
(dp4895
g74
(dp4896
sg83
g4890
sg76
(lp4897
g69
(g70
g71
NtRp4898
(dp4899
g74
(dp4900
g82
I1
ssg83
g4894
sg76
(lp4901
(lp4902
(S'plugin_wiki'
p4903
I00
S'http://web2py.com/examples/default/download'
p4904
tp4905
a(g4290
(S's\r\x00\x00\x00Other Plugins'
tRp4906
I00
g4636
tp4907
a(g4290
(S's\x0e\x00\x00\x00Layout Plugins'
tRp4908
I00
g4639
tp4909
aasbasbasbasbasbasbasbasbasbasbasbasbasbasbasbasbasbasbasbag69
(g85
g71
NtRp4910
(dp4911
g74
(dp4912
sg83
g3712
sg76
(lp4913
g69
(g90
g71
NtRp4914
(dp4915
g74
(dp4916
g94
g95
ssg83
g4910
sg76
(lp4917
S'meta'
p4918
asbag69
(g90
g71
NtRp4919
(dp4920
g74
(dp4921
g101
g102
ssg83
g4910
sg76
(lp4922
S':'
asbag69
(g90
g71
NtRp4923
(dp4924
g74
(dp4925
sg83
g4910
sg76
(lp4926
g69
(g70
g71
NtRp4927
(dp4928
g74
(dp4929
g82
I5
ssg83
g4923
sg76
(lp4930
g69
(g78
g71
NtRp4931
(dp4932
g74
(dp4933
g82
I4
ssg83
Nsg76
(lp4934
g69
(g85
g71
NtRp4935
(dp4936
g74
(dp4937
sg83
g4931
sg76
(lp4938
g69
(g90
g71
NtRp4939
(dp4940
g74
(dp4941
g94
g95
ssg83
g4935
sg76
(lp4942
S'author'
p4943
asbag69
(g90
g71
NtRp4944
(dp4945
g74
(dp4946
g101
g102
ssg83
g4935
sg76
(lp4947
S':'
asbag69
(g90
g71
NtRp4948
(dp4949
g74
(dp4950
sg83
g4935
sg76
(lp4951
g69
(g70
g71
NtRp4952
(dp4953
g74
(dp4954
g82
I4
ssg83
g4948
sg76
(lp4955
S'Your Name <you@example.com>'
p4956
asbasbasbag69
(g85
g71
NtRp4957
(dp4958
g74
(dp4959
sg83
g4931
sg76
(lp4960
g69
(g90
g71
NtRp4961
(dp4962
g74
(dp4963
g94
g95
ssg83
g4957
sg76
(lp4964
S'description'
p4965
asbag69
(g90
g71
NtRp4966
(dp4967
g74
(dp4968
g101
g102
ssg83
g4957
sg76
(lp4969
S':'
asbag69
(g90
g71
NtRp4970
(dp4971
g74
(dp4972
sg83
g4957
sg76
(lp4973
g69
(g70
g71
NtRp4974
(dp4975
g74
(dp4976
g82
I4
ssg83
g4970
sg76
(lp4977
S'a cool new app'
p4978
asbasbasbag69
(g85
g71
NtRp4979
(dp4980
g74
(dp4981
sg83
g4931
sg76
(lp4982
g69
(g90
g71
NtRp4983
(dp4984
g74
(dp4985
g94
g95
ssg83
g4979
sg76
(lp4986
S'generator'
p4987
asbag69
(g90
g71
NtRp4988
(dp4989
g74
(dp4990
g101
g102
ssg83
g4979
sg76
(lp4991
S':'
asbag69
(g90
g71
NtRp4992
(dp4993
g74
(dp4994
sg83
g4979
sg76
(lp4995
g69
(g70
g71
NtRp4996
(dp4997
g74
(dp4998
g82
I4
ssg83
g4992
sg76
(lp4999
S'Web2py Web Framework'
p5000
asbasbasbag69
(g85
g71
NtRp5001
(dp5002
g74
(dp5003
sg83
g4931
sg76
(lp5004
g69
(g90
g71
NtRp5005
(dp5006
g74
(dp5007
g94
g95
ssg83
g5001
sg76
(lp5008
S'keywords'
p5009
asbag69
(g90
g71
NtRp5010
(dp5011
g74
(dp5012
g101
g102
ssg83
g5001
sg76
(lp5013
S':'
asbag69
(g90
g71
NtRp5014
(dp5015
g74
(dp5016
sg83
g5001
sg76
(lp5017
g69
(g70
g71
NtRp5018
(dp5019
g74
(dp5020
g82
I4
ssg83
g5014
sg76
(lp5021
S'web2py, python, framework'
p5022
asbasbasbasbasbasbasbag69
(g85
g71
NtRp5023
(dp5024
g74
(dp5025
sg83
g3712
sg76
(lp5026
g69
(g90
g71
NtRp5027
(dp5028
g74
(dp5029
g94
g95
ssg83
g5023
sg76
(lp5030
S'models_to_run'
p5031
asbag69
(g90
g71
NtRp5032
(dp5033
g74
(dp5034
g101
g102
ssg83
g5023
sg76
(lp5035
S':'
asbag69
(g90
g71
NtRp5036
(dp5037
g74
(dp5038
sg83
g5023
sg76
(lp5039
g69
(g70
g71
NtRp5040
(dp5041
g74
(dp5042
g82
I5
ssg83
g5036
sg76
(lp5043
g69
(g78
g71
NtRp5044
(dp5045
g74
(dp5046
g82
I4
ssg83
Nsg76
(lp5047
g69
(g85
g71
NtRp5048
(dp5049
g74
(dp5050
sg83
g5044
sg76
(lp5051
g69
(g90
g71
NtRp5052
(dp5053
g74
(dp5054
sg83
g5048
sg76
(lp5055
g69
(g70
g71
NtRp5056
(dp5057
g74
(dp5058
g82
I4
ssg83
g5052
sg76
(lp5059
S'^\\w+\\.py$'
p5060
asbasbasbag69
(g85
g71
NtRp5061
(dp5062
g74
(dp5063
sg83
g5044
sg76
(lp5064
g69
(g90
g71
NtRp5065
(dp5066
g74
(dp5067
sg83
g5061
sg76
(lp5068
g69
(g70
g71
NtRp5069
(dp5070
g74
(dp5071
g82
I4
ssg83
g5065
sg76
(lp5072
S'^default/\\w+\\.py$'
p5073
asbasbasbag69
(g85
g71
NtRp5074
(dp5075
g74
(dp5076
sg83
g5044
sg76
(lp5077
g69
(g90
g71
NtRp5078
(dp5079
g74
(dp5080
sg83
g5074
sg76
(lp5081
g69
(g70
g71
NtRp5082
(dp5083
g74
(dp5084
g82
I4
ssg83
g5078
sg76
(lp5085
S'^default/index/\\w+\\.py$'
p5086
asbasbasbasbasbasbasbag69
(g85
g71
NtRp5087
(dp5088
g74
(dp5089
sg83
g3712
sg76
(lp5090
g69
(g90
g71
NtRp5091
(dp5092
g74
(dp5093
g94
g95
ssg83
g5087
sg76
(lp5094
S'postprocessing'
p5095
asbag69
(g90
g71
NtRp5096
(dp5097
g74
(dp5098
g101
g102
ssg83
g5087
sg76
(lp5099
S':'
asbag69
(g90
g71
NtRp5100
(dp5101
g74
(dp5102
sg83
g5087
sg76
(lp5103
g69
(g70
g71
NtRp5104
(dp5105
g74
(dp5106
g82
I5
ssg83
g5100
sg76
(lp5107
g69
(g78
g71
NtRp5108
(dp5109
g74
(dp5110
g82
I4
ssg83
Nsg76
(lp5111
sbasbasbasbag69
(g85
g71
NtRp5112
(dp5113
g74
(dp5114
sg83
g3712
sg76
(lp5115
g69
(g90
g71
NtRp5116
(dp5117
g74
(dp5118
g94
g95
ssg83
g5112
sg76
(lp5119
S'session_file'
p5120
asbag69
(g90
g71
NtRp5121
(dp5122
g74
(dp5123
g101
g102
ssg83
g5112
sg76
(lp5124
S':'
asbag69
(g90
g71
NtRp5125
(dp5126
g74
(dp5127
sg83
g5112
sg76
(lp5128
g69
(g70
g71
NtRp5129
(dp5130
g74
(dp5131
g82
I5
ssg83
g5125
sg76
(lp5132
S"<open file '/home/mayank/gitrepo/Twitter-Sentiment-Analysis/front-end/web2py/applications/FunkLoad/sessions/127.0.0.1-a98b320f-b070-488d-ad40-6bbec9939460', mode 'rb+' at 0x7fe1d02481e0>"
p5133
asbasbasbag69
(g85
g71
NtRp5134
(dp5135
g74
(dp5136
sg83
g3712
sg76
(lp5137
g69
(g90
g71
NtRp5138
(dp5139
g74
(dp5140
g94
g95
ssg83
g5134
sg76
(lp5141
S'session_filename'
p5142
asbag69
(g90
g71
NtRp5143
(dp5144
g74
(dp5145
g101
g102
ssg83
g5134
sg76
(lp5146
S':'
asbag69
(g90
g71
NtRp5147
(dp5148
g74
(dp5149
sg83
g5134
sg76
(lp5150
g69
(g70
g71
NtRp5151
(dp5152
g74
(dp5153
g82
I5
ssg83
g5147
sg76
(lp5154
S'/home/mayank/gitrepo/Twitter-Sentiment-Analysis/front-end/web2py/applications/FunkLoad/sessions/127.0.0.1-a98b320f-b070-488d-ad40-6bbec9939460'
p5155
asbasbasbag69
(g85
g71
NtRp5156
(dp5157
g74
(dp5158
sg83
g3712
sg76
(lp5159
g69
(g90
g71
NtRp5160
(dp5161
g74
(dp5162
g94
g95
ssg83
g5156
sg76
(lp5163
S'session_id'
p5164
asbag69
(g90
g71
NtRp5165
(dp5166
g74
(dp5167
g101
g102
ssg83
g5156
sg76
(lp5168
S':'
asbag69
(g90
g71
NtRp5169
(dp5170
g74
(dp5171
sg83
g5156
sg76
(lp5172
g69
(g70
g71
NtRp5173
(dp5174
g74
(dp5175
g82
I5
ssg83
g5169
sg76
(lp5176
g487
asbasbasbag69
(g85
g71
NtRp5177
(dp5178
g74
(dp5179
sg83
g3712
sg76
(lp5180
g69
(g90
g71
NtRp5181
(dp5182
g74
(dp5183
g94
g95
ssg83
g5177
sg76
(lp5184
S'session_id_name'
p5185
asbag69
(g90
g71
NtRp5186
(dp5187
g74
(dp5188
g101
g102
ssg83
g5177
sg76
(lp5189
S':'
asbag69
(g90
g71
NtRp5190
(dp5191
g74
(dp5192
sg83
g5177
sg76
(lp5193
g69
(g70
g71
NtRp5194
(dp5195
g74
(dp5196
g82
I5
ssg83
g5190
sg76
(lp5197
g3769
asbasbasbag69
(g85
g71
NtRp5198
(dp5199
g74
(dp5200
sg83
g3712
sg76
(lp5201
g69
(g90
g71
NtRp5202
(dp5203
g74
(dp5204
g94
g95
ssg83
g5198
sg76
(lp5205
S'session_locked'
p5206
asbag69
(g90
g71
NtRp5207
(dp5208
g74
(dp5209
g101
g102
ssg83
g5198
sg76
(lp5210
S':'
asbag69
(g90
g71
NtRp5211
(dp5212
g74
(dp5213
sg83
g5198
sg76
(lp5214
g69
(g70
g71
NtRp5215
(dp5216
g74
(dp5217
g82
I5
ssg83
g5211
sg76
(lp5218
g2249
asbasbasbag69
(g85
g71
NtRp5219
(dp5220
g74
(dp5221
sg83
g3712
sg76
(lp5222
g69
(g90
g71
NtRp5223
(dp5224
g74
(dp5225
g94
g95
ssg83
g5219
sg76
(lp5226
S'session_new'
p5227
asbag69
(g90
g71
NtRp5228
(dp5229
g74
(dp5230
g101
g102
ssg83
g5219
sg76
(lp5231
S':'
asbag69
(g90
g71
NtRp5232
(dp5233
g74
(dp5234
sg83
g5219
sg76
(lp5235
g69
(g70
g71
NtRp5236
(dp5237
g74
(dp5238
g82
I5
ssg83
g5232
sg76
(lp5239
g112
asbasbasbag69
(g85
g71
NtRp5240
(dp5241
g74
(dp5242
sg83
g3712
sg76
(lp5243
g69
(g90
g71
NtRp5244
(dp5245
g74
(dp5246
g94
g95
ssg83
g5240
sg76
(lp5247
S'status'
p5248
asbag69
(g90
g71
NtRp5249
(dp5250
g74
(dp5251
g101
g102
ssg83
g5240
sg76
(lp5252
S':'
asbag69
(g90
g71
NtRp5253
(dp5254
g74
(dp5255
sg83
g5240
sg76
(lp5256
g69
(g70
g71
NtRp5257
(dp5258
g74
(dp5259
g82
I5
ssg83
g5253
sg76
(lp5260
S'200'
p5261
asbasbasbag69
(g85
g71
NtRp5262
(dp5263
g74
(dp5264
sg83
g3712
sg76
(lp5265
g69
(g90
g71
NtRp5266
(dp5267
g74
(dp5268
g94
g95
ssg83
g5262
sg76
(lp5269
S'subtitle'
p5270
asbag69
(g90
g71
NtRp5271
(dp5272
g74
(dp5273
g101
g102
ssg83
g5262
sg76
(lp5274
S':'
asbag69
(g90
g71
NtRp5275
(dp5276
g74
(dp5277
sg83
g5262
sg76
(lp5278
g69
(g70
g71
NtRp5279
(dp5280
g74
(dp5281
g82
I5
ssg83
g5275
sg76
(lp5282
g4290
(S's\r\x00\x00\x00customize me!'
tRp5283
asbasbasbag69
(g85
g71
NtRp5284
(dp5285
g74
(dp5286
sg83
g3712
sg76
(lp5287
g69
(g90
g71
NtRp5288
(dp5289
g74
(dp5290
g94
g95
ssg83
g5284
sg76
(lp5291
S'title'
p5292
asbag69
(g90
g71
NtRp5293
(dp5294
g74
(dp5295
g101
g102
ssg83
g5284
sg76
(lp5296
S':'
asbag69
(g90
g71
NtRp5297
(dp5298
g74
(dp5299
sg83
g5284
sg76
(lp5300
g69
(g70
g71
NtRp5301
(dp5302
g74
(dp5303
g82
I5
ssg83
g5297
sg76
(lp5304
S'Funkload'
p5305
asbasbasbag69
(g85
g71
NtRp5306
(dp5307
g74
(dp5308
sg83
g3712
sg76
(lp5309
g69
(g90
g71
NtRp5310
(dp5311
g74
(dp5312
g94
g95
ssg83
g5306
sg76
(lp5313
S'view'
p5314
asbag69
(g90
g71
NtRp5315
(dp5316
g74
(dp5317
g101
g102
ssg83
g5306
sg76
(lp5318
S':'
asbag69
(g90
g71
NtRp5319
(dp5320
g74
(dp5321
sg83
g5306
sg76
(lp5322
g69
(g70
g71
NtRp5323
(dp5324
g74
(dp5325
g82
I5
ssg83
g5319
sg76
(lp5326
S'default/index.html'
p5327
asbasbasbasbasbsS'locals'
p5328
(dp5329
g4
S"'/home/mayank/gitrepo/Twitter-Sentiment-Analysis/...b2py/applications/FunkLoad/controllers/default.py'"
p5330
sg6
S"'# -*- coding: utf-8 -*-\\n# this file is released ...=crud())\\n\\nresponse._vars=response._caller(index)\\n'"
p5331
sssS'traceback'
p5332
S'Traceback (most recent call last):\n  File "/home/mayank/gitrepo/Twitter-Sentiment-Analysis/front-end/web2py/gluon/restricted.py", line 208, in restricted\n    ccode = compile2(code,layer)\n  File "/home/mayank/gitrepo/Twitter-Sentiment-Analysis/front-end/web2py/gluon/restricted.py", line 193, in compile2\n    return compile(code.rstrip().replace(\'\\r\\n\',\'\\n\')+\'\\n\', layer, \'exec\')\n  File "/home/mayank/gitrepo/Twitter-Sentiment-Analysis/front-end/web2py/applications/FunkLoad/controllers/default.py", line 33\n    if testType=\'Sentence\':\n               ^\nSyntaxError: invalid syntax\n'
p5333
s.