(dp1
S'UserEmail'
p2
(dp3
S'type'
p4
S'string'
p5
sS'sortable'
p6
I4
sS'sql'
p7
S'CHAR(512)'
p8
ssS'DataType'
p9
(dp10
g4
g5
sg6
I2
sg7
S'CHAR(512)'
p11
ssS'ProcessedStatus'
p12
(dp13
g4
g5
sg6
I5
sg7
S'CHAR(512)'
p14
ssS'File'
p15
(dp16
g4
S'upload'
p17
sg6
I6
sg7
S'CHAR(512)'
p18
ssS'TestType'
p19
(dp20
g4
g5
sg6
I3
sg7
S'CHAR(512)'
p21
ssS'id'
p22
(dp23
g4
g22
sg6
I1
sg7
S'INTEGER PRIMARY KEY AUTOINCREMENT'
p24
ss.