(dp1
S'Phrase'
p2
(dp3
S'type'
p4
S'text'
p5
sS'sortable'
p6
I3
sS'sql'
p7
S'TEXT'
p8
ssS'Tweet'
p9
(dp10
g4
g5
sg6
I2
sg7
S'TEXT'
p11
ssS'Token'
p12
(dp13
g4
g5
sg6
I5
sg7
S'TEXT'
p14
ssS'id'
p15
(dp16
g4
g15
sg6
I1
sg7
S'INTEGER PRIMARY KEY AUTOINCREMENT'
p17
ssS'Label'
p18
(dp19
g4
S'string'
p20
sg6
I4
sg7
S'CHAR(512)'
p21
ss.