(dp1
S'UserEmail'
p2
(dp3
S'type'
p4
S'string'
p5
sS'sortable'
p6
I5
sS'sql'
p7
S'CHAR(512)'
p8
ssS'Tweet'
p9
(dp10
g4
S'text'
p11
sg6
I2
sg7
S'TEXT'
p12
ssS'Label'
p13
(dp14
g4
g5
sg6
I4
sg7
S'CHAR(512)'
p15
ssS'Token'
p16
(dp17
g4
g11
sg6
I6
sg7
S'TEXT'
p18
ssS'Phrase'
p19
(dp20
g4
g11
sg6
I3
sg7
S'TEXT'
p21
ssS'id'
p22
(dp23
g4
g22
sg6
I1
sg7
S'INTEGER PRIMARY KEY AUTOINCREMENT'
p24
ss.